-Wl,--defsym=__gcov_error_file=so_stub_for_libtelux_satcom
-Wl,--defsym=__gcov_kvp_dynamic_pool=so_stub_for_libtelux_satcom
-Wl,--defsym=__gcov_kvp_dynamic_pool_index=so_stub_for_libtelux_satcom
-Wl,--defsym=__gcov_kvp_dynamic_pool_size=so_stub_for_libtelux_satcom
-Wl,--defsym=__gcov_master=so_stub_for_libtelux_satcom
-Wl,--defsym=__gcov_var=so_stub_for_libtelux_satcom
-Wl,--defsym=mangle_path=so_stub_for_libtelux_satcom
-Wl,--defsym=_ZN5telux6common13FactoryHelper10getManagerINS_6satcom11INtnManagerEEESt10shared_ptrIT_ENSt7__cxx1112basic_stringIcSt11char_traitsIcESaIcEEERSt8weak_ptrIS6_ERSt6vectorISt8functionIFvNS0_13ServiceStatusEEESaISL_EESL_SI_IFS7_SL_EE=so_stub_for_libtelux_satcom
-Wl,--defsym=_ZN5telux6common13FactoryHelper20initCompleteNotifierENSt7__cxx1112basic_stringIcSt11char_traitsIcESaIcEEERSt6vectorISt8functionIFvNS0_13ServiceStatusEEESaISC_EESA_=so_stub_for_libtelux_satcom
-Wl,--defsym=_ZN5telux6common14AsyncTaskQueueIvE14purgeCompletedEv=so_stub_for_libtelux_satcom
-Wl,--defsym=_ZN5telux6common14AsyncTaskQueueIvE8shutdownEb=so_stub_for_libtelux_satcom
-Wl,--defsym=_ZN5telux6common14AsyncTaskQueueIvEC1Ev=so_stub_for_libtelux_satcom
-Wl,--defsym=_ZN5telux6common14AsyncTaskQueueIvEC2Ev=so_stub_for_libtelux_satcom
-Wl,--defsym=_ZN5telux6common14AsyncTaskQueueIvED1Ev=so_stub_for_libtelux_satcom
-Wl,--defsym=_ZN5telux6common14AsyncTaskQueueIvED2Ev=so_stub_for_libtelux_satcom
-Wl,--defsym=_ZN5telux6common15ListenerManager16registerListenerESt8weak_ptrINS0_12ISDKListenerEE=so_stub_for_libtelux_satcom
-Wl,--defsym=_ZN5telux6common15ListenerManager18deRegisterListenerESt8weak_ptrINS0_12ISDKListenerEE=so_stub_for_libtelux_satcom
-Wl,--defsym=_ZN5telux6common15ListenerManager21getAvailableListenersERSt6vectorISt8weak_ptrINS0_12ISDKListenerEESaIS5_EE=so_stub_for_libtelux_satcom
-Wl,--defsym=_ZN5telux6common15ListenerManager5purgeEv=so_stub_for_libtelux_satcom
-Wl,--defsym=_ZN5telux6common15ListenerManager7cleanupEv=so_stub_for_libtelux_satcom
-Wl,--defsym=_ZN5telux6common15ListenerManagerC1Ev=so_stub_for_libtelux_satcom
-Wl,--defsym=_ZN5telux6common15ListenerManagerC2Ev=so_stub_for_libtelux_satcom
-Wl,--defsym=_ZN5telux6common15ListenerManagerD1Ev=so_stub_for_libtelux_satcom
-Wl,--defsym=_ZN5telux6common15ListenerManagerD2Ev=so_stub_for_libtelux_satcom
-Wl,--defsym=_ZN5telux6common3Log10logMessageIJNSt7__cxx1112basic_stringIcSt11char_traitsIcESaIcEEEPKcmSA_PNS_6satcom11INtnManagerESA_iEEEvNS0_8LogLevelERKS8_SG_RKiDpT_=so_stub_for_libtelux_satcom
-Wl,--defsym=_ZN5telux6common3Log10logMessageIJNSt7__cxx1112basic_stringIcSt11char_traitsIcESaIcEEEPKcPNS_6satcom11INtnManagerEEEEvNS0_8LogLevelERKS8_SG_RKiDpT_=so_stub_for_libtelux_satcom
-Wl,--defsym=_ZN5telux6common3Log10logMessageIJNSt7__cxx1112basic_stringIcSt11char_traitsIcESaIcEEEPKcPNS_6satcom11INtnManagerESA_EEEvNS0_8LogLevelERKS8_SG_RKiDpT_=so_stub_for_libtelux_satcom
-Wl,--defsym=_ZN5telux6common3Log10logMessageIJNSt7__cxx1112basic_stringIcSt11char_traitsIcESaIcEEEPKcPNS_6satcom11INtnManagerESA_iEEEvNS0_8LogLevelERKS8_SG_RKiDpT_=so_stub_for_libtelux_satcom
-Wl,--defsym=_ZN5telux6common3Log10logMessageIJPKcbEEEvNS0_8LogLevelERKNSt7__cxx1112basic_stringIcSt11char_traitsIcESaIcEEESD_RKiDpT_=so_stub_for_libtelux_satcom
-Wl,--defsym=_ZN5telux6common3Log10logMessageIJPKcEEEvNS0_8LogLevelERKNSt7__cxx1112basic_stringIcSt11char_traitsIcESaIcEEESD_RKiDpT_=so_stub_for_libtelux_satcom
-Wl,--defsym=_ZN5telux6common3Log10logMessageIJPKcmEEEvNS0_8LogLevelERKNSt7__cxx1112basic_stringIcSt11char_traitsIcESaIcEEESD_RKiDpT_=so_stub_for_libtelux_satcom
-Wl,--defsym=_ZN5telux6common3Log10logMessageIJPKcNSt7__cxx1112basic_stringIcSt11char_traitsIcESaIcEEES4_PNS_6satcom11INtnManagerEEEEvNS0_8LogLevelERKSA_SG_RKiDpT_=so_stub_for_libtelux_satcom
-Wl,--defsym=_ZN5telux6common3Log10logMessageIJPKcS4_bEEEvNS0_8LogLevelERKNSt7__cxx1112basic_stringIcSt11char_traitsIcESaIcEEESD_RKiDpT_=so_stub_for_libtelux_satcom
-Wl,--defsym=_ZN5telux6common3Log10logMessageIJPKcS4_EEEvNS0_8LogLevelERKNSt7__cxx1112basic_stringIcSt11char_traitsIcESaIcEEESD_RKiDpT_=so_stub_for_libtelux_satcom
-Wl,--defsym=_ZN5telux6common3Log10logMessageIJPKcS4_iEEEvNS0_8LogLevelERKNSt7__cxx1112basic_stringIcSt11char_traitsIcESaIcEEESD_RKiDpT_=so_stub_for_libtelux_satcom
-Wl,--defsym=_ZN5telux6common3Log10logMessageIJPKcS4_mEEEvNS0_8LogLevelERKNSt7__cxx1112basic_stringIcSt11char_traitsIcESaIcEEESD_RKiDpT_=so_stub_for_libtelux_satcom
-Wl,--defsym=_ZN5telux6common3Log10logMessageIJPKcS4_NSt7__cxx1112basic_stringIcSt11char_traitsIcESaIcEEES4_iS4_PSt6vectorISt8functionIFvNS0_13ServiceStatusEEESaISF_EEEEEvNS0_8LogLevelERKSA_SL_RKiDpT_=so_stub_for_libtelux_satcom
-Wl,--defsym=_ZN5telux6common3Log10logMessageIJPKcS4_NSt7__cxx1112basic_stringIcSt11char_traitsIcESaIcEEES4_PNS_6satcom11INtnManagerEEEEvNS0_8LogLevelERKSA_SG_RKiDpT_=so_stub_for_libtelux_satcom
-Wl,--defsym=_ZN5telux6common3Log10logMessageIJPKcS4_NSt7__cxx1112basic_stringIcSt11char_traitsIcESaIcEEES4_S4_EEEvNS0_8LogLevelERKSA_SD_RKiDpT_=so_stub_for_libtelux_satcom
-Wl,--defsym=_ZN5telux6common3Log10logMessageIJPKcS4_NSt7__cxx1112basic_stringIcSt11char_traitsIcESaIcEEES4_SA_EEEvNS0_8LogLevelERKSA_SD_RKiDpT_=so_stub_for_libtelux_satcom
-Wl,--defsym=_ZN5telux6common3Log10logMessageIJPKcS4_PSt8functionIFvNS0_13ServiceStatusEEEEEEvNS0_8LogLevelERKNSt7__cxx1112basic_stringIcSt11char_traitsIcESaIcEEESI_RKiDpT_=so_stub_for_libtelux_satcom
-Wl,--defsym=_ZN5telux6common3Log10logMessageIJPKcS4_S4_EEEvNS0_8LogLevelERKNSt7__cxx1112basic_stringIcSt11char_traitsIcESaIcEEESD_RKiDpT_=so_stub_for_libtelux_satcom
-Wl,--defsym=_ZN5telux6common3Log16constructMessageINSt7__cxx1119basic_ostringstreamIcSt11char_traitsIcESaIcEEENS3_12basic_stringIcS6_S7_EEJPKciSC_PSt6vectorISt8functionIFvNS0_13ServiceStatusEEESaISH_EEEEEvRT_T0_DpT1_=so_stub_for_libtelux_satcom
-Wl,--defsym=_ZN5telux6common3Log16constructMessageINSt7__cxx1119basic_ostringstreamIcSt11char_traitsIcESaIcEEENS3_12basic_stringIcS6_S7_EEJPKcmSC_PNS_6satcom11INtnManagerESC_iEEEvRT_T0_DpT1_=so_stub_for_libtelux_satcom
-Wl,--defsym=_ZN5telux6common3Log16constructMessageINSt7__cxx1119basic_ostringstreamIcSt11char_traitsIcESaIcEEENS3_12basic_stringIcS6_S7_EEJPKcSA_EEEvRT_T0_DpT1_=so_stub_for_libtelux_satcom
-Wl,--defsym=_ZN5telux6common3Log16constructMessageINSt7__cxx1119basic_ostringstreamIcSt11char_traitsIcESaIcEEEPKcJNS3_12basic_stringIcS6_S7_EEEEEvRT_T0_DpT1_=so_stub_for_libtelux_satcom
-Wl,--defsym=_ZN5telux6common3Log16constructMessageINSt7__cxx1119basic_ostringstreamIcSt11char_traitsIcESaIcEEEPKcJNS3_12basic_stringIcS6_S7_EESA_iSA_PSt6vectorISt8functionIFvNS0_13ServiceStatusEEESaISH_EEEEEvRT_T0_DpT1_=so_stub_for_libtelux_satcom
-Wl,--defsym=_ZN5telux6common3Log16constructMessageINSt7__cxx1119basic_ostringstreamIcSt11char_traitsIcESaIcEEEPKcJNS3_12basic_stringIcS6_S7_EESA_PNS_6satcom11INtnManagerEEEEvRT_T0_DpT1_=so_stub_for_libtelux_satcom
-Wl,--defsym=_ZN5telux6common3Log16constructMessageINSt7__cxx1119basic_ostringstreamIcSt11char_traitsIcESaIcEEEPKcJNS3_12basic_stringIcS6_S7_EESA_SA_EEEvRT_T0_DpT1_=so_stub_for_libtelux_satcom
-Wl,--defsym=_ZN5telux6common3Log16constructMessageINSt7__cxx1119basic_ostringstreamIcSt11char_traitsIcESaIcEEEPKcJNS3_12basic_stringIcS6_S7_EESA_SC_EEEvRT_T0_DpT1_=so_stub_for_libtelux_satcom
-Wl,--defsym=_ZN5telux6common3Log16constructMessageINSt7__cxx1119basic_ostringstreamIcSt11char_traitsIcESaIcEEEPKcJSA_NS3_12basic_stringIcS6_S7_EESA_iSA_PSt6vectorISt8functionIFvNS0_13ServiceStatusEEESaISH_EEEEEvRT_T0_DpT1_=so_stub_for_libtelux_satcom
-Wl,--defsym=_ZN5telux6common3Log16constructMessageINSt7__cxx1119basic_ostringstreamIcSt11char_traitsIcESaIcEEEPKcJSA_NS3_12basic_stringIcS6_S7_EESA_PNS_6satcom11INtnManagerEEEEvRT_T0_DpT1_=so_stub_for_libtelux_satcom
-Wl,--defsym=_ZN5telux6common3Log16constructMessageINSt7__cxx1119basic_ostringstreamIcSt11char_traitsIcESaIcEEEPKcJSA_NS3_12basic_stringIcS6_S7_EESA_SA_EEEvRT_T0_DpT1_=so_stub_for_libtelux_satcom
-Wl,--defsym=_ZN5telux6common3Log16constructMessageINSt7__cxx1119basic_ostringstreamIcSt11char_traitsIcESaIcEEEPKcJSA_NS3_12basic_stringIcS6_S7_EESA_SC_EEEvRT_T0_DpT1_=so_stub_for_libtelux_satcom
-Wl,--defsym=_ZN5telux6satcom13SatcomFactory11getInstanceEv=so_stub_for_libtelux_satcom
-Wl,--defsym=_ZN5telux6satcom13SatcomFactoryC1Ev=so_stub_for_libtelux_satcom
-Wl,--defsym=_ZN5telux6satcom13SatcomFactoryC2Ev=so_stub_for_libtelux_satcom
-Wl,--defsym=_ZN5telux6satcom13SatcomFactoryD0Ev=so_stub_for_libtelux_satcom
-Wl,--defsym=_ZN5telux6satcom13SatcomFactoryD1Ev=so_stub_for_libtelux_satcom
-Wl,--defsym=_ZN5telux6satcom13SatcomFactoryD2Ev=so_stub_for_libtelux_satcom
-Wl,--defsym=_ZN5telux6satcom14NtnManagerImpl11getNtnStateEv=so_stub_for_libtelux_satcom
-Wl,--defsym=_ZN5telux6satcom14NtnManagerImpl14isNtnSupportedERb=so_stub_for_libtelux_satcom
-Wl,--defsym=_ZN5telux6satcom14NtnManagerImpl14onIncomingDataESt10unique_ptrIA_hSt14default_deleteIS3_EEj=so_stub_for_libtelux_satcom
-Wl,--defsym=_ZN5telux6satcom14NtnManagerImpl16getServiceStatusEv=so_stub_for_libtelux_satcom
-Wl,--defsym=_ZN5telux6satcom14NtnManagerImpl16isSubsystemReadyEv=so_stub_for_libtelux_satcom
-Wl,--defsym=_ZN5telux6satcom14NtnManagerImpl16onNtnStateChangeENS0_8NtnStateE=so_stub_for_libtelux_satcom
-Wl,--defsym=_ZN5telux6satcom14NtnManagerImpl16registerListenerESt8weak_ptrINS0_12INtnListenerEE=so_stub_for_libtelux_satcom
-Wl,--defsym=_ZN5telux6satcom14NtnManagerImpl17getSignalStrengthERNS0_14SignalStrengthE=so_stub_for_libtelux_satcom
-Wl,--defsym=_ZN5telux6satcom14NtnManagerImpl18deregisterListenerESt8weak_ptrINS0_12INtnListenerEE=so_stub_for_libtelux_satcom
-Wl,--defsym=_ZN5telux6satcom14NtnManagerImpl18enableCellularScanEb=so_stub_for_libtelux_satcom
-Wl,--defsym=_ZN5telux6satcom14NtnManagerImpl18getNtnCapabilitiesERNS0_15NtnCapabilitiesE=so_stub_for_libtelux_satcom
-Wl,--defsym=_ZN5telux6satcom14NtnManagerImpl20onCapabilitiesChangeENS0_15NtnCapabilitiesE=so_stub_for_libtelux_satcom
-Wl,--defsym=_ZN5telux6satcom14NtnManagerImpl22onSignalStrengthChangeENS0_14SignalStrengthE=so_stub_for_libtelux_satcom
-Wl,--defsym=_ZN5telux6satcom14NtnManagerImpl24onQmsServiceStatusChangeENS_6common13ServiceStatusE=so_stub_for_libtelux_satcom
-Wl,--defsym=_ZN5telux6satcom14NtnManagerImpl27onCellularCoverageAvailableEb=so_stub_for_libtelux_satcom
-Wl,--defsym=_ZN5telux6satcom14NtnManagerImpl31updateSystemSelectionSpecifiersERSt6vectorINS0_24SystemSelectionSpecifierESaIS3_EE=so_stub_for_libtelux_satcom
-Wl,--defsym=_ZN5telux6satcom14NtnManagerImpl4initESt8weak_ptrINS_6common14AsyncTaskQueueIvEEESt8functionIFvNS3_13ServiceStatusEEE=so_stub_for_libtelux_satcom
-Wl,--defsym=_ZN5telux6satcom14NtnManagerImpl7cleanupEv=so_stub_for_libtelux_satcom
-Wl,--defsym=_ZN5telux6satcom14NtnManagerImpl8sendDataEPhjbRm=so_stub_for_libtelux_satcom
-Wl,--defsym=_ZN5telux6satcom14NtnManagerImpl9abortDataEv=so_stub_for_libtelux_satcom
-Wl,--defsym=_ZN5telux6satcom14NtnManagerImpl9enableNtnEbbRKNSt7__cxx1112basic_stringIcSt11char_traitsIcESaIcEEE=so_stub_for_libtelux_satcom
-Wl,--defsym=_ZN5telux6satcom14NtnManagerImpl9onDataAckENS_6common9ErrorCodeEm=so_stub_for_libtelux_satcom
-Wl,--defsym=_ZN5telux6satcom14NtnManagerImplC1ESt10shared_ptrINS_3qms12QmsNtnClientEE=so_stub_for_libtelux_satcom
-Wl,--defsym=_ZN5telux6satcom14NtnManagerImplC2ESt10shared_ptrINS_3qms12QmsNtnClientEE=so_stub_for_libtelux_satcom
-Wl,--defsym=_ZN5telux6satcom14NtnManagerImplD0Ev=so_stub_for_libtelux_satcom
-Wl,--defsym=_ZN5telux6satcom14NtnManagerImplD1Ev=so_stub_for_libtelux_satcom
-Wl,--defsym=_ZN5telux6satcom14NtnManagerImplD2Ev=so_stub_for_libtelux_satcom
-Wl,--defsym=_ZN5telux6satcom16NtnPowerListener16onSysPowerChangeENS_3qmi8PwrStateE=so_stub_for_libtelux_satcom
-Wl,--defsym=_ZN5telux6satcom16NtnPowerListenerC1ESt8weak_ptrINS_3qms12QmsNtnClientEERSt6bitsetILm32EE=so_stub_for_libtelux_satcom
-Wl,--defsym=_ZN5telux6satcom16NtnPowerListenerC2ESt8weak_ptrINS_3qms12QmsNtnClientEERSt6bitsetILm32EE=so_stub_for_libtelux_satcom
-Wl,--defsym=_ZN5telux6satcom16NtnPowerListenerD0Ev=so_stub_for_libtelux_satcom
-Wl,--defsym=_ZN5telux6satcom16NtnPowerListenerD1Ev=so_stub_for_libtelux_satcom
-Wl,--defsym=_ZN5telux6satcom16NtnPowerListenerD2Ev=so_stub_for_libtelux_satcom
-Wl,--defsym=_ZN5telux6satcom17SatcomFactoryImpl11getInstanceEv=so_stub_for_libtelux_satcom
-Wl,--defsym=_ZN5telux6satcom17SatcomFactoryImpl13getNtnManagerESt8functionIFvNS_6common13ServiceStatusEEE=so_stub_for_libtelux_satcom
-Wl,--defsym=_ZN5telux6satcom17SatcomFactoryImplC1Ev=so_stub_for_libtelux_satcom
-Wl,--defsym=_ZN5telux6satcom17SatcomFactoryImplC2Ev=so_stub_for_libtelux_satcom
-Wl,--defsym=_ZN5telux6satcom17SatcomFactoryImplD0Ev=so_stub_for_libtelux_satcom
-Wl,--defsym=_ZN5telux6satcom17SatcomFactoryImplD1Ev=so_stub_for_libtelux_satcom
-Wl,--defsym=_ZN5telux6satcom17SatcomFactoryImplD2Ev=so_stub_for_libtelux_satcom
-Wl,--defsym=_ZN9__gnu_cxx13new_allocatorIN5telux6satcom14NtnManagerImplEE9constructIS3_JRSt10shared_ptrINS1_3qms12QmsNtnClientEEEEEvPT_DpOT0_=so_stub_for_libtelux_satcom
-Wl,--defsym=_ZN9__gnu_cxx13new_allocatorIN5telux6satcom16NtnPowerListenerEE9constructIS3_JRSt10shared_ptrINS1_3qms12QmsNtnClientEERSt6bitsetILm32EEEEEvPT_DpOT0_=so_stub_for_libtelux_satcom
-Wl,--defsym=_ZN9__gnu_cxx5__ops10_Iter_predIZN5telux6common15ListenerManager16registerListenerESt8weak_ptrINS3_12ISDKListenerEEEUlS7_E_EclINS_17__normal_iteratorIPS7_St6vectorIS7_SaIS7_EEEEEEbT_=so_stub_for_libtelux_satcom
-Wl,--defsym=_ZNSt10shared_ptrIN5telux6common14AsyncTaskQueueIvEEEC1ISaIS3_EJEEESt20_Sp_alloc_shared_tagIT_EDpOT0_=so_stub_for_libtelux_satcom
-Wl,--defsym=_ZNSt10shared_ptrIN5telux6common14AsyncTaskQueueIvEEEC2ISaIS3_EJEEESt20_Sp_alloc_shared_tagIT_EDpOT0_=so_stub_for_libtelux_satcom
-Wl,--defsym=_ZNSt10shared_ptrIN5telux6common15ListenerManagerEEC1ISaIS2_EJEEESt20_Sp_alloc_shared_tagIT_EDpOT0_=so_stub_for_libtelux_satcom
-Wl,--defsym=_ZNSt10shared_ptrIN5telux6common15ListenerManagerEEC2ISaIS2_EJEEESt20_Sp_alloc_shared_tagIT_EDpOT0_=so_stub_for_libtelux_satcom
-Wl,--defsym=_ZNSt10__weak_ptrIN5telux6common12ISDKListenerELN9__gnu_cxx12_Lock_policyE2EEC1INS0_6satcom12INtnListenerEvEERKS_IT_LS4_2EE=so_stub_for_libtelux_satcom
-Wl,--defsym=_ZNSt10__weak_ptrIN5telux6common12ISDKListenerELN9__gnu_cxx12_Lock_policyE2EEC2INS0_6satcom12INtnListenerEvEERKS_IT_LS4_2EE=so_stub_for_libtelux_satcom
-Wl,--defsym=_ZNSt11__copy_moveILb0ELb0ESt26random_access_iterator_tagE8__copy_mIPSt13shared_futureIvES5_EET0_T_S7_S6_=so_stub_for_libtelux_satcom
-Wl,--defsym=_ZNSt11_Deque_baseISt13shared_futureIvESaIS1_EE15_M_create_nodesEPPS1_S5_=so_stub_for_libtelux_satcom
-Wl,--defsym=_ZNSt11_Deque_baseISt13shared_futureIvESaIS1_EE16_M_destroy_nodesEPPS1_S5_=so_stub_for_libtelux_satcom
-Wl,--defsym=_ZNSt11_Deque_baseISt13shared_futureIvESaIS1_EE17_M_initialize_mapEm=so_stub_for_libtelux_satcom
-Wl,--defsym=_ZNSt12__shared_ptrIN5telux6satcom11INtnManagerELN9__gnu_cxx12_Lock_policyE2EEC1ERKSt10__weak_ptrIS2_LS4_2EESt9nothrow_t=so_stub_for_libtelux_satcom
-Wl,--defsym=_ZNSt12__shared_ptrIN5telux6satcom11INtnManagerELN9__gnu_cxx12_Lock_policyE2EEC2ERKSt10__weak_ptrIS2_LS4_2EESt9nothrow_t=so_stub_for_libtelux_satcom
-Wl,--defsym=_ZNSt12__shared_ptrIN5telux6satcom14NtnManagerImplELN9__gnu_cxx12_Lock_policyE2EEC1ISaIS2_EJRSt10shared_ptrINS0_3qms12QmsNtnClientEEEEESt20_Sp_alloc_shared_tagIT_EDpOT0_=so_stub_for_libtelux_satcom
-Wl,--defsym=_ZNSt12__shared_ptrIN5telux6satcom14NtnManagerImplELN9__gnu_cxx12_Lock_policyE2EEC2ISaIS2_EJRSt10shared_ptrINS0_3qms12QmsNtnClientEEEEESt20_Sp_alloc_shared_tagIT_EDpOT0_=so_stub_for_libtelux_satcom
-Wl,--defsym=_ZNSt12__weak_countILN9__gnu_cxx12_Lock_policyE2EEaSERKSt14__shared_countILS1_2EE=so_stub_for_libtelux_satcom
-Wl,--defsym=_ZNSt13__future_base13_State_baseV210wait_untilINSt6chrono3_V212system_clockENS2_8durationIlSt5ratioILl1ELl1000000000EEEEEESt13future_statusRKNS2_10time_pointIT_T0_EE=so_stub_for_libtelux_satcom
-Wl,--defsym=_ZNSt14_Function_base13_Base_managerIZN5telux6common13FactoryHelper10getManagerINS1_6satcom11INtnManagerEEESt10shared_ptrIT_ENSt7__cxx1112basic_stringIcSt11char_traitsIcESaIcEEERSt8weak_ptrIS8_ERSt6vectorISt8functionIFvNS2_13ServiceStatusEEESaISN_EESN_SK_IFS9_SN_EEEUlSL_E0_E10_M_managerERSt9_Any_dataRKSV_St18_Manager_operation=so_stub_for_libtelux_satcom
-Wl,--defsym=_ZNSt14_Function_baseD1Ev=so_stub_for_libtelux_satcom
-Wl,--defsym=_ZNSt14_Function_baseD2Ev=so_stub_for_libtelux_satcom
-Wl,--defsym=_ZNSt14__shared_countILN9__gnu_cxx12_Lock_policyE2EEC1ERKSt12__weak_countILS1_2EE=so_stub_for_libtelux_satcom
-Wl,--defsym=_ZNSt14__shared_countILN9__gnu_cxx12_Lock_policyE2EEC1ERKSt12__weak_countILS1_2EESt9nothrow_t=so_stub_for_libtelux_satcom
-Wl,--defsym=_ZNSt14__shared_countILN9__gnu_cxx12_Lock_policyE2EEC1IN5telux6satcom14NtnManagerImplESaIS6_EJRSt10shared_ptrINS4_3qms12QmsNtnClientEEEEERPT_St20_Sp_alloc_shared_tagIT0_EDpOT1_=so_stub_for_libtelux_satcom
-Wl,--defsym=_ZNSt14__shared_countILN9__gnu_cxx12_Lock_policyE2EEC1IN5telux6satcom16NtnPowerListenerESaIS6_EJRSt10shared_ptrINS4_3qms12QmsNtnClientEERSt6bitsetILm32EEEEERPT_St20_Sp_alloc_shared_tagIT0_EDpOT1_=so_stub_for_libtelux_satcom
-Wl,--defsym=_ZNSt14__shared_countILN9__gnu_cxx12_Lock_policyE2EEC2ERKSt12__weak_countILS1_2EE=so_stub_for_libtelux_satcom
-Wl,--defsym=_ZNSt14__shared_countILN9__gnu_cxx12_Lock_policyE2EEC2ERKSt12__weak_countILS1_2EESt9nothrow_t=so_stub_for_libtelux_satcom
-Wl,--defsym=_ZNSt14__shared_countILN9__gnu_cxx12_Lock_policyE2EEC2IN5telux6satcom14NtnManagerImplESaIS6_EJRSt10shared_ptrINS4_3qms12QmsNtnClientEEEEERPT_St20_Sp_alloc_shared_tagIT0_EDpOT1_=so_stub_for_libtelux_satcom
-Wl,--defsym=_ZNSt14__shared_countILN9__gnu_cxx12_Lock_policyE2EEC2IN5telux6satcom16NtnPowerListenerESaIS6_EJRSt10shared_ptrINS4_3qms12QmsNtnClientEERSt6bitsetILm32EEEEERPT_St20_Sp_alloc_shared_tagIT0_EDpOT1_=so_stub_for_libtelux_satcom
-Wl,--defsym=_ZNSt15_Deque_iteratorISt13shared_futureIvERKS1_PS2_EpLEl=so_stub_for_libtelux_satcom
-Wl,--defsym=_ZNSt15_Deque_iteratorISt13shared_futureIvERS1_PS1_EpLEl=so_stub_for_libtelux_satcom
-Wl,--defsym=_ZNSt16_Sp_counted_baseILN9__gnu_cxx12_Lock_policyE2EE10_M_releaseEv=so_stub_for_libtelux_satcom
-Wl,--defsym=_ZNSt16_Sp_counted_baseILN9__gnu_cxx12_Lock_policyE2EE15_M_weak_releaseEv=so_stub_for_libtelux_satcom
-Wl,--defsym=_ZNSt17_Function_handlerIFvN5telux6common13ServiceStatusEEZNS1_13FactoryHelper10getManagerINS0_6satcom11INtnManagerEEESt10shared_ptrIT_ENSt7__cxx1112basic_stringIcSt11char_traitsIcESaIcEEERSt8weak_ptrIS9_ERSt6vectorISt8functionIS3_ESaISM_EESM_SL_IFSA_SM_EEEUlS2_E0_E10_M_managerERSt9_Any_dataRKSU_St18_Manager_operation=so_stub_for_libtelux_satcom
-Wl,--defsym=_ZNSt17_Function_handlerIFvN5telux6common13ServiceStatusEEZNS1_13FactoryHelper10getManagerINS0_6satcom11INtnManagerEEESt10shared_ptrIT_ENSt7__cxx1112basic_stringIcSt11char_traitsIcESaIcEEERSt8weak_ptrIS9_ERSt6vectorISt8functionIS3_ESaISM_EESM_SL_IFSA_SM_EEEUlS2_E0_E9_M_invokeERKSt9_Any_dataOS2_=so_stub_for_libtelux_satcom
-Wl,--defsym=_ZNSt20__uninitialized_copyILb0EE13__uninit_copyIN9__gnu_cxx17__normal_iteratorIPKSt8functionIFvN5telux6common13ServiceStatusEEESt6vectorIS9_SaIS9_EEEEPS9_EET0_T_SI_SH_=so_stub_for_libtelux_satcom
-Wl,--defsym=_ZNSt20__uninitialized_copyILb0EE13__uninit_copyIPSt8functionIFvN5telux6common13ServiceStatusEEES8_EET0_T_SA_S9_=so_stub_for_libtelux_satcom
-Wl,--defsym=_ZNSt20__uninitialized_copyILb0EE13__uninit_copyISt15_Deque_iteratorISt13shared_futureIvERKS4_PS5_ES2_IS4_RS4_PS4_EEET0_T_SD_SC_=so_stub_for_libtelux_satcom
-Wl,--defsym=_ZNSt23_Sp_counted_ptr_inplaceIN5telux6common14AsyncTaskQueueIvEESaIS3_ELN9__gnu_cxx12_Lock_policyE2EE10_M_destroyEv=so_stub_for_libtelux_satcom
-Wl,--defsym=_ZNSt23_Sp_counted_ptr_inplaceIN5telux6common14AsyncTaskQueueIvEESaIS3_ELN9__gnu_cxx12_Lock_policyE2EE10_M_disposeEv=so_stub_for_libtelux_satcom
-Wl,--defsym=_ZNSt23_Sp_counted_ptr_inplaceIN5telux6common14AsyncTaskQueueIvEESaIS3_ELN9__gnu_cxx12_Lock_policyE2EE14_M_get_deleterERKSt9type_info=so_stub_for_libtelux_satcom
-Wl,--defsym=_ZNSt23_Sp_counted_ptr_inplaceIN5telux6common14AsyncTaskQueueIvEESaIS3_ELN9__gnu_cxx12_Lock_policyE2EED0Ev=so_stub_for_libtelux_satcom
-Wl,--defsym=_ZNSt23_Sp_counted_ptr_inplaceIN5telux6common14AsyncTaskQueueIvEESaIS3_ELN9__gnu_cxx12_Lock_policyE2EED1Ev=so_stub_for_libtelux_satcom
-Wl,--defsym=_ZNSt23_Sp_counted_ptr_inplaceIN5telux6common14AsyncTaskQueueIvEESaIS3_ELN9__gnu_cxx12_Lock_policyE2EED2Ev=so_stub_for_libtelux_satcom
-Wl,--defsym=_ZNSt23_Sp_counted_ptr_inplaceIN5telux6common15ListenerManagerESaIS2_ELN9__gnu_cxx12_Lock_policyE2EE10_M_destroyEv=so_stub_for_libtelux_satcom
-Wl,--defsym=_ZNSt23_Sp_counted_ptr_inplaceIN5telux6common15ListenerManagerESaIS2_ELN9__gnu_cxx12_Lock_policyE2EE10_M_disposeEv=so_stub_for_libtelux_satcom
-Wl,--defsym=_ZNSt23_Sp_counted_ptr_inplaceIN5telux6common15ListenerManagerESaIS2_ELN9__gnu_cxx12_Lock_policyE2EE14_M_get_deleterERKSt9type_info=so_stub_for_libtelux_satcom
-Wl,--defsym=_ZNSt23_Sp_counted_ptr_inplaceIN5telux6common15ListenerManagerESaIS2_ELN9__gnu_cxx12_Lock_policyE2EED0Ev=so_stub_for_libtelux_satcom
-Wl,--defsym=_ZNSt23_Sp_counted_ptr_inplaceIN5telux6common15ListenerManagerESaIS2_ELN9__gnu_cxx12_Lock_policyE2EED1Ev=so_stub_for_libtelux_satcom
-Wl,--defsym=_ZNSt23_Sp_counted_ptr_inplaceIN5telux6common15ListenerManagerESaIS2_ELN9__gnu_cxx12_Lock_policyE2EED2Ev=so_stub_for_libtelux_satcom
-Wl,--defsym=_ZNSt23_Sp_counted_ptr_inplaceIN5telux6satcom14NtnManagerImplESaIS2_ELN9__gnu_cxx12_Lock_policyE2EE10_M_destroyEv=so_stub_for_libtelux_satcom
-Wl,--defsym=_ZNSt23_Sp_counted_ptr_inplaceIN5telux6satcom14NtnManagerImplESaIS2_ELN9__gnu_cxx12_Lock_policyE2EE10_M_disposeEv=so_stub_for_libtelux_satcom
-Wl,--defsym=_ZNSt23_Sp_counted_ptr_inplaceIN5telux6satcom14NtnManagerImplESaIS2_ELN9__gnu_cxx12_Lock_policyE2EE14_M_get_deleterERKSt9type_info=so_stub_for_libtelux_satcom
-Wl,--defsym=_ZNSt23_Sp_counted_ptr_inplaceIN5telux6satcom14NtnManagerImplESaIS2_ELN9__gnu_cxx12_Lock_policyE2EED0Ev=so_stub_for_libtelux_satcom
-Wl,--defsym=_ZNSt23_Sp_counted_ptr_inplaceIN5telux6satcom14NtnManagerImplESaIS2_ELN9__gnu_cxx12_Lock_policyE2EED1Ev=so_stub_for_libtelux_satcom
-Wl,--defsym=_ZNSt23_Sp_counted_ptr_inplaceIN5telux6satcom14NtnManagerImplESaIS2_ELN9__gnu_cxx12_Lock_policyE2EED2Ev=so_stub_for_libtelux_satcom
-Wl,--defsym=_ZNSt23_Sp_counted_ptr_inplaceIN5telux6satcom16NtnPowerListenerESaIS2_ELN9__gnu_cxx12_Lock_policyE2EE10_M_destroyEv=so_stub_for_libtelux_satcom
-Wl,--defsym=_ZNSt23_Sp_counted_ptr_inplaceIN5telux6satcom16NtnPowerListenerESaIS2_ELN9__gnu_cxx12_Lock_policyE2EE10_M_disposeEv=so_stub_for_libtelux_satcom
-Wl,--defsym=_ZNSt23_Sp_counted_ptr_inplaceIN5telux6satcom16NtnPowerListenerESaIS2_ELN9__gnu_cxx12_Lock_policyE2EE14_M_get_deleterERKSt9type_info=so_stub_for_libtelux_satcom
-Wl,--defsym=_ZNSt23_Sp_counted_ptr_inplaceIN5telux6satcom16NtnPowerListenerESaIS2_ELN9__gnu_cxx12_Lock_policyE2EED0Ev=so_stub_for_libtelux_satcom
-Wl,--defsym=_ZNSt23_Sp_counted_ptr_inplaceIN5telux6satcom16NtnPowerListenerESaIS2_ELN9__gnu_cxx12_Lock_policyE2EED1Ev=so_stub_for_libtelux_satcom
-Wl,--defsym=_ZNSt23_Sp_counted_ptr_inplaceIN5telux6satcom16NtnPowerListenerESaIS2_ELN9__gnu_cxx12_Lock_policyE2EED2Ev=so_stub_for_libtelux_satcom
-Wl,--defsym=_ZNSt5dequeISt13shared_futureIvESaIS1_EE13_M_insert_auxISt15_Deque_iteratorIS1_RKS1_PS6_EEEvS5_IS1_RS1_PS1_ET_SD_m=so_stub_for_libtelux_satcom
-Wl,--defsym=_ZNSt5dequeISt13shared_futureIvESaIS1_EE15_M_erase_at_endESt15_Deque_iteratorIS1_RS1_PS1_E=so_stub_for_libtelux_satcom
-Wl,--defsym=_ZNSt5dequeISt13shared_futureIvESaIS1_EE17_M_reallocate_mapEmb=so_stub_for_libtelux_satcom
-Wl,--defsym=_ZNSt5dequeISt13shared_futureIvESaIS1_EE19_M_destroy_data_auxESt15_Deque_iteratorIS1_RS1_PS1_ES7_=so_stub_for_libtelux_satcom
-Wl,--defsym=_ZNSt5dequeISt13shared_futureIvESaIS1_EE19_M_range_insert_auxISt15_Deque_iteratorIS1_RKS1_PS6_EEEvS5_IS1_RS1_PS1_ET_SD_St20forward_iterator_tag=so_stub_for_libtelux_satcom
-Wl,--defsym=_ZNSt5dequeISt13shared_futureIvESaIS1_EE23_M_new_elements_at_backEm=so_stub_for_libtelux_satcom
-Wl,--defsym=_ZNSt5dequeISt13shared_futureIvESaIS1_EE24_M_new_elements_at_frontEm=so_stub_for_libtelux_satcom
-Wl,--defsym=_ZNSt5dequeISt13shared_futureIvESaIS1_EE8_M_eraseESt15_Deque_iteratorIS1_RS1_PS1_E=so_stub_for_libtelux_satcom
-Wl,--defsym=_ZNSt5dequeISt13shared_futureIvESaIS1_EEaSERKS3_=so_stub_for_libtelux_satcom
-Wl,--defsym=_ZNSt5dequeISt13shared_futureIvESaIS1_EED1Ev=so_stub_for_libtelux_satcom
-Wl,--defsym=_ZNSt5dequeISt13shared_futureIvESaIS1_EED2Ev=so_stub_for_libtelux_satcom
-Wl,--defsym=_ZNSt6thread11_State_implINS_8_InvokerISt5tupleIJZN5telux6common13FactoryHelper10getManagerINS3_6satcom11INtnManagerEEESt10shared_ptrIT_ENSt7__cxx1112basic_stringIcSt11char_traitsIcESaIcEEERSt8weak_ptrISA_ERSt6vectorISt8functionIFvNS4_13ServiceStatusEEESaISP_EESP_SM_IFSB_SP_EEEUlvE_EEEEE6_M_runEv=so_stub_for_libtelux_satcom
-Wl,--defsym=_ZNSt6thread11_State_implINS_8_InvokerISt5tupleIJZN5telux6common13FactoryHelper10getManagerINS3_6satcom11INtnManagerEEESt10shared_ptrIT_ENSt7__cxx1112basic_stringIcSt11char_traitsIcESaIcEEERSt8weak_ptrISA_ERSt6vectorISt8functionIFvNS4_13ServiceStatusEEESaISP_EESP_SM_IFSB_SP_EEEUlvE_EEEEED0Ev=so_stub_for_libtelux_satcom
-Wl,--defsym=_ZNSt6thread11_State_implINS_8_InvokerISt5tupleIJZN5telux6common13FactoryHelper10getManagerINS3_6satcom11INtnManagerEEESt10shared_ptrIT_ENSt7__cxx1112basic_stringIcSt11char_traitsIcESaIcEEERSt8weak_ptrISA_ERSt6vectorISt8functionIFvNS4_13ServiceStatusEEESaISP_EESP_SM_IFSB_SP_EEEUlvE_EEEEED1Ev=so_stub_for_libtelux_satcom
-Wl,--defsym=_ZNSt6thread11_State_implINS_8_InvokerISt5tupleIJZN5telux6common13FactoryHelper10getManagerINS3_6satcom11INtnManagerEEESt10shared_ptrIT_ENSt7__cxx1112basic_stringIcSt11char_traitsIcESaIcEEERSt8weak_ptrISA_ERSt6vectorISt8functionIFvNS4_13ServiceStatusEEESaISP_EESP_SM_IFSB_SP_EEEUlvE_EEEEED2Ev=so_stub_for_libtelux_satcom
-Wl,--defsym=_ZNSt6threadC1IZN5telux6common13FactoryHelper10getManagerINS1_6satcom11INtnManagerEEESt10shared_ptrIT_ENSt7__cxx1112basic_stringIcSt11char_traitsIcESaIcEEERSt8weak_ptrIS8_ERSt6vectorISt8functionIFvNS2_13ServiceStatusEEESaISN_EESN_SK_IFS9_SN_EEEUlvE_JEvEEOS8_DpOT0_=so_stub_for_libtelux_satcom
-Wl,--defsym=_ZNSt6threadC2IZN5telux6common13FactoryHelper10getManagerINS1_6satcom11INtnManagerEEESt10shared_ptrIT_ENSt7__cxx1112basic_stringIcSt11char_traitsIcESaIcEEERSt8weak_ptrIS8_ERSt6vectorISt8functionIFvNS2_13ServiceStatusEEESaISN_EESN_SK_IFS9_SN_EEEUlvE_JEvEEOS8_DpOT0_=so_stub_for_libtelux_satcom
-Wl,--defsym=_ZNSt6vectorISt8functionIFvN5telux6common13ServiceStatusEEESaIS5_EE15_M_erase_at_endEPS5_=so_stub_for_libtelux_satcom
-Wl,--defsym=_ZNSt6vectorISt8functionIFvN5telux6common13ServiceStatusEEESaIS5_EE17_M_realloc_insertIJRKS5_EEEvN9__gnu_cxx17__normal_iteratorIPS5_S7_EEDpOT_=so_stub_for_libtelux_satcom
-Wl,--defsym=_ZNSt6vectorISt8functionIFvN5telux6common13ServiceStatusEEESaIS5_EE20_M_allocate_and_copyIN9__gnu_cxx17__normal_iteratorIPKS5_S7_EEEEPS5_mT_SF_=so_stub_for_libtelux_satcom
-Wl,--defsym=_ZNSt6vectorISt8functionIFvN5telux6common13ServiceStatusEEESaIS5_EEaSERKS7_=so_stub_for_libtelux_satcom
-Wl,--defsym=_ZNSt6vectorISt8functionIFvN5telux6common13ServiceStatusEEESaIS5_EED1Ev=so_stub_for_libtelux_satcom
-Wl,--defsym=_ZNSt6vectorISt8functionIFvN5telux6common13ServiceStatusEEESaIS5_EED2Ev=so_stub_for_libtelux_satcom
-Wl,--defsym=_ZNSt6vectorISt8weak_ptrIN5telux6common12ISDKListenerEESaIS4_EE12emplace_backIJRS4_EEEvDpOT_=so_stub_for_libtelux_satcom
-Wl,--defsym=_ZNSt6vectorISt8weak_ptrIN5telux6common12ISDKListenerEESaIS4_EE12emplace_backIJRSt10shared_ptrIS3_EEEEvDpOT_=so_stub_for_libtelux_satcom
-Wl,--defsym=_ZNSt6vectorISt8weak_ptrIN5telux6common12ISDKListenerEESaIS4_EE17_M_realloc_insertIJRS4_EEEvN9__gnu_cxx17__normal_iteratorIPS4_S6_EEDpOT_=so_stub_for_libtelux_satcom
-Wl,--defsym=_ZNSt6vectorISt8weak_ptrIN5telux6common12ISDKListenerEESaIS4_EE17_M_realloc_insertIJRSt10shared_ptrIS3_EEEEvN9__gnu_cxx17__normal_iteratorIPS4_S6_EEDpOT_=so_stub_for_libtelux_satcom
-Wl,--defsym=_ZNSt6vectorISt8weak_ptrIN5telux6common12ISDKListenerEESaIS4_EE8_M_eraseEN9__gnu_cxx17__normal_iteratorIPS4_S6_EE=so_stub_for_libtelux_satcom
-Wl,--defsym=_ZNSt6vectorISt8weak_ptrIN5telux6common12ISDKListenerEESaIS4_EED1Ev=so_stub_for_libtelux_satcom
-Wl,--defsym=_ZNSt6vectorISt8weak_ptrIN5telux6common12ISDKListenerEESaIS4_EED2Ev=so_stub_for_libtelux_satcom
-Wl,--defsym=_ZNSt7__cxx1112basic_stringIcSt11char_traitsIcESaIcEE12_M_constructIPcEEvT_S7_St20forward_iterator_tag=so_stub_for_libtelux_satcom
-Wl,--defsym=_ZNSt7__cxx1112basic_stringIcSt11char_traitsIcESaIcEE12_M_constructIPKcEEvT_S8_St20forward_iterator_tag=so_stub_for_libtelux_satcom
-Wl,--defsym=_ZNSt7__cxx1115basic_stringbufIcSt11char_traitsIcESaIcEED0Ev=so_stub_for_libtelux_satcom
-Wl,--defsym=_ZNSt7__cxx1115basic_stringbufIcSt11char_traitsIcESaIcEED1Ev=so_stub_for_libtelux_satcom
-Wl,--defsym=_ZNSt7__cxx1115basic_stringbufIcSt11char_traitsIcESaIcEED2Ev=so_stub_for_libtelux_satcom
-Wl,--defsym=_ZNSt8functionIFvN5telux6common13ServiceStatusEEEC1IRZNS1_13FactoryHelper10getManagerINS0_6satcom11INtnManagerEEESt10shared_ptrIT_ENSt7__cxx1112basic_stringIcSt11char_traitsIcESaIcEEERSt8weak_ptrISB_ERSt6vectorIS4_SaIS4_EES4_S_IFSC_S4_EEEUlS2_E0_vEEOSB_=so_stub_for_libtelux_satcom
-Wl,--defsym=_ZNSt8functionIFvN5telux6common13ServiceStatusEEEC2IRZNS1_13FactoryHelper10getManagerINS0_6satcom11INtnManagerEEESt10shared_ptrIT_ENSt7__cxx1112basic_stringIcSt11char_traitsIcESaIcEEERSt8weak_ptrISB_ERSt6vectorIS4_SaIS4_EES4_S_IFSC_S4_EEEUlS2_E0_vEEOSB_=so_stub_for_libtelux_satcom
-Wl,--defsym=_ZNSt8_Rb_treeIjSt4pairIKjSt3setISt8weak_ptrIN5telux6common12ISDKListenerEENS5_15ListenerManager12SetPredicateESaIS7_EEESt10_Select1stISC_ESt4lessIjESaISC_EE8_M_eraseEPSt13_Rb_tree_nodeISC_E=so_stub_for_libtelux_satcom
-Wl,--defsym=_ZNSt8_Rb_treeISt8weak_ptrIN5telux6common12ISDKListenerEES4_St9_IdentityIS4_ENS2_15ListenerManager12SetPredicateESaIS4_EE8_M_eraseEPSt13_Rb_tree_nodeIS4_E=so_stub_for_libtelux_satcom
-Wl,--defsym=_ZSt13__copy_move_aILb0EN9__gnu_cxx17__normal_iteratorIPKSt8functionIFvN5telux6common13ServiceStatusEEESt6vectorIS7_SaIS7_EEEENS1_IPS7_SC_EEET1_T0_SH_SG_=so_stub_for_libtelux_satcom
-Wl,--defsym=_ZSt13__copy_move_aILb1EN9__gnu_cxx17__normal_iteratorIPSt8weak_ptrIN5telux6common12ISDKListenerEESt6vectorIS6_SaIS6_EEEESB_ET1_T0_SD_SC_=so_stub_for_libtelux_satcom
-Wl,--defsym=_ZSt13move_backwardISt15_Deque_iteratorISt13shared_futureIvERS2_PS2_ES5_ET0_T_S7_S6_=so_stub_for_libtelux_satcom
-Wl,--defsym=_ZSt14__copy_move_a1ILb0EPSt13shared_futureIvES1_EN9__gnu_cxx11__enable_ifIXsrSt23__is_random_access_iterIT0_NSt15iterator_traitsIS6_E17iterator_categoryEE7__valueESt15_Deque_iteratorIT1_RSC_PSC_EE6__typeES6_S6_SF_=so_stub_for_libtelux_satcom
-Wl,--defsym=_ZSt14__copy_move_a1ILb0ESt13shared_futureIvERKS1_PS2_S1_ESt15_Deque_iteratorIT3_RS6_PS6_ES5_IT0_T1_T2_ESD_S9_=so_stub_for_libtelux_satcom
-Wl,--defsym=_ZSt14__copy_move_a1ILb1EPSt13shared_futureIvES1_EN9__gnu_cxx11__enable_ifIXsrSt23__is_random_access_iterIT0_NSt15iterator_traitsIS6_E17iterator_categoryEE7__valueESt15_Deque_iteratorIT1_RSC_PSC_EE6__typeES6_S6_SF_=so_stub_for_libtelux_satcom
-Wl,--defsym=_ZSt14__copy_move_a1ILb1ESt13shared_futureIvERS1_PS1_S1_ESt15_Deque_iteratorIT3_RS5_PS5_ES4_IT0_T1_T2_ESC_S8_=so_stub_for_libtelux_satcom
-Wl,--defsym=_ZSt18uninitialized_copyISt13move_iteratorISt15_Deque_iteratorISt13shared_futureIvERS3_PS3_EES6_ET0_T_S9_S8_=so_stub_for_libtelux_satcom
-Wl,--defsym=_ZSt20dynamic_pointer_castIN5telux6satcom12INtnListenerENS0_6common12ISDKListenerEESt10shared_ptrIT_ERKS5_IT0_E=so_stub_for_libtelux_satcom
-Wl,--defsym=_ZSt22__uninitialized_copy_aISt15_Deque_iteratorISt13shared_futureIvERKS2_PS3_ES0_IS2_RS2_PS2_ES2_ET0_T_SB_SA_RSaIT1_E=so_stub_for_libtelux_satcom
-Wl,--defsym=_ZSt22__uninitialized_move_aISt15_Deque_iteratorISt13shared_futureIvERS2_PS2_ES5_SaIS2_EET0_T_S8_S7_RT1_=so_stub_for_libtelux_satcom
-Wl,--defsym=_ZSt23__copy_move_backward_a1ILb1EPSt13shared_futureIvES1_EN9__gnu_cxx11__enable_ifIXsrSt23__is_random_access_iterIT0_NSt15iterator_traitsIS6_E17iterator_categoryEE7__valueESt15_Deque_iteratorIT1_RSC_PSC_EE6__typeES6_S6_SF_=so_stub_for_libtelux_satcom
-Wl,--defsym=_ZSt23__copy_move_backward_a1ILb1ESt13shared_futureIvERS1_PS1_S1_ESt15_Deque_iteratorIT3_RS5_PS5_ES4_IT0_T1_T2_ESC_S8_=so_stub_for_libtelux_satcom
-Wl,--defsym=_ZSt4copyISt15_Deque_iteratorISt13shared_futureIvERKS2_PS3_ES0_IS2_RS2_PS2_EET0_T_SB_SA_=so_stub_for_libtelux_satcom
-Wl,--defsym=_ZSt4moveISt15_Deque_iteratorISt13shared_futureIvERS2_PS2_ES5_ET0_T_S7_S6_=so_stub_for_libtelux_satcom
-Wl,--defsym=_ZSt7find_ifIN9__gnu_cxx17__normal_iteratorIPSt8weak_ptrIN5telux6common12ISDKListenerEESt6vectorIS6_SaIS6_EEEEZNS4_15ListenerManager16registerListenerES6_EUlS6_E_ET_SE_SE_T0_=so_stub_for_libtelux_satcom
-Wl,--defsym=_ZSt9__advanceISt15_Deque_iteratorISt13shared_futureIvERKS2_PS3_ElEvRT_T0_St26random_access_iterator_tag=so_stub_for_libtelux_satcom
-Wl,--defsym=_ZSt9__find_ifIN9__gnu_cxx17__normal_iteratorIPSt8weak_ptrIN5telux6common12ISDKListenerEESt6vectorIS6_SaIS6_EEEENS0_5__ops10_Iter_predIZNS4_15ListenerManager16registerListenerES6_EUlS6_E_EEET_SH_SH_T0_St26random_access_iterator_tag=so_stub_for_libtelux_satcom
-Wl,--defsym=_ZThn8_N5telux6satcom14NtnManagerImpl14onIncomingDataESt10unique_ptrIA_hSt14default_deleteIS3_EEj=so_stub_for_libtelux_satcom
-Wl,--defsym=_ZThn8_N5telux6satcom14NtnManagerImpl16onNtnStateChangeENS0_8NtnStateE=so_stub_for_libtelux_satcom
-Wl,--defsym=_ZThn8_N5telux6satcom14NtnManagerImpl20onCapabilitiesChangeENS0_15NtnCapabilitiesE=so_stub_for_libtelux_satcom
-Wl,--defsym=_ZThn8_N5telux6satcom14NtnManagerImpl22onSignalStrengthChangeENS0_14SignalStrengthE=so_stub_for_libtelux_satcom
-Wl,--defsym=_ZThn8_N5telux6satcom14NtnManagerImpl24onQmsServiceStatusChangeENS_6common13ServiceStatusE=so_stub_for_libtelux_satcom
-Wl,--defsym=_ZThn8_N5telux6satcom14NtnManagerImpl27onCellularCoverageAvailableEb=so_stub_for_libtelux_satcom
-Wl,--defsym=_ZThn8_N5telux6satcom14NtnManagerImpl9onDataAckENS_6common9ErrorCodeEm=so_stub_for_libtelux_satcom
-Wl,--defsym=_ZThn8_N5telux6satcom14NtnManagerImplD0Ev=so_stub_for_libtelux_satcom
-Wl,--defsym=_ZThn8_N5telux6satcom14NtnManagerImplD1Ev=so_stub_for_libtelux_satcom
-Wl,--defsym=_ZTIN5telux3qmi17ISysPowerListenerE=so_stub_for_libtelux_satcom
-Wl,--defsym=_ZTIN5telux3qms21IQmsNtnClientListenerE=so_stub_for_libtelux_satcom
-Wl,--defsym=_ZTIN5telux6common12ISDKListenerE=so_stub_for_libtelux_satcom
-Wl,--defsym=_ZTIN5telux6common13FactoryHelperE=so_stub_for_libtelux_satcom
-Wl,--defsym=_ZTIN5telux6satcom11INtnManagerE=so_stub_for_libtelux_satcom
-Wl,--defsym=_ZTIN5telux6satcom12INtnListenerE=so_stub_for_libtelux_satcom
-Wl,--defsym=_ZTIN5telux6satcom13SatcomFactoryE=so_stub_for_libtelux_satcom
-Wl,--defsym=_ZTIN5telux6satcom14NtnManagerImplE=so_stub_for_libtelux_satcom
-Wl,--defsym=_ZTIN5telux6satcom16NtnPowerListenerE=so_stub_for_libtelux_satcom
-Wl,--defsym=_ZTIN5telux6satcom17SatcomFactoryImplE=so_stub_for_libtelux_satcom
-Wl,--defsym=_ZTINSt6thread11_State_implINS_8_InvokerISt5tupleIJZN5telux6common13FactoryHelper10getManagerINS3_6satcom11INtnManagerEEESt10shared_ptrIT_ENSt7__cxx1112basic_stringIcSt11char_traitsIcESaIcEEERSt8weak_ptrISA_ERSt6vectorISt8functionIFvNS4_13ServiceStatusEEESaISP_EESP_SM_IFSB_SP_EEEUlvE_EEEEEE=so_stub_for_libtelux_satcom
-Wl,--defsym=_ZTISt11_Mutex_baseILN9__gnu_cxx12_Lock_policyE2EE=so_stub_for_libtelux_satcom
-Wl,--defsym=_ZTISt16_Sp_counted_baseILN9__gnu_cxx12_Lock_policyE2EE=so_stub_for_libtelux_satcom
-Wl,--defsym=_ZTISt23enable_shared_from_thisIN5telux6satcom14NtnManagerImplEE=so_stub_for_libtelux_satcom
-Wl,--defsym=_ZTISt23_Sp_counted_ptr_inplaceIN5telux6common14AsyncTaskQueueIvEESaIS3_ELN9__gnu_cxx12_Lock_policyE2EE=so_stub_for_libtelux_satcom
-Wl,--defsym=_ZTISt23_Sp_counted_ptr_inplaceIN5telux6common15ListenerManagerESaIS2_ELN9__gnu_cxx12_Lock_policyE2EE=so_stub_for_libtelux_satcom
-Wl,--defsym=_ZTISt23_Sp_counted_ptr_inplaceIN5telux6satcom14NtnManagerImplESaIS2_ELN9__gnu_cxx12_Lock_policyE2EE=so_stub_for_libtelux_satcom
-Wl,--defsym=_ZTISt23_Sp_counted_ptr_inplaceIN5telux6satcom16NtnPowerListenerESaIS2_ELN9__gnu_cxx12_Lock_policyE2EE=so_stub_for_libtelux_satcom
-Wl,--defsym=_ZTIZN5telux6common13FactoryHelper10getManagerINS_6satcom11INtnManagerEEESt10shared_ptrIT_ENSt7__cxx1112basic_stringIcSt11char_traitsIcESaIcEEERSt8weak_ptrIS6_ERSt6vectorISt8functionIFvNS0_13ServiceStatusEEESaISL_EESL_SI_IFS7_SL_EEEUlSJ_E0_=so_stub_for_libtelux_satcom
-Wl,--defsym=_ZTSN5telux3qmi17ISysPowerListenerE=so_stub_for_libtelux_satcom
-Wl,--defsym=_ZTSN5telux3qms21IQmsNtnClientListenerE=so_stub_for_libtelux_satcom
-Wl,--defsym=_ZTSN5telux6common12ISDKListenerE=so_stub_for_libtelux_satcom
-Wl,--defsym=_ZTSN5telux6common13FactoryHelperE=so_stub_for_libtelux_satcom
-Wl,--defsym=_ZTSN5telux6satcom11INtnManagerE=so_stub_for_libtelux_satcom
-Wl,--defsym=_ZTSN5telux6satcom12INtnListenerE=so_stub_for_libtelux_satcom
-Wl,--defsym=_ZTSN5telux6satcom13SatcomFactoryE=so_stub_for_libtelux_satcom
-Wl,--defsym=_ZTSN5telux6satcom14NtnManagerImplE=so_stub_for_libtelux_satcom
-Wl,--defsym=_ZTSN5telux6satcom16NtnPowerListenerE=so_stub_for_libtelux_satcom
-Wl,--defsym=_ZTSN5telux6satcom17SatcomFactoryImplE=so_stub_for_libtelux_satcom
-Wl,--defsym=_ZTSNSt6thread11_State_implINS_8_InvokerISt5tupleIJZN5telux6common13FactoryHelper10getManagerINS3_6satcom11INtnManagerEEESt10shared_ptrIT_ENSt7__cxx1112basic_stringIcSt11char_traitsIcESaIcEEERSt8weak_ptrISA_ERSt6vectorISt8functionIFvNS4_13ServiceStatusEEESaISP_EESP_SM_IFSB_SP_EEEUlvE_EEEEEE=so_stub_for_libtelux_satcom
-Wl,--defsym=_ZTSSt11_Mutex_baseILN9__gnu_cxx12_Lock_policyE2EE=so_stub_for_libtelux_satcom
-Wl,--defsym=_ZTSSt16_Sp_counted_baseILN9__gnu_cxx12_Lock_policyE2EE=so_stub_for_libtelux_satcom
-Wl,--defsym=_ZTSSt19_Sp_make_shared_tag=so_stub_for_libtelux_satcom
-Wl,--defsym=_ZTSSt23enable_shared_from_thisIN5telux6satcom14NtnManagerImplEE=so_stub_for_libtelux_satcom
-Wl,--defsym=_ZTSSt23_Sp_counted_ptr_inplaceIN5telux6common14AsyncTaskQueueIvEESaIS3_ELN9__gnu_cxx12_Lock_policyE2EE=so_stub_for_libtelux_satcom
-Wl,--defsym=_ZTSSt23_Sp_counted_ptr_inplaceIN5telux6common15ListenerManagerESaIS2_ELN9__gnu_cxx12_Lock_policyE2EE=so_stub_for_libtelux_satcom
-Wl,--defsym=_ZTSSt23_Sp_counted_ptr_inplaceIN5telux6satcom14NtnManagerImplESaIS2_ELN9__gnu_cxx12_Lock_policyE2EE=so_stub_for_libtelux_satcom
-Wl,--defsym=_ZTSSt23_Sp_counted_ptr_inplaceIN5telux6satcom16NtnPowerListenerESaIS2_ELN9__gnu_cxx12_Lock_policyE2EE=so_stub_for_libtelux_satcom
-Wl,--defsym=_ZTSZN5telux6common13FactoryHelper10getManagerINS_6satcom11INtnManagerEEESt10shared_ptrIT_ENSt7__cxx1112basic_stringIcSt11char_traitsIcESaIcEEERSt8weak_ptrIS6_ERSt6vectorISt8functionIFvNS0_13ServiceStatusEEESaISL_EESL_SI_IFS7_SL_EEEUlSJ_E0_=so_stub_for_libtelux_satcom
-Wl,--defsym=_ZTVN5telux6satcom13SatcomFactoryE=so_stub_for_libtelux_satcom
-Wl,--defsym=_ZTVN5telux6satcom14NtnManagerImplE=so_stub_for_libtelux_satcom
-Wl,--defsym=_ZTVN5telux6satcom16NtnPowerListenerE=so_stub_for_libtelux_satcom
-Wl,--defsym=_ZTVN5telux6satcom17SatcomFactoryImplE=so_stub_for_libtelux_satcom
-Wl,--defsym=_ZTVNSt6thread11_State_implINS_8_InvokerISt5tupleIJZN5telux6common13FactoryHelper10getManagerINS3_6satcom11INtnManagerEEESt10shared_ptrIT_ENSt7__cxx1112basic_stringIcSt11char_traitsIcESaIcEEERSt8weak_ptrISA_ERSt6vectorISt8functionIFvNS4_13ServiceStatusEEESaISP_EESP_SM_IFSB_SP_EEEUlvE_EEEEEE=so_stub_for_libtelux_satcom
-Wl,--defsym=_ZTVSt23_Sp_counted_ptr_inplaceIN5telux6common14AsyncTaskQueueIvEESaIS3_ELN9__gnu_cxx12_Lock_policyE2EE=so_stub_for_libtelux_satcom
-Wl,--defsym=_ZTVSt23_Sp_counted_ptr_inplaceIN5telux6common15ListenerManagerESaIS2_ELN9__gnu_cxx12_Lock_policyE2EE=so_stub_for_libtelux_satcom
-Wl,--defsym=_ZTVSt23_Sp_counted_ptr_inplaceIN5telux6satcom14NtnManagerImplESaIS2_ELN9__gnu_cxx12_Lock_policyE2EE=so_stub_for_libtelux_satcom
-Wl,--defsym=_ZTVSt23_Sp_counted_ptr_inplaceIN5telux6satcom16NtnPowerListenerESaIS2_ELN9__gnu_cxx12_Lock_policyE2EE=so_stub_for_libtelux_satcom
-Wl,--defsym=_ZZN5telux6common13FactoryHelper10getManagerINS_6satcom11INtnManagerEEESt10shared_ptrIT_ENSt7__cxx1112basic_stringIcSt11char_traitsIcESaIcEEERSt8weak_ptrIS6_ERSt6vectorISt8functionIFvNS0_13ServiceStatusEEESaISL_EESL_SI_IFS7_SL_EEENKUlSJ_E0_clESJ_=so_stub_for_libtelux_satcom
-Wl,--defsym=_ZZNSt19_Sp_make_shared_tag5_S_tiEvE5__tag=so_stub_for_libtelux_satcom
