-Wl,--defsym=__gcov_error_file=so_stub_for_libtelux_sensor
-Wl,--defsym=__gcov_kvp_dynamic_pool=so_stub_for_libtelux_sensor
-Wl,--defsym=__gcov_kvp_dynamic_pool_index=so_stub_for_libtelux_sensor
-Wl,--defsym=__gcov_kvp_dynamic_pool_size=so_stub_for_libtelux_sensor
-Wl,--defsym=__gcov_master=so_stub_for_libtelux_sensor
-Wl,--defsym=__gcov_var=so_stub_for_libtelux_sensor
-Wl,--defsym=mangle_path=so_stub_for_libtelux_sensor
-Wl,--defsym=_ZN5telux6common14AsyncTaskQueueIvE11executeTaskEv=so_stub_for_libtelux_sensor
-Wl,--defsym=_ZN5telux6common14AsyncTaskQueueIvE14purgeCompletedEv=so_stub_for_libtelux_sensor
-Wl,--defsym=_ZN5telux6common14AsyncTaskQueueIvE3addERSt13shared_futureIvE=so_stub_for_libtelux_sensor
-Wl,--defsym=_ZN5telux6common14AsyncTaskQueueIvE8shutdownEb=so_stub_for_libtelux_sensor
-Wl,--defsym=_ZN5telux6common14AsyncTaskQueueIvEC1Ev=so_stub_for_libtelux_sensor
-Wl,--defsym=_ZN5telux6common14AsyncTaskQueueIvEC2Ev=so_stub_for_libtelux_sensor
-Wl,--defsym=_ZN5telux6common14AsyncTaskQueueIvED1Ev=so_stub_for_libtelux_sensor
-Wl,--defsym=_ZN5telux6common14AsyncTaskQueueIvED2Ev=so_stub_for_libtelux_sensor
-Wl,--defsym=_ZN5telux6common15ListenerManager16registerListenerESt8weak_ptrINS0_12ISDKListenerEE=so_stub_for_libtelux_sensor
-Wl,--defsym=_ZN5telux6common15ListenerManager18deRegisterListenerESt8weak_ptrINS0_12ISDKListenerEE=so_stub_for_libtelux_sensor
-Wl,--defsym=_ZN5telux6common15ListenerManager21getAvailableListenersERSt6vectorISt8weak_ptrINS0_12ISDKListenerEESaIS5_EE=so_stub_for_libtelux_sensor
-Wl,--defsym=_ZN5telux6common15ListenerManager5purgeEv=so_stub_for_libtelux_sensor
-Wl,--defsym=_ZN5telux6common15ListenerManager7cleanupEv=so_stub_for_libtelux_sensor
-Wl,--defsym=_ZN5telux6common15ListenerManagerC1Ev=so_stub_for_libtelux_sensor
-Wl,--defsym=_ZN5telux6common15ListenerManagerC2Ev=so_stub_for_libtelux_sensor
-Wl,--defsym=_ZN5telux6common15ListenerManagerD1Ev=so_stub_for_libtelux_sensor
-Wl,--defsym=_ZN5telux6common15ListenerManagerD2Ev=so_stub_for_libtelux_sensor
-Wl,--defsym=_ZN5telux6common18FunctionalCallbackIJNS0_9ErrorCodeEEED0Ev=so_stub_for_libtelux_sensor
-Wl,--defsym=_ZN5telux6common18FunctionalCallbackIJNS0_9ErrorCodeEEED1Ev=so_stub_for_libtelux_sensor
-Wl,--defsym=_ZN5telux6common18FunctionalCallbackIJNS0_9ErrorCodeEEED2Ev=so_stub_for_libtelux_sensor
-Wl,--defsym=_ZN5telux6common18FunctionalCallbackIJNS0_9ErrorCodeENS_6sensor20SelfTestResultParamsEEED0Ev=so_stub_for_libtelux_sensor
-Wl,--defsym=_ZN5telux6common18FunctionalCallbackIJNS0_9ErrorCodeENS_6sensor20SelfTestResultParamsEEED1Ev=so_stub_for_libtelux_sensor
-Wl,--defsym=_ZN5telux6common18FunctionalCallbackIJNS0_9ErrorCodeENS_6sensor20SelfTestResultParamsEEED2Ev=so_stub_for_libtelux_sensor
-Wl,--defsym=_ZN5telux6common22CommandCallbackManager11addCallbackIJNS0_9ErrorCodeEEEEiSt8functionIFvDpT_EE=so_stub_for_libtelux_sensor
-Wl,--defsym=_ZN5telux6common22CommandCallbackManager11addCallbackIJNS0_9ErrorCodeENS_6sensor20SelfTestResultParamsEEEEiSt8functionIFvDpT_EE=so_stub_for_libtelux_sensor
-Wl,--defsym=_ZN5telux6common22CommandCallbackManager15executeCallbackIJRNS0_9ErrorCodeEEEEvSt10shared_ptrINS0_16ICommandCallbackEEDpOT_=so_stub_for_libtelux_sensor
-Wl,--defsym=_ZN5telux6common22CommandCallbackManager15executeCallbackIJRNS0_9ErrorCodeERNS_6sensor20SelfTestResultParamsEEEEvSt10shared_ptrINS0_16ICommandCallbackEEDpOT_=so_stub_for_libtelux_sensor
-Wl,--defsym=_ZN5telux6common3Log10logMessageIJNSt7__cxx1112basic_stringIcSt11char_traitsIcESaIcEEElPKcfSA_fSA_fSA_fSA_fSA_fEEEvNS0_8LogLevelERKS8_SD_RKiDpT_=so_stub_for_libtelux_sensor
-Wl,--defsym=_ZN5telux6common3Log10logMessageIJNSt7__cxx1112basic_stringIcSt11char_traitsIcESaIcEEEPKc22SensorCapabilitiesMaskEEEvNS0_8LogLevelERKS8_SE_RKiDpT_=so_stub_for_libtelux_sensor
-Wl,--defsym=_ZN5telux6common3Log10logMessageIJNSt7__cxx1112basic_stringIcSt11char_traitsIcESaIcEEEPKcEEEvNS0_8LogLevelERKS8_SD_RKiDpT_=so_stub_for_libtelux_sensor
-Wl,--defsym=_ZN5telux6common3Log10logMessageIJNSt7__cxx1112basic_stringIcSt11char_traitsIcESaIcEEEPKcfSA_jSA_bEEEvNS0_8LogLevelERKS8_SD_RKiDpT_=so_stub_for_libtelux_sensor
-Wl,--defsym=_ZN5telux6common3Log10logMessageIJNSt7__cxx1112basic_stringIcSt11char_traitsIcESaIcEEEPKciSA_fSA_iSA_bSA_EEEvNS0_8LogLevelERKS8_SD_RKiDpT_=so_stub_for_libtelux_sensor
-Wl,--defsym=_ZN5telux6common3Log10logMessageIJNSt7__cxx1112basic_stringIcSt11char_traitsIcESaIcEEEPKcjSA_mSA_mEEEvNS0_8LogLevelERKS8_SD_RKiDpT_=so_stub_for_libtelux_sensor
-Wl,--defsym=_ZN5telux6common3Log10logMessageIJNSt7__cxx1112basic_stringIcSt11char_traitsIcESaIcEEEPKcPNS_6sensor20ISensorEventListenerEEEEvNS0_8LogLevelERKS8_SG_RKiDpT_=so_stub_for_libtelux_sensor
-Wl,--defsym=_ZN5telux6common3Log10logMessageIJNSt7__cxx1112basic_stringIcSt11char_traitsIcESaIcEEEPKcSA_12SelfTestTypeSA_iEEEvNS0_8LogLevelERKS8_SE_RKiDpT_=so_stub_for_libtelux_sensor
-Wl,--defsym=_ZN5telux6common3Log10logMessageIJNSt7__cxx1112basic_stringIcSt11char_traitsIcESaIcEEEPKcSA_14SelfTestResultSA_iEEEvNS0_8LogLevelERKS8_SE_RKiDpT_=so_stub_for_libtelux_sensor
-Wl,--defsym=_ZN5telux6common3Log10logMessageIJNSt7__cxx1112basic_stringIcSt11char_traitsIcESaIcEEEPKcSA_14SelfTestResultSA_iSA_18SelfTestResultTypeSA_mEEEvNS0_8LogLevelERKS8_SF_RKiDpT_=so_stub_for_libtelux_sensor
-Wl,--defsym=_ZN5telux6common3Log10logMessageIJNSt7__cxx1112basic_stringIcSt11char_traitsIcESaIcEEEPKcSA_EEEvNS0_8LogLevelERKS8_SD_RKiDpT_=so_stub_for_libtelux_sensor
-Wl,--defsym=_ZN5telux6common3Log10logMessageIJNSt7__cxx1112basic_stringIcSt11char_traitsIcESaIcEEEPKcSA_iEEEvNS0_8LogLevelERKS8_SD_RKiDpT_=so_stub_for_libtelux_sensor
-Wl,--defsym=_ZN5telux6common3Log10logMessageIJNSt7__cxx1112basic_stringIcSt11char_traitsIcESaIcEEEPKcSA_SA_iEEEvNS0_8LogLevelERKS8_SD_RKiDpT_=so_stub_for_libtelux_sensor
-Wl,--defsym=_ZN5telux6common3Log10logMessageIJNSt7__cxx1112basic_stringIcSt11char_traitsIcESaIcEEEPKcSA_SA_SA_iEEEvNS0_8LogLevelERKS8_SD_RKiDpT_=so_stub_for_libtelux_sensor
-Wl,--defsym=_ZN5telux6common3Log10logMessageIJPKc22SensorCapabilitiesMaskEEEvNS0_8LogLevelERKNSt7__cxx1112basic_stringIcSt11char_traitsIcESaIcEEESE_RKiDpT_=so_stub_for_libtelux_sensor
-Wl,--defsym=_ZN5telux6common3Log10logMessageIJPKcEEEvNS0_8LogLevelERKNSt7__cxx1112basic_stringIcSt11char_traitsIcESaIcEEESD_RKiDpT_=so_stub_for_libtelux_sensor
-Wl,--defsym=_ZN5telux6common3Log10logMessageIJPKciEEEvNS0_8LogLevelERKNSt7__cxx1112basic_stringIcSt11char_traitsIcESaIcEEESD_RKiDpT_=so_stub_for_libtelux_sensor
-Wl,--defsym=_ZN5telux6common3Log10logMessageIJPKciS4_EEEvNS0_8LogLevelERKNSt7__cxx1112basic_stringIcSt11char_traitsIcESaIcEEESD_RKiDpT_=so_stub_for_libtelux_sensor
-Wl,--defsym=_ZN5telux6common3Log10logMessageIJPKciS4_NSt7__cxx1112basic_stringIcSt11char_traitsIcESaIcEEES4_mEEEvNS0_8LogLevelERKSA_SD_RKiDpT_=so_stub_for_libtelux_sensor
-Wl,--defsym=_ZN5telux6common3Log10logMessageIJPKcjS4_mS4_NSt7__cxx1112basic_stringIcSt11char_traitsIcESaIcEEEEEEvNS0_8LogLevelERKSA_SD_RKiDpT_=so_stub_for_libtelux_sensor
-Wl,--defsym=_ZN5telux6common3Log10logMessageIJPKcmEEEvNS0_8LogLevelERKNSt7__cxx1112basic_stringIcSt11char_traitsIcESaIcEEESD_RKiDpT_=so_stub_for_libtelux_sensor
-Wl,--defsym=_ZN5telux6common3Log10logMessageIJPKcNSt7__cxx1112basic_stringIcSt11char_traitsIcESaIcEEEEEEvNS0_8LogLevelERKSA_SD_RKiDpT_=so_stub_for_libtelux_sensor
-Wl,--defsym=_ZN5telux6common3Log10logMessageIJPKcNSt7__cxx1112basic_stringIcSt11char_traitsIcESaIcEEES4_bS4_EEEvNS0_8LogLevelERKSA_SD_RKiDpT_=so_stub_for_libtelux_sensor
-Wl,--defsym=_ZN5telux6common3Log10logMessageIJPKcPNS_6sensor27ISensorFeatureEventListenerEEEEvNS0_8LogLevelERKNSt7__cxx1112basic_stringIcSt11char_traitsIcESaIcEEESG_RKiDpT_=so_stub_for_libtelux_sensor
-Wl,--defsym=_ZN5telux6common3Log10logMessageIJPKcS4_bEEEvNS0_8LogLevelERKNSt7__cxx1112basic_stringIcSt11char_traitsIcESaIcEEESD_RKiDpT_=so_stub_for_libtelux_sensor
-Wl,--defsym=_ZN5telux6common3Log10logMessageIJPKcS4_EEEvNS0_8LogLevelERKNSt7__cxx1112basic_stringIcSt11char_traitsIcESaIcEEESD_RKiDpT_=so_stub_for_libtelux_sensor
-Wl,--defsym=_ZN5telux6common3Log10logMessageIJPKcS4_iEEEvNS0_8LogLevelERKNSt7__cxx1112basic_stringIcSt11char_traitsIcESaIcEEESD_RKiDpT_=so_stub_for_libtelux_sensor
-Wl,--defsym=_ZN5telux6common3Log10logMessageIJPKcS4_mEEEvNS0_8LogLevelERKNSt7__cxx1112basic_stringIcSt11char_traitsIcESaIcEEESD_RKiDpT_=so_stub_for_libtelux_sensor
-Wl,--defsym=_ZN5telux6common3Log10logMessageIJPKcS4_NSt7__cxx1112basic_stringIcSt11char_traitsIcESaIcEEES4_SA_EEEvNS0_8LogLevelERKSA_SD_RKiDpT_=so_stub_for_libtelux_sensor
-Wl,--defsym=_ZN5telux6common3Log10logMessageIJPKcS4_S4_EEEvNS0_8LogLevelERKNSt7__cxx1112basic_stringIcSt11char_traitsIcESaIcEEESD_RKiDpT_=so_stub_for_libtelux_sensor
-Wl,--defsym=_ZN5telux6common3Log10logMessageIJPKcS4_S4_iEEEvNS0_8LogLevelERKNSt7__cxx1112basic_stringIcSt11char_traitsIcESaIcEEESD_RKiDpT_=so_stub_for_libtelux_sensor
-Wl,--defsym=_ZN5telux6common3Log16constructMessageINSt7__cxx1119basic_ostringstreamIcSt11char_traitsIcESaIcEEE14SelfTestResultJPKciSB_18SelfTestResultTypeSB_mEEEvRT_T0_DpT1_=so_stub_for_libtelux_sensor
-Wl,--defsym=_ZN5telux6common3Log16constructMessageINSt7__cxx1119basic_ostringstreamIcSt11char_traitsIcESaIcEEEfJPKcfSA_fSA_fEEEvRT_T0_DpT1_=so_stub_for_libtelux_sensor
-Wl,--defsym=_ZN5telux6common3Log16constructMessageINSt7__cxx1119basic_ostringstreamIcSt11char_traitsIcESaIcEEEiJPKcNS3_12basic_stringIcS6_S7_EESA_mEEEvRT_T0_DpT1_=so_stub_for_libtelux_sensor
-Wl,--defsym=_ZN5telux6common3Log16constructMessageINSt7__cxx1119basic_ostringstreamIcSt11char_traitsIcESaIcEEEjJPKcmSA_NS3_12basic_stringIcS6_S7_EEEEEvRT_T0_DpT1_=so_stub_for_libtelux_sensor
-Wl,--defsym=_ZN5telux6common3Log16constructMessageINSt7__cxx1119basic_ostringstreamIcSt11char_traitsIcESaIcEEEmJPKcNS3_12basic_stringIcS6_S7_EEEEEvRT_T0_DpT1_=so_stub_for_libtelux_sensor
-Wl,--defsym=_ZN5telux6common3Log16constructMessageINSt7__cxx1119basic_ostringstreamIcSt11char_traitsIcESaIcEEENS3_12basic_stringIcS6_S7_EEJPKcfSC_jSC_bEEEvRT_T0_DpT1_=so_stub_for_libtelux_sensor
-Wl,--defsym=_ZN5telux6common3Log16constructMessageINSt7__cxx1119basic_ostringstreamIcSt11char_traitsIcESaIcEEENS3_12basic_stringIcS6_S7_EEJPKcjSC_mSC_mEEEvRT_T0_DpT1_=so_stub_for_libtelux_sensor
-Wl,--defsym=_ZN5telux6common3Log16constructMessageINSt7__cxx1119basic_ostringstreamIcSt11char_traitsIcESaIcEEENS3_12basic_stringIcS6_S7_EEJPKcSA_EEEvRT_T0_DpT1_=so_stub_for_libtelux_sensor
-Wl,--defsym=_ZN5telux6common3Log16constructMessageINSt7__cxx1119basic_ostringstreamIcSt11char_traitsIcESaIcEEENS3_12basic_stringIcS6_S7_EEJPKcSC_12SelfTestTypeSC_iEEEvRT_T0_DpT1_=so_stub_for_libtelux_sensor
-Wl,--defsym=_ZN5telux6common3Log16constructMessageINSt7__cxx1119basic_ostringstreamIcSt11char_traitsIcESaIcEEENS3_12basic_stringIcS6_S7_EEJPKcSC_14SelfTestResultSC_iEEEvRT_T0_DpT1_=so_stub_for_libtelux_sensor
-Wl,--defsym=_ZN5telux6common3Log16constructMessageINSt7__cxx1119basic_ostringstreamIcSt11char_traitsIcESaIcEEEPKcJfSA_iSA_bSA_EEEvRT_T0_DpT1_=so_stub_for_libtelux_sensor
-Wl,--defsym=_ZN5telux6common3Log16constructMessageINSt7__cxx1119basic_ostringstreamIcSt11char_traitsIcESaIcEEEPKcJiSA_NS3_12basic_stringIcS6_S7_EESA_mEEEvRT_T0_DpT1_=so_stub_for_libtelux_sensor
-Wl,--defsym=_ZN5telux6common3Log16constructMessageINSt7__cxx1119basic_ostringstreamIcSt11char_traitsIcESaIcEEEPKcJjSA_mSA_NS3_12basic_stringIcS6_S7_EEEEEvRT_T0_DpT1_=so_stub_for_libtelux_sensor
-Wl,--defsym=_ZN5telux6common3Log16constructMessageINSt7__cxx1119basic_ostringstreamIcSt11char_traitsIcESaIcEEEPKcJmSA_NS3_12basic_stringIcS6_S7_EEEEEvRT_T0_DpT1_=so_stub_for_libtelux_sensor
-Wl,--defsym=_ZN5telux6common3Log16constructMessageINSt7__cxx1119basic_ostringstreamIcSt11char_traitsIcESaIcEEEPKcJNS3_12basic_stringIcS6_S7_EEEEEvRT_T0_DpT1_=so_stub_for_libtelux_sensor
-Wl,--defsym=_ZN5telux6common3Log16constructMessageINSt7__cxx1119basic_ostringstreamIcSt11char_traitsIcESaIcEEEPKcJNS3_12basic_stringIcS6_S7_EESA_bSA_EEEvRT_T0_DpT1_=so_stub_for_libtelux_sensor
-Wl,--defsym=_ZN5telux6common3Log16constructMessageINSt7__cxx1119basic_ostringstreamIcSt11char_traitsIcESaIcEEEPKcJNS3_12basic_stringIcS6_S7_EESA_mEEEvRT_T0_DpT1_=so_stub_for_libtelux_sensor
-Wl,--defsym=_ZN5telux6common3Log16constructMessageINSt7__cxx1119basic_ostringstreamIcSt11char_traitsIcESaIcEEEPKcJNS3_12basic_stringIcS6_S7_EESA_SC_EEEvRT_T0_DpT1_=so_stub_for_libtelux_sensor
-Wl,--defsym=_ZN5telux6common3Log16constructMessageINSt7__cxx1119basic_ostringstreamIcSt11char_traitsIcESaIcEEEPKcJSA_NS3_12basic_stringIcS6_S7_EESA_SC_EEEvRT_T0_DpT1_=so_stub_for_libtelux_sensor
-Wl,--defsym=_ZN5telux6sensor10SensorInfoC1ERKS1_=so_stub_for_libtelux_sensor
-Wl,--defsym=_ZN5telux6sensor10SensorInfoC2ERKS1_=so_stub_for_libtelux_sensor
-Wl,--defsym=_ZN5telux6sensor10SensorInfoD1Ev=so_stub_for_libtelux_sensor
-Wl,--defsym=_ZN5telux6sensor10SensorInfoD2Ev=so_stub_for_libtelux_sensor
-Wl,--defsym=_ZN5telux6sensor10SensorUtil15getSensorEventsEPK15sensors_event_tjNSt7__cxx1112basic_stringIcSt11char_traitsIcESaIcEEEb=so_stub_for_libtelux_sensor
-Wl,--defsym=_ZN5telux6sensor10SensorUtil21getSensorSelfTestTypeENS0_12SelfTestTypeE=so_stub_for_libtelux_sensor
-Wl,--defsym=_ZN5telux6sensor10SensorUtil27getStatusFromSensorResponseEi=so_stub_for_libtelux_sensor
-Wl,--defsym=_ZN5telux6sensor10SensorUtil29getErrorCodeForSelfTestResultE14SelfTestResult=so_stub_for_libtelux_sensor
-Wl,--defsym=_ZN5telux6sensor10SensorUtil30getSensorResultTypeForSelfTestE18SelfTestResultType=so_stub_for_libtelux_sensor
-Wl,--defsym=_ZN5telux6sensor13SensorFactory11getInstanceEv=so_stub_for_libtelux_sensor
-Wl,--defsym=_ZN5telux6sensor13SensorFactoryC1Ev=so_stub_for_libtelux_sensor
-Wl,--defsym=_ZN5telux6sensor13SensorFactoryC2Ev=so_stub_for_libtelux_sensor
-Wl,--defsym=_ZN5telux6sensor13SensorFactoryD0Ev=so_stub_for_libtelux_sensor
-Wl,--defsym=_ZN5telux6sensor13SensorFactoryD1Ev=so_stub_for_libtelux_sensor
-Wl,--defsym=_ZN5telux6sensor13SensorFactoryD2Ev=so_stub_for_libtelux_sensor
-Wl,--defsym=_ZN5telux6sensor16SensorClientImpl10deactivateEv=so_stub_for_libtelux_sensor
-Wl,--defsym=_ZN5telux6sensor16SensorClientImpl12updateConfigERNS0_19SensorConfigurationE=so_stub_for_libtelux_sensor
-Wl,--defsym=_ZN5telux6sensor16SensorClientImpl13getSensorInfoEv=so_stub_for_libtelux_sensor
-Wl,--defsym=_ZN5telux6sensor16SensorClientImpl13onSensorEventEiPK15sensors_event_tj=so_stub_for_libtelux_sensor
-Wl,--defsym=_ZN5telux6sensor16SensorClientImpl14activateSensorEb=so_stub_for_libtelux_sensor
-Wl,--defsym=_ZN5telux6sensor16SensorClientImpl16getConfigurationEv=so_stub_for_libtelux_sensor
-Wl,--defsym=_ZN5telux6sensor16SensorClientImpl16onSysPowerChangeENS_3qmi8PwrStateE=so_stub_for_libtelux_sensor
-Wl,--defsym=_ZN5telux6sensor16SensorClientImpl16registerListenerESt8weak_ptrINS0_20ISensorEventListenerEE=so_stub_for_libtelux_sensor
-Wl,--defsym=_ZN5telux6sensor16SensorClientImpl17notifySensorEventESt10shared_ptrISt6vectorINS0_11SensorEventESaIS4_EEE=so_stub_for_libtelux_sensor
-Wl,--defsym=_ZN5telux6sensor16SensorClientImpl18deregisterListenerESt8weak_ptrINS0_20ISensorEventListenerEE=so_stub_for_libtelux_sensor
-Wl,--defsym=_ZN5telux6sensor16SensorClientImpl18enableLowPowerModeEv=so_stub_for_libtelux_sensor
-Wl,--defsym=_ZN5telux6sensor16SensorClientImpl18mergeConfigurationENS0_19SensorConfigurationE=so_stub_for_libtelux_sensor
-Wl,--defsym=_ZN5telux6sensor16SensorClientImpl19disableLowPowerModeEv=so_stub_for_libtelux_sensor
-Wl,--defsym=_ZN5telux6sensor16SensorClientImpl21onConfigurationUpdateEifib=so_stub_for_libtelux_sensor
-Wl,--defsym=_ZN5telux6sensor16SensorClientImpl24onCapabilitiesMaskUpdateE22SensorCapabilitiesMask=so_stub_for_libtelux_sensor
-Wl,--defsym=_ZN5telux6sensor16SensorClientImpl25configureContinuousStreamENS0_19SensorConfigurationE=so_stub_for_libtelux_sensor
-Wl,--defsym=_ZN5telux6sensor16SensorClientImpl25notifyConfigurationUpdateENS0_19SensorConfigurationE=so_stub_for_libtelux_sensor
-Wl,--defsym=_ZN5telux6sensor16SensorClientImpl25notifySelfTestFailedEventEv=so_stub_for_libtelux_sensor
-Wl,--defsym=_ZN5telux6sensor16SensorClientImpl27checkStreamingConfigurationENS0_19SensorConfigurationE=so_stub_for_libtelux_sensor
-Wl,--defsym=_ZN5telux6sensor16SensorClientImpl27enableSensorDataAcquisitionEv=so_stub_for_libtelux_sensor
-Wl,--defsym=_ZN5telux6sensor16SensorClientImpl4initEv=so_stub_for_libtelux_sensor
-Wl,--defsym=_ZN5telux6sensor16SensorClientImpl8activateEv=so_stub_for_libtelux_sensor
-Wl,--defsym=_ZN5telux6sensor16SensorClientImpl8selfTestENS0_12SelfTestTypeESt8functionIFvNS_6common9ErrorCodeEEE=so_stub_for_libtelux_sensor
-Wl,--defsym=_ZN5telux6sensor16SensorClientImpl8selfTestENS0_12SelfTestTypeESt8functionIFvNS_6common9ErrorCodeENS0_20SelfTestResultParamsEEE=so_stub_for_libtelux_sensor
-Wl,--defsym=_ZN5telux6sensor16SensorClientImpl9configureENS0_19SensorConfigurationE=so_stub_for_libtelux_sensor
-Wl,--defsym=_ZN5telux6sensor16SensorClientImplC1ENS0_10SensorInfoE=so_stub_for_libtelux_sensor
-Wl,--defsym=_ZN5telux6sensor16SensorClientImplC2ENS0_10SensorInfoE=so_stub_for_libtelux_sensor
-Wl,--defsym=_ZN5telux6sensor16SensorClientImplD0Ev=so_stub_for_libtelux_sensor
-Wl,--defsym=_ZN5telux6sensor16SensorClientImplD1Ev=so_stub_for_libtelux_sensor
-Wl,--defsym=_ZN5telux6sensor16SensorClientImplD2Ev=so_stub_for_libtelux_sensor
-Wl,--defsym=_ZN5telux6sensor17SensorFactoryImpl11getInstanceEv=so_stub_for_libtelux_sensor
-Wl,--defsym=_ZN5telux6sensor17SensorFactoryImpl16getSensorManagerESt8functionIFvNS_6common13ServiceStatusEEE=so_stub_for_libtelux_sensor
-Wl,--defsym=_ZN5telux6sensor17SensorFactoryImpl20initCompleteNotifierERSt6vectorISt8functionIFvNS_6common13ServiceStatusEEESaIS7_EES5_=so_stub_for_libtelux_sensor
-Wl,--defsym=_ZN5telux6sensor17SensorFactoryImpl23getSensorFeatureManagerESt8functionIFvNS_6common13ServiceStatusEEE=so_stub_for_libtelux_sensor
-Wl,--defsym=_ZN5telux6sensor17SensorFactoryImplC1Ev=so_stub_for_libtelux_sensor
-Wl,--defsym=_ZN5telux6sensor17SensorFactoryImplC2Ev=so_stub_for_libtelux_sensor
-Wl,--defsym=_ZN5telux6sensor17SensorFactoryImplD0Ev=so_stub_for_libtelux_sensor
-Wl,--defsym=_ZN5telux6sensor17SensorFactoryImplD1Ev=so_stub_for_libtelux_sensor
-Wl,--defsym=_ZN5telux6sensor17SensorFactoryImplD2Ev=so_stub_for_libtelux_sensor
-Wl,--defsym=_ZN5telux6sensor17SensorManagerImpl13getSensorInfoENSt7__cxx1112basic_stringIcSt11char_traitsIcESaIcEEE=so_stub_for_libtelux_sensor
-Wl,--defsym=_ZN5telux6sensor17SensorManagerImpl13getSensorTypeEi=so_stub_for_libtelux_sensor
-Wl,--defsym=_ZN5telux6sensor17SensorManagerImpl15getSensorClientERSt10shared_ptrINS0_13ISensorClientEENSt7__cxx1112basic_stringIcSt11char_traitsIcESaIcEEE=so_stub_for_libtelux_sensor
-Wl,--defsym=_ZN5telux6sensor17SensorManagerImpl16getServiceStatusEv=so_stub_for_libtelux_sensor
-Wl,--defsym=_ZN5telux6sensor17SensorManagerImpl16setServiceStatusENS_6common13ServiceStatusE=so_stub_for_libtelux_sensor
-Wl,--defsym=_ZN5telux6sensor17SensorManagerImpl16updateSensorInfoEP11sensor_listi=so_stub_for_libtelux_sensor
-Wl,--defsym=_ZN5telux6sensor17SensorManagerImpl19setEulerAngleConfigENS0_16EulerAngleConfigE=so_stub_for_libtelux_sensor
-Wl,--defsym=_ZN5telux6sensor17SensorManagerImpl22getAvailableSensorInfoERSt6vectorINS0_10SensorInfoESaIS3_EE=so_stub_for_libtelux_sensor
-Wl,--defsym=_ZN5telux6sensor17SensorManagerImpl24onCapabilitiesMaskUpdateE22SensorCapabilitiesMask=so_stub_for_libtelux_sensor
-Wl,--defsym=_ZN5telux6sensor17SensorManagerImpl28handleCapabilitiesMaskUpdateE22SensorCapabilitiesMask=so_stub_for_libtelux_sensor
-Wl,--defsym=_ZN5telux6sensor17SensorManagerImpl4initESt8functionIFvNS_6common13ServiceStatusEEE=so_stub_for_libtelux_sensor
-Wl,--defsym=_ZN5telux6sensor17SensorManagerImpl7cleanupEv=so_stub_for_libtelux_sensor
-Wl,--defsym=_ZN5telux6sensor17SensorManagerImpl9getSensorERSt10shared_ptrINS0_13ISensorClientEENSt7__cxx1112basic_stringIcSt11char_traitsIcESaIcEEE=so_stub_for_libtelux_sensor
-Wl,--defsym=_ZN5telux6sensor17SensorManagerImplC1Ev=so_stub_for_libtelux_sensor
-Wl,--defsym=_ZN5telux6sensor17SensorManagerImplC2Ev=so_stub_for_libtelux_sensor
-Wl,--defsym=_ZN5telux6sensor17SensorManagerImplD0Ev=so_stub_for_libtelux_sensor
-Wl,--defsym=_ZN5telux6sensor17SensorManagerImplD1Ev=so_stub_for_libtelux_sensor
-Wl,--defsym=_ZN5telux6sensor17SensorManagerImplD2Ev=so_stub_for_libtelux_sensor
-Wl,--defsym=_ZN5telux6sensor24SensorFeatureManagerImpl13enableFeatureENSt7__cxx1112basic_stringIcSt11char_traitsIcESaIcEEE=so_stub_for_libtelux_sensor
-Wl,--defsym=_ZN5telux6sensor24SensorFeatureManagerImpl14controlFeatureENSt7__cxx1112basic_stringIcSt11char_traitsIcESaIcEEEb=so_stub_for_libtelux_sensor
-Wl,--defsym=_ZN5telux6sensor24SensorFeatureManagerImpl14disableFeatureENSt7__cxx1112basic_stringIcSt11char_traitsIcESaIcEEE=so_stub_for_libtelux_sensor
-Wl,--defsym=_ZN5telux6sensor24SensorFeatureManagerImpl14notifyMlcEventENS0_18SensorFeatureEventE=so_stub_for_libtelux_sensor
-Wl,--defsym=_ZN5telux6sensor24SensorFeatureManagerImpl16getServiceStatusEv=so_stub_for_libtelux_sensor
-Wl,--defsym=_ZN5telux6sensor24SensorFeatureManagerImpl16onSensorMlcEventEPKcP14mlc_event_data=so_stub_for_libtelux_sensor
-Wl,--defsym=_ZN5telux6sensor24SensorFeatureManagerImpl16registerListenerESt8weak_ptrINS0_27ISensorFeatureEventListenerEE=so_stub_for_libtelux_sensor
-Wl,--defsym=_ZN5telux6sensor24SensorFeatureManagerImpl16setServiceStatusENS_6common13ServiceStatusE=so_stub_for_libtelux_sensor
-Wl,--defsym=_ZN5telux6sensor24SensorFeatureManagerImpl18deregisterListenerESt8weak_ptrINS0_27ISensorFeatureEventListenerEE=so_stub_for_libtelux_sensor
-Wl,--defsym=_ZN5telux6sensor24SensorFeatureManagerImpl20getAvailableFeaturesERSt6vectorINS0_13SensorFeatureESaIS3_EE=so_stub_for_libtelux_sensor
-Wl,--defsym=_ZN5telux6sensor24SensorFeatureManagerImpl20onSensorMlcFifoEventEiPK15sensors_event_tj=so_stub_for_libtelux_sensor
-Wl,--defsym=_ZN5telux6sensor24SensorFeatureManagerImpl20updateSensorFeaturesEP20sensor_mlc_case_listi=so_stub_for_libtelux_sensor
-Wl,--defsym=_ZN5telux6sensor24SensorFeatureManagerImpl24notifyMLCFifoSensorEventENSt7__cxx1112basic_stringIcSt11char_traitsIcESaIcEEESt10shared_ptrISt6vectorINS0_11SensorEventESaISA_EEE=so_stub_for_libtelux_sensor
-Wl,--defsym=_ZN5telux6sensor24SensorFeatureManagerImpl24onCapabilitiesMaskUpdateE22SensorCapabilitiesMask=so_stub_for_libtelux_sensor
-Wl,--defsym=_ZN5telux6sensor24SensorFeatureManagerImpl28handleCapabilitiesMaskUpdateE22SensorCapabilitiesMask=so_stub_for_libtelux_sensor
-Wl,--defsym=_ZN5telux6sensor24SensorFeatureManagerImpl4initESt8functionIFvNS_6common13ServiceStatusEEE=so_stub_for_libtelux_sensor
-Wl,--defsym=_ZN5telux6sensor24SensorFeatureManagerImpl7cleanupEv=so_stub_for_libtelux_sensor
-Wl,--defsym=_ZN5telux6sensor24SensorFeatureManagerImplC1Ev=so_stub_for_libtelux_sensor
-Wl,--defsym=_ZN5telux6sensor24SensorFeatureManagerImplC2Ev=so_stub_for_libtelux_sensor
-Wl,--defsym=_ZN5telux6sensor24SensorFeatureManagerImplD0Ev=so_stub_for_libtelux_sensor
-Wl,--defsym=_ZN5telux6sensor24SensorFeatureManagerImplD1Ev=so_stub_for_libtelux_sensor
-Wl,--defsym=_ZN5telux6sensor24SensorFeatureManagerImplD2Ev=so_stub_for_libtelux_sensor
-Wl,--defsym=_ZN9__gnu_cxx13new_allocatorIN13sensor_client12SensorClientEE9constructIS2_JRSt8functionIFv22SensorCapabilitiesMaskEEEEEvPT_DpOT0_=so_stub_for_libtelux_sensor
-Wl,--defsym=_ZN9__gnu_cxx5__ops10_Iter_predIZN5telux6common15ListenerManager16registerListenerESt8weak_ptrINS3_12ISDKListenerEEEUlS7_E_EclINS_17__normal_iteratorIPS7_St6vectorIS7_SaIS7_EEEEEEbT_=so_stub_for_libtelux_sensor
-Wl,--defsym=_ZNKSt13__future_base13_State_baseV221_M_is_deferred_futureEv=so_stub_for_libtelux_sensor
-Wl,--defsym=_ZNKSt14__basic_futureIvE13_M_get_resultEv=so_stub_for_libtelux_sensor
-Wl,--defsym=_ZNSt10_HashtableIiSt4pairIKiSt10shared_ptrIN5telux6common16ICommandCallbackEEESaIS7_ENSt8__detail10_Select1stESt8equal_toIiESt4hashIiENS9_18_Mod_range_hashingENS9_20_Default_ranged_hashENS9_20_Prime_rehash_policyENS9_17_Hashtable_traitsILb0ELb0ELb1EEEE13_M_rehash_auxEmSt17integral_constantIbLb1EE=so_stub_for_libtelux_sensor
-Wl,--defsym=_ZNSt10_HashtableIiSt4pairIKiSt10shared_ptrIN5telux6common16ICommandCallbackEEESaIS7_ENSt8__detail10_Select1stESt8equal_toIiESt4hashIiENS9_18_Mod_range_hashingENS9_20_Default_ranged_hashENS9_20_Prime_rehash_policyENS9_17_Hashtable_traitsILb0ELb0ELb1EEEE21_M_insert_unique_nodeEmmPNS9_10_Hash_nodeIS7_Lb0EEEm=so_stub_for_libtelux_sensor
-Wl,--defsym=_ZNSt10_HashtableIiSt4pairIKiSt10shared_ptrIN5telux6common16ICommandCallbackEEESaIS7_ENSt8__detail10_Select1stESt8equal_toIiESt4hashIiENS9_18_Mod_range_hashingENS9_20_Default_ranged_hashENS9_20_Prime_rehash_policyENS9_17_Hashtable_traitsILb0ELb0ELb1EEEE9_M_rehashEmRKm=so_stub_for_libtelux_sensor
-Wl,--defsym=_ZNSt10shared_ptrIN5telux6common15ListenerManagerEEC1ISaIS2_EJEEESt20_Sp_alloc_shared_tagIT_EDpOT0_=so_stub_for_libtelux_sensor
-Wl,--defsym=_ZNSt10shared_ptrIN5telux6common15ListenerManagerEEC2ISaIS2_EJEEESt20_Sp_alloc_shared_tagIT_EDpOT0_=so_stub_for_libtelux_sensor
-Wl,--defsym=_ZNSt10shared_ptrIN5telux6sensor17SensorManagerImplEEC1ISaIS2_EJEEESt20_Sp_alloc_shared_tagIT_EDpOT0_=so_stub_for_libtelux_sensor
-Wl,--defsym=_ZNSt10shared_ptrIN5telux6sensor17SensorManagerImplEEC2ISaIS2_EJEEESt20_Sp_alloc_shared_tagIT_EDpOT0_=so_stub_for_libtelux_sensor
-Wl,--defsym=_ZNSt10shared_ptrIN5telux6sensor24SensorFeatureManagerImplEEC1ISaIS2_EJEEESt20_Sp_alloc_shared_tagIT_EDpOT0_=so_stub_for_libtelux_sensor
-Wl,--defsym=_ZNSt10shared_ptrIN5telux6sensor24SensorFeatureManagerImplEEC2ISaIS2_EJEEESt20_Sp_alloc_shared_tagIT_EDpOT0_=so_stub_for_libtelux_sensor
-Wl,--defsym=_ZNSt10shared_ptrISt6threadEC1ISaIS0_EJMN5telux6common14AsyncTaskQueueIvEEFvvEPS7_EEESt20_Sp_alloc_shared_tagIT_EDpOT0_=so_stub_for_libtelux_sensor
-Wl,--defsym=_ZNSt10shared_ptrISt6threadEC2ISaIS0_EJMN5telux6common14AsyncTaskQueueIvEEFvvEPS7_EEESt20_Sp_alloc_shared_tagIT_EDpOT0_=so_stub_for_libtelux_sensor
-Wl,--defsym=_ZNSt10unique_ptrINSt13__future_base12_Result_baseENS1_8_DeleterEED1Ev=so_stub_for_libtelux_sensor
-Wl,--defsym=_ZNSt10unique_ptrINSt13__future_base12_Result_baseENS1_8_DeleterEED2Ev=so_stub_for_libtelux_sensor
-Wl,--defsym=_ZNSt10unique_ptrINSt6thread6_StateESt14default_deleteIS1_EED1Ev=so_stub_for_libtelux_sensor
-Wl,--defsym=_ZNSt10unique_ptrINSt6thread6_StateESt14default_deleteIS1_EED2Ev=so_stub_for_libtelux_sensor
-Wl,--defsym=_ZNSt10__weak_ptrIN5telux3qmi17ISysPowerListenerELN9__gnu_cxx12_Lock_policyE2EEC1INS0_6sensor16SensorClientImplEvEERKS_IT_LS4_2EE=so_stub_for_libtelux_sensor
-Wl,--defsym=_ZNSt10__weak_ptrIN5telux3qmi17ISysPowerListenerELN9__gnu_cxx12_Lock_policyE2EEC2INS0_6sensor16SensorClientImplEvEERKS_IT_LS4_2EE=so_stub_for_libtelux_sensor
-Wl,--defsym=_ZNSt10__weak_ptrIN5telux6common12ISDKListenerELN9__gnu_cxx12_Lock_policyE2EEC1INS0_6sensor20ISensorEventListenerEvEERKS_IT_LS4_2EE=so_stub_for_libtelux_sensor
-Wl,--defsym=_ZNSt10__weak_ptrIN5telux6common12ISDKListenerELN9__gnu_cxx12_Lock_policyE2EEC1INS0_6sensor27ISensorFeatureEventListenerEvEERKS_IT_LS4_2EE=so_stub_for_libtelux_sensor
-Wl,--defsym=_ZNSt10__weak_ptrIN5telux6common12ISDKListenerELN9__gnu_cxx12_Lock_policyE2EEC2INS0_6sensor20ISensorEventListenerEvEERKS_IT_LS4_2EE=so_stub_for_libtelux_sensor
-Wl,--defsym=_ZNSt10__weak_ptrIN5telux6common12ISDKListenerELN9__gnu_cxx12_Lock_policyE2EEC2INS0_6sensor27ISensorFeatureEventListenerEvEERKS_IT_LS4_2EE=so_stub_for_libtelux_sensor
-Wl,--defsym=_ZNSt11_Deque_baseISt13shared_futureIvESaIS1_EE15_M_create_nodesEPPS1_S5_=so_stub_for_libtelux_sensor
-Wl,--defsym=_ZNSt11_Deque_baseISt13shared_futureIvESaIS1_EE16_M_destroy_nodesEPPS1_S5_=so_stub_for_libtelux_sensor
-Wl,--defsym=_ZNSt11_Deque_baseISt13shared_futureIvESaIS1_EE17_M_initialize_mapEm=so_stub_for_libtelux_sensor
-Wl,--defsym=_ZNSt12_Destroy_auxILb0EE9__destroyIPN5telux6sensor13SensorFeatureEEEvT_S6_=so_stub_for_libtelux_sensor
-Wl,--defsym=_ZNSt12future_errorC1ESt10error_code=so_stub_for_libtelux_sensor
-Wl,--defsym=_ZNSt12future_errorC2ESt10error_code=so_stub_for_libtelux_sensor
-Wl,--defsym=_ZNSt12__shared_ptrIN5telux6sensor13ISensorClientELN9__gnu_cxx12_Lock_policyE2EEaSEOS5_=so_stub_for_libtelux_sensor
-Wl,--defsym=_ZNSt12__shared_ptrIN5telux6sensor16SensorClientImplELN9__gnu_cxx12_Lock_policyE2EEC1ISaIS2_EJRNS1_10SensorInfoEEEESt20_Sp_alloc_shared_tagIT_EDpOT0_=so_stub_for_libtelux_sensor
-Wl,--defsym=_ZNSt12__shared_ptrIN5telux6sensor16SensorClientImplELN9__gnu_cxx12_Lock_policyE2EEC2ISaIS2_EJRNS1_10SensorInfoEEEESt20_Sp_alloc_shared_tagIT_EDpOT0_=so_stub_for_libtelux_sensor
-Wl,--defsym=_ZNSt12__weak_countILN9__gnu_cxx12_Lock_policyE2EEaSERKSt14__shared_countILS1_2EE=so_stub_for_libtelux_sensor
-Wl,--defsym=_ZNSt13__future_base13_State_baseV210wait_untilINSt6chrono3_V212system_clockENS2_8durationIlSt5ratioILl1ELl1000000000EEEEEESt13future_statusRKNS2_10time_pointIT_T0_EE=so_stub_for_libtelux_sensor
-Wl,--defsym=_ZNSt13__future_base13_State_baseV213_M_set_resultESt8functionIFSt10unique_ptrINS_12_Result_baseENS3_8_DeleterEEvEEb=so_stub_for_libtelux_sensor
-Wl,--defsym=_ZNSt13__future_base13_State_baseV216_M_break_promiseESt10unique_ptrINS_12_Result_baseENS2_8_DeleterEE=so_stub_for_libtelux_sensor
-Wl,--defsym=_ZNSt13__future_base13_State_baseV217_M_complete_asyncEv=so_stub_for_libtelux_sensor
-Wl,--defsym=_ZNSt13__future_base13_State_baseV24waitEv=so_stub_for_libtelux_sensor
-Wl,--defsym=_ZNSt13__future_base13_State_baseV29_M_do_setEPSt8functionIFSt10unique_ptrINS_12_Result_baseENS3_8_DeleterEEvEEPb=so_stub_for_libtelux_sensor
-Wl,--defsym=_ZNSt13__future_base13_State_baseV2D0Ev=so_stub_for_libtelux_sensor
-Wl,--defsym=_ZNSt13__future_base13_State_baseV2D1Ev=so_stub_for_libtelux_sensor
-Wl,--defsym=_ZNSt13__future_base13_State_baseV2D2Ev=so_stub_for_libtelux_sensor
-Wl,--defsym=_ZNSt13__future_base21_Async_state_commonV217_M_complete_asyncEv=so_stub_for_libtelux_sensor
-Wl,--defsym=_ZNSt13__future_base21_Async_state_commonV2D0Ev=so_stub_for_libtelux_sensor
-Wl,--defsym=_ZNSt13__future_base21_Async_state_commonV2D1Ev=so_stub_for_libtelux_sensor
-Wl,--defsym=_ZNSt13__future_base21_Async_state_commonV2D2Ev=so_stub_for_libtelux_sensor
-Wl,--defsym=_ZNSt13__future_base7_ResultIvE10_M_destroyEv=so_stub_for_libtelux_sensor
-Wl,--defsym=_ZNSt13__future_base7_ResultIvED0Ev=so_stub_for_libtelux_sensor
-Wl,--defsym=_ZNSt13__future_base7_ResultIvED1Ev=so_stub_for_libtelux_sensor
-Wl,--defsym=_ZNSt13__future_base7_ResultIvED2Ev=so_stub_for_libtelux_sensor
-Wl,--defsym=_ZNSt14__basic_futureIvEC1ERKSt10shared_ptrINSt13__future_base13_State_baseV2EE=so_stub_for_libtelux_sensor
-Wl,--defsym=_ZNSt14__basic_futureIvEC2ERKSt10shared_ptrINSt13__future_base13_State_baseV2EE=so_stub_for_libtelux_sensor
-Wl,--defsym=_ZNSt14_Function_base13_Base_managerISt5_BindIFMN5telux6sensor16SensorClientImplEFv22SensorCapabilitiesMaskEPS4_St12_PlaceholderILi1EEEEE10_M_managerERSt9_Any_dataRKSE_St18_Manager_operation=so_stub_for_libtelux_sensor
-Wl,--defsym=_ZNSt14_Function_base13_Base_managerISt5_BindIFMN5telux6sensor16SensorClientImplEFvifibEPS4_St12_PlaceholderILi1EES8_ILi2EES8_ILi3EES8_ILi4EEEEE10_M_managerERSt9_Any_dataRKSG_St18_Manager_operation=so_stub_for_libtelux_sensor
-Wl,--defsym=_ZNSt14_Function_base13_Base_managerISt5_BindIFMN5telux6sensor16SensorClientImplEFviPK15sensors_event_tjEPS4_St12_PlaceholderILi1EESB_ILi2EESB_ILi3EEEEE10_M_managerERSt9_Any_dataRKSI_St18_Manager_operation=so_stub_for_libtelux_sensor
-Wl,--defsym=_ZNSt14_Function_base13_Base_managerISt5_BindIFMN5telux6sensor17SensorManagerImplEFv22SensorCapabilitiesMaskEPS4_St12_PlaceholderILi1EEEEE10_M_managerERSt9_Any_dataRKSE_St18_Manager_operation=so_stub_for_libtelux_sensor
-Wl,--defsym=_ZNSt14_Function_base13_Base_managerISt5_BindIFMN5telux6sensor24SensorFeatureManagerImplEFv22SensorCapabilitiesMaskEPS4_St12_PlaceholderILi1EEEEE10_M_managerERSt9_Any_dataRKSE_St18_Manager_operation=so_stub_for_libtelux_sensor
-Wl,--defsym=_ZNSt14_Function_base13_Base_managerISt5_BindIFMN5telux6sensor24SensorFeatureManagerImplEFviPK15sensors_event_tjEPS4_St12_PlaceholderILi1EESB_ILi2EESB_ILi3EEEEE10_M_managerERSt9_Any_dataRKSI_St18_Manager_operation=so_stub_for_libtelux_sensor
-Wl,--defsym=_ZNSt14_Function_base13_Base_managerISt5_BindIFMN5telux6sensor24SensorFeatureManagerImplEFvPKcP14mlc_event_dataEPS4_St12_PlaceholderILi1EESC_ILi2EEEEE10_M_managerERSt9_Any_dataRKSI_St18_Manager_operation=so_stub_for_libtelux_sensor
-Wl,--defsym=_ZNSt14_Function_baseD1Ev=so_stub_for_libtelux_sensor
-Wl,--defsym=_ZNSt14_Function_baseD2Ev=so_stub_for_libtelux_sensor
-Wl,--defsym=_ZNSt14__shared_countILN9__gnu_cxx12_Lock_policyE2EEC1ERKSt12__weak_countILS1_2EESt9nothrow_t=so_stub_for_libtelux_sensor
-Wl,--defsym=_ZNSt14__shared_countILN9__gnu_cxx12_Lock_policyE2EEC1IN13sensor_client12SensorClientESaIS5_EJRSt8functionIFv22SensorCapabilitiesMaskEEEEERPT_St20_Sp_alloc_shared_tagIT0_EDpOT1_=so_stub_for_libtelux_sensor
-Wl,--defsym=_ZNSt14__shared_countILN9__gnu_cxx12_Lock_policyE2EEC1IN5telux6common18FunctionalCallbackIJNS5_9ErrorCodeEEEESaIS8_EJRSt8functionIFvS7_EEEEERPT_St20_Sp_alloc_shared_tagIT0_EDpOT1_=so_stub_for_libtelux_sensor
-Wl,--defsym=_ZNSt14__shared_countILN9__gnu_cxx12_Lock_policyE2EEC1IN5telux6common18FunctionalCallbackIJNS5_9ErrorCodeENS4_6sensor20SelfTestResultParamsEEEESaISA_EJRSt8functionIFvS7_S9_EEEEERPT_St20_Sp_alloc_shared_tagIT0_EDpOT1_=so_stub_for_libtelux_sensor
-Wl,--defsym=_ZNSt14__shared_countILN9__gnu_cxx12_Lock_policyE2EEC1IN5telux6sensor16SensorClientImplESaIS6_EJRNS5_10SensorInfoEEEERPT_St20_Sp_alloc_shared_tagIT0_EDpOT1_=so_stub_for_libtelux_sensor
-Wl,--defsym=_ZNSt14__shared_countILN9__gnu_cxx12_Lock_policyE2EEC2ERKSt12__weak_countILS1_2EESt9nothrow_t=so_stub_for_libtelux_sensor
-Wl,--defsym=_ZNSt14__shared_countILN9__gnu_cxx12_Lock_policyE2EEC2IN13sensor_client12SensorClientESaIS5_EJRSt8functionIFv22SensorCapabilitiesMaskEEEEERPT_St20_Sp_alloc_shared_tagIT0_EDpOT1_=so_stub_for_libtelux_sensor
-Wl,--defsym=_ZNSt14__shared_countILN9__gnu_cxx12_Lock_policyE2EEC2IN5telux6common18FunctionalCallbackIJNS5_9ErrorCodeEEEESaIS8_EJRSt8functionIFvS7_EEEEERPT_St20_Sp_alloc_shared_tagIT0_EDpOT1_=so_stub_for_libtelux_sensor
-Wl,--defsym=_ZNSt14__shared_countILN9__gnu_cxx12_Lock_policyE2EEC2IN5telux6common18FunctionalCallbackIJNS5_9ErrorCodeENS4_6sensor20SelfTestResultParamsEEEESaISA_EJRSt8functionIFvS7_S9_EEEEERPT_St20_Sp_alloc_shared_tagIT0_EDpOT1_=so_stub_for_libtelux_sensor
-Wl,--defsym=_ZNSt14__shared_countILN9__gnu_cxx12_Lock_policyE2EEC2IN5telux6sensor16SensorClientImplESaIS6_EJRNS5_10SensorInfoEEEERPT_St20_Sp_alloc_shared_tagIT0_EDpOT1_=so_stub_for_libtelux_sensor
-Wl,--defsym=_ZNSt15_Deque_iteratorISt13shared_futureIvERKS1_PS2_EpLEl=so_stub_for_libtelux_sensor
-Wl,--defsym=_ZNSt15_Deque_iteratorISt13shared_futureIvERS1_PS1_EpLEl=so_stub_for_libtelux_sensor
-Wl,--defsym=_ZNSt15__exception_ptr12__dest_thunkISt12future_errorEEvPv=so_stub_for_libtelux_sensor
-Wl,--defsym=_ZNSt15__exception_ptr13exception_ptraSEOS0_=so_stub_for_libtelux_sensor
-Wl,--defsym=_ZNSt16_Sp_counted_baseILN9__gnu_cxx12_Lock_policyE2EE10_M_releaseEv=so_stub_for_libtelux_sensor
-Wl,--defsym=_ZNSt16_Sp_counted_baseILN9__gnu_cxx12_Lock_policyE2EE15_M_weak_releaseEv=so_stub_for_libtelux_sensor
-Wl,--defsym=_ZNSt17_Function_handlerIFv22SensorCapabilitiesMaskESt5_BindIFMN5telux6sensor16SensorClientImplEFvS0_EPS5_St12_PlaceholderILi1EEEEE10_M_managerERSt9_Any_dataRKSE_St18_Manager_operation=so_stub_for_libtelux_sensor
-Wl,--defsym=_ZNSt17_Function_handlerIFv22SensorCapabilitiesMaskESt5_BindIFMN5telux6sensor16SensorClientImplEFvS0_EPS5_St12_PlaceholderILi1EEEEE9_M_invokeERKSt9_Any_dataOS0_=so_stub_for_libtelux_sensor
-Wl,--defsym=_ZNSt17_Function_handlerIFv22SensorCapabilitiesMaskESt5_BindIFMN5telux6sensor17SensorManagerImplEFvS0_EPS5_St12_PlaceholderILi1EEEEE10_M_managerERSt9_Any_dataRKSE_St18_Manager_operation=so_stub_for_libtelux_sensor
-Wl,--defsym=_ZNSt17_Function_handlerIFv22SensorCapabilitiesMaskESt5_BindIFMN5telux6sensor17SensorManagerImplEFvS0_EPS5_St12_PlaceholderILi1EEEEE9_M_invokeERKSt9_Any_dataOS0_=so_stub_for_libtelux_sensor
-Wl,--defsym=_ZNSt17_Function_handlerIFv22SensorCapabilitiesMaskESt5_BindIFMN5telux6sensor24SensorFeatureManagerImplEFvS0_EPS5_St12_PlaceholderILi1EEEEE10_M_managerERSt9_Any_dataRKSE_St18_Manager_operation=so_stub_for_libtelux_sensor
-Wl,--defsym=_ZNSt17_Function_handlerIFv22SensorCapabilitiesMaskESt5_BindIFMN5telux6sensor24SensorFeatureManagerImplEFvS0_EPS5_St12_PlaceholderILi1EEEEE9_M_invokeERKSt9_Any_dataOS0_=so_stub_for_libtelux_sensor
-Wl,--defsym=_ZNSt17_Function_handlerIFvifibESt5_BindIFMN5telux6sensor16SensorClientImplEFvifibEPS4_St12_PlaceholderILi1EES8_ILi2EES8_ILi3EES8_ILi4EEEEE10_M_managerERSt9_Any_dataRKSG_St18_Manager_operation=so_stub_for_libtelux_sensor
-Wl,--defsym=_ZNSt17_Function_handlerIFvifibESt5_BindIFMN5telux6sensor16SensorClientImplEFvifibEPS4_St12_PlaceholderILi1EES8_ILi2EES8_ILi3EES8_ILi4EEEEE9_M_invokeERKSt9_Any_dataOiOfSJ_Ob=so_stub_for_libtelux_sensor
-Wl,--defsym=_ZNSt17_Function_handlerIFviPK15sensors_event_tjESt5_BindIFMN5telux6sensor16SensorClientImplEFviS2_jEPS7_St12_PlaceholderILi1EESB_ILi2EESB_ILi3EEEEE10_M_managerERSt9_Any_dataRKSI_St18_Manager_operation=so_stub_for_libtelux_sensor
-Wl,--defsym=_ZNSt17_Function_handlerIFviPK15sensors_event_tjESt5_BindIFMN5telux6sensor16SensorClientImplEFviS2_jEPS7_St12_PlaceholderILi1EESB_ILi2EESB_ILi3EEEEE9_M_invokeERKSt9_Any_dataOiOS2_Oj=so_stub_for_libtelux_sensor
-Wl,--defsym=_ZNSt17_Function_handlerIFviPK15sensors_event_tjESt5_BindIFMN5telux6sensor24SensorFeatureManagerImplEFviS2_jEPS7_St12_PlaceholderILi1EESB_ILi2EESB_ILi3EEEEE10_M_managerERSt9_Any_dataRKSI_St18_Manager_operation=so_stub_for_libtelux_sensor
-Wl,--defsym=_ZNSt17_Function_handlerIFviPK15sensors_event_tjESt5_BindIFMN5telux6sensor24SensorFeatureManagerImplEFviS2_jEPS7_St12_PlaceholderILi1EESB_ILi2EESB_ILi3EEEEE9_M_invokeERKSt9_Any_dataOiOS2_Oj=so_stub_for_libtelux_sensor
-Wl,--defsym=_ZNSt17_Function_handlerIFvPKcP14mlc_event_dataESt5_BindIFMN5telux6sensor24SensorFeatureManagerImplEFvS1_S3_EPS8_St12_PlaceholderILi1EESC_ILi2EEEEE10_M_managerERSt9_Any_dataRKSI_St18_Manager_operation=so_stub_for_libtelux_sensor
-Wl,--defsym=_ZNSt17_Function_handlerIFvPKcP14mlc_event_dataESt5_BindIFMN5telux6sensor24SensorFeatureManagerImplEFvS1_S3_EPS8_St12_PlaceholderILi1EESC_ILi2EEEEE9_M_invokeERKSt9_Any_dataOS1_OS3_=so_stub_for_libtelux_sensor
-Wl,--defsym=_ZNSt18condition_variable4waitIZN5telux6common14AsyncTaskQueueIvE11executeTaskEvEUlvE_EEvRSt11unique_lockISt5mutexET_=so_stub_for_libtelux_sensor
-Wl,--defsym=_ZNSt20__uninitialized_copyILb0EE13__uninit_copyIN9__gnu_cxx17__normal_iteratorIPKN5telux6sensor10SensorInfoESt6vectorIS6_SaIS6_EEEEPS6_EET0_T_SF_SE_=so_stub_for_libtelux_sensor
-Wl,--defsym=_ZNSt20__uninitialized_copyILb0EE13__uninit_copyIN9__gnu_cxx17__normal_iteratorIPKN5telux6sensor13SensorFeatureESt6vectorIS6_SaIS6_EEEEPS6_EET0_T_SF_SE_=so_stub_for_libtelux_sensor
-Wl,--defsym=_ZNSt20__uninitialized_copyILb0EE13__uninit_copyIN9__gnu_cxx17__normal_iteratorIPKSt8functionIFvN5telux6common13ServiceStatusEEESt6vectorIS9_SaIS9_EEEEPS9_EET0_T_SI_SH_=so_stub_for_libtelux_sensor
-Wl,--defsym=_ZNSt20__uninitialized_copyILb0EE13__uninit_copyIPN5telux6sensor10SensorInfoES5_EET0_T_S7_S6_=so_stub_for_libtelux_sensor
-Wl,--defsym=_ZNSt20__uninitialized_copyILb0EE13__uninit_copyIPN5telux6sensor13SensorFeatureES5_EET0_T_S7_S6_=so_stub_for_libtelux_sensor
-Wl,--defsym=_ZNSt20__uninitialized_copyILb0EE13__uninit_copyIPSt8functionIFvN5telux6common13ServiceStatusEEES8_EET0_T_SA_S9_=so_stub_for_libtelux_sensor
-Wl,--defsym=_ZNSt20__uninitialized_copyILb0EE13__uninit_copyISt15_Deque_iteratorISt13shared_futureIvERKS4_PS5_ES2_IS4_RS4_PS4_EEET0_T_SD_SC_=so_stub_for_libtelux_sensor
-Wl,--defsym=_ZNSt23_Sp_counted_ptr_inplaceIN13sensor_client12SensorClientESaIS1_ELN9__gnu_cxx12_Lock_policyE2EE10_M_destroyEv=so_stub_for_libtelux_sensor
-Wl,--defsym=_ZNSt23_Sp_counted_ptr_inplaceIN13sensor_client12SensorClientESaIS1_ELN9__gnu_cxx12_Lock_policyE2EE10_M_disposeEv=so_stub_for_libtelux_sensor
-Wl,--defsym=_ZNSt23_Sp_counted_ptr_inplaceIN13sensor_client12SensorClientESaIS1_ELN9__gnu_cxx12_Lock_policyE2EE14_M_get_deleterERKSt9type_info=so_stub_for_libtelux_sensor
-Wl,--defsym=_ZNSt23_Sp_counted_ptr_inplaceIN13sensor_client12SensorClientESaIS1_ELN9__gnu_cxx12_Lock_policyE2EED0Ev=so_stub_for_libtelux_sensor
-Wl,--defsym=_ZNSt23_Sp_counted_ptr_inplaceIN13sensor_client12SensorClientESaIS1_ELN9__gnu_cxx12_Lock_policyE2EED1Ev=so_stub_for_libtelux_sensor
-Wl,--defsym=_ZNSt23_Sp_counted_ptr_inplaceIN13sensor_client12SensorClientESaIS1_ELN9__gnu_cxx12_Lock_policyE2EED2Ev=so_stub_for_libtelux_sensor
-Wl,--defsym=_ZNSt23_Sp_counted_ptr_inplaceIN5telux6common15ListenerManagerESaIS2_ELN9__gnu_cxx12_Lock_policyE2EE10_M_destroyEv=so_stub_for_libtelux_sensor
-Wl,--defsym=_ZNSt23_Sp_counted_ptr_inplaceIN5telux6common15ListenerManagerESaIS2_ELN9__gnu_cxx12_Lock_policyE2EE10_M_disposeEv=so_stub_for_libtelux_sensor
-Wl,--defsym=_ZNSt23_Sp_counted_ptr_inplaceIN5telux6common15ListenerManagerESaIS2_ELN9__gnu_cxx12_Lock_policyE2EE14_M_get_deleterERKSt9type_info=so_stub_for_libtelux_sensor
-Wl,--defsym=_ZNSt23_Sp_counted_ptr_inplaceIN5telux6common15ListenerManagerESaIS2_ELN9__gnu_cxx12_Lock_policyE2EED0Ev=so_stub_for_libtelux_sensor
-Wl,--defsym=_ZNSt23_Sp_counted_ptr_inplaceIN5telux6common15ListenerManagerESaIS2_ELN9__gnu_cxx12_Lock_policyE2EED1Ev=so_stub_for_libtelux_sensor
-Wl,--defsym=_ZNSt23_Sp_counted_ptr_inplaceIN5telux6common15ListenerManagerESaIS2_ELN9__gnu_cxx12_Lock_policyE2EED2Ev=so_stub_for_libtelux_sensor
-Wl,--defsym=_ZNSt23_Sp_counted_ptr_inplaceIN5telux6common18FunctionalCallbackIJNS1_9ErrorCodeEEEESaIS4_ELN9__gnu_cxx12_Lock_policyE2EE10_M_destroyEv=so_stub_for_libtelux_sensor
-Wl,--defsym=_ZNSt23_Sp_counted_ptr_inplaceIN5telux6common18FunctionalCallbackIJNS1_9ErrorCodeEEEESaIS4_ELN9__gnu_cxx12_Lock_policyE2EE10_M_disposeEv=so_stub_for_libtelux_sensor
-Wl,--defsym=_ZNSt23_Sp_counted_ptr_inplaceIN5telux6common18FunctionalCallbackIJNS1_9ErrorCodeEEEESaIS4_ELN9__gnu_cxx12_Lock_policyE2EE14_M_get_deleterERKSt9type_info=so_stub_for_libtelux_sensor
-Wl,--defsym=_ZNSt23_Sp_counted_ptr_inplaceIN5telux6common18FunctionalCallbackIJNS1_9ErrorCodeEEEESaIS4_ELN9__gnu_cxx12_Lock_policyE2EED0Ev=so_stub_for_libtelux_sensor
-Wl,--defsym=_ZNSt23_Sp_counted_ptr_inplaceIN5telux6common18FunctionalCallbackIJNS1_9ErrorCodeEEEESaIS4_ELN9__gnu_cxx12_Lock_policyE2EED1Ev=so_stub_for_libtelux_sensor
-Wl,--defsym=_ZNSt23_Sp_counted_ptr_inplaceIN5telux6common18FunctionalCallbackIJNS1_9ErrorCodeEEEESaIS4_ELN9__gnu_cxx12_Lock_policyE2EED2Ev=so_stub_for_libtelux_sensor
-Wl,--defsym=_ZNSt23_Sp_counted_ptr_inplaceIN5telux6common18FunctionalCallbackIJNS1_9ErrorCodeENS0_6sensor20SelfTestResultParamsEEEESaIS6_ELN9__gnu_cxx12_Lock_policyE2EE10_M_destroyEv=so_stub_for_libtelux_sensor
-Wl,--defsym=_ZNSt23_Sp_counted_ptr_inplaceIN5telux6common18FunctionalCallbackIJNS1_9ErrorCodeENS0_6sensor20SelfTestResultParamsEEEESaIS6_ELN9__gnu_cxx12_Lock_policyE2EE10_M_disposeEv=so_stub_for_libtelux_sensor
-Wl,--defsym=_ZNSt23_Sp_counted_ptr_inplaceIN5telux6common18FunctionalCallbackIJNS1_9ErrorCodeENS0_6sensor20SelfTestResultParamsEEEESaIS6_ELN9__gnu_cxx12_Lock_policyE2EE14_M_get_deleterERKSt9type_info=so_stub_for_libtelux_sensor
-Wl,--defsym=_ZNSt23_Sp_counted_ptr_inplaceIN5telux6common18FunctionalCallbackIJNS1_9ErrorCodeENS0_6sensor20SelfTestResultParamsEEEESaIS6_ELN9__gnu_cxx12_Lock_policyE2EED0Ev=so_stub_for_libtelux_sensor
-Wl,--defsym=_ZNSt23_Sp_counted_ptr_inplaceIN5telux6common18FunctionalCallbackIJNS1_9ErrorCodeENS0_6sensor20SelfTestResultParamsEEEESaIS6_ELN9__gnu_cxx12_Lock_policyE2EED1Ev=so_stub_for_libtelux_sensor
-Wl,--defsym=_ZNSt23_Sp_counted_ptr_inplaceIN5telux6common18FunctionalCallbackIJNS1_9ErrorCodeENS0_6sensor20SelfTestResultParamsEEEESaIS6_ELN9__gnu_cxx12_Lock_policyE2EED2Ev=so_stub_for_libtelux_sensor
-Wl,--defsym=_ZNSt23_Sp_counted_ptr_inplaceIN5telux6sensor16SensorClientImplESaIS2_ELN9__gnu_cxx12_Lock_policyE2EE10_M_destroyEv=so_stub_for_libtelux_sensor
-Wl,--defsym=_ZNSt23_Sp_counted_ptr_inplaceIN5telux6sensor16SensorClientImplESaIS2_ELN9__gnu_cxx12_Lock_policyE2EE10_M_disposeEv=so_stub_for_libtelux_sensor
-Wl,--defsym=_ZNSt23_Sp_counted_ptr_inplaceIN5telux6sensor16SensorClientImplESaIS2_ELN9__gnu_cxx12_Lock_policyE2EE14_M_get_deleterERKSt9type_info=so_stub_for_libtelux_sensor
-Wl,--defsym=_ZNSt23_Sp_counted_ptr_inplaceIN5telux6sensor16SensorClientImplESaIS2_ELN9__gnu_cxx12_Lock_policyE2EED0Ev=so_stub_for_libtelux_sensor
-Wl,--defsym=_ZNSt23_Sp_counted_ptr_inplaceIN5telux6sensor16SensorClientImplESaIS2_ELN9__gnu_cxx12_Lock_policyE2EED1Ev=so_stub_for_libtelux_sensor
-Wl,--defsym=_ZNSt23_Sp_counted_ptr_inplaceIN5telux6sensor16SensorClientImplESaIS2_ELN9__gnu_cxx12_Lock_policyE2EED2Ev=so_stub_for_libtelux_sensor
-Wl,--defsym=_ZNSt23_Sp_counted_ptr_inplaceIN5telux6sensor17SensorManagerImplESaIS2_ELN9__gnu_cxx12_Lock_policyE2EE10_M_destroyEv=so_stub_for_libtelux_sensor
-Wl,--defsym=_ZNSt23_Sp_counted_ptr_inplaceIN5telux6sensor17SensorManagerImplESaIS2_ELN9__gnu_cxx12_Lock_policyE2EE10_M_disposeEv=so_stub_for_libtelux_sensor
-Wl,--defsym=_ZNSt23_Sp_counted_ptr_inplaceIN5telux6sensor17SensorManagerImplESaIS2_ELN9__gnu_cxx12_Lock_policyE2EE14_M_get_deleterERKSt9type_info=so_stub_for_libtelux_sensor
-Wl,--defsym=_ZNSt23_Sp_counted_ptr_inplaceIN5telux6sensor17SensorManagerImplESaIS2_ELN9__gnu_cxx12_Lock_policyE2EED0Ev=so_stub_for_libtelux_sensor
-Wl,--defsym=_ZNSt23_Sp_counted_ptr_inplaceIN5telux6sensor17SensorManagerImplESaIS2_ELN9__gnu_cxx12_Lock_policyE2EED1Ev=so_stub_for_libtelux_sensor
-Wl,--defsym=_ZNSt23_Sp_counted_ptr_inplaceIN5telux6sensor17SensorManagerImplESaIS2_ELN9__gnu_cxx12_Lock_policyE2EED2Ev=so_stub_for_libtelux_sensor
-Wl,--defsym=_ZNSt23_Sp_counted_ptr_inplaceIN5telux6sensor24SensorFeatureManagerImplESaIS2_ELN9__gnu_cxx12_Lock_policyE2EE10_M_destroyEv=so_stub_for_libtelux_sensor
-Wl,--defsym=_ZNSt23_Sp_counted_ptr_inplaceIN5telux6sensor24SensorFeatureManagerImplESaIS2_ELN9__gnu_cxx12_Lock_policyE2EE10_M_disposeEv=so_stub_for_libtelux_sensor
-Wl,--defsym=_ZNSt23_Sp_counted_ptr_inplaceIN5telux6sensor24SensorFeatureManagerImplESaIS2_ELN9__gnu_cxx12_Lock_policyE2EE14_M_get_deleterERKSt9type_info=so_stub_for_libtelux_sensor
-Wl,--defsym=_ZNSt23_Sp_counted_ptr_inplaceIN5telux6sensor24SensorFeatureManagerImplESaIS2_ELN9__gnu_cxx12_Lock_policyE2EED0Ev=so_stub_for_libtelux_sensor
-Wl,--defsym=_ZNSt23_Sp_counted_ptr_inplaceIN5telux6sensor24SensorFeatureManagerImplESaIS2_ELN9__gnu_cxx12_Lock_policyE2EED1Ev=so_stub_for_libtelux_sensor
-Wl,--defsym=_ZNSt23_Sp_counted_ptr_inplaceIN5telux6sensor24SensorFeatureManagerImplESaIS2_ELN9__gnu_cxx12_Lock_policyE2EED2Ev=so_stub_for_libtelux_sensor
-Wl,--defsym=_ZNSt23_Sp_counted_ptr_inplaceISt6threadSaIS0_ELN9__gnu_cxx12_Lock_policyE2EE10_M_destroyEv=so_stub_for_libtelux_sensor
-Wl,--defsym=_ZNSt23_Sp_counted_ptr_inplaceISt6threadSaIS0_ELN9__gnu_cxx12_Lock_policyE2EE10_M_disposeEv=so_stub_for_libtelux_sensor
-Wl,--defsym=_ZNSt23_Sp_counted_ptr_inplaceISt6threadSaIS0_ELN9__gnu_cxx12_Lock_policyE2EE14_M_get_deleterERKSt9type_info=so_stub_for_libtelux_sensor
-Wl,--defsym=_ZNSt23_Sp_counted_ptr_inplaceISt6threadSaIS0_ELN9__gnu_cxx12_Lock_policyE2EED0Ev=so_stub_for_libtelux_sensor
-Wl,--defsym=_ZNSt23_Sp_counted_ptr_inplaceISt6threadSaIS0_ELN9__gnu_cxx12_Lock_policyE2EED1Ev=so_stub_for_libtelux_sensor
-Wl,--defsym=_ZNSt23_Sp_counted_ptr_inplaceISt6threadSaIS0_ELN9__gnu_cxx12_Lock_policyE2EED2Ev=so_stub_for_libtelux_sensor
-Wl,--defsym=_ZNSt23_Sp_counted_ptr_inplaceISt6vectorIN5telux6sensor11SensorEventESaIS3_EESaIS5_ELN9__gnu_cxx12_Lock_policyE2EE10_M_destroyEv=so_stub_for_libtelux_sensor
-Wl,--defsym=_ZNSt23_Sp_counted_ptr_inplaceISt6vectorIN5telux6sensor11SensorEventESaIS3_EESaIS5_ELN9__gnu_cxx12_Lock_policyE2EE10_M_disposeEv=so_stub_for_libtelux_sensor
-Wl,--defsym=_ZNSt23_Sp_counted_ptr_inplaceISt6vectorIN5telux6sensor11SensorEventESaIS3_EESaIS5_ELN9__gnu_cxx12_Lock_policyE2EE14_M_get_deleterERKSt9type_info=so_stub_for_libtelux_sensor
-Wl,--defsym=_ZNSt23_Sp_counted_ptr_inplaceISt6vectorIN5telux6sensor11SensorEventESaIS3_EESaIS5_ELN9__gnu_cxx12_Lock_policyE2EED0Ev=so_stub_for_libtelux_sensor
-Wl,--defsym=_ZNSt23_Sp_counted_ptr_inplaceISt6vectorIN5telux6sensor11SensorEventESaIS3_EESaIS5_ELN9__gnu_cxx12_Lock_policyE2EED1Ev=so_stub_for_libtelux_sensor
-Wl,--defsym=_ZNSt23_Sp_counted_ptr_inplaceISt6vectorIN5telux6sensor11SensorEventESaIS3_EESaIS5_ELN9__gnu_cxx12_Lock_policyE2EED2Ev=so_stub_for_libtelux_sensor
-Wl,--defsym=_ZNSt5dequeISt13shared_futureIvESaIS1_EE13_M_insert_auxISt15_Deque_iteratorIS1_RKS1_PS6_EEEvS5_IS1_RS1_PS1_ET_SD_m=so_stub_for_libtelux_sensor
-Wl,--defsym=_ZNSt5dequeISt13shared_futureIvESaIS1_EE15_M_erase_at_endESt15_Deque_iteratorIS1_RS1_PS1_E=so_stub_for_libtelux_sensor
-Wl,--defsym=_ZNSt5dequeISt13shared_futureIvESaIS1_EE16_M_pop_front_auxEv=so_stub_for_libtelux_sensor
-Wl,--defsym=_ZNSt5dequeISt13shared_futureIvESaIS1_EE16_M_push_back_auxIJRKS1_EEEvDpOT_=so_stub_for_libtelux_sensor
-Wl,--defsym=_ZNSt5dequeISt13shared_futureIvESaIS1_EE17_M_reallocate_mapEmb=so_stub_for_libtelux_sensor
-Wl,--defsym=_ZNSt5dequeISt13shared_futureIvESaIS1_EE19_M_destroy_data_auxESt15_Deque_iteratorIS1_RS1_PS1_ES7_=so_stub_for_libtelux_sensor
-Wl,--defsym=_ZNSt5dequeISt13shared_futureIvESaIS1_EE19_M_range_insert_auxISt15_Deque_iteratorIS1_RKS1_PS6_EEEvS5_IS1_RS1_PS1_ET_SD_St20forward_iterator_tag=so_stub_for_libtelux_sensor
-Wl,--defsym=_ZNSt5dequeISt13shared_futureIvESaIS1_EE23_M_new_elements_at_backEm=so_stub_for_libtelux_sensor
-Wl,--defsym=_ZNSt5dequeISt13shared_futureIvESaIS1_EE24_M_new_elements_at_frontEm=so_stub_for_libtelux_sensor
-Wl,--defsym=_ZNSt5dequeISt13shared_futureIvESaIS1_EE8_M_eraseESt15_Deque_iteratorIS1_RS1_PS1_E=so_stub_for_libtelux_sensor
-Wl,--defsym=_ZNSt5dequeISt13shared_futureIvESaIS1_EE9push_backERKS1_=so_stub_for_libtelux_sensor
-Wl,--defsym=_ZNSt5dequeISt13shared_futureIvESaIS1_EEaSERKS3_=so_stub_for_libtelux_sensor
-Wl,--defsym=_ZNSt5dequeISt13shared_futureIvESaIS1_EED1Ev=so_stub_for_libtelux_sensor
-Wl,--defsym=_ZNSt5dequeISt13shared_futureIvESaIS1_EED2Ev=so_stub_for_libtelux_sensor
-Wl,--defsym=_ZNSt6thread11_State_implINS_8_InvokerISt5tupleIJMN5telux6common14AsyncTaskQueueIvEEFvvEPS6_EEEEE6_M_runEv=so_stub_for_libtelux_sensor
-Wl,--defsym=_ZNSt6thread11_State_implINS_8_InvokerISt5tupleIJMN5telux6common14AsyncTaskQueueIvEEFvvEPS6_EEEEED0Ev=so_stub_for_libtelux_sensor
-Wl,--defsym=_ZNSt6thread11_State_implINS_8_InvokerISt5tupleIJMN5telux6common14AsyncTaskQueueIvEEFvvEPS6_EEEEED1Ev=so_stub_for_libtelux_sensor
-Wl,--defsym=_ZNSt6thread11_State_implINS_8_InvokerISt5tupleIJMN5telux6common14AsyncTaskQueueIvEEFvvEPS6_EEEEED2Ev=so_stub_for_libtelux_sensor
-Wl,--defsym=_ZNSt6threadC1IMN5telux6common14AsyncTaskQueueIvEEFvvEJPS4_EvEEOT_DpOT0_=so_stub_for_libtelux_sensor
-Wl,--defsym=_ZNSt6threadC2IMN5telux6common14AsyncTaskQueueIvEEFvvEJPS4_EvEEOT_DpOT0_=so_stub_for_libtelux_sensor
-Wl,--defsym=_ZNSt6vectorIfSaIfEE17_M_realloc_insertIJRKfEEEvN9__gnu_cxx17__normal_iteratorIPfS1_EEDpOT_=so_stub_for_libtelux_sensor
-Wl,--defsym=_ZNSt6vectorIfSaIfEEaSERKS1_=so_stub_for_libtelux_sensor
-Wl,--defsym=_ZNSt6vectorIfSaIfEEC1ERKS1_=so_stub_for_libtelux_sensor
-Wl,--defsym=_ZNSt6vectorIfSaIfEEC2ERKS1_=so_stub_for_libtelux_sensor
-Wl,--defsym=_ZNSt6vectorIN5telux6sensor10SensorInfoESaIS2_EE17_M_realloc_insertIJRKS2_EEEvN9__gnu_cxx17__normal_iteratorIPS2_S4_EEDpOT_=so_stub_for_libtelux_sensor
-Wl,--defsym=_ZNSt6vectorIN5telux6sensor10SensorInfoESaIS2_EE20_M_allocate_and_copyIN9__gnu_cxx17__normal_iteratorIPKS2_S4_EEEEPS2_mT_SC_=so_stub_for_libtelux_sensor
-Wl,--defsym=_ZNSt6vectorIN5telux6sensor10SensorInfoESaIS2_EEaSERKS4_=so_stub_for_libtelux_sensor
-Wl,--defsym=_ZNSt6vectorIN5telux6sensor11SensorEventESaIS2_EE17_M_realloc_insertIJRKS2_EEEvN9__gnu_cxx17__normal_iteratorIPS2_S4_EEDpOT_=so_stub_for_libtelux_sensor
-Wl,--defsym=_ZNSt6vectorIN5telux6sensor13SensorFeatureESaIS2_EE17_M_realloc_insertIJRKS2_EEEvN9__gnu_cxx17__normal_iteratorIPS2_S4_EEDpOT_=so_stub_for_libtelux_sensor
-Wl,--defsym=_ZNSt6vectorIN5telux6sensor13SensorFeatureESaIS2_EE20_M_allocate_and_copyIN9__gnu_cxx17__normal_iteratorIPKS2_S4_EEEEPS2_mT_SC_=so_stub_for_libtelux_sensor
-Wl,--defsym=_ZNSt6vectorIN5telux6sensor13SensorFeatureESaIS2_EEaSERKS4_=so_stub_for_libtelux_sensor
-Wl,--defsym=_ZNSt6vectorIN5telux6sensor13SensorFeatureESaIS2_EED1Ev=so_stub_for_libtelux_sensor
-Wl,--defsym=_ZNSt6vectorIN5telux6sensor13SensorFeatureESaIS2_EED2Ev=so_stub_for_libtelux_sensor
-Wl,--defsym=_ZNSt6vectorISt8functionIFvN5telux6common13ServiceStatusEEESaIS5_EE15_M_erase_at_endEPS5_=so_stub_for_libtelux_sensor
-Wl,--defsym=_ZNSt6vectorISt8functionIFvN5telux6common13ServiceStatusEEESaIS5_EE17_M_realloc_insertIJRKS5_EEEvN9__gnu_cxx17__normal_iteratorIPS5_S7_EEDpOT_=so_stub_for_libtelux_sensor
-Wl,--defsym=_ZNSt6vectorISt8functionIFvN5telux6common13ServiceStatusEEESaIS5_EE20_M_allocate_and_copyIN9__gnu_cxx17__normal_iteratorIPKS5_S7_EEEEPS5_mT_SF_=so_stub_for_libtelux_sensor
-Wl,--defsym=_ZNSt6vectorISt8functionIFvN5telux6common13ServiceStatusEEESaIS5_EE9push_backERKS5_=so_stub_for_libtelux_sensor
-Wl,--defsym=_ZNSt6vectorISt8functionIFvN5telux6common13ServiceStatusEEESaIS5_EEaSERKS7_=so_stub_for_libtelux_sensor
-Wl,--defsym=_ZNSt6vectorISt8functionIFvN5telux6common13ServiceStatusEEESaIS5_EED1Ev=so_stub_for_libtelux_sensor
-Wl,--defsym=_ZNSt6vectorISt8functionIFvN5telux6common13ServiceStatusEEESaIS5_EED2Ev=so_stub_for_libtelux_sensor
-Wl,--defsym=_ZNSt6vectorISt8weak_ptrIN5telux6common12ISDKListenerEESaIS4_EE12emplace_backIJRS4_EEEvDpOT_=so_stub_for_libtelux_sensor
-Wl,--defsym=_ZNSt6vectorISt8weak_ptrIN5telux6common12ISDKListenerEESaIS4_EE12emplace_backIJRSt10shared_ptrIS3_EEEEvDpOT_=so_stub_for_libtelux_sensor
-Wl,--defsym=_ZNSt6vectorISt8weak_ptrIN5telux6common12ISDKListenerEESaIS4_EE17_M_realloc_insertIJRS4_EEEvN9__gnu_cxx17__normal_iteratorIPS4_S6_EEDpOT_=so_stub_for_libtelux_sensor
-Wl,--defsym=_ZNSt6vectorISt8weak_ptrIN5telux6common12ISDKListenerEESaIS4_EE17_M_realloc_insertIJRSt10shared_ptrIS3_EEEEvN9__gnu_cxx17__normal_iteratorIPS4_S6_EEDpOT_=so_stub_for_libtelux_sensor
-Wl,--defsym=_ZNSt6vectorISt8weak_ptrIN5telux6common12ISDKListenerEESaIS4_EE8_M_eraseEN9__gnu_cxx17__normal_iteratorIPS4_S6_EE=so_stub_for_libtelux_sensor
-Wl,--defsym=_ZNSt6vectorISt8weak_ptrIN5telux6common12ISDKListenerEESaIS4_EED1Ev=so_stub_for_libtelux_sensor
-Wl,--defsym=_ZNSt6vectorISt8weak_ptrIN5telux6common12ISDKListenerEESaIS4_EED2Ev=so_stub_for_libtelux_sensor
-Wl,--defsym=_ZNSt7__cxx1112basic_stringIcSt11char_traitsIcESaIcEE12_M_constructIPcEEvT_S7_St20forward_iterator_tag=so_stub_for_libtelux_sensor
-Wl,--defsym=_ZNSt7__cxx1112basic_stringIcSt11char_traitsIcESaIcEE12_M_constructIPKcEEvT_S8_St20forward_iterator_tag=so_stub_for_libtelux_sensor
-Wl,--defsym=_ZNSt7__cxx1115basic_stringbufIcSt11char_traitsIcESaIcEED0Ev=so_stub_for_libtelux_sensor
-Wl,--defsym=_ZNSt7__cxx1115basic_stringbufIcSt11char_traitsIcESaIcEED1Ev=so_stub_for_libtelux_sensor
-Wl,--defsym=_ZNSt7__cxx1115basic_stringbufIcSt11char_traitsIcESaIcEED2Ev=so_stub_for_libtelux_sensor
-Wl,--defsym=_ZNSt8__detail9_Map_baseIiSt4pairIKiSt10shared_ptrIN5telux6common16ICommandCallbackEEESaIS8_ENS_10_Select1stESt8equal_toIiESt4hashIiENS_18_Mod_range_hashingENS_20_Default_ranged_hashENS_20_Prime_rehash_policyENS_17_Hashtable_traitsILb0ELb0ELb1EEELb1EEixERS2_=so_stub_for_libtelux_sensor
-Wl,--defsym=_ZNSt8functionIFviPK15sensors_event_tjEEaSISt5_BindIFMN5telux6sensor24SensorFeatureManagerImplEFviS2_jEPS9_St12_PlaceholderILi1EESD_ILi2EESD_ILi3EEEEEENSt9enable_ifIXsrNS4_9_CallableIT_NSJ_IXntsrSt7is_sameINSt9remove_cvINSt16remove_referenceISL_E4typeEE4typeES4_E5valueESt5decayISL_EE4type4typeESt15__invoke_resultIRSY_JiS2_jEEEE5valueERS4_E4typeEOSL_=so_stub_for_libtelux_sensor
-Wl,--defsym=_ZNSt8functionIFvN5telux6common13ServiceStatusEEEaSERKS4_=so_stub_for_libtelux_sensor
-Wl,--defsym=_ZNSt8functionIFvPKcP14mlc_event_dataEEaSISt5_BindIFMN5telux6sensor24SensorFeatureManagerImplEFvS1_S3_EPSA_St12_PlaceholderILi1EESE_ILi2EEEEEENSt9enable_ifIXsrNS5_9_CallableIT_NSJ_IXntsrSt7is_sameINSt9remove_cvINSt16remove_referenceISL_E4typeEE4typeES5_E5valueESt5decayISL_EE4type4typeESt15__invoke_resultIRSY_JS1_S3_EEEE5valueERS5_E4typeEOSL_=so_stub_for_libtelux_sensor
-Wl,--defsym=_ZNSt8_Rb_treeIjSt4pairIKjSt3setISt8weak_ptrIN5telux6common12ISDKListenerEENS5_15ListenerManager12SetPredicateESaIS7_EEESt10_Select1stISC_ESt4lessIjESaISC_EE8_M_eraseEPSt13_Rb_tree_nodeISC_E=so_stub_for_libtelux_sensor
-Wl,--defsym=_ZNSt8_Rb_treeISt8weak_ptrIN5telux6common12ISDKListenerEES4_St9_IdentityIS4_ENS2_15ListenerManager12SetPredicateESaIS4_EE8_M_eraseEPSt13_Rb_tree_nodeIS4_E=so_stub_for_libtelux_sensor
-Wl,--defsym=_ZSt10__invoke_rIvRSt5_BindIFMN5telux6sensor16SensorClientImplEFv22SensorCapabilitiesMaskEPS3_St12_PlaceholderILi1EEEEJS4_EENSt9enable_ifIXsrSt6__and_IJSt7is_voidIT_ESt14__is_invocableIT0_JDpT1_EEEE5valueESG_E4typeEOSJ_DpOSK_=so_stub_for_libtelux_sensor
-Wl,--defsym=_ZSt10__invoke_rIvRSt5_BindIFMN5telux6sensor16SensorClientImplEFvifibEPS3_St12_PlaceholderILi1EES7_ILi2EES7_ILi3EES7_ILi4EEEEJifibEENSt9enable_ifIXsrSt6__and_IJSt7is_voidIT_ESt14__is_invocableIT0_JDpT1_EEEE5valueESI_E4typeEOSL_DpOSM_=so_stub_for_libtelux_sensor
-Wl,--defsym=_ZSt10__invoke_rIvRSt5_BindIFMN5telux6sensor16SensorClientImplEFviPK15sensors_event_tjEPS3_St12_PlaceholderILi1EESA_ILi2EESA_ILi3EEEEJiS6_jEENSt9enable_ifIXsrSt6__and_IJSt7is_voidIT_ESt14__is_invocableIT0_JDpT1_EEEE5valueESK_E4typeEOSN_DpOSO_=so_stub_for_libtelux_sensor
-Wl,--defsym=_ZSt10__invoke_rIvRSt5_BindIFMN5telux6sensor17SensorManagerImplEFv22SensorCapabilitiesMaskEPS3_St12_PlaceholderILi1EEEEJS4_EENSt9enable_ifIXsrSt6__and_IJSt7is_voidIT_ESt14__is_invocableIT0_JDpT1_EEEE5valueESG_E4typeEOSJ_DpOSK_=so_stub_for_libtelux_sensor
-Wl,--defsym=_ZSt10__invoke_rIvRSt5_BindIFMN5telux6sensor24SensorFeatureManagerImplEFv22SensorCapabilitiesMaskEPS3_St12_PlaceholderILi1EEEEJS4_EENSt9enable_ifIXsrSt6__and_IJSt7is_voidIT_ESt14__is_invocableIT0_JDpT1_EEEE5valueESG_E4typeEOSJ_DpOSK_=so_stub_for_libtelux_sensor
-Wl,--defsym=_ZSt10__invoke_rIvRSt5_BindIFMN5telux6sensor24SensorFeatureManagerImplEFviPK15sensors_event_tjEPS3_St12_PlaceholderILi1EESA_ILi2EESA_ILi3EEEEJiS6_jEENSt9enable_ifIXsrSt6__and_IJSt7is_voidIT_ESt14__is_invocableIT0_JDpT1_EEEE5valueESK_E4typeEOSN_DpOSO_=so_stub_for_libtelux_sensor
-Wl,--defsym=_ZSt13__copy_move_aILb0EN9__gnu_cxx17__normal_iteratorIPKN5telux6sensor10SensorInfoESt6vectorIS4_SaIS4_EEEENS1_IPS4_S9_EEET1_T0_SE_SD_=so_stub_for_libtelux_sensor
-Wl,--defsym=_ZSt13__copy_move_aILb0EN9__gnu_cxx17__normal_iteratorIPKSt8functionIFvN5telux6common13ServiceStatusEEESt6vectorIS7_SaIS7_EEEENS1_IPS7_SC_EEET1_T0_SH_SG_=so_stub_for_libtelux_sensor
-Wl,--defsym=_ZSt13__copy_move_aILb1EN9__gnu_cxx17__normal_iteratorIPSt8weak_ptrIN5telux6common12ISDKListenerEESt6vectorIS6_SaIS6_EEEESB_ET1_T0_SD_SC_=so_stub_for_libtelux_sensor
-Wl,--defsym=_ZSt13move_backwardISt15_Deque_iteratorISt13shared_futureIvERS2_PS2_ES5_ET0_T_S7_S6_=so_stub_for_libtelux_sensor
-Wl,--defsym=_ZSt14__copy_move_a1ILb0EPSt13shared_futureIvES1_EN9__gnu_cxx11__enable_ifIXsrSt23__is_random_access_iterIT0_NSt15iterator_traitsIS6_E17iterator_categoryEE7__valueESt15_Deque_iteratorIT1_RSC_PSC_EE6__typeES6_S6_SF_=so_stub_for_libtelux_sensor
-Wl,--defsym=_ZSt14__copy_move_a1ILb0ESt13shared_futureIvERKS1_PS2_S1_ESt15_Deque_iteratorIT3_RS6_PS6_ES5_IT0_T1_T2_ESD_S9_=so_stub_for_libtelux_sensor
-Wl,--defsym=_ZSt14__copy_move_a1ILb1EPSt13shared_futureIvES1_EN9__gnu_cxx11__enable_ifIXsrSt23__is_random_access_iterIT0_NSt15iterator_traitsIS6_E17iterator_categoryEE7__valueESt15_Deque_iteratorIT1_RSC_PSC_EE6__typeES6_S6_SF_=so_stub_for_libtelux_sensor
-Wl,--defsym=_ZSt14__copy_move_a1ILb1ESt13shared_futureIvERS1_PS1_S1_ESt15_Deque_iteratorIT3_RS5_PS5_ES4_IT0_T1_T2_ESC_S8_=so_stub_for_libtelux_sensor
-Wl,--defsym=_ZSt14__relocate_a_1IPN5telux6sensor10SensorInfoES3_SaIS2_EET0_T_S6_S5_RT1_=so_stub_for_libtelux_sensor
-Wl,--defsym=_ZSt18make_exception_ptrISt12future_errorENSt15__exception_ptr13exception_ptrET_=so_stub_for_libtelux_sensor
-Wl,--defsym=_ZSt18uninitialized_copyISt13move_iteratorISt15_Deque_iteratorISt13shared_futureIvERS3_PS3_EES6_ET0_T_S9_S8_=so_stub_for_libtelux_sensor
-Wl,--defsym=_ZSt22__uninitialized_copy_aISt15_Deque_iteratorISt13shared_futureIvERKS2_PS3_ES0_IS2_RS2_PS2_ES2_ET0_T_SB_SA_RSaIT1_E=so_stub_for_libtelux_sensor
-Wl,--defsym=_ZSt22__uninitialized_move_aISt15_Deque_iteratorISt13shared_futureIvERS2_PS2_ES5_SaIS2_EET0_T_S8_S7_RT1_=so_stub_for_libtelux_sensor
-Wl,--defsym=_ZSt23__copy_move_backward_a1ILb1EPSt13shared_futureIvES1_EN9__gnu_cxx11__enable_ifIXsrSt23__is_random_access_iterIT0_NSt15iterator_traitsIS6_E17iterator_categoryEE7__valueESt15_Deque_iteratorIT1_RSC_PSC_EE6__typeES6_S6_SF_=so_stub_for_libtelux_sensor
-Wl,--defsym=_ZSt23__copy_move_backward_a1ILb1ESt13shared_futureIvERS1_PS1_S1_ESt15_Deque_iteratorIT3_RS5_PS5_ES4_IT0_T1_T2_ESC_S8_=so_stub_for_libtelux_sensor
-Wl,--defsym=_ZSt4copyISt15_Deque_iteratorISt13shared_futureIvERKS2_PS3_ES0_IS2_RS2_PS2_EET0_T_SB_SA_=so_stub_for_libtelux_sensor
-Wl,--defsym=_ZSt4moveISt15_Deque_iteratorISt13shared_futureIvERS2_PS2_ES5_ET0_T_S7_S6_=so_stub_for_libtelux_sensor
-Wl,--defsym=_ZSt7find_ifIN9__gnu_cxx17__normal_iteratorIPSt8weak_ptrIN5telux6common12ISDKListenerEESt6vectorIS6_SaIS6_EEEEZNS4_15ListenerManager16registerListenerES6_EUlS6_E_ET_SE_SE_T0_=so_stub_for_libtelux_sensor
-Wl,--defsym=_ZSt9__advanceISt15_Deque_iteratorISt13shared_futureIvERKS2_PS3_ElEvRT_T0_St26random_access_iterator_tag=so_stub_for_libtelux_sensor
-Wl,--defsym=_ZSt9__find_ifIN9__gnu_cxx17__normal_iteratorIPSt8weak_ptrIN5telux6common12ISDKListenerEESt6vectorIS6_SaIS6_EEEENS0_5__ops10_Iter_predIZNS4_15ListenerManager16registerListenerES6_EUlS6_E_EEET_SH_SH_T0_St26random_access_iterator_tag=so_stub_for_libtelux_sensor
-Wl,--defsym=_ZThn8_N5telux6sensor16SensorClientImpl16onSysPowerChangeENS_3qmi8PwrStateE=so_stub_for_libtelux_sensor
-Wl,--defsym=_ZThn8_N5telux6sensor16SensorClientImplD0Ev=so_stub_for_libtelux_sensor
-Wl,--defsym=_ZThn8_N5telux6sensor16SensorClientImplD1Ev=so_stub_for_libtelux_sensor
-Wl,--defsym=_ZTIN5telux3qmi17ISysPowerListenerE=so_stub_for_libtelux_sensor
-Wl,--defsym=_ZTIN5telux6common12ISDKListenerE=so_stub_for_libtelux_sensor
-Wl,--defsym=_ZTIN5telux6common16ICommandCallbackE=so_stub_for_libtelux_sensor
-Wl,--defsym=_ZTIN5telux6common18FunctionalCallbackIJNS0_9ErrorCodeEEEE=so_stub_for_libtelux_sensor
-Wl,--defsym=_ZTIN5telux6common18FunctionalCallbackIJNS0_9ErrorCodeENS_6sensor20SelfTestResultParamsEEEE=so_stub_for_libtelux_sensor
-Wl,--defsym=_ZTIN5telux6sensor13ISensorClientE=so_stub_for_libtelux_sensor
-Wl,--defsym=_ZTIN5telux6sensor13SensorFactoryE=so_stub_for_libtelux_sensor
-Wl,--defsym=_ZTIN5telux6sensor14ISensorManagerE=so_stub_for_libtelux_sensor
-Wl,--defsym=_ZTIN5telux6sensor16SensorClientImplE=so_stub_for_libtelux_sensor
-Wl,--defsym=_ZTIN5telux6sensor17SensorFactoryImplE=so_stub_for_libtelux_sensor
-Wl,--defsym=_ZTIN5telux6sensor17SensorManagerImplE=so_stub_for_libtelux_sensor
-Wl,--defsym=_ZTIN5telux6sensor20ISensorEventListenerE=so_stub_for_libtelux_sensor
-Wl,--defsym=_ZTIN5telux6sensor21ISensorFeatureManagerE=so_stub_for_libtelux_sensor
-Wl,--defsym=_ZTIN5telux6sensor24SensorFeatureManagerImplE=so_stub_for_libtelux_sensor
-Wl,--defsym=_ZTIN5telux6sensor27ISensorFeatureEventListenerE=so_stub_for_libtelux_sensor
-Wl,--defsym=_ZTINSt13__future_base13_State_baseV2E=so_stub_for_libtelux_sensor
-Wl,--defsym=_ZTINSt13__future_base21_Async_state_commonV2E=so_stub_for_libtelux_sensor
-Wl,--defsym=_ZTINSt13__future_base7_ResultIvEE=so_stub_for_libtelux_sensor
-Wl,--defsym=_ZTINSt6thread11_State_implINS_8_InvokerISt5tupleIJMN5telux6common14AsyncTaskQueueIvEEFvvEPS6_EEEEEE=so_stub_for_libtelux_sensor
-Wl,--defsym=_ZTIPSt13runtime_error=so_stub_for_libtelux_sensor
-Wl,--defsym=_ZTIPSt16invalid_argument=so_stub_for_libtelux_sensor
-Wl,--defsym=_ZTIPSt9bad_alloc=so_stub_for_libtelux_sensor
-Wl,--defsym=_ZTIPSt9exception=so_stub_for_libtelux_sensor
-Wl,--defsym=_ZTISt11_Mutex_baseILN9__gnu_cxx12_Lock_policyE2EE=so_stub_for_libtelux_sensor
-Wl,--defsym=_ZTISt16_Sp_counted_baseILN9__gnu_cxx12_Lock_policyE2EE=so_stub_for_libtelux_sensor
-Wl,--defsym=_ZTISt17_Weak_result_typeIMN5telux6sensor16SensorClientImplEFv22SensorCapabilitiesMaskEE=so_stub_for_libtelux_sensor
-Wl,--defsym=_ZTISt17_Weak_result_typeIMN5telux6sensor16SensorClientImplEFvifibEE=so_stub_for_libtelux_sensor
-Wl,--defsym=_ZTISt17_Weak_result_typeIMN5telux6sensor16SensorClientImplEFviPK15sensors_event_tjEE=so_stub_for_libtelux_sensor
-Wl,--defsym=_ZTISt17_Weak_result_typeIMN5telux6sensor17SensorManagerImplEFv22SensorCapabilitiesMaskEE=so_stub_for_libtelux_sensor
-Wl,--defsym=_ZTISt17_Weak_result_typeIMN5telux6sensor24SensorFeatureManagerImplEFv22SensorCapabilitiesMaskEE=so_stub_for_libtelux_sensor
-Wl,--defsym=_ZTISt17_Weak_result_typeIMN5telux6sensor24SensorFeatureManagerImplEFviPK15sensors_event_tjEE=so_stub_for_libtelux_sensor
-Wl,--defsym=_ZTISt17_Weak_result_typeIMN5telux6sensor24SensorFeatureManagerImplEFvPKcP14mlc_event_dataEE=so_stub_for_libtelux_sensor
-Wl,--defsym=_ZTISt23enable_shared_from_thisIN5telux6sensor16SensorClientImplEE=so_stub_for_libtelux_sensor
-Wl,--defsym=_ZTISt23_Sp_counted_ptr_inplaceIN13sensor_client12SensorClientESaIS1_ELN9__gnu_cxx12_Lock_policyE2EE=so_stub_for_libtelux_sensor
-Wl,--defsym=_ZTISt23_Sp_counted_ptr_inplaceIN5telux6common15ListenerManagerESaIS2_ELN9__gnu_cxx12_Lock_policyE2EE=so_stub_for_libtelux_sensor
-Wl,--defsym=_ZTISt23_Sp_counted_ptr_inplaceIN5telux6common18FunctionalCallbackIJNS1_9ErrorCodeEEEESaIS4_ELN9__gnu_cxx12_Lock_policyE2EE=so_stub_for_libtelux_sensor
-Wl,--defsym=_ZTISt23_Sp_counted_ptr_inplaceIN5telux6common18FunctionalCallbackIJNS1_9ErrorCodeENS0_6sensor20SelfTestResultParamsEEEESaIS6_ELN9__gnu_cxx12_Lock_policyE2EE=so_stub_for_libtelux_sensor
-Wl,--defsym=_ZTISt23_Sp_counted_ptr_inplaceIN5telux6sensor16SensorClientImplESaIS2_ELN9__gnu_cxx12_Lock_policyE2EE=so_stub_for_libtelux_sensor
-Wl,--defsym=_ZTISt23_Sp_counted_ptr_inplaceIN5telux6sensor17SensorManagerImplESaIS2_ELN9__gnu_cxx12_Lock_policyE2EE=so_stub_for_libtelux_sensor
-Wl,--defsym=_ZTISt23_Sp_counted_ptr_inplaceIN5telux6sensor24SensorFeatureManagerImplESaIS2_ELN9__gnu_cxx12_Lock_policyE2EE=so_stub_for_libtelux_sensor
-Wl,--defsym=_ZTISt23_Sp_counted_ptr_inplaceISt6threadSaIS0_ELN9__gnu_cxx12_Lock_policyE2EE=so_stub_for_libtelux_sensor
-Wl,--defsym=_ZTISt23_Sp_counted_ptr_inplaceISt6vectorIN5telux6sensor11SensorEventESaIS3_EESaIS5_ELN9__gnu_cxx12_Lock_policyE2EE=so_stub_for_libtelux_sensor
-Wl,--defsym=_ZTISt24_Weak_result_type_memfunIMN5telux6sensor16SensorClientImplEFv22SensorCapabilitiesMaskELb1EE=so_stub_for_libtelux_sensor
-Wl,--defsym=_ZTISt24_Weak_result_type_memfunIMN5telux6sensor16SensorClientImplEFvifibELb1EE=so_stub_for_libtelux_sensor
-Wl,--defsym=_ZTISt24_Weak_result_type_memfunIMN5telux6sensor16SensorClientImplEFviPK15sensors_event_tjELb1EE=so_stub_for_libtelux_sensor
-Wl,--defsym=_ZTISt24_Weak_result_type_memfunIMN5telux6sensor17SensorManagerImplEFv22SensorCapabilitiesMaskELb1EE=so_stub_for_libtelux_sensor
-Wl,--defsym=_ZTISt24_Weak_result_type_memfunIMN5telux6sensor24SensorFeatureManagerImplEFv22SensorCapabilitiesMaskELb1EE=so_stub_for_libtelux_sensor
-Wl,--defsym=_ZTISt24_Weak_result_type_memfunIMN5telux6sensor24SensorFeatureManagerImplEFviPK15sensors_event_tjELb1EE=so_stub_for_libtelux_sensor
-Wl,--defsym=_ZTISt24_Weak_result_type_memfunIMN5telux6sensor24SensorFeatureManagerImplEFvPKcP14mlc_event_dataELb1EE=so_stub_for_libtelux_sensor
-Wl,--defsym=_ZTISt5_BindIFMN5telux6sensor16SensorClientImplEFv22SensorCapabilitiesMaskEPS2_St12_PlaceholderILi1EEEE=so_stub_for_libtelux_sensor
-Wl,--defsym=_ZTISt5_BindIFMN5telux6sensor16SensorClientImplEFvifibEPS2_St12_PlaceholderILi1EES6_ILi2EES6_ILi3EES6_ILi4EEEE=so_stub_for_libtelux_sensor
-Wl,--defsym=_ZTISt5_BindIFMN5telux6sensor16SensorClientImplEFviPK15sensors_event_tjEPS2_St12_PlaceholderILi1EES9_ILi2EES9_ILi3EEEE=so_stub_for_libtelux_sensor
-Wl,--defsym=_ZTISt5_BindIFMN5telux6sensor17SensorManagerImplEFv22SensorCapabilitiesMaskEPS2_St12_PlaceholderILi1EEEE=so_stub_for_libtelux_sensor
-Wl,--defsym=_ZTISt5_BindIFMN5telux6sensor24SensorFeatureManagerImplEFv22SensorCapabilitiesMaskEPS2_St12_PlaceholderILi1EEEE=so_stub_for_libtelux_sensor
-Wl,--defsym=_ZTISt5_BindIFMN5telux6sensor24SensorFeatureManagerImplEFviPK15sensors_event_tjEPS2_St12_PlaceholderILi1EES9_ILi2EES9_ILi3EEEE=so_stub_for_libtelux_sensor
-Wl,--defsym=_ZTISt5_BindIFMN5telux6sensor24SensorFeatureManagerImplEFvPKcP14mlc_event_dataEPS2_St12_PlaceholderILi1EESA_ILi2EEEE=so_stub_for_libtelux_sensor
-Wl,--defsym=_ZTSN5telux3qmi17ISysPowerListenerE=so_stub_for_libtelux_sensor
-Wl,--defsym=_ZTSN5telux6common12ISDKListenerE=so_stub_for_libtelux_sensor
-Wl,--defsym=_ZTSN5telux6common16ICommandCallbackE=so_stub_for_libtelux_sensor
-Wl,--defsym=_ZTSN5telux6common18FunctionalCallbackIJNS0_9ErrorCodeEEEE=so_stub_for_libtelux_sensor
-Wl,--defsym=_ZTSN5telux6common18FunctionalCallbackIJNS0_9ErrorCodeENS_6sensor20SelfTestResultParamsEEEE=so_stub_for_libtelux_sensor
-Wl,--defsym=_ZTSN5telux6sensor13ISensorClientE=so_stub_for_libtelux_sensor
-Wl,--defsym=_ZTSN5telux6sensor13SensorFactoryE=so_stub_for_libtelux_sensor
-Wl,--defsym=_ZTSN5telux6sensor14ISensorManagerE=so_stub_for_libtelux_sensor
-Wl,--defsym=_ZTSN5telux6sensor16SensorClientImplE=so_stub_for_libtelux_sensor
-Wl,--defsym=_ZTSN5telux6sensor17SensorFactoryImplE=so_stub_for_libtelux_sensor
-Wl,--defsym=_ZTSN5telux6sensor17SensorManagerImplE=so_stub_for_libtelux_sensor
-Wl,--defsym=_ZTSN5telux6sensor20ISensorEventListenerE=so_stub_for_libtelux_sensor
-Wl,--defsym=_ZTSN5telux6sensor21ISensorFeatureManagerE=so_stub_for_libtelux_sensor
-Wl,--defsym=_ZTSN5telux6sensor24SensorFeatureManagerImplE=so_stub_for_libtelux_sensor
-Wl,--defsym=_ZTSN5telux6sensor27ISensorFeatureEventListenerE=so_stub_for_libtelux_sensor
-Wl,--defsym=_ZTSNSt13__future_base13_State_baseV2E=so_stub_for_libtelux_sensor
-Wl,--defsym=_ZTSNSt13__future_base21_Async_state_commonV2E=so_stub_for_libtelux_sensor
-Wl,--defsym=_ZTSNSt13__future_base7_ResultIvEE=so_stub_for_libtelux_sensor
-Wl,--defsym=_ZTSNSt6thread11_State_implINS_8_InvokerISt5tupleIJMN5telux6common14AsyncTaskQueueIvEEFvvEPS6_EEEEEE=so_stub_for_libtelux_sensor
-Wl,--defsym=_ZTSPSt13runtime_error=so_stub_for_libtelux_sensor
-Wl,--defsym=_ZTSPSt16invalid_argument=so_stub_for_libtelux_sensor
-Wl,--defsym=_ZTSPSt9bad_alloc=so_stub_for_libtelux_sensor
-Wl,--defsym=_ZTSPSt9exception=so_stub_for_libtelux_sensor
-Wl,--defsym=_ZTSSt11_Mutex_baseILN9__gnu_cxx12_Lock_policyE2EE=so_stub_for_libtelux_sensor
-Wl,--defsym=_ZTSSt16_Sp_counted_baseILN9__gnu_cxx12_Lock_policyE2EE=so_stub_for_libtelux_sensor
-Wl,--defsym=_ZTSSt17_Weak_result_typeIMN5telux6sensor16SensorClientImplEFv22SensorCapabilitiesMaskEE=so_stub_for_libtelux_sensor
-Wl,--defsym=_ZTSSt17_Weak_result_typeIMN5telux6sensor16SensorClientImplEFvifibEE=so_stub_for_libtelux_sensor
-Wl,--defsym=_ZTSSt17_Weak_result_typeIMN5telux6sensor16SensorClientImplEFviPK15sensors_event_tjEE=so_stub_for_libtelux_sensor
-Wl,--defsym=_ZTSSt17_Weak_result_typeIMN5telux6sensor17SensorManagerImplEFv22SensorCapabilitiesMaskEE=so_stub_for_libtelux_sensor
-Wl,--defsym=_ZTSSt17_Weak_result_typeIMN5telux6sensor24SensorFeatureManagerImplEFv22SensorCapabilitiesMaskEE=so_stub_for_libtelux_sensor
-Wl,--defsym=_ZTSSt17_Weak_result_typeIMN5telux6sensor24SensorFeatureManagerImplEFviPK15sensors_event_tjEE=so_stub_for_libtelux_sensor
-Wl,--defsym=_ZTSSt17_Weak_result_typeIMN5telux6sensor24SensorFeatureManagerImplEFvPKcP14mlc_event_dataEE=so_stub_for_libtelux_sensor
-Wl,--defsym=_ZTSSt19_Sp_make_shared_tag=so_stub_for_libtelux_sensor
-Wl,--defsym=_ZTSSt23enable_shared_from_thisIN5telux6sensor16SensorClientImplEE=so_stub_for_libtelux_sensor
-Wl,--defsym=_ZTSSt23_Sp_counted_ptr_inplaceIN13sensor_client12SensorClientESaIS1_ELN9__gnu_cxx12_Lock_policyE2EE=so_stub_for_libtelux_sensor
-Wl,--defsym=_ZTSSt23_Sp_counted_ptr_inplaceIN5telux6common15ListenerManagerESaIS2_ELN9__gnu_cxx12_Lock_policyE2EE=so_stub_for_libtelux_sensor
-Wl,--defsym=_ZTSSt23_Sp_counted_ptr_inplaceIN5telux6common18FunctionalCallbackIJNS1_9ErrorCodeEEEESaIS4_ELN9__gnu_cxx12_Lock_policyE2EE=so_stub_for_libtelux_sensor
-Wl,--defsym=_ZTSSt23_Sp_counted_ptr_inplaceIN5telux6common18FunctionalCallbackIJNS1_9ErrorCodeENS0_6sensor20SelfTestResultParamsEEEESaIS6_ELN9__gnu_cxx12_Lock_policyE2EE=so_stub_for_libtelux_sensor
-Wl,--defsym=_ZTSSt23_Sp_counted_ptr_inplaceIN5telux6sensor16SensorClientImplESaIS2_ELN9__gnu_cxx12_Lock_policyE2EE=so_stub_for_libtelux_sensor
-Wl,--defsym=_ZTSSt23_Sp_counted_ptr_inplaceIN5telux6sensor17SensorManagerImplESaIS2_ELN9__gnu_cxx12_Lock_policyE2EE=so_stub_for_libtelux_sensor
-Wl,--defsym=_ZTSSt23_Sp_counted_ptr_inplaceIN5telux6sensor24SensorFeatureManagerImplESaIS2_ELN9__gnu_cxx12_Lock_policyE2EE=so_stub_for_libtelux_sensor
-Wl,--defsym=_ZTSSt23_Sp_counted_ptr_inplaceISt6threadSaIS0_ELN9__gnu_cxx12_Lock_policyE2EE=so_stub_for_libtelux_sensor
-Wl,--defsym=_ZTSSt23_Sp_counted_ptr_inplaceISt6vectorIN5telux6sensor11SensorEventESaIS3_EESaIS5_ELN9__gnu_cxx12_Lock_policyE2EE=so_stub_for_libtelux_sensor
-Wl,--defsym=_ZTSSt24_Weak_result_type_memfunIMN5telux6sensor16SensorClientImplEFv22SensorCapabilitiesMaskELb1EE=so_stub_for_libtelux_sensor
-Wl,--defsym=_ZTSSt24_Weak_result_type_memfunIMN5telux6sensor16SensorClientImplEFvifibELb1EE=so_stub_for_libtelux_sensor
-Wl,--defsym=_ZTSSt24_Weak_result_type_memfunIMN5telux6sensor16SensorClientImplEFviPK15sensors_event_tjELb1EE=so_stub_for_libtelux_sensor
-Wl,--defsym=_ZTSSt24_Weak_result_type_memfunIMN5telux6sensor17SensorManagerImplEFv22SensorCapabilitiesMaskELb1EE=so_stub_for_libtelux_sensor
-Wl,--defsym=_ZTSSt24_Weak_result_type_memfunIMN5telux6sensor24SensorFeatureManagerImplEFv22SensorCapabilitiesMaskELb1EE=so_stub_for_libtelux_sensor
-Wl,--defsym=_ZTSSt24_Weak_result_type_memfunIMN5telux6sensor24SensorFeatureManagerImplEFviPK15sensors_event_tjELb1EE=so_stub_for_libtelux_sensor
-Wl,--defsym=_ZTSSt24_Weak_result_type_memfunIMN5telux6sensor24SensorFeatureManagerImplEFvPKcP14mlc_event_dataELb1EE=so_stub_for_libtelux_sensor
-Wl,--defsym=_ZTSSt5_BindIFMN5telux6sensor16SensorClientImplEFv22SensorCapabilitiesMaskEPS2_St12_PlaceholderILi1EEEE=so_stub_for_libtelux_sensor
-Wl,--defsym=_ZTSSt5_BindIFMN5telux6sensor16SensorClientImplEFvifibEPS2_St12_PlaceholderILi1EES6_ILi2EES6_ILi3EES6_ILi4EEEE=so_stub_for_libtelux_sensor
-Wl,--defsym=_ZTSSt5_BindIFMN5telux6sensor16SensorClientImplEFviPK15sensors_event_tjEPS2_St12_PlaceholderILi1EES9_ILi2EES9_ILi3EEEE=so_stub_for_libtelux_sensor
-Wl,--defsym=_ZTSSt5_BindIFMN5telux6sensor17SensorManagerImplEFv22SensorCapabilitiesMaskEPS2_St12_PlaceholderILi1EEEE=so_stub_for_libtelux_sensor
-Wl,--defsym=_ZTSSt5_BindIFMN5telux6sensor24SensorFeatureManagerImplEFv22SensorCapabilitiesMaskEPS2_St12_PlaceholderILi1EEEE=so_stub_for_libtelux_sensor
-Wl,--defsym=_ZTSSt5_BindIFMN5telux6sensor24SensorFeatureManagerImplEFviPK15sensors_event_tjEPS2_St12_PlaceholderILi1EES9_ILi2EES9_ILi3EEEE=so_stub_for_libtelux_sensor
-Wl,--defsym=_ZTSSt5_BindIFMN5telux6sensor24SensorFeatureManagerImplEFvPKcP14mlc_event_dataEPS2_St12_PlaceholderILi1EESA_ILi2EEEE=so_stub_for_libtelux_sensor
-Wl,--defsym=_ZTVN5telux6common18FunctionalCallbackIJNS0_9ErrorCodeEEEE=so_stub_for_libtelux_sensor
-Wl,--defsym=_ZTVN5telux6common18FunctionalCallbackIJNS0_9ErrorCodeENS_6sensor20SelfTestResultParamsEEEE=so_stub_for_libtelux_sensor
-Wl,--defsym=_ZTVN5telux6sensor13SensorFactoryE=so_stub_for_libtelux_sensor
-Wl,--defsym=_ZTVN5telux6sensor16SensorClientImplE=so_stub_for_libtelux_sensor
-Wl,--defsym=_ZTVN5telux6sensor17SensorFactoryImplE=so_stub_for_libtelux_sensor
-Wl,--defsym=_ZTVN5telux6sensor17SensorManagerImplE=so_stub_for_libtelux_sensor
-Wl,--defsym=_ZTVN5telux6sensor24SensorFeatureManagerImplE=so_stub_for_libtelux_sensor
-Wl,--defsym=_ZTVNSt13__future_base13_State_baseV2E=so_stub_for_libtelux_sensor
-Wl,--defsym=_ZTVNSt13__future_base21_Async_state_commonV2E=so_stub_for_libtelux_sensor
-Wl,--defsym=_ZTVNSt13__future_base7_ResultIvEE=so_stub_for_libtelux_sensor
-Wl,--defsym=_ZTVNSt6thread11_State_implINS_8_InvokerISt5tupleIJMN5telux6common14AsyncTaskQueueIvEEFvvEPS6_EEEEEE=so_stub_for_libtelux_sensor
-Wl,--defsym=_ZTVSt23_Sp_counted_ptr_inplaceIN13sensor_client12SensorClientESaIS1_ELN9__gnu_cxx12_Lock_policyE2EE=so_stub_for_libtelux_sensor
-Wl,--defsym=_ZTVSt23_Sp_counted_ptr_inplaceIN5telux6common15ListenerManagerESaIS2_ELN9__gnu_cxx12_Lock_policyE2EE=so_stub_for_libtelux_sensor
-Wl,--defsym=_ZTVSt23_Sp_counted_ptr_inplaceIN5telux6common18FunctionalCallbackIJNS1_9ErrorCodeEEEESaIS4_ELN9__gnu_cxx12_Lock_policyE2EE=so_stub_for_libtelux_sensor
-Wl,--defsym=_ZTVSt23_Sp_counted_ptr_inplaceIN5telux6common18FunctionalCallbackIJNS1_9ErrorCodeENS0_6sensor20SelfTestResultParamsEEEESaIS6_ELN9__gnu_cxx12_Lock_policyE2EE=so_stub_for_libtelux_sensor
-Wl,--defsym=_ZTVSt23_Sp_counted_ptr_inplaceIN5telux6sensor16SensorClientImplESaIS2_ELN9__gnu_cxx12_Lock_policyE2EE=so_stub_for_libtelux_sensor
-Wl,--defsym=_ZTVSt23_Sp_counted_ptr_inplaceIN5telux6sensor17SensorManagerImplESaIS2_ELN9__gnu_cxx12_Lock_policyE2EE=so_stub_for_libtelux_sensor
-Wl,--defsym=_ZTVSt23_Sp_counted_ptr_inplaceIN5telux6sensor24SensorFeatureManagerImplESaIS2_ELN9__gnu_cxx12_Lock_policyE2EE=so_stub_for_libtelux_sensor
-Wl,--defsym=_ZTVSt23_Sp_counted_ptr_inplaceISt6threadSaIS0_ELN9__gnu_cxx12_Lock_policyE2EE=so_stub_for_libtelux_sensor
-Wl,--defsym=_ZTVSt23_Sp_counted_ptr_inplaceISt6vectorIN5telux6sensor11SensorEventESaIS3_EESaIS5_ELN9__gnu_cxx12_Lock_policyE2EE=so_stub_for_libtelux_sensor
-Wl,--defsym=_ZZNSt19_Sp_make_shared_tag5_S_tiEvE5__tag=so_stub_for_libtelux_sensor
-Wl,--defsym=_ZZNSt8__detail18__to_chars_10_implIjEEvPcjT_E8__digits=so_stub_for_libtelux_sensor
-Wl,--defsym=_ZZNSt8__detail18__to_chars_10_implImEEvPcjT_E8__digits=so_stub_for_libtelux_sensor
-Wl,--defsym=_ZZNSt9once_flag18_Prepare_executionC4IZSt9call_onceIMNSt13__future_base13_State_baseV2EFvPSt8functionIFSt10unique_ptrINS3_12_Result_baseENS7_8_DeleterEEvEEPbEJPS4_SC_SD_EEvRS_OT_DpOT0_EUlvE_EERSI_ENUlvE_4_FUNEv=so_stub_for_libtelux_sensor
-Wl,--defsym=_ZZNSt9once_flag18_Prepare_executionC4IZSt9call_onceIMSt6threadFvvEJPS3_EEvRS_OT_DpOT0_EUlvE_EERS8_ENUlvE_4_FUNEv=so_stub_for_libtelux_sensor
