-Wl,--defsym=cSmsMsgRef=so_stub_for_libtelux_tel
-Wl,--defsym=__gcov_error_file=so_stub_for_libtelux_tel
-Wl,--defsym=__gcov_kvp_dynamic_pool=so_stub_for_libtelux_tel
-Wl,--defsym=__gcov_kvp_dynamic_pool_index=so_stub_for_libtelux_tel
-Wl,--defsym=__gcov_kvp_dynamic_pool_size=so_stub_for_libtelux_tel
-Wl,--defsym=__gcov_master=so_stub_for_libtelux_tel
-Wl,--defsym=__gcov_var=so_stub_for_libtelux_tel
-Wl,--defsym=mangle_path=so_stub_for_libtelux_tel
-Wl,--defsym=_ZGVZNKSt8__detail11_AnyMatcherINSt7__cxx1112regex_traitsIcEELb0ELb0ELb0EEclEcE5__nul=so_stub_for_libtelux_tel
-Wl,--defsym=_ZGVZNKSt8__detail11_AnyMatcherINSt7__cxx1112regex_traitsIcEELb0ELb0ELb1EEclEcE5__nul=so_stub_for_libtelux_tel
-Wl,--defsym=_ZGVZNKSt8__detail11_AnyMatcherINSt7__cxx1112regex_traitsIcEELb0ELb1ELb0EEclEcE5__nul=so_stub_for_libtelux_tel
-Wl,--defsym=_ZGVZNKSt8__detail11_AnyMatcherINSt7__cxx1112regex_traitsIcEELb0ELb1ELb1EEclEcE5__nul=so_stub_for_libtelux_tel
-Wl,--defsym=_ZN17CmasCellbroadcastC1ERKS_=so_stub_for_libtelux_tel
-Wl,--defsym=_ZN17CmasCellbroadcastC1ESt6vectorIhSaIhEE=so_stub_for_libtelux_tel
-Wl,--defsym=_ZN17CmasCellbroadcastC1Ev=so_stub_for_libtelux_tel
-Wl,--defsym=_ZN17CmasCellbroadcastC2ERKS_=so_stub_for_libtelux_tel
-Wl,--defsym=_ZN17CmasCellbroadcastC2ESt6vectorIhSaIhEE=so_stub_for_libtelux_tel
-Wl,--defsym=_ZN17CmasCellbroadcastC2Ev=so_stub_for_libtelux_tel
-Wl,--defsym=_ZN17CmasCellbroadcastD0Ev=so_stub_for_libtelux_tel
-Wl,--defsym=_ZN17CmasCellbroadcastD1Ev=so_stub_for_libtelux_tel
-Wl,--defsym=_ZN17CmasCellbroadcastD2Ev=so_stub_for_libtelux_tel
-Wl,--defsym=_ZN20GsmCmasCellbroadcastC1ESt6vectorIhSaIhEE=so_stub_for_libtelux_tel
-Wl,--defsym=_ZN20GsmCmasCellbroadcastC2ESt6vectorIhSaIhEE=so_stub_for_libtelux_tel
-Wl,--defsym=_ZN20GsmCmasCellbroadcastD0Ev=so_stub_for_libtelux_tel
-Wl,--defsym=_ZN20GsmCmasCellbroadcastD1Ev=so_stub_for_libtelux_tel
-Wl,--defsym=_ZN20GsmCmasCellbroadcastD2Ev=so_stub_for_libtelux_tel
-Wl,--defsym=_ZN21UmtsCmasCellbroadcast15setSerialNumberEi=so_stub_for_libtelux_tel
-Wl,--defsym=_ZN21UmtsCmasCellbroadcast20setGeographicalScopeEi=so_stub_for_libtelux_tel
-Wl,--defsym=_ZN21UmtsCmasCellbroadcast20setMessageIdentifierEj=so_stub_for_libtelux_tel
-Wl,--defsym=_ZN21UmtsCmasCellbroadcast24setWarningAreaCoordinateERKSt6vectorIhSaIhEE=so_stub_for_libtelux_tel
-Wl,--defsym=_ZN21UmtsCmasCellbroadcast6setDcsEi=so_stub_for_libtelux_tel
-Wl,--defsym=_ZN21UmtsCmasCellbroadcast8setPagesERKSt6vectorIS0_IhSaIhEESaIS2_EE=so_stub_for_libtelux_tel
-Wl,--defsym=_ZN21UmtsCmasCellbroadcastC1ESt6vectorIhSaIhEE=so_stub_for_libtelux_tel
-Wl,--defsym=_ZN21UmtsCmasCellbroadcastC1Ev=so_stub_for_libtelux_tel
-Wl,--defsym=_ZN21UmtsCmasCellbroadcastC2ESt6vectorIhSaIhEE=so_stub_for_libtelux_tel
-Wl,--defsym=_ZN21UmtsCmasCellbroadcastC2Ev=so_stub_for_libtelux_tel
-Wl,--defsym=_ZN21UmtsCmasCellbroadcastD0Ev=so_stub_for_libtelux_tel
-Wl,--defsym=_ZN21UmtsCmasCellbroadcastD1Ev=so_stub_for_libtelux_tel
-Wl,--defsym=_ZN21UmtsCmasCellbroadcastD2Ev=so_stub_for_libtelux_tel
-Wl,--defsym=_ZN36MultipartGsmCmasCellbroadcastHandler17populateCbMessageE20GsmCmasCellbroadcast9RadioTechSt8functionIFbS1_RK17CmasCellbroadcastEERKSt6vectorIhSaIhEE=so_stub_for_libtelux_tel
-Wl,--defsym=_ZN36MultipartGsmCmasCellbroadcastHandler27handleEventReportCmasBufferE9RadioTechSt8functionIFbS0_RK17CmasCellbroadcastEESt6vectorIhSaIhEES9_=so_stub_for_libtelux_tel
-Wl,--defsym=_ZN36MultipartGsmCmasCellbroadcastHandlerC1Ev=so_stub_for_libtelux_tel
-Wl,--defsym=_ZN36MultipartGsmCmasCellbroadcastHandlerC2Ev=so_stub_for_libtelux_tel
-Wl,--defsym=_ZN36MultipartGsmCmasCellbroadcastHandlerD1Ev=so_stub_for_libtelux_tel
-Wl,--defsym=_ZN36MultipartGsmCmasCellbroadcastHandlerD2Ev=so_stub_for_libtelux_tel
-Wl,--defsym=_ZN5telux3qmi10HttpHeaderC1ERKS1_=so_stub_for_libtelux_tel
-Wl,--defsym=_ZN5telux3qmi10HttpHeaderC2ERKS1_=so_stub_for_libtelux_tel
-Wl,--defsym=_ZN5telux3qmi10HttpHeaderD1Ev=so_stub_for_libtelux_tel
-Wl,--defsym=_ZN5telux3qmi10HttpHeaderD2Ev=so_stub_for_libtelux_tel
-Wl,--defsym=_ZN5telux3qmi15IQmiDmsListener21onOperatingModeChangeEi=so_stub_for_libtelux_tel
-Wl,--defsym=_ZN5telux3qmi15IQmiDmsListener21onRFBandCapabilityIndEPK34dms_band_capability_ex_ind_msg_v01=so_stub_for_libtelux_tel
-Wl,--defsym=_ZN5telux3qmi15IQmiDmsListener24onDmsServiceStatusChangeENS_6common13ServiceStatusEi=so_stub_for_libtelux_tel
-Wl,--defsym=_ZN5telux3qmi15IQmiDmsListener26onModemActivityClientReadyEb=so_stub_for_libtelux_tel
-Wl,--defsym=_ZN5telux3qmi15IQmiNasListener18onNetworkRejectionEPK30nas_network_reject_ind_msg_v01=so_stub_for_libtelux_tel
-Wl,--defsym=_ZN5telux3qmi15IQmiNasListener19onNetworkTimeChangeEPK28nas_network_time_ind_msg_v01=so_stub_for_libtelux_tel
-Wl,--defsym=_ZN5telux3qmi15IQmiNasListener19onRFBandInfoChangedEPK28nas_rf_band_info_ind_msg_v01=so_stub_for_libtelux_tel
-Wl,--defsym=_ZN5telux3qmi15IQmiNasListener19onSystemInfoChangedEP24nas_sys_info_ind_msg_v01=so_stub_for_libtelux_tel
-Wl,--defsym=_ZN5telux3qmi15IQmiNasListener22onNr5gRrcUtcTimeChangeEPK40nas_nr5g_rrc_utc_time_update_ind_msg_v01=so_stub_for_libtelux_tel
-Wl,--defsym=_ZN5telux3qmi15IQmiNasListener24onNasServiceStatusChangeENS_6common13ServiceStatusE=so_stub_for_libtelux_tel
-Wl,--defsym=_ZN5telux3qmi15IQmiNasListener27onIncrementalNetworkScanIndEP48nas_perform_incremental_network_scan_ind_msg_v01=so_stub_for_libtelux_tel
-Wl,--defsym=_ZN5telux3qmi15IQmiNasListener27onLteSib16NetworkTimeChangeEPK38nas_lte_sib16_network_time_ind_msg_v01=so_stub_for_libtelux_tel
-Wl,--defsym=_ZN5telux3qmi15IQmiNasListener34onSystemSelectionPreferenceChangedEP43nas_system_selection_preference_ind_msg_v01=so_stub_for_libtelux_tel
-Wl,--defsym=_ZN5telux3qmi15IQmiUimListener15onAddProfileIndERK27uim_add_profile_ind_msg_v01=so_stub_for_libtelux_tel
-Wl,--defsym=_ZN5telux3qmi15IQmiUimListener15onSimRefreshIndERK23uim_refresh_ind_msg_v01=so_stub_for_libtelux_tel
-Wl,--defsym=_ZN5telux3qmi15IQmiUimListener19onSlotStatusChangedER34uim_slot_status_change_ind_msg_v01=so_stub_for_libtelux_tel
-Wl,--defsym=_ZN5telux3qmi15IQmiUimListener24onUimServiceStatusChangeENS_6common13ServiceStatusE=so_stub_for_libtelux_tel
-Wl,--defsym=_ZN5telux3qmi15IQmiWmsListener15onMemoryFullIndEi=so_stub_for_libtelux_tel
-Wl,--defsym=_ZN5telux3qmi15IQmiWmsListener23onEventReportIndicationEP28wms_event_report_ind_msg_v01=so_stub_for_libtelux_tel
-Wl,--defsym=_ZN5telux3qmi15IQmiWmsListener24onWmsServiceStatusChangeENS_6common13ServiceStatusE=so_stub_for_libtelux_tel
-Wl,--defsym=_ZN5telux3qmi15IQmiWmsListener31onBroadcastConfigurationChangedEP32wms_broadcast_config_ind_msg_v01=so_stub_for_libtelux_tel
-Wl,--defsym=_ZN5telux3qmi16IQmiImsaListener22onImsServiceInfoChangeEP31imsa_service_status_ind_msg_v016SlotId=so_stub_for_libtelux_tel
-Wl,--defsym=_ZN5telux3qmi16IQmiImsaListener24onImsPdpStatusInfoChangeEP27imsa_pdp_status_ind_msg_v016SlotId=so_stub_for_libtelux_tel
-Wl,--defsym=_ZN5telux3qmi16IQmiImsaListener25onImsaServiceStatusChangeENS_6common13ServiceStatusE=so_stub_for_libtelux_tel
-Wl,--defsym=_ZN5telux3qmi16IQmiImsaListener27onImsServSysRegStatusChangeEP36imsa_registration_status_ind_msg_v016SlotId=so_stub_for_libtelux_tel
-Wl,--defsym=_ZN5telux3qmi17IQmiVoiceListener15onECallOprtModeEP33voice_ecall_oprt_mode_ind_msg_v02i=so_stub_for_libtelux_tel
-Wl,--defsym=_ZN5telux3qmi17IQmiVoiceListener16onTpsECallStatusEP39voice_ip_caller_info_status_ind_msg_v02i=so_stub_for_libtelux_tel
-Wl,--defsym=_ZN5telux3qmi17IQmiVoiceListener23onECallMsdUpdateRequestEi=so_stub_for_libtelux_tel
-Wl,--defsym=_ZN5telux3qmi17IQmiVoiceListener26onVoiceServiceStatusChangeENS_6common13ServiceStatusEi=so_stub_for_libtelux_tel
-Wl,--defsym=_ZN5telux3qmi19IQmiUimHttpListener20onHttpTransactionIndERK32uim_http_transaction_ind_msg_v01=so_stub_for_libtelux_tel
-Wl,--defsym=_ZN5telux3qmi19IQmiUimHttpListener28onUimHttpServiceStatusChangeENS_6common13ServiceStatusE=so_stub_for_libtelux_tel
-Wl,--defsym=_ZN5telux3qmi21IQmiUimRemoteListener23onCardResetNotificationEP33uim_remote_card_reset_ind_msg_v01=so_stub_for_libtelux_tel
-Wl,--defsym=_ZN5telux3qmi21IQmiUimRemoteListener25onCardConnectNotificationEP30uim_remote_connect_ind_msg_v01=so_stub_for_libtelux_tel
-Wl,--defsym=_ZN5telux3qmi21IQmiUimRemoteListener25onCardPowerUpNotificationEP36uim_remote_card_power_up_ind_msg_v01=so_stub_for_libtelux_tel
-Wl,--defsym=_ZN5telux3qmi21IQmiUimRemoteListener26onApduTransferNotificationEP27uim_remote_apdu_ind_msg_v01=so_stub_for_libtelux_tel
-Wl,--defsym=_ZN5telux3qmi21IQmiUimRemoteListener27onCardPowerDownNotificationEP38uim_remote_card_power_down_ind_msg_v01=so_stub_for_libtelux_tel
-Wl,--defsym=_ZN5telux3qmi21IQmiUimRemoteListener28onCardDisconnectNotificationEP33uim_remote_disconnect_ind_msg_v01=so_stub_for_libtelux_tel
-Wl,--defsym=_ZN5telux3qmi21IQmiUimRemoteListener30onRemoteSimServiceStatusChangeENS_6common13ServiceStatusE=so_stub_for_libtelux_tel
-Wl,--defsym=_ZN5telux3qmi23IQmiImsSettingsListener15onImsRttMessageEP28ims_settings_rtt_ind_msg_v016SlotId=so_stub_for_libtelux_tel
-Wl,--defsym=_ZN5telux3qmi23IQmiImsSettingsListener15onImsSendMsdIndEP33ims_settings_send_msd_ind_msg_v016SlotId=so_stub_for_libtelux_tel
-Wl,--defsym=_ZN5telux3qmi23IQmiImsSettingsListener19onImsSendMsdIndInfoEP38ims_settings_send_msd_info_ind_msg_v016SlotId=so_stub_for_libtelux_tel
-Wl,--defsym=_ZN5telux3qmi23IQmiImsSettingsListener20onImsNewConfigChangeEP39ims_settings_ims_new_config_ind_msg_v016SlotId=so_stub_for_libtelux_tel
-Wl,--defsym=_ZN5telux3qmi23IQmiImsSettingsListener24onImsServiceConfigChangeEP50ims_settings_ims_service_enable_config_ind_msg_v016SlotId=so_stub_for_libtelux_tel
-Wl,--defsym=_ZN5telux3qmi23IQmiImsSettingsListener24onImsServiceStatusChangeENS_6common13ServiceStatusE=so_stub_for_libtelux_tel
-Wl,--defsym=_ZN5telux3qms18IQmsClientListener24onQmsServiceStatusChangeENS_6common13ServiceStatusE=so_stub_for_libtelux_tel
-Wl,--defsym=_ZN5telux3qms18IQmsClientListener26onDualDataCapabilityChangeEb=so_stub_for_libtelux_tel
-Wl,--defsym=_ZN5telux3qms18IQmsClientListener30onDualDataRecommendationChangeENS0_18DataRecommendationE=so_stub_for_libtelux_tel
-Wl,--defsym=_ZN5telux3qms18IQmsClientListenerD0Ev=so_stub_for_libtelux_tel
-Wl,--defsym=_ZN5telux3qms18IQmsClientListenerD1Ev=so_stub_for_libtelux_tel
-Wl,--defsym=_ZN5telux3qms18IQmsClientListenerD2Ev=so_stub_for_libtelux_tel
-Wl,--defsym=_ZN5telux3tel10CallHelper12readCallListEv=so_stub_for_libtelux_tel
-Wl,--defsym=_ZN5telux3tel10CallHelper13readCallStateEi=so_stub_for_libtelux_tel
-Wl,--defsym=_ZN5telux3tel10CallHelper17readCallDirectionEi=so_stub_for_libtelux_tel
-Wl,--defsym=_ZN5telux3tel10CallHelper17readCallListCountEv=so_stub_for_libtelux_tel
-Wl,--defsym=_ZN5telux3tel10CallHelper18getCallStateStringB5cxx11ENS0_9CallStateE=so_stub_for_libtelux_tel
-Wl,--defsym=_ZN5telux3tel10CallHelper21readLastCallFailCauseEv=so_stub_for_libtelux_tel
-Wl,--defsym=_ZN5telux3tel10CallHelper22getCallDirectionStringB5cxx11ENS0_13CallDirectionE=so_stub_for_libtelux_tel
-Wl,--defsym=_ZN5telux3tel10CallHelper23isCCInProgressCallStateEi=so_stub_for_libtelux_tel
-Wl,--defsym=_ZN5telux3tel10CallHelper26readCallsWithLastFailCauseEv=so_stub_for_libtelux_tel
-Wl,--defsym=_ZN5telux3tel10CallHelper9readCallsEiRSt6vectorINS0_8CallInfoESaIS3_EE=so_stub_for_libtelux_tel
-Wl,--defsym=_ZN5telux3tel10CallHelperC1ESt10shared_ptrI6ParcelE=so_stub_for_libtelux_tel
-Wl,--defsym=_ZN5telux3tel10CallHelperC1Ev=so_stub_for_libtelux_tel
-Wl,--defsym=_ZN5telux3tel10CallHelperC2ESt10shared_ptrI6ParcelE=so_stub_for_libtelux_tel
-Wl,--defsym=_ZN5telux3tel10CallHelperC2Ev=so_stub_for_libtelux_tel
-Wl,--defsym=_ZN5telux3tel10CardHelper11readAppTypeEi=so_stub_for_libtelux_tel
-Wl,--defsym=_ZN5telux3tel10CardHelper12readAppStateEi=so_stub_for_libtelux_tel
-Wl,--defsym=_ZN5telux3tel10CardHelper12readPinStateEi=so_stub_for_libtelux_tel
-Wl,--defsym=_ZN5telux3tel10CardHelper13readCardStateEi=so_stub_for_libtelux_tel
-Wl,--defsym=_ZN5telux3tel10CardHelper14readCardStatusEv=so_stub_for_libtelux_tel
-Wl,--defsym=_ZN5telux3tel10CardHelper17readPersoSubstateEi=so_stub_for_libtelux_tel
-Wl,--defsym=_ZN5telux3tel10CardHelper20readRefreshSimResultEv=so_stub_for_libtelux_tel
-Wl,--defsym=_ZN5telux3tel10CardHelper9readIccIoERNS0_9IccResultE=so_stub_for_libtelux_tel
-Wl,--defsym=_ZN5telux3tel10CardHelperC1ESt10shared_ptrI6ParcelE=so_stub_for_libtelux_tel
-Wl,--defsym=_ZN5telux3tel10CardHelperC2ESt10shared_ptrI6ParcelE=so_stub_for_libtelux_tel
-Wl,--defsym=_ZN5telux3tel10cdmaDbmMapE=so_stub_for_libtelux_tel
-Wl,--defsym=_ZN5telux3tel10evdoDbmMapE=so_stub_for_libtelux_tel
-Wl,--defsym=_ZN5telux3tel10evdoSnrMapE=so_stub_for_libtelux_tel
-Wl,--defsym=_ZN5telux3tel10RFBandList10getNrBandsENS0_6NrTypeE=so_stub_for_libtelux_tel
-Wl,--defsym=_ZN5telux3tel10RFBandList10setNrBandsENS0_6NrTypeESt6vectorINS0_8NrRFBandESaIS4_EE=so_stub_for_libtelux_tel
-Wl,--defsym=_ZN5telux3tel10RFBandList11getGsmBandsEv=so_stub_for_libtelux_tel
-Wl,--defsym=_ZN5telux3tel10RFBandList11getLteBandsEv=so_stub_for_libtelux_tel
-Wl,--defsym=_ZN5telux3tel10RFBandList11setGsmBandsESt6vectorINS0_9GsmRFBandESaIS3_EE=so_stub_for_libtelux_tel
-Wl,--defsym=_ZN5telux3tel10RFBandList11setLteBandsESt6vectorINS0_9LteRFBandESaIS3_EE=so_stub_for_libtelux_tel
-Wl,--defsym=_ZN5telux3tel10RFBandList13getWcdmaBandsEv=so_stub_for_libtelux_tel
-Wl,--defsym=_ZN5telux3tel10RFBandList13setWcdmaBandsESt6vectorINS0_11WcdmaRFBandESaIS3_EE=so_stub_for_libtelux_tel
-Wl,--defsym=_ZN5telux3tel10RFBandList15isNrBandPresentENS0_6NrTypeENS0_8NrRFBandE=so_stub_for_libtelux_tel
-Wl,--defsym=_ZN5telux3tel10RFBandList16isGSMBandPresentENS0_9GsmRFBandE=so_stub_for_libtelux_tel
-Wl,--defsym=_ZN5telux3tel10RFBandList16isLteBandPresentENS0_9LteRFBandE=so_stub_for_libtelux_tel
-Wl,--defsym=_ZN5telux3tel10RFBandList18isWcdmaBandPresentENS0_11WcdmaRFBandE=so_stub_for_libtelux_tel
-Wl,--defsym=_ZN5telux3tel10RFBandListC1Ev=so_stub_for_libtelux_tel
-Wl,--defsym=_ZN5telux3tel10RFBandListC2Ev=so_stub_for_libtelux_tel
-Wl,--defsym=_ZN5telux3tel10RFBandListD0Ev=so_stub_for_libtelux_tel
-Wl,--defsym=_ZN5telux3tel10RFBandListD1Ev=so_stub_for_libtelux_tel
-Wl,--defsym=_ZN5telux3tel10RFBandListD2Ev=so_stub_for_libtelux_tel
-Wl,--defsym=_ZN5telux3tel10SimProfile11getIconTypeEv=so_stub_for_libtelux_tel
-Wl,--defsym=_ZN5telux3tel10SimProfile11getNickNameB5cxx11Ev=so_stub_for_libtelux_tel
-Wl,--defsym=_ZN5telux3tel10SimProfile12getProfileIdEv=so_stub_for_libtelux_tel
-Wl,--defsym=_ZN5telux3tel10SimProfile13getPolicyRuleEv=so_stub_for_libtelux_tel
-Wl,--defsym=_ZN5telux3tel10SimProfile6getSPNB5cxx11Ev=so_stub_for_libtelux_tel
-Wl,--defsym=_ZN5telux3tel10SimProfile7getIconEv=so_stub_for_libtelux_tel
-Wl,--defsym=_ZN5telux3tel10SimProfile7getNameB5cxx11Ev=so_stub_for_libtelux_tel
-Wl,--defsym=_ZN5telux3tel10SimProfile7getTypeEv=so_stub_for_libtelux_tel
-Wl,--defsym=_ZN5telux3tel10SimProfile8getClassEv=so_stub_for_libtelux_tel
-Wl,--defsym=_ZN5telux3tel10SimProfile8getIccidB5cxx11Ev=so_stub_for_libtelux_tel
-Wl,--defsym=_ZN5telux3tel10SimProfile8isActiveEv=so_stub_for_libtelux_tel
-Wl,--defsym=_ZN5telux3tel10SimProfile8toStringB5cxx11Ev=so_stub_for_libtelux_tel
-Wl,--defsym=_ZN5telux3tel10SimProfile9getSlotIdEv=so_stub_for_libtelux_tel
-Wl,--defsym=_ZN5telux3tel10SimProfileC1EiNS0_11ProfileTypeERKNSt7__cxx1112basic_stringIcSt11char_traitsIcESaIcEEEbSA_SA_SA_NS0_8IconTypeESt6vectorIhSaIhEENS0_12ProfileClassESt6bitsetILm16EEi=so_stub_for_libtelux_tel
-Wl,--defsym=_ZN5telux3tel10SimProfileC2EiNS0_11ProfileTypeERKNSt7__cxx1112basic_stringIcSt11char_traitsIcESaIcEEEbSA_SA_SA_NS0_8IconTypeESt6vectorIhSaIhEENS0_12ProfileClassESt6bitsetILm16EEi=so_stub_for_libtelux_tel
-Wl,--defsym=_ZN5telux3tel10SimProfileD1Ev=so_stub_for_libtelux_tel
-Wl,--defsym=_ZN5telux3tel10SimProfileD2Ev=so_stub_for_libtelux_tel
-Wl,--defsym=_ZN5telux3tel10SmsManager10getPhoneIdEv=so_stub_for_libtelux_tel
-Wl,--defsym=_ZN5telux3tel10SmsManager10sendRawSmsESt6vectorIS2_IhSaIhEESaIS4_EESt8functionIFvS2_IiSaIiEENS_6common9ErrorCodeEEE=so_stub_for_libtelux_tel
-Wl,--defsym=_ZN5telux3tel10SmsManager11readMessageEjSt8functionIFvNS0_10SmsMessageENS_6common9ErrorCodeEEE=so_stub_for_libtelux_tel
-Wl,--defsym=_ZN5telux3tel10SmsManager13addAndSendSmsESt10shared_ptrINS0_7SmsInfoEE=so_stub_for_libtelux_tel
-Wl,--defsym=_ZN5telux3tel10SmsManager13createSmsInfoENSt7__cxx1112basic_stringIcSt11char_traitsIcESaIcEEES7_=so_stub_for_libtelux_tel
-Wl,--defsym=_ZN5telux3tel10SmsManager13deleteMessageENS0_10DeleteInfoESt8functionIFvNS_6common9ErrorCodeEEE=so_stub_for_libtelux_tel
-Wl,--defsym=_ZN5telux3tel10SmsManager13onIncomingSmsESt10shared_ptrINS0_10SmsMessageEE=so_stub_for_libtelux_tel
-Wl,--defsym=_ZN5telux3tel10SmsManager13onIncomingSmsESt10shared_ptrISt6vectorINS0_10SmsMessageESaIS4_EEE=so_stub_for_libtelux_tel
-Wl,--defsym=_ZN5telux3tel10SmsManager14removeListenerESt8weak_ptrINS0_12ISmsListenerEE=so_stub_for_libtelux_tel
-Wl,--defsym=_ZN5telux3tel10SmsManager14setSmscAddressERKNSt7__cxx1112basic_stringIcSt11char_traitsIcESaIcEEESt8functionIFvNS_6common9ErrorCodeEEE=so_stub_for_libtelux_tel
-Wl,--defsym=_ZN5telux3tel10SmsManager15fetchAndSendSmsEv=so_stub_for_libtelux_tel
-Wl,--defsym=_ZN5telux3tel10SmsManager15onMemoryFullIndEi=so_stub_for_libtelux_tel
-Wl,--defsym=_ZN5telux3tel10SmsManager16getServiceStatusEv=so_stub_for_libtelux_tel
-Wl,--defsym=_ZN5telux3tel10SmsManager16onDeliveryReportEiNSt7__cxx1112basic_stringIcSt11char_traitsIcESaIcEEENS_6common9ErrorCodeE=so_stub_for_libtelux_tel
-Wl,--defsym=_ZN5telux3tel10SmsManager16onSetTagResponseEiPv=so_stub_for_libtelux_tel
-Wl,--defsym=_ZN5telux3tel10SmsManager16registerListenerESt8weak_ptrINS0_12ISmsListenerEE=so_stub_for_libtelux_tel
-Wl,--defsym=_ZN5telux3tel10SmsManager18requestSmscAddressESt10shared_ptrINS0_20ISmscAddressCallbackEE=so_stub_for_libtelux_tel
-Wl,--defsym=_ZN5telux3tel10SmsManager19setPreferredStorageENS0_11StorageTypeESt8functionIFvNS_6common9ErrorCodeEEE=so_stub_for_libtelux_tel
-Wl,--defsym=_ZN5telux3tel10SmsManager21cleanupAndSendNextSmsESt10shared_ptrINS0_7SmsInfoEE=so_stub_for_libtelux_tel
-Wl,--defsym=_ZN5telux3tel10SmsManager21onReadMessageResponseEP25wms_raw_read_resp_msg_v01Pvij=so_stub_for_libtelux_tel
-Wl,--defsym=_ZN5telux3tel10SmsManager21onServiceStatusChangeENS_6common13ServiceStatusE=so_stub_for_libtelux_tel
-Wl,--defsym=_ZN5telux3tel10SmsManager21requestSmsMessageListENS0_10SmsTagTypeESt8functionIFvSt6vectorINS0_11SmsMetaInfoESaIS5_EENS_6common9ErrorCodeEEE=so_stub_for_libtelux_tel
-Wl,--defsym=_ZN5telux3tel10SmsManager21requestStorageDetailsESt8functionIFvjjNS_6common9ErrorCodeEEE=so_stub_for_libtelux_tel
-Wl,--defsym=_ZN5telux3tel10SmsManager23handleSolicitedResponseESt10shared_ptrINS_6common6ResultEE=so_stub_for_libtelux_tel
-Wl,--defsym=_ZN5telux3tel10SmsManager23onDeleteMessageResponseEiPv=so_stub_for_libtelux_tel
-Wl,--defsym=_ZN5telux3tel10SmsManager23requestPreferredStorageESt8functionIFvNS0_11StorageTypeENS_6common9ErrorCodeEEE=so_stub_for_libtelux_tel
-Wl,--defsym=_ZN5telux3tel10SmsManager24onSmsMessageListResponseEP30wms_list_messages_resp_msg_v01Pvi=so_stub_for_libtelux_tel
-Wl,--defsym=_ZN5telux3tel10SmsManager24onWmsServiceStatusChangeENS_6common13ServiceStatusE=so_stub_for_libtelux_tel
-Wl,--defsym=_ZN5telux3tel10SmsManager25handleSmscAddressResponseEiPvSt10shared_ptrINS_6common16ICommandCallbackEE=so_stub_for_libtelux_tel
-Wl,--defsym=_ZN5telux3tel10SmsManager25handleUnsolicitedResponseESt10shared_ptrINS_6common6ResultEE=so_stub_for_libtelux_tel
-Wl,--defsym=_ZN5telux3tel10SmsManager26calculateMessageAttributesERKNSt7__cxx1112basic_stringIcSt11char_traitsIcESaIcEEE=so_stub_for_libtelux_tel
-Wl,--defsym=_ZN5telux3tel10SmsManager27onGetStorageDetailsResponseEP35wms_get_store_max_size_resp_msg_v01Pvi=so_stub_for_libtelux_tel
-Wl,--defsym=_ZN5telux3tel10SmsManager28handleSetSmscAddressResponseEiSt10shared_ptrINS_6common16ICommandCallbackEE=so_stub_for_libtelux_tel
-Wl,--defsym=_ZN5telux3tel10SmsManager29onGetPreferredStorageResponseEiPvi=so_stub_for_libtelux_tel
-Wl,--defsym=_ZN5telux3tel10SmsManager29onSetPreferredStorageResponseEiPv=so_stub_for_libtelux_tel
-Wl,--defsym=_ZN5telux3tel10SmsManager30updateSubsystemStatusAndNotifyEv=so_stub_for_libtelux_tel
-Wl,--defsym=_ZN5telux3tel10SmsManager4initESt8functionIFvNS_6common13ServiceStatusEEE=so_stub_for_libtelux_tel
-Wl,--defsym=_ZN5telux3tel10SmsManager6setTagEjNS0_10SmsTagTypeESt8functionIFvNS_6common9ErrorCodeEEE=so_stub_for_libtelux_tel
-Wl,--defsym=_ZN5telux3tel10SmsManager7cleanupEb=so_stub_for_libtelux_tel
-Wl,--defsym=_ZN5telux3tel10SmsManager7initRilEv=so_stub_for_libtelux_tel
-Wl,--defsym=_ZN5telux3tel10SmsManager7initWmsEv=so_stub_for_libtelux_tel
-Wl,--defsym=_ZN5telux3tel10SmsManager7sendSmsENSt7__cxx1112basic_stringIcSt11char_traitsIcESaIcEEES7_bSt8functionIFvSt6vectorIiSaIiEENS_6common9ErrorCodeEEES7_=so_stub_for_libtelux_tel
-Wl,--defsym=_ZN5telux3tel10SmsManager7sendSmsERKNSt7__cxx1112basic_stringIcSt11char_traitsIcESaIcEEES9_St10shared_ptrINS_6common24ICommandResponseCallbackEESD_=so_stub_for_libtelux_tel
-Wl,--defsym=_ZN5telux3tel10SmsManager9onSmsSentESt10shared_ptrINS0_7SmsInfoEE=so_stub_for_libtelux_tel
-Wl,--defsym=_ZN5telux3tel10SmsManagerC1Ei=so_stub_for_libtelux_tel
-Wl,--defsym=_ZN5telux3tel10SmsManagerC2Ei=so_stub_for_libtelux_tel
-Wl,--defsym=_ZN5telux3tel10SmsManagerD0Ev=so_stub_for_libtelux_tel
-Wl,--defsym=_ZN5telux3tel10SmsManagerD1Ev=so_stub_for_libtelux_tel
-Wl,--defsym=_ZN5telux3tel10SmsManagerD2Ev=so_stub_for_libtelux_tel
-Wl,--defsym=_ZN5telux3tel10SmsMessage11getMetaInfoERNS0_11SmsMetaInfoE=so_stub_for_libtelux_tel
-Wl,--defsym=_ZN5telux3tel10SmsMessage18getMessagePartInfoEv=so_stub_for_libtelux_tel
-Wl,--defsym=_ZN5telux3tel10SmsMessageaSEOS1_=so_stub_for_libtelux_tel
-Wl,--defsym=_ZN5telux3tel10SmsMessageC1ENSt7__cxx1112basic_stringIcSt11char_traitsIcESaIcEEES7_S7_NS0_11SmsEncodingES7_St6vectorIhSaIhEESt10shared_ptrINS0_15MessagePartInfoEE=so_stub_for_libtelux_tel
-Wl,--defsym=_ZN5telux3tel10SmsMessageC1ENSt7__cxx1112basic_stringIcSt11char_traitsIcESaIcEEES7_S7_NS0_11SmsEncodingES7_St6vectorIhSaIhEESt10shared_ptrINS0_15MessagePartInfoEEbNS0_11SmsMetaInfoE=so_stub_for_libtelux_tel
-Wl,--defsym=_ZN5telux3tel10SmsMessageC1ERKS1_=so_stub_for_libtelux_tel
-Wl,--defsym=_ZN5telux3tel10SmsMessageC2ENSt7__cxx1112basic_stringIcSt11char_traitsIcESaIcEEES7_S7_NS0_11SmsEncodingES7_St6vectorIhSaIhEESt10shared_ptrINS0_15MessagePartInfoEE=so_stub_for_libtelux_tel
-Wl,--defsym=_ZN5telux3tel10SmsMessageC2ENSt7__cxx1112basic_stringIcSt11char_traitsIcESaIcEEES7_S7_NS0_11SmsEncodingES7_St6vectorIhSaIhEESt10shared_ptrINS0_15MessagePartInfoEEbNS0_11SmsMetaInfoE=so_stub_for_libtelux_tel
-Wl,--defsym=_ZN5telux3tel10SmsMessageC2ERKS1_=so_stub_for_libtelux_tel
-Wl,--defsym=_ZN5telux3tel10SmsMessageD1Ev=so_stub_for_libtelux_tel
-Wl,--defsym=_ZN5telux3tel10SmsMessageD2Ev=so_stub_for_libtelux_tel
-Wl,--defsym=_ZN5telux3tel11CallManager10conferenceESt10shared_ptrINS0_5ICallEES4_S2_INS_6common24ICommandResponseCallbackEE=so_stub_for_libtelux_tel
-Wl,--defsym=_ZN5telux3tel11CallManager10onResponseEiPvi=so_stub_for_libtelux_tel
-Wl,--defsym=_ZN5telux3tel11CallManager10updateEcbmENS0_7EcbModeE=so_stub_for_libtelux_tel
-Wl,--defsym=_ZN5telux3tel11CallManager11makeRttCallEiRKNSt7__cxx1112basic_stringIcSt11char_traitsIcESaIcEEESt10shared_ptrINS0_17IMakeCallCallbackEE=so_stub_for_libtelux_tel
-Wl,--defsym=_ZN5telux3tel11CallManager11requestEcbmEiSt8functionIFvNS0_7EcbModeENS_6common9ErrorCodeEEE=so_stub_for_libtelux_tel
-Wl,--defsym=_ZN5telux3tel11CallManager13onECallStatusENS0_26ECallMsdTransmissionStatusEi=so_stub_for_libtelux_tel
-Wl,--defsym=_ZN5telux3tel11CallManager13onSendRttRespE6SlotIdP34ims_settings_send_rtt_resp_msg_v01Pvi=so_stub_for_libtelux_tel
-Wl,--defsym=_ZN5telux3tel11CallManager14addLatestCallsERSt6vectorINS0_8CallInfoESaIS3_EEi=so_stub_for_libtelux_tel
-Wl,--defsym=_ZN5telux3tel11CallManager14encodeECallMsdENS0_12ECallMsdDataERSt6vectorIhSaIhEE=so_stub_for_libtelux_tel
-Wl,--defsym=_ZN5telux3tel11CallManager14getECallConfigERNS0_11EcallConfigE=so_stub_for_libtelux_tel
-Wl,--defsym=_ZN5telux3tel11CallManager14onRingbackToneEb6SlotId=so_stub_for_libtelux_tel
-Wl,--defsym=_ZN5telux3tel11CallManager14removeListenerESt10shared_ptrINS0_13ICallListenerEE=so_stub_for_libtelux_tel
-Wl,--defsym=_ZN5telux3tel11CallManager14setECallConfigENS0_11EcallConfigE=so_stub_for_libtelux_tel
-Wl,--defsym=_ZN5telux3tel11CallManager14updateECallMsdEiRKNS0_12ECallMsdDataESt10shared_ptrINS_6common24ICommandResponseCallbackEE=so_stub_for_libtelux_tel
-Wl,--defsym=_ZN5telux3tel11CallManager14updateECallMsdEiRKSt6vectorIhSaIhEESt8functionIFvNS_6common9ErrorCodeEEE=so_stub_for_libtelux_tel
-Wl,--defsym=_ZN5telux3tel11CallManager15onImsRttMessageEP28ims_settings_rtt_ind_msg_v016SlotId=so_stub_for_libtelux_tel
-Wl,--defsym=_ZN5telux3tel11CallManager15onImsSendMsdIndEP33ims_settings_send_msd_ind_msg_v016SlotId=so_stub_for_libtelux_tel
-Wl,--defsym=_ZN5telux3tel11CallManager15ResponseHandler23handleSolicitedResponseESt10shared_ptrINS_6common6ResultEE=so_stub_for_libtelux_tel
-Wl,--defsym=_ZN5telux3tel11CallManager15ResponseHandler25handleUnsolicitedResponseESt10shared_ptrINS_6common6ResultEE=so_stub_for_libtelux_tel
-Wl,--defsym=_ZN5telux3tel11CallManager15ResponseHandlerD0Ev=so_stub_for_libtelux_tel
-Wl,--defsym=_ZN5telux3tel11CallManager15ResponseHandlerD1Ev=so_stub_for_libtelux_tel
-Wl,--defsym=_ZN5telux3tel11CallManager15ResponseHandlerD2Ev=so_stub_for_libtelux_tel
-Wl,--defsym=_ZN5telux3tel11CallManager16findMatchingCallESt10shared_ptrINS0_5ICallEE=so_stub_for_libtelux_tel
-Wl,--defsym=_ZN5telux3tel11CallManager16getServiceStatusEv=so_stub_for_libtelux_tel
-Wl,--defsym=_ZN5telux3tel11CallManager16isSubsystemReadyEv=so_stub_for_libtelux_tel
-Wl,--defsym=_ZN5telux3tel11CallManager16onImsSendMsdRespE6SlotIdP38ims_settings_send_msd_info_rsp_msg_v01Pvi=so_stub_for_libtelux_tel
-Wl,--defsym=_ZN5telux3tel11CallManager16onSubsystemReadyEv=so_stub_for_libtelux_tel
-Wl,--defsym=_ZN5telux3tel11CallManager16onTpsECallStatusEP39voice_ip_caller_info_status_ind_msg_v02i=so_stub_for_libtelux_tel
-Wl,--defsym=_ZN5telux3tel11CallManager16registerListenerESt10shared_ptrINS0_13ICallListenerEE=so_stub_for_libtelux_tel
-Wl,--defsym=_ZN5telux3tel11CallManager16sendECallRequestEiNSt7__cxx1112basic_stringIcSt11char_traitsIcESaIcEEERKNS0_12ECallMsdDataEiiSt10shared_ptrINS0_17IMakeCallCallbackEE=so_stub_for_libtelux_tel
-Wl,--defsym=_ZN5telux3tel11CallManager16sendECallRequestEiNSt7__cxx1112basic_stringIcSt11char_traitsIcESaIcEEERKSt6vectorIhSaIhEEbiiSt8functionIFvNS_6common9ErrorCodeESt10shared_ptrINS0_5ICallEEEE=so_stub_for_libtelux_tel
-Wl,--defsym=_ZN5telux3tel11CallManager17addNewCallDetailsESt10shared_ptrINS0_5ICallEE=so_stub_for_libtelux_tel
-Wl,--defsym=_ZN5telux3tel11CallManager18getInProgressCallsEv=so_stub_for_libtelux_tel
-Wl,--defsym=_ZN5telux3tel11CallManager18getResponseHandlerEv=so_stub_for_libtelux_tel
-Wl,--defsym=_ZN5telux3tel11CallManager18notifyIncomingCallESt10shared_ptrINS0_5ICallEE=so_stub_for_libtelux_tel
-Wl,--defsym=_ZN5telux3tel11CallManager18refreshCachedCallsERSt6vectorINS0_8CallInfoESaIS3_EEi=so_stub_for_libtelux_tel
-Wl,--defsym=_ZN5telux3tel11CallManager18updateCurrentCallsERSt6vectorINS0_8CallInfoESaIS3_EEi=so_stub_for_libtelux_tel
-Wl,--defsym=_ZN5telux3tel11CallManager18updateCurrentCallsEv=so_stub_for_libtelux_tel
-Wl,--defsym=_ZN5telux3tel11CallManager18updateRilInitStateENS_6common12ServiceStateE=so_stub_for_libtelux_tel
-Wl,--defsym=_ZN5telux3tel11CallManager19onECallRedialStatusENS0_15ECallRedialInfoEi=so_stub_for_libtelux_tel
-Wl,--defsym=_ZN5telux3tel11CallManager19onImsSendMsdIndInfoEP38ims_settings_send_msd_info_ind_msg_v016SlotId=so_stub_for_libtelux_tel
-Wl,--defsym=_ZN5telux3tel11CallManager19onModifyCallRequestENS0_7RttModeEi6SlotId=so_stub_for_libtelux_tel
-Wl,--defsym=_ZN5telux3tel11CallManager19updateLastFailCauseEibNS0_21LastCallFailCauseInfoE=so_stub_for_libtelux_tel
-Wl,--defsym=_ZN5telux3tel11CallManager20configureECallRedialENS0_16RedialConfigTypeERKSt6vectorIiSaIiEESt8functionIFvNS_6common9ErrorCodeEEE=so_stub_for_libtelux_tel
-Wl,--defsym=_ZN5telux3tel11CallManager20getECallRedialConfigERSt6vectorIiSaIiEES5_=so_stub_for_libtelux_tel
-Wl,--defsym=_ZN5telux3tel11CallManager20notifyCallInfoChangeESt10shared_ptrINS0_5ICallEE=so_stub_for_libtelux_tel
-Wl,--defsym=_ZN5telux3tel11CallManager20onUpdateCurrentCallsEv=so_stub_for_libtelux_tel
-Wl,--defsym=_ZN5telux3tel11CallManager20setRequestStatusFlagEji=so_stub_for_libtelux_tel
-Wl,--defsym=_ZN5telux3tel11CallManager20updateEcallHlapTimerEiNS0_13HlapTimerTypeEjSt8functionIFvNS_6common9ErrorCodeEEE=so_stub_for_libtelux_tel
-Wl,--defsym=_ZN5telux3tel11CallManager21handleStopDftResponseEiSt10shared_ptrINS_6common16ICommandCallbackEE=so_stub_for_libtelux_tel
-Wl,--defsym=_ZN5telux3tel11CallManager21onECallHlapTimerEventENS0_20ECallHlapTimerEventsEi=so_stub_for_libtelux_tel
-Wl,--defsym=_ZN5telux3tel11CallManager21onServiceStatusChangeENS_6common13ServiceStatusE=so_stub_for_libtelux_tel
-Wl,--defsym=_ZN5telux3tel11CallManager21requestEcallHlapTimerEiNS0_13HlapTimerTypeESt8functionIFvNS_6common9ErrorCodeEjEE=so_stub_for_libtelux_tel
-Wl,--defsym=_ZN5telux3tel11CallManager21restartECallHlapTimerEiNS0_16EcallHlapTimerIdEiSt8functionIFvNS_6common9ErrorCodeEEE=so_stub_for_libtelux_tel
-Wl,--defsym=_ZN5telux3tel11CallManager21waitForInitializationEv=so_stub_for_libtelux_tel
-Wl,--defsym=_ZN5telux3tel11CallManager22convertHlapTimerStatusE32ecall_hlap_timer_status_enum_v02=so_stub_for_libtelux_tel
-Wl,--defsym=_ZN5telux3tel11CallManager22handleExitEcbmResponseEiSt10shared_ptrINS_6common16ICommandCallbackEE=so_stub_for_libtelux_tel
-Wl,--defsym=_ZN5telux3tel11CallManager22handleSwapCallResponseEiSt10shared_ptrINS_6common16ICommandCallbackEE=so_stub_for_libtelux_tel
-Wl,--defsym=_ZN5telux3tel11CallManager22initiateUpdateECallMsdERKSt6vectorIhSaIhEEiib=so_stub_for_libtelux_tel
-Wl,--defsym=_ZN5telux3tel11CallManager22resetRequestStatusFlagEji=so_stub_for_libtelux_tel
-Wl,--defsym=_ZN5telux3tel11CallManager23handleQueryEcbmResponseEiPSt6vectorIiSaIiEESt10shared_ptrINS_6common16ICommandCallbackEE=so_stub_for_libtelux_tel
-Wl,--defsym=_ZN5telux3tel11CallManager23onECallMsdUpdateRequestEi=so_stub_for_libtelux_tel
-Wl,--defsym=_ZN5telux3tel11CallManager24onImsServiceStatusChangeENS_6common13ServiceStatusE=so_stub_for_libtelux_tel
-Wl,--defsym=_ZN5telux3tel11CallManager24onVoiceSetConfigResponseEiPv=so_stub_for_libtelux_tel
-Wl,--defsym=_ZN5telux3tel11CallManager25hangupWaitingOrBackgroundEiSt8functionIFvNS_6common9ErrorCodeEEE=so_stub_for_libtelux_tel
-Wl,--defsym=_ZN5telux3tel11CallManager25isTpsEcallOverImsCallInfoEi=so_stub_for_libtelux_tel
-Wl,--defsym=_ZN5telux3tel11CallManager26onEmergencyNetworkScanFailE6SlotId=so_stub_for_libtelux_tel
-Wl,--defsym=_ZN5telux3tel11CallManager26onVoiceServiceStatusChangeENS_6common13ServiceStatusEi=so_stub_for_libtelux_tel
-Wl,--defsym=_ZN5telux3tel11CallManager27notifyAndRemoveDroppedCallsENS0_12CallEndCauseENSt7__cxx1112basic_stringIcSt11char_traitsIcESaIcEEEii=so_stub_for_libtelux_tel
-Wl,--defsym=_ZN5telux3tel11CallManager27onGetECallHlapTimerResponseEiPvi=so_stub_for_libtelux_tel
-Wl,--defsym=_ZN5telux3tel11CallManager27requestECallHlapTimerStatusEiSt8functionIFvNS_6common9ErrorCodeEiNS0_20ECallHlapTimerStatusEEE=so_stub_for_libtelux_tel
-Wl,--defsym=_ZN5telux3tel11CallManager28handleConferenceCallResponseEiSt10shared_ptrINS_6common16ICommandCallbackEE=so_stub_for_libtelux_tel
-Wl,--defsym=_ZN5telux3tel11CallManager28requestNetworkDeregistrationEiSt8functionIFvNS_6common9ErrorCodeEEE=so_stub_for_libtelux_tel
-Wl,--defsym=_ZN5telux3tel11CallManager30updateSubsystemStatusAndNotifyEv=so_stub_for_libtelux_tel
-Wl,--defsym=_ZN5telux3tel11CallManager32handleUpdateCurrentCallsResponseEPvii=so_stub_for_libtelux_tel
-Wl,--defsym=_ZN5telux3tel11CallManager32hangupForegroundResumeBackgroundEiSt8functionIFvNS_6common9ErrorCodeEEE=so_stub_for_libtelux_tel
-Wl,--defsym=_ZN5telux3tel11CallManager32notifyECallMsdTransmissionStatusEiNS0_26ECallMsdTransmissionStatusE=so_stub_for_libtelux_tel
-Wl,--defsym=_ZN5telux3tel11CallManager32notifyECallMsdTransmissionStatusEiNS_6common9ErrorCodeE=so_stub_for_libtelux_tel
-Wl,--defsym=_ZN5telux3tel11CallManager33getECallPostTestRegistrationTimerEiRj=so_stub_for_libtelux_tel
-Wl,--defsym=_ZN5telux3tel11CallManager33onGetECallHlapTimerStatusResponseEP46voice_get_ecall_hlap_timer_status_resp_msg_v02iiPv=so_stub_for_libtelux_tel
-Wl,--defsym=_ZN5telux3tel11CallManager35handleRestartECallHlapTimerResponseEiSt10shared_ptrINS_6common16ICommandCallbackEE=so_stub_for_libtelux_tel
-Wl,--defsym=_ZN5telux3tel11CallManager36encodeEuroNcapOptionalAdditionalDataENS0_25ECallOptionalEuroNcapDataERSt6vectorIhSaIhEE=so_stub_for_libtelux_tel
-Wl,--defsym=_ZN5telux3tel11CallManager36updateECallPostTestRegistrationTimerEijSt8functionIFvNS_6common9ErrorCodeEEE=so_stub_for_libtelux_tel
-Wl,--defsym=_ZN5telux3tel11CallManager38handleHangupForegroundResumeBgResponseEiSt10shared_ptrINS_6common16ICommandCallbackEE=so_stub_for_libtelux_tel
-Wl,--defsym=_ZN5telux3tel11CallManager39handleHangupWaitingOrBackgroundResponseEiSt10shared_ptrINS_6common16ICommandCallbackEE=so_stub_for_libtelux_tel
-Wl,--defsym=_ZN5telux3tel11CallManager47handleUpdateCurrentCallsAndFailureCauseResponseEPvii=so_stub_for_libtelux_tel
-Wl,--defsym=_ZN5telux3tel11CallManager4initESt8functionIFvNS_6common13ServiceStatusEEE=so_stub_for_libtelux_tel
-Wl,--defsym=_ZN5telux3tel11CallManager4swapESt10shared_ptrINS0_5ICallEES4_S2_INS_6common24ICommandResponseCallbackEE=so_stub_for_libtelux_tel
-Wl,--defsym=_ZN5telux3tel11CallManager7cleanupEb=so_stub_for_libtelux_tel
-Wl,--defsym=_ZN5telux3tel11CallManager7initRilEv=so_stub_for_libtelux_tel
-Wl,--defsym=_ZN5telux3tel11CallManager7sendRttEiNSt7__cxx1112basic_stringIcSt11char_traitsIcESaIcEEESt8functionIFvNS_6common9ErrorCodeEEE=so_stub_for_libtelux_tel
-Wl,--defsym=_ZN5telux3tel11CallManager8exitEcbmEiSt8functionIFvNS_6common9ErrorCodeEEE=so_stub_for_libtelux_tel
-Wl,--defsym=_ZN5telux3tel11CallManager8initCallESt10shared_ptrINS0_4CallEE=so_stub_for_libtelux_tel
-Wl,--defsym=_ZN5telux3tel11CallManager8initImssEv=so_stub_for_libtelux_tel
-Wl,--defsym=_ZN5telux3tel11CallManager8makeCallEiRKNSt7__cxx1112basic_stringIcSt11char_traitsIcESaIcEEESt10shared_ptrINS0_17IMakeCallCallbackEE=so_stub_for_libtelux_tel
-Wl,--defsym=_ZN5telux3tel11CallManager9initVoiceEv=so_stub_for_libtelux_tel
-Wl,--defsym=_ZN5telux3tel11CallManager9makeECallEiiiSt8functionIFvNS_6common9ErrorCodeESt10shared_ptrINS0_5ICallEEEE=so_stub_for_libtelux_tel
-Wl,--defsym=_ZN5telux3tel11CallManager9makeECallEiNSt7__cxx1112basic_stringIcSt11char_traitsIcESaIcEEEiSt8functionIFvNS_6common9ErrorCodeESt10shared_ptrINS0_5ICallEEEE=so_stub_for_libtelux_tel
-Wl,--defsym=_ZN5telux3tel11CallManager9makeECallEiNSt7__cxx1112basic_stringIcSt11char_traitsIcESaIcEEERKNS0_12ECallMsdDataEiSt10shared_ptrINS0_17IMakeCallCallbackEE=so_stub_for_libtelux_tel
-Wl,--defsym=_ZN5telux3tel11CallManager9makeECallEiNSt7__cxx1112basic_stringIcSt11char_traitsIcESaIcEEERKSt6vectorIhSaIhEEiSt8functionIFvNS_6common9ErrorCodeESt10shared_ptrINS0_5ICallEEEE=so_stub_for_libtelux_tel
-Wl,--defsym=_ZN5telux3tel11CallManager9makeECallEiNSt7__cxx1112basic_stringIcSt11char_traitsIcESaIcEEERKSt6vectorIhSaIhEENS0_15CustomSipHeaderESt8functionIFvNS_6common9ErrorCodeESt10shared_ptrINS0_5ICallEEEE=so_stub_for_libtelux_tel
-Wl,--defsym=_ZN5telux3tel11CallManager9makeECallEiNSt7__cxx1112basic_stringIcSt11char_traitsIcESaIcEEERKSt6vectorIhSaIhEESt8functionIFvNS_6common9ErrorCodeESt10shared_ptrINS0_5ICallEEEE=so_stub_for_libtelux_tel
-Wl,--defsym=_ZN5telux3tel11CallManager9makeECallEiRKNS0_12ECallMsdDataEiiSt10shared_ptrINS0_17IMakeCallCallbackEE=so_stub_for_libtelux_tel
-Wl,--defsym=_ZN5telux3tel11CallManager9makeECallEiRKSt6vectorIhSaIhEEiiSt8functionIFvNS_6common9ErrorCodeESt10shared_ptrINS0_5ICallEEEE=so_stub_for_libtelux_tel
-Wl,--defsym=_ZN5telux3tel11CallManagerC1Ev=so_stub_for_libtelux_tel
-Wl,--defsym=_ZN5telux3tel11CallManagerC2Ev=so_stub_for_libtelux_tel
-Wl,--defsym=_ZN5telux3tel11CallManagerD0Ev=so_stub_for_libtelux_tel
-Wl,--defsym=_ZN5telux3tel11CallManagerD1Ev=so_stub_for_libtelux_tel
-Wl,--defsym=_ZN5telux3tel11CallManagerD2Ev=so_stub_for_libtelux_tel
-Wl,--defsym=_ZN5telux3tel11CardAppImpl10getAppTypeEv=so_stub_for_libtelux_tel
-Wl,--defsym=_ZN5telux3tel11CardAppImpl11getAppStateEv=so_stub_for_libtelux_tel
-Wl,--defsym=_ZN5telux3tel11CardAppImpl11setCardLockENS0_12CardLockTypeENSt7__cxx1112basic_stringIcSt11char_traitsIcESaIcEEEbSt8functionIFviNS_6common9ErrorCodeEEE=so_stub_for_libtelux_tel
-Wl,--defsym=_ZN5telux3tel11CardAppImpl13updateCardAppERNS0_13CardAppStatusE=so_stub_for_libtelux_tel
-Wl,--defsym=_ZN5telux3tel11CardAppImpl15unlockCardByPinENS0_12CardLockTypeENSt7__cxx1112basic_stringIcSt11char_traitsIcESaIcEEESt8functionIFviNS_6common9ErrorCodeEEE=so_stub_for_libtelux_tel
-Wl,--defsym=_ZN5telux3tel11CardAppImpl15unlockCardByPukENS0_12CardLockTypeENSt7__cxx1112basic_stringIcSt11char_traitsIcESaIcEEES8_St8functionIFviNS_6common9ErrorCodeEEE=so_stub_for_libtelux_tel
-Wl,--defsym=_ZN5telux3tel11CardAppImpl16getPersoSubStateEv=so_stub_for_libtelux_tel
-Wl,--defsym=_ZN5telux3tel11CardAppImpl17logCardAppDetailsEv=so_stub_for_libtelux_tel
-Wl,--defsym=_ZN5telux3tel11CardAppImpl17queryFdnLockStateESt8functionIFvbbNS_6common9ErrorCodeEEE=so_stub_for_libtelux_tel
-Wl,--defsym=_ZN5telux3tel11CardAppImpl18changeCardPasswordENS0_12CardLockTypeENSt7__cxx1112basic_stringIcSt11char_traitsIcESaIcEEES8_St8functionIFviNS_6common9ErrorCodeEEE=so_stub_for_libtelux_tel
-Wl,--defsym=_ZN5telux3tel11CardAppImpl18queryPin1LockStateESt8functionIFvbNS_6common9ErrorCodeEEE=so_stub_for_libtelux_tel
-Wl,--defsym=_ZN5telux3tel11CardAppImpl19handleQueryFdnEventEiPSt6vectorIiSaIiEESt10shared_ptrINS_6common16ICommandCallbackEE=so_stub_for_libtelux_tel
-Wl,--defsym=_ZN5telux3tel11CardAppImpl19handleQueryPinEventEiPSt6vectorIiSaIiEESt10shared_ptrINS_6common16ICommandCallbackEE=so_stub_for_libtelux_tel
-Wl,--defsym=_ZN5telux3tel11CardAppImpl20handlePinUpdateEventEiPSt6vectorIiSaIiEESt10shared_ptrINS_6common16ICommandCallbackEE=so_stub_for_libtelux_tel
-Wl,--defsym=_ZN5telux3tel11CardAppImpl23handleSolicitedResponseESt10shared_ptrINS_6common6ResultEE=so_stub_for_libtelux_tel
-Wl,--defsym=_ZN5telux3tel11CardAppImpl25handleUnsolicitedResponseESt10shared_ptrINS_6common6ResultEE=so_stub_for_libtelux_tel
-Wl,--defsym=_ZN5telux3tel11CardAppImpl5matchERNS0_13CardAppStatusE=so_stub_for_libtelux_tel
-Wl,--defsym=_ZN5telux3tel11CardAppImpl8getAppIdB5cxx11Ev=so_stub_for_libtelux_tel
-Wl,--defsym=_ZN5telux3tel11CardAppImplC1EiNS0_13CardAppStatusE=so_stub_for_libtelux_tel
-Wl,--defsym=_ZN5telux3tel11CardAppImplC2EiNS0_13CardAppStatusE=so_stub_for_libtelux_tel
-Wl,--defsym=_ZN5telux3tel11CardAppImplD0Ev=so_stub_for_libtelux_tel
-Wl,--defsym=_ZN5telux3tel11CardAppImplD1Ev=so_stub_for_libtelux_tel
-Wl,--defsym=_ZN5telux3tel11CardAppImplD2Ev=so_stub_for_libtelux_tel
-Wl,--defsym=_ZN5telux3tel11cdmaEcioMapE=so_stub_for_libtelux_tel
-Wl,--defsym=_ZN5telux3tel11GsmCellInfo15getCellIdentityEv=so_stub_for_libtelux_tel
-Wl,--defsym=_ZN5telux3tel11GsmCellInfo21getSignalStrengthInfoEv=so_stub_for_libtelux_tel
-Wl,--defsym=_ZN5telux3tel11GsmCellInfoC1EiNS0_15GsmCellIdentityENS0_21GsmSignalStrengthInfoE=so_stub_for_libtelux_tel
-Wl,--defsym=_ZN5telux3tel11GsmCellInfoC2EiNS0_15GsmCellIdentityENS0_21GsmSignalStrengthInfoE=so_stub_for_libtelux_tel
-Wl,--defsym=_ZN5telux3tel11GsmCellInfoD0Ev=so_stub_for_libtelux_tel
-Wl,--defsym=_ZN5telux3tel11GsmCellInfoD1Ev=so_stub_for_libtelux_tel
-Wl,--defsym=_ZN5telux3tel11GsmCellInfoD2Ev=so_stub_for_libtelux_tel
-Wl,--defsym=_ZN5telux3tel11gsmLevelMapE=so_stub_for_libtelux_tel
-Wl,--defsym=_ZN5telux3tel11LteCellInfo15getCellIdentityEv=so_stub_for_libtelux_tel
-Wl,--defsym=_ZN5telux3tel11LteCellInfo21getSignalStrengthInfoEv=so_stub_for_libtelux_tel
-Wl,--defsym=_ZN5telux3tel11LteCellInfoC1EiNS0_15LteCellIdentityENS0_21LteSignalStrengthInfoE=so_stub_for_libtelux_tel
-Wl,--defsym=_ZN5telux3tel11LteCellInfoC2EiNS0_15LteCellIdentityENS0_21LteSignalStrengthInfoE=so_stub_for_libtelux_tel
-Wl,--defsym=_ZN5telux3tel11LteCellInfoD0Ev=so_stub_for_libtelux_tel
-Wl,--defsym=_ZN5telux3tel11LteCellInfoD1Ev=so_stub_for_libtelux_tel
-Wl,--defsym=_ZN5telux3tel11LteCellInfoD2Ev=so_stub_for_libtelux_tel
-Wl,--defsym=_ZN5telux3tel11lteLevelMapE=so_stub_for_libtelux_tel
-Wl,--defsym=_ZN5telux3tel12CdmaCellInfo15getCellIdentityEv=so_stub_for_libtelux_tel
-Wl,--defsym=_ZN5telux3tel12CdmaCellInfo21getSignalStrengthInfoEv=so_stub_for_libtelux_tel
-Wl,--defsym=_ZN5telux3tel12CdmaCellInfoC1EiNS0_16CdmaCellIdentityENS0_22CdmaSignalStrengthInfoE=so_stub_for_libtelux_tel
-Wl,--defsym=_ZN5telux3tel12CdmaCellInfoC2EiNS0_16CdmaCellIdentityENS0_22CdmaSignalStrengthInfoE=so_stub_for_libtelux_tel
-Wl,--defsym=_ZN5telux3tel12CdmaCellInfoD0Ev=so_stub_for_libtelux_tel
-Wl,--defsym=_ZN5telux3tel12CdmaCellInfoD1Ev=so_stub_for_libtelux_tel
-Wl,--defsym=_ZN5telux3tel12CdmaCellInfoD2Ev=so_stub_for_libtelux_tel
-Wl,--defsym=_ZN5telux3tel12CustomHeaderC1ERKS1_=so_stub_for_libtelux_tel
-Wl,--defsym=_ZN5telux3tel12CustomHeaderC2ERKS1_=so_stub_for_libtelux_tel
-Wl,--defsym=_ZN5telux3tel12CustomHeaderD1Ev=so_stub_for_libtelux_tel
-Wl,--defsym=_ZN5telux3tel12CustomHeaderD2Ev=so_stub_for_libtelux_tel
-Wl,--defsym=_ZN5telux3tel12NasInfoCacheD1Ev=so_stub_for_libtelux_tel
-Wl,--defsym=_ZN5telux3tel12NasInfoCacheD2Ev=so_stub_for_libtelux_tel
-Wl,--defsym=_ZN5telux3tel12Nr5gCellInfo15getCellIdentityEv=so_stub_for_libtelux_tel
-Wl,--defsym=_ZN5telux3tel12Nr5gCellInfo21getSignalStrengthInfoEv=so_stub_for_libtelux_tel
-Wl,--defsym=_ZN5telux3tel12Nr5gCellInfoC1EiNS0_16Nr5gCellIdentityENS0_22Nr5gSignalStrengthInfoE=so_stub_for_libtelux_tel
-Wl,--defsym=_ZN5telux3tel12Nr5gCellInfoC2EiNS0_16Nr5gCellIdentityENS0_22Nr5gSignalStrengthInfoE=so_stub_for_libtelux_tel
-Wl,--defsym=_ZN5telux3tel12Nr5gCellInfoD0Ev=so_stub_for_libtelux_tel
-Wl,--defsym=_ZN5telux3tel12Nr5gCellInfoD1Ev=so_stub_for_libtelux_tel
-Wl,--defsym=_ZN5telux3tel12Nr5gCellInfoD2Ev=so_stub_for_libtelux_tel
-Wl,--defsym=_ZN5telux3tel12OperatorInfo6getMccB5cxx11Ev=so_stub_for_libtelux_tel
-Wl,--defsym=_ZN5telux3tel12OperatorInfo6getMncB5cxx11Ev=so_stub_for_libtelux_tel
-Wl,--defsym=_ZN5telux3tel12OperatorInfo6getRatEv=so_stub_for_libtelux_tel
-Wl,--defsym=_ZN5telux3tel12OperatorInfo7getNameB5cxx11Ev=so_stub_for_libtelux_tel
-Wl,--defsym=_ZN5telux3tel12OperatorInfo9getStatusEv=so_stub_for_libtelux_tel
-Wl,--defsym=_ZN5telux3tel12OperatorInfoC1ENSt7__cxx1112basic_stringIcSt11char_traitsIcESaIcEEES7_S7_NS0_14OperatorStatusE=so_stub_for_libtelux_tel
-Wl,--defsym=_ZN5telux3tel12OperatorInfoC1ENSt7__cxx1112basic_stringIcSt11char_traitsIcESaIcEEES7_S7_NS0_15RadioTechnologyENS0_14OperatorStatusE=so_stub_for_libtelux_tel
-Wl,--defsym=_ZN5telux3tel12OperatorInfoC1ERKS1_=so_stub_for_libtelux_tel
-Wl,--defsym=_ZN5telux3tel12OperatorInfoC2ENSt7__cxx1112basic_stringIcSt11char_traitsIcESaIcEEES7_S7_NS0_14OperatorStatusE=so_stub_for_libtelux_tel
-Wl,--defsym=_ZN5telux3tel12OperatorInfoC2ENSt7__cxx1112basic_stringIcSt11char_traitsIcESaIcEEES7_S7_NS0_15RadioTechnologyENS0_14OperatorStatusE=so_stub_for_libtelux_tel
-Wl,--defsym=_ZN5telux3tel12OperatorInfoC2ERKS1_=so_stub_for_libtelux_tel
-Wl,--defsym=_ZN5telux3tel12OperatorInfoD1Ev=so_stub_for_libtelux_tel
-Wl,--defsym=_ZN5telux3tel12OperatorInfoD2Ev=so_stub_for_libtelux_tel
-Wl,--defsym=_ZN5telux3tel12PhoneFactory11getInstanceEv=so_stub_for_libtelux_tel
-Wl,--defsym=_ZN5telux3tel12PhoneFactoryC1Ev=so_stub_for_libtelux_tel
-Wl,--defsym=_ZN5telux3tel12PhoneFactoryC2Ev=so_stub_for_libtelux_tel
-Wl,--defsym=_ZN5telux3tel12PhoneFactoryD0Ev=so_stub_for_libtelux_tel
-Wl,--defsym=_ZN5telux3tel12PhoneFactoryD1Ev=so_stub_for_libtelux_tel
-Wl,--defsym=_ZN5telux3tel12PhoneFactoryD2Ev=so_stub_for_libtelux_tel
-Wl,--defsym=_ZN5telux3tel12PhoneManager10initPhonesEi=so_stub_for_libtelux_tel
-Wl,--defsym=_ZN5telux3tel12PhoneManager11getPhoneIdsERSt6vectorIiSaIiEE=so_stub_for_libtelux_tel
-Wl,--defsym=_ZN5telux3tel12PhoneManager14removeListenerESt8weak_ptrINS0_14IPhoneListenerEE=so_stub_for_libtelux_tel
-Wl,--defsym=_ZN5telux3tel12PhoneManager16getServiceStatusEv=so_stub_for_libtelux_tel
-Wl,--defsym=_ZN5telux3tel12PhoneManager16isSubsystemReadyEv=so_stub_for_libtelux_tel
-Wl,--defsym=_ZN5telux3tel12PhoneManager16onSubsystemReadyEv=so_stub_for_libtelux_tel
-Wl,--defsym=_ZN5telux3tel12PhoneManager16registerListenerESt8weak_ptrINS0_14IPhoneListenerEE=so_stub_for_libtelux_tel
-Wl,--defsym=_ZN5telux3tel12PhoneManager16setOperatingModeENS0_13OperatingModeESt8functionIFvNS_6common9ErrorCodeEEE=so_stub_for_libtelux_tel
-Wl,--defsym=_ZN5telux3tel12PhoneManager16updateRadioStateENS0_13OperatingModeE=so_stub_for_libtelux_tel
-Wl,--defsym=_ZN5telux3tel12PhoneManager19onRadioStateChangedEiNS0_10RadioStateE=so_stub_for_libtelux_tel
-Wl,--defsym=_ZN5telux3tel12PhoneManager20getPhoneIdFromSlotIdEi=so_stub_for_libtelux_tel
-Wl,--defsym=_ZN5telux3tel12PhoneManager20getSlotIdFromPhoneIdEi=so_stub_for_libtelux_tel
-Wl,--defsym=_ZN5telux3tel12PhoneManager20onOperatorInfoChangeEiNS0_8PlmnInfoE=so_stub_for_libtelux_tel
-Wl,--defsym=_ZN5telux3tel12PhoneManager20requestOperatingModeESt10shared_ptrINS0_22IOperatingModeCallbackEE=so_stub_for_libtelux_tel
-Wl,--defsym=_ZN5telux3tel12PhoneManager21onCellInfoListChangedEiSt6vectorISt10shared_ptrINS0_8CellInfoEESaIS5_EE=so_stub_for_libtelux_tel
-Wl,--defsym=_ZN5telux3tel12PhoneManager21onOperatingModeChangeEi=so_stub_for_libtelux_tel
-Wl,--defsym=_ZN5telux3tel12PhoneManager21onServiceStateChangedEiNS0_12ServiceStateE=so_stub_for_libtelux_tel
-Wl,--defsym=_ZN5telux3tel12PhoneManager21onServiceStatusChangeENS_6common13ServiceStatusE=so_stub_for_libtelux_tel
-Wl,--defsym=_ZN5telux3tel12PhoneManager21waitForInitializationEv=so_stub_for_libtelux_tel
-Wl,--defsym=_ZN5telux3tel12PhoneManager22setEventReportResponseEiPv=so_stub_for_libtelux_tel
-Wl,--defsym=_ZN5telux3tel12PhoneManager23handleSolicitedResponseESt10shared_ptrINS_6common6ResultEE=so_stub_for_libtelux_tel
-Wl,--defsym=_ZN5telux3tel12PhoneManager23handleWwanResetResponseEiSt10shared_ptrINS_6common16ICommandCallbackEE=so_stub_for_libtelux_tel
-Wl,--defsym=_ZN5telux3tel12PhoneManager23onSignalStrengthChangedEiSt10shared_ptrINS0_14SignalStrengthEE=so_stub_for_libtelux_tel
-Wl,--defsym=_ZN5telux3tel12PhoneManager24getOperatingModeResponseEiiPv=so_stub_for_libtelux_tel
-Wl,--defsym=_ZN5telux3tel12PhoneManager24handleServiceStateChangeENS_6common13ServiceStatusE=so_stub_for_libtelux_tel
-Wl,--defsym=_ZN5telux3tel12PhoneManager24onDmsServiceStatusChangeENS_6common13ServiceStatusEi=so_stub_for_libtelux_tel
-Wl,--defsym=_ZN5telux3tel12PhoneManager24setOperatingModeResponseEiPv=so_stub_for_libtelux_tel
-Wl,--defsym=_ZN5telux3tel12PhoneManager25handleUnsolicitedResponseESt10shared_ptrINS_6common6ResultEE=so_stub_for_libtelux_tel
-Wl,--defsym=_ZN5telux3tel12PhoneManager25setServiceStatusAndNotifyENS_6common13ServiceStatusE=so_stub_for_libtelux_tel
-Wl,--defsym=_ZN5telux3tel12PhoneManager26onECallOperatingModeChangeEiNS0_13ECallModeInfoE=so_stub_for_libtelux_tel
-Wl,--defsym=_ZN5telux3tel12PhoneManager26onVoiceServiceStateChangedEiRKSt10shared_ptrINS0_16VoiceServiceInfoEE=so_stub_for_libtelux_tel
-Wl,--defsym=_ZN5telux3tel12PhoneManager29getCellularCapabilityResponseEP31dms_get_device_cap_resp_msg_v01iPv=so_stub_for_libtelux_tel
-Wl,--defsym=_ZN5telux3tel12PhoneManager29onVoiceRadioTechnologyChangedEiNS0_15RadioTechnologyE=so_stub_for_libtelux_tel
-Wl,--defsym=_ZN5telux3tel12PhoneManager29requestCellularCapabilityInfoESt10shared_ptrINS0_27ICellularCapabilityCallbackEE=so_stub_for_libtelux_tel
-Wl,--defsym=_ZN5telux3tel12PhoneManager4initESt8functionIFvNS_6common13ServiceStatusEEE=so_stub_for_libtelux_tel
-Wl,--defsym=_ZN5telux3tel12PhoneManager7cleanupEb=so_stub_for_libtelux_tel
-Wl,--defsym=_ZN5telux3tel12PhoneManager8getPhoneEi=so_stub_for_libtelux_tel
-Wl,--defsym=_ZN5telux3tel12PhoneManager8initSyncEv=so_stub_for_libtelux_tel
-Wl,--defsym=_ZN5telux3tel12PhoneManager9resetWwanESt8functionIFvNS_6common9ErrorCodeEEE=so_stub_for_libtelux_tel
-Wl,--defsym=_ZN5telux3tel12PhoneManagerC1Ev=so_stub_for_libtelux_tel
-Wl,--defsym=_ZN5telux3tel12PhoneManagerC2Ev=so_stub_for_libtelux_tel
-Wl,--defsym=_ZN5telux3tel12PhoneManagerD0Ev=so_stub_for_libtelux_tel
-Wl,--defsym=_ZN5telux3tel12PhoneManagerD1Ev=so_stub_for_libtelux_tel
-Wl,--defsym=_ZN5telux3tel12PhoneManagerD2Ev=so_stub_for_libtelux_tel
-Wl,--defsym=_ZN5telux3tel13CardAppStatusC1ERKS1_=so_stub_for_libtelux_tel
-Wl,--defsym=_ZN5telux3tel13CardAppStatusC2ERKS1_=so_stub_for_libtelux_tel
-Wl,--defsym=_ZN5telux3tel13CardAppStatusD1Ev=so_stub_for_libtelux_tel
-Wl,--defsym=_ZN5telux3tel13CardAppStatusD2Ev=so_stub_for_libtelux_tel
-Wl,--defsym=_ZN5telux3tel13ICardListener14onRefreshEventEiNS0_12RefreshStageENS0_11RefreshModeESt6vectorINS0_7IccFileESaIS5_EENS0_13RefreshParamsE=so_stub_for_libtelux_tel
-Wl,--defsym=_ZN5telux3tel13ICardListener17onCardInfoChangedEi=so_stub_for_libtelux_tel
-Wl,--defsym=_ZN5telux3tel13WcdmaCellInfo15getCellIdentityEv=so_stub_for_libtelux_tel
-Wl,--defsym=_ZN5telux3tel13WcdmaCellInfo21getSignalStrengthInfoEv=so_stub_for_libtelux_tel
-Wl,--defsym=_ZN5telux3tel13WcdmaCellInfoC1EiNS0_17WcdmaCellIdentityENS0_23WcdmaSignalStrengthInfoE=so_stub_for_libtelux_tel
-Wl,--defsym=_ZN5telux3tel13WcdmaCellInfoC2EiNS0_17WcdmaCellIdentityENS0_23WcdmaSignalStrengthInfoE=so_stub_for_libtelux_tel
-Wl,--defsym=_ZN5telux3tel13WcdmaCellInfoD0Ev=so_stub_for_libtelux_tel
-Wl,--defsym=_ZN5telux3tel13WcdmaCellInfoD1Ev=so_stub_for_libtelux_tel
-Wl,--defsym=_ZN5telux3tel13WcdmaCellInfoD2Ev=so_stub_for_libtelux_tel
-Wl,--defsym=_ZN5telux3tel13wcdmaLevelMapE=so_stub_for_libtelux_tel
-Wl,--defsym=_ZN5telux3tel14IPhoneListener19onRadioStateChangedEiNS0_10RadioStateE=so_stub_for_libtelux_tel
-Wl,--defsym=_ZN5telux3tel14IPhoneListener20onOperatorInfoChangeEiNS0_8PlmnInfoE=so_stub_for_libtelux_tel
-Wl,--defsym=_ZN5telux3tel14IPhoneListener21onCellInfoListChangedEiSt6vectorISt10shared_ptrINS0_8CellInfoEESaIS5_EE=so_stub_for_libtelux_tel
-Wl,--defsym=_ZN5telux3tel14IPhoneListener21onServiceStateChangedEiNS0_12ServiceStateE=so_stub_for_libtelux_tel
-Wl,--defsym=_ZN5telux3tel14IPhoneListener22onOperatingModeChangedENS0_13OperatingModeE=so_stub_for_libtelux_tel
-Wl,--defsym=_ZN5telux3tel14IPhoneListener23onSignalStrengthChangedEiSt10shared_ptrINS0_14SignalStrengthEE=so_stub_for_libtelux_tel
-Wl,--defsym=_ZN5telux3tel14IPhoneListener26onECallOperatingModeChangeEiNS0_13ECallModeInfoE=so_stub_for_libtelux_tel
-Wl,--defsym=_ZN5telux3tel14IPhoneListener26onVoiceServiceStateChangedEiRKSt10shared_ptrINS0_16VoiceServiceInfoEE=so_stub_for_libtelux_tel
-Wl,--defsym=_ZN5telux3tel14IPhoneListener29onVoiceRadioTechnologyChangedEiNS0_15RadioTechnologyE=so_stub_for_libtelux_tel
-Wl,--defsym=_ZN5telux3tel14MultiSimHelper15phoneIdToSlotIdEi=so_stub_for_libtelux_tel
-Wl,--defsym=_ZN5telux3tel14MultiSimHelper15slotIdToPhoneIdE6SlotId=so_stub_for_libtelux_tel
-Wl,--defsym=_ZN5telux3tel14MultiSimHelper18getSlotIdFromIndexEh=so_stub_for_libtelux_tel
-Wl,--defsym=_ZN5telux3tel14MultiSimHelper23convertCardErrorFromQmiE28uim_card_error_code_enum_v01=so_stub_for_libtelux_tel
-Wl,--defsym=_ZN5telux3tel14MultiSimHelper23convertCardStateFromQmiE32uim_physical_card_state_enum_v01=so_stub_for_libtelux_tel
-Wl,--defsym=_ZN5telux3tel14MultiSimHelper23convertSlotStateFromQmiE32uim_physical_slot_state_enum_v01=so_stub_for_libtelux_tel
-Wl,--defsym=_ZN5telux3tel14MultiSimHelper26convertExtCardStateFromQmiE32uim_extended_card_state_enum_v01=so_stub_for_libtelux_tel
-Wl,--defsym=_ZN5telux3tel14Nb1NtnCellInfo15getCellIdentityEv=so_stub_for_libtelux_tel
-Wl,--defsym=_ZN5telux3tel14Nb1NtnCellInfo21getSignalStrengthInfoEv=so_stub_for_libtelux_tel
-Wl,--defsym=_ZN5telux3tel14Nb1NtnCellInfoC1EiNS0_18Nb1NtnCellIdentityENS0_24Nb1NtnSignalStrengthInfoE=so_stub_for_libtelux_tel
-Wl,--defsym=_ZN5telux3tel14Nb1NtnCellInfoC2EiNS0_18Nb1NtnCellIdentityENS0_24Nb1NtnSignalStrengthInfoE=so_stub_for_libtelux_tel
-Wl,--defsym=_ZN5telux3tel14Nb1NtnCellInfoD0Ev=so_stub_for_libtelux_tel
-Wl,--defsym=_ZN5telux3tel14Nb1NtnCellInfoD1Ev=so_stub_for_libtelux_tel
-Wl,--defsym=_ZN5telux3tel14Nb1NtnCellInfoD2Ev=so_stub_for_libtelux_tel
-Wl,--defsym=_ZN5telux3tel14nb1NtnLevelMapE=so_stub_for_libtelux_tel
-Wl,--defsym=_ZN5telux3tel14SignalStrength20getGsmSignalStrengthEv=so_stub_for_libtelux_tel
-Wl,--defsym=_ZN5telux3tel14SignalStrength20getLteSignalStrengthEv=so_stub_for_libtelux_tel
-Wl,--defsym=_ZN5telux3tel14SignalStrength21getCdmaSignalStrengthEv=so_stub_for_libtelux_tel
-Wl,--defsym=_ZN5telux3tel14SignalStrength21getNr5gSignalStrengthEv=so_stub_for_libtelux_tel
-Wl,--defsym=_ZN5telux3tel14SignalStrength22getWcdmaSignalStrengthEv=so_stub_for_libtelux_tel
-Wl,--defsym=_ZN5telux3tel14SignalStrength23getNb1NtnSignalStrengthEv=so_stub_for_libtelux_tel
-Wl,--defsym=_ZN5telux3tel14SignalStrength24getTdscdmaSignalStrengthEv=so_stub_for_libtelux_tel
-Wl,--defsym=_ZN5telux3tel14SignalStrengthC1ESt10shared_ptrINS0_21LteSignalStrengthInfoEES2_INS0_21GsmSignalStrengthInfoEES2_INS0_22CdmaSignalStrengthInfoEES2_INS0_23WcdmaSignalStrengthInfoEES2_INS0_25TdscdmaSignalStrengthInfoEES2_INS0_22Nr5gSignalStrengthInfoEES2_INS0_24Nb1NtnSignalStrengthInfoEE=so_stub_for_libtelux_tel
-Wl,--defsym=_ZN5telux3tel14SignalStrengthC2ESt10shared_ptrINS0_21LteSignalStrengthInfoEES2_INS0_21GsmSignalStrengthInfoEES2_INS0_22CdmaSignalStrengthInfoEES2_INS0_23WcdmaSignalStrengthInfoEES2_INS0_25TdscdmaSignalStrengthInfoEES2_INS0_22Nr5gSignalStrengthInfoEES2_INS0_24Nb1NtnSignalStrengthInfoEE=so_stub_for_libtelux_tel
-Wl,--defsym=_ZN5telux3tel14SignalStrengthD1Ev=so_stub_for_libtelux_tel
-Wl,--defsym=_ZN5telux3tel14SignalStrengthD2Ev=so_stub_for_libtelux_tel
-Wl,--defsym=_ZN5telux3tel15BitStreamReader4readEi=so_stub_for_libtelux_tel
-Wl,--defsym=_ZN5telux3tel15BitStreamReader4skipEv=so_stub_for_libtelux_tel
-Wl,--defsym=_ZN5telux3tel15BitStreamReaderC1ESt6vectorIhSaIhEEi=so_stub_for_libtelux_tel
-Wl,--defsym=_ZN5telux3tel15BitStreamReaderC2ESt6vectorIhSaIhEEi=so_stub_for_libtelux_tel
-Wl,--defsym=_ZN5telux3tel15CardManagerImpl10getSlotIdsERSt6vectorIiSaIiEE=so_stub_for_libtelux_tel
-Wl,--defsym=_ZN5telux3tel15CardManagerImpl10onResponseEiPvi=so_stub_for_libtelux_tel
-Wl,--defsym=_ZN5telux3tel15CardManagerImpl11cardPowerUpE6SlotIdSt8functionIFvNS_6common9ErrorCodeEEE=so_stub_for_libtelux_tel
-Wl,--defsym=_ZN5telux3tel15CardManagerImpl12getSlotCountERi=so_stub_for_libtelux_tel
-Wl,--defsym=_ZN5telux3tel15CardManagerImpl13cardPowerDownE6SlotIdSt8functionIFvNS_6common9ErrorCodeEEE=so_stub_for_libtelux_tel
-Wl,--defsym=_ZN5telux3tel15CardManagerImpl14removeListenerESt10shared_ptrINS0_13ICardListenerEE=so_stub_for_libtelux_tel
-Wl,--defsym=_ZN5telux3tel15CardManagerImpl15onSimRefreshIndERK23uim_refresh_ind_msg_v01=so_stub_for_libtelux_tel
-Wl,--defsym=_ZN5telux3tel15CardManagerImpl16allowCardRefreshE6SlotIdbNS0_13RefreshParamsESt8functionIFvNS_6common9ErrorCodeEEE=so_stub_for_libtelux_tel
-Wl,--defsym=_ZN5telux3tel15CardManagerImpl16checkSessionTypeE6SlotIdNS0_11SessionTypeE=so_stub_for_libtelux_tel
-Wl,--defsym=_ZN5telux3tel15CardManagerImpl16getServiceStatusEv=so_stub_for_libtelux_tel
-Wl,--defsym=_ZN5telux3tel15CardManagerImpl16isSubsystemReadyEv=so_stub_for_libtelux_tel
-Wl,--defsym=_ZN5telux3tel15CardManagerImpl16onSubsystemReadyEv=so_stub_for_libtelux_tel
-Wl,--defsym=_ZN5telux3tel15CardManagerImpl16registerListenerESt10shared_ptrINS0_13ICardListenerEE=so_stub_for_libtelux_tel
-Wl,--defsym=_ZN5telux3tel15CardManagerImpl18notifyCardListenerENS0_13CardEventTypeEi=so_stub_for_libtelux_tel
-Wl,--defsym=_ZN5telux3tel15CardManagerImpl18setupRefreshConfigE6SlotIdbbSt6vectorINS0_7IccFileESaIS4_EENS0_13RefreshParamsESt8functionIFvNS_6common9ErrorCodeEEE=so_stub_for_libtelux_tel
-Wl,--defsym=_ZN5telux3tel15CardManagerImpl19requestGetSimStatusEi=so_stub_for_libtelux_tel
-Wl,--defsym=_ZN5telux3tel15CardManagerImpl21onServiceStatusChangeENS_6common13ServiceStatusE=so_stub_for_libtelux_tel
-Wl,--defsym=_ZN5telux3tel15CardManagerImpl21waitForInitializationEv=so_stub_for_libtelux_tel
-Wl,--defsym=_ZN5telux3tel15CardManagerImpl23handleSolicitedResponseESt10shared_ptrINS_6common6ResultEE=so_stub_for_libtelux_tel
-Wl,--defsym=_ZN5telux3tel15CardManagerImpl23requestLastRefreshEventE6SlotIdNS0_13RefreshParamsESt8functionIFvNS0_12RefreshStageENS0_11RefreshModeESt6vectorINS0_7IccFileESaIS8_EES3_NS_6common9ErrorCodeEEE=so_stub_for_libtelux_tel
-Wl,--defsym=_ZN5telux3tel15CardManagerImpl24handleServiceStateChangeENS_6common13ServiceStatusE=so_stub_for_libtelux_tel
-Wl,--defsym=_ZN5telux3tel15CardManagerImpl24onUimServiceStatusChangeENS_6common13ServiceStatusE=so_stub_for_libtelux_tel
-Wl,--defsym=_ZN5telux3tel15CardManagerImpl25handleUnsolicitedResponseESt10shared_ptrINS_6common6ResultEE=so_stub_for_libtelux_tel
-Wl,--defsym=_ZN5telux3tel15CardManagerImpl25setServiceStatusAndNotifyENS_6common13ServiceStatusE=so_stub_for_libtelux_tel
-Wl,--defsym=_ZN5telux3tel15CardManagerImpl29onGetLastRefreshEventResponseEP39uim_refresh_get_last_event_resp_msg_v01Pvi=so_stub_for_libtelux_tel
-Wl,--defsym=_ZN5telux3tel15CardManagerImpl31confirmRefreshHandlingCompletedE6SlotIdbNS0_13RefreshParamsESt8functionIFvNS_6common9ErrorCodeEEE=so_stub_for_libtelux_tel
-Wl,--defsym=_ZN5telux3tel15CardManagerImpl4initESt8functionIFvNS_6common13ServiceStatusEEE=so_stub_for_libtelux_tel
-Wl,--defsym=_ZN5telux3tel15CardManagerImpl7cleanupEb=so_stub_for_libtelux_tel
-Wl,--defsym=_ZN5telux3tel15CardManagerImpl7getCardEiPNS_6common6StatusE=so_stub_for_libtelux_tel
-Wl,--defsym=_ZN5telux3tel15CardManagerImpl8initSyncEv=so_stub_for_libtelux_tel
-Wl,--defsym=_ZN5telux3tel15CardManagerImpl9initCardsEv=so_stub_for_libtelux_tel
-Wl,--defsym=_ZN5telux3tel15CardManagerImplC1Ev=so_stub_for_libtelux_tel
-Wl,--defsym=_ZN5telux3tel15CardManagerImplC2Ev=so_stub_for_libtelux_tel
-Wl,--defsym=_ZN5telux3tel15CardManagerImplD0Ev=so_stub_for_libtelux_tel
-Wl,--defsym=_ZN5telux3tel15CardManagerImplD1Ev=so_stub_for_libtelux_tel
-Wl,--defsym=_ZN5telux3tel15CardManagerImplD2Ev=so_stub_for_libtelux_tel
-Wl,--defsym=_ZN5telux3tel15CustomSipHeaderD1Ev=so_stub_for_libtelux_tel
-Wl,--defsym=_ZN5telux3tel15CustomSipHeaderD2Ev=so_stub_for_libtelux_tel
-Wl,--defsym=_ZN5telux3tel15GsmCellIdentity11getIdentityEv=so_stub_for_libtelux_tel
-Wl,--defsym=_ZN5telux3tel15GsmCellIdentity20getMobileCountryCodeB5cxx11Ev=so_stub_for_libtelux_tel
-Wl,--defsym=_ZN5telux3tel15GsmCellIdentity20getMobileNetworkCodeB5cxx11Ev=so_stub_for_libtelux_tel
-Wl,--defsym=_ZN5telux3tel15GsmCellIdentity26getBaseStationIdentityCodeEv=so_stub_for_libtelux_tel
-Wl,--defsym=_ZN5telux3tel15GsmCellIdentity6getLacEv=so_stub_for_libtelux_tel
-Wl,--defsym=_ZN5telux3tel15GsmCellIdentity6getMccEv=so_stub_for_libtelux_tel
-Wl,--defsym=_ZN5telux3tel15GsmCellIdentity6getMncEv=so_stub_for_libtelux_tel
-Wl,--defsym=_ZN5telux3tel15GsmCellIdentity8getArfcnEv=so_stub_for_libtelux_tel
-Wl,--defsym=_ZN5telux3tel15GsmCellIdentityC1ENSt7__cxx1112basic_stringIcSt11char_traitsIcESaIcEEES7_iiii=so_stub_for_libtelux_tel
-Wl,--defsym=_ZN5telux3tel15GsmCellIdentityC1ERKS1_=so_stub_for_libtelux_tel
-Wl,--defsym=_ZN5telux3tel15GsmCellIdentityC2ENSt7__cxx1112basic_stringIcSt11char_traitsIcESaIcEEES7_iiii=so_stub_for_libtelux_tel
-Wl,--defsym=_ZN5telux3tel15GsmCellIdentityC2ERKS1_=so_stub_for_libtelux_tel
-Wl,--defsym=_ZN5telux3tel15GsmCellIdentityD1Ev=so_stub_for_libtelux_tel
-Wl,--defsym=_ZN5telux3tel15GsmCellIdentityD2Ev=so_stub_for_libtelux_tel
-Wl,--defsym=_ZN5telux3tel15LteCellIdentity11getIdentityEv=so_stub_for_libtelux_tel
-Wl,--defsym=_ZN5telux3tel15LteCellIdentity17getPhysicalCellIdEv=so_stub_for_libtelux_tel
-Wl,--defsym=_ZN5telux3tel15LteCellIdentity19getTrackingAreaCodeEv=so_stub_for_libtelux_tel
-Wl,--defsym=_ZN5telux3tel15LteCellIdentity20getMobileCountryCodeB5cxx11Ev=so_stub_for_libtelux_tel
-Wl,--defsym=_ZN5telux3tel15LteCellIdentity20getMobileNetworkCodeB5cxx11Ev=so_stub_for_libtelux_tel
-Wl,--defsym=_ZN5telux3tel15LteCellIdentity6getMccEv=so_stub_for_libtelux_tel
-Wl,--defsym=_ZN5telux3tel15LteCellIdentity6getMncEv=so_stub_for_libtelux_tel
-Wl,--defsym=_ZN5telux3tel15LteCellIdentity9getEarfcnEv=so_stub_for_libtelux_tel
-Wl,--defsym=_ZN5telux3tel15LteCellIdentityC1ENSt7__cxx1112basic_stringIcSt11char_traitsIcESaIcEEES7_iiii=so_stub_for_libtelux_tel
-Wl,--defsym=_ZN5telux3tel15LteCellIdentityC1ERKS1_=so_stub_for_libtelux_tel
-Wl,--defsym=_ZN5telux3tel15LteCellIdentityC2ENSt7__cxx1112basic_stringIcSt11char_traitsIcESaIcEEES7_iiii=so_stub_for_libtelux_tel
-Wl,--defsym=_ZN5telux3tel15LteCellIdentityC2ERKS1_=so_stub_for_libtelux_tel
-Wl,--defsym=_ZN5telux3tel15LteCellIdentityD1Ev=so_stub_for_libtelux_tel
-Wl,--defsym=_ZN5telux3tel15LteCellIdentityD2Ev=so_stub_for_libtelux_tel
-Wl,--defsym=_ZN5telux3tel15lteRsrpLevelMapE=so_stub_for_libtelux_tel
-Wl,--defsym=_ZN5telux3tel15MultiSimManager10onResponseEiPvi=so_stub_for_libtelux_tel
-Wl,--defsym=_ZN5telux3tel15MultiSimManager12getSlotCountERi=so_stub_for_libtelux_tel
-Wl,--defsym=_ZN5telux3tel15MultiSimManager16getServiceStatusEv=so_stub_for_libtelux_tel
-Wl,--defsym=_ZN5telux3tel15MultiSimManager16isSubsystemReadyEv=so_stub_for_libtelux_tel
-Wl,--defsym=_ZN5telux3tel15MultiSimManager16onSubsystemReadyEv=so_stub_for_libtelux_tel
-Wl,--defsym=_ZN5telux3tel15MultiSimManager16registerListenerESt8weak_ptrINS0_17IMultiSimListenerEE=so_stub_for_libtelux_tel
-Wl,--defsym=_ZN5telux3tel15MultiSimManager16switchActiveSlotE6SlotIdSt8functionIFvNS_6common9ErrorCodeEEE=so_stub_for_libtelux_tel
-Wl,--defsym=_ZN5telux3tel15MultiSimManager17requestSlotStatusESt8functionIFvSt3mapI6SlotIdNS0_10SlotStatusESt4lessIS4_ESaISt4pairIKS4_S5_EEENS_6common9ErrorCodeEEE=so_stub_for_libtelux_tel
-Wl,--defsym=_ZN5telux3tel15MultiSimManager17setHighCapabilityEiSt8functionIFvNS_6common9ErrorCodeEEE=so_stub_for_libtelux_tel
-Wl,--defsym=_ZN5telux3tel15MultiSimManager18deregisterListenerESt8weak_ptrINS0_17IMultiSimListenerEE=so_stub_for_libtelux_tel
-Wl,--defsym=_ZN5telux3tel15MultiSimManager19onSlotStatusChangedER34uim_slot_status_change_ind_msg_v01=so_stub_for_libtelux_tel
-Wl,--defsym=_ZN5telux3tel15MultiSimManager20onSlotStatusResponseEP33uim_get_slots_status_resp_msg_v01Pvi=so_stub_for_libtelux_tel
-Wl,--defsym=_ZN5telux3tel15MultiSimManager21onServiceStatusChangeENS_6common13ServiceStatusE=so_stub_for_libtelux_tel
-Wl,--defsym=_ZN5telux3tel15MultiSimManager21requestHighCapabilityESt8functionIFviNS_6common9ErrorCodeEEE=so_stub_for_libtelux_tel
-Wl,--defsym=_ZN5telux3tel15MultiSimManager21waitForInitializationEv=so_stub_for_libtelux_tel
-Wl,--defsym=_ZN5telux3tel15MultiSimManager23handleSolicitedResponseESt10shared_ptrINS_6common6ResultEE=so_stub_for_libtelux_tel
-Wl,--defsym=_ZN5telux3tel15MultiSimManager23onHighCapabilityChangedEi=so_stub_for_libtelux_tel
-Wl,--defsym=_ZN5telux3tel15MultiSimManager24onUimServiceStatusChangeENS_6common13ServiceStatusE=so_stub_for_libtelux_tel
-Wl,--defsym=_ZN5telux3tel15MultiSimManager25handleUnsolicitedResponseESt10shared_ptrINS_6common6ResultEE=so_stub_for_libtelux_tel
-Wl,--defsym=_ZN5telux3tel15MultiSimManager30updateSubsystemStatusAndNotifyEv=so_stub_for_libtelux_tel
-Wl,--defsym=_ZN5telux3tel15MultiSimManager34handleGetHighCapabilitySubResponseEiPSt6vectorIiSaIiEESt10shared_ptrINS_6common16ICommandCallbackEE=so_stub_for_libtelux_tel
-Wl,--defsym=_ZN5telux3tel15MultiSimManager34handleSetHighCapabilitySubResponseEiSt10shared_ptrINS_6common16ICommandCallbackEE=so_stub_for_libtelux_tel
-Wl,--defsym=_ZN5telux3tel15MultiSimManager4initESt8functionIFvNS_6common13ServiceStatusEEE=so_stub_for_libtelux_tel
-Wl,--defsym=_ZN5telux3tel15MultiSimManager7cleanupEb=so_stub_for_libtelux_tel
-Wl,--defsym=_ZN5telux3tel15MultiSimManager7initRilEv=so_stub_for_libtelux_tel
-Wl,--defsym=_ZN5telux3tel15MultiSimManager7initUimEv=so_stub_for_libtelux_tel
-Wl,--defsym=_ZN5telux3tel15MultiSimManagerC1Ev=so_stub_for_libtelux_tel
-Wl,--defsym=_ZN5telux3tel15MultiSimManagerC2Ev=so_stub_for_libtelux_tel
-Wl,--defsym=_ZN5telux3tel15MultiSimManagerD0Ev=so_stub_for_libtelux_tel
-Wl,--defsym=_ZN5telux3tel15MultiSimManagerD1Ev=so_stub_for_libtelux_tel
-Wl,--defsym=_ZN5telux3tel15MultiSimManagerD2Ev=so_stub_for_libtelux_tel
-Wl,--defsym=_ZN5telux3tel15NetworkModeInfoD1Ev=so_stub_for_libtelux_tel
-Wl,--defsym=_ZN5telux3tel15NetworkModeInfoD2Ev=so_stub_for_libtelux_tel
-Wl,--defsym=_ZN5telux3tel15NetworkTimeInfoaSEOS1_=so_stub_for_libtelux_tel
-Wl,--defsym=_ZN5telux3tel15RemoteSimHelper13convertSlotIdEi=so_stub_for_libtelux_tel
-Wl,--defsym=_ZN5telux3tel15RemoteSimHelper16updateApduParamsEjRKSt6vectorIhSaIhEEbjjiR27uim_remote_apdu_req_msg_v01=so_stub_for_libtelux_tel
-Wl,--defsym=_ZN5telux3tel15RemoteSimHelper20updateEventReqParamsEiiR28uim_remote_event_req_msg_v01=so_stub_for_libtelux_tel
-Wl,--defsym=_ZN5telux3tel15RemoteSimHelper21convertCardErrorCauseENS0_14CardErrorCauseE=so_stub_for_libtelux_tel
-Wl,--defsym=_ZN5telux3tel15RemoteSimHelper21updateCardErrorParamsENS0_14CardErrorCauseEiR28uim_remote_event_req_msg_v01=so_stub_for_libtelux_tel
-Wl,--defsym=_ZN5telux3tel15RemoteSimHelper21updateCardResetParamsERKSt6vectorIhSaIhEEiR28uim_remote_event_req_msg_v01=so_stub_for_libtelux_tel
-Wl,--defsym=_ZN5telux3tel15RemoteSimHelper24updateCardInsertedParamsERKSt6vectorIhSaIhEEiR28uim_remote_event_req_msg_v01=so_stub_for_libtelux_tel
-Wl,--defsym=_ZN5telux3tel15RemoteSimHelper26updateApduIndicationParamsEP27uim_remote_apdu_ind_msg_v01RiRjRSt6vectorIhSaIhEE=so_stub_for_libtelux_tel
-Wl,--defsym=_ZN5telux3tel15TdscdmaCellInfo15getCellIdentityEv=so_stub_for_libtelux_tel
-Wl,--defsym=_ZN5telux3tel15TdscdmaCellInfo21getSignalStrengthInfoEv=so_stub_for_libtelux_tel
-Wl,--defsym=_ZN5telux3tel15TdscdmaCellInfoC1EiNS0_19TdscdmaCellIdentityENS0_25TdscdmaSignalStrengthInfoE=so_stub_for_libtelux_tel
-Wl,--defsym=_ZN5telux3tel15TdscdmaCellInfoC2EiNS0_19TdscdmaCellIdentityENS0_25TdscdmaSignalStrengthInfoE=so_stub_for_libtelux_tel
-Wl,--defsym=_ZN5telux3tel15TdscdmaCellInfoD0Ev=so_stub_for_libtelux_tel
-Wl,--defsym=_ZN5telux3tel15TdscdmaCellInfoD1Ev=so_stub_for_libtelux_tel
-Wl,--defsym=_ZN5telux3tel15TdscdmaCellInfoD2Ev=so_stub_for_libtelux_tel
-Wl,--defsym=_ZN5telux3tel15WarningAreaInfo13getGeometriesEv=so_stub_for_libtelux_tel
-Wl,--defsym=_ZN5telux3tel15WarningAreaInfo22getGeoFenceMaxWaitTimeEv=so_stub_for_libtelux_tel
-Wl,--defsym=_ZN5telux3tel15WarningAreaInfoC1EiSt6vectorINS0_8GeometryESaIS3_EE=so_stub_for_libtelux_tel
-Wl,--defsym=_ZN5telux3tel15WarningAreaInfoC2EiSt6vectorINS0_8GeometryESaIS3_EE=so_stub_for_libtelux_tel
-Wl,--defsym=_ZN5telux3tel16CdmaCellIdentity11getLatitudeEv=so_stub_for_libtelux_tel
-Wl,--defsym=_ZN5telux3tel16CdmaCellIdentity12getLongitudeEv=so_stub_for_libtelux_tel
-Wl,--defsym=_ZN5telux3tel16CdmaCellIdentity16getBaseStationIdEv=so_stub_for_libtelux_tel
-Wl,--defsym=_ZN5telux3tel16CdmaCellIdentity6getNidEv=so_stub_for_libtelux_tel
-Wl,--defsym=_ZN5telux3tel16CdmaCellIdentity6getSidEv=so_stub_for_libtelux_tel
-Wl,--defsym=_ZN5telux3tel16CdmaCellIdentityC1Eiiiii=so_stub_for_libtelux_tel
-Wl,--defsym=_ZN5telux3tel16CdmaCellIdentityC2Eiiiii=so_stub_for_libtelux_tel
-Wl,--defsym=_ZN5telux3tel16EcallManagerImpl16getServiceStatusEv=so_stub_for_libtelux_tel
-Wl,--defsym=_ZN5telux3tel16EcallManagerImpl16isSubsystemReadyEv=so_stub_for_libtelux_tel
-Wl,--defsym=_ZN5telux3tel16EcallManagerImpl16registerListenerESt8weak_ptrINS0_14IEcallListenerEE=so_stub_for_libtelux_tel
-Wl,--defsym=_ZN5telux3tel16EcallManagerImpl16setServiceStatusENS_6common13ServiceStatusE=so_stub_for_libtelux_tel
-Wl,--defsym=_ZN5telux3tel16EcallManagerImpl18deregisterListenerESt8weak_ptrINS0_14IEcallListenerEE=so_stub_for_libtelux_tel
-Wl,--defsym=_ZN5telux3tel16EcallManagerImpl26onVoiceServiceStatusChangeENS_6common13ServiceStatusEi=so_stub_for_libtelux_tel
-Wl,--defsym=_ZN5telux3tel16EcallManagerImpl4initESt8functionIFvNS_6common13ServiceStatusEEE=so_stub_for_libtelux_tel
-Wl,--defsym=_ZN5telux3tel16EcallManagerImpl7cleanupEv=so_stub_for_libtelux_tel
-Wl,--defsym=_ZN5telux3tel16EcallManagerImpl8initSyncEv=so_stub_for_libtelux_tel
-Wl,--defsym=_ZN5telux3tel16EcallManagerImpl9getConfigERNS0_11EcallConfigE=so_stub_for_libtelux_tel
-Wl,--defsym=_ZN5telux3tel16EcallManagerImpl9setConfigENS0_11EcallConfigE=so_stub_for_libtelux_tel
-Wl,--defsym=_ZN5telux3tel16EcallManagerImplC1Ev=so_stub_for_libtelux_tel
-Wl,--defsym=_ZN5telux3tel16EcallManagerImplC2Ev=so_stub_for_libtelux_tel
-Wl,--defsym=_ZN5telux3tel16EcallManagerImplD0Ev=so_stub_for_libtelux_tel
-Wl,--defsym=_ZN5telux3tel16EcallManagerImplD1Ev=so_stub_for_libtelux_tel
-Wl,--defsym=_ZN5telux3tel16EcallManagerImplD2Ev=so_stub_for_libtelux_tel
-Wl,--defsym=_ZN5telux3tel16ECallOptionalPduC1ERKS1_=so_stub_for_libtelux_tel
-Wl,--defsym=_ZN5telux3tel16ECallOptionalPduC2ERKS1_=so_stub_for_libtelux_tel
-Wl,--defsym=_ZN5telux3tel16ECallOptionalPduD1Ev=so_stub_for_libtelux_tel
-Wl,--defsym=_ZN5telux3tel16ECallOptionalPduD2Ev=so_stub_for_libtelux_tel
-Wl,--defsym=_ZN5telux3tel16iconTypeToStringB5cxx11ENS0_8IconTypeE=so_stub_for_libtelux_tel
-Wl,--defsym=_ZN5telux3tel16lteRssnrLevelMapE=so_stub_for_libtelux_tel
-Wl,--defsym=_ZN5telux3tel16Nr5gCellIdentity11getIdentityEv=so_stub_for_libtelux_tel
-Wl,--defsym=_ZN5telux3tel16Nr5gCellIdentity17getPhysicalCellIdEv=so_stub_for_libtelux_tel
-Wl,--defsym=_ZN5telux3tel16Nr5gCellIdentity19getTrackingAreaCodeEv=so_stub_for_libtelux_tel
-Wl,--defsym=_ZN5telux3tel16Nr5gCellIdentity20getMobileCountryCodeB5cxx11Ev=so_stub_for_libtelux_tel
-Wl,--defsym=_ZN5telux3tel16Nr5gCellIdentity20getMobileNetworkCodeB5cxx11Ev=so_stub_for_libtelux_tel
-Wl,--defsym=_ZN5telux3tel16Nr5gCellIdentity8getArfcnEv=so_stub_for_libtelux_tel
-Wl,--defsym=_ZN5telux3tel16Nr5gCellIdentityC1ENSt7__cxx1112basic_stringIcSt11char_traitsIcESaIcEEES7_mjii=so_stub_for_libtelux_tel
-Wl,--defsym=_ZN5telux3tel16Nr5gCellIdentityC1ERKS1_=so_stub_for_libtelux_tel
-Wl,--defsym=_ZN5telux3tel16Nr5gCellIdentityC2ENSt7__cxx1112basic_stringIcSt11char_traitsIcESaIcEEES7_mjii=so_stub_for_libtelux_tel
-Wl,--defsym=_ZN5telux3tel16Nr5gCellIdentityC2ERKS1_=so_stub_for_libtelux_tel
-Wl,--defsym=_ZN5telux3tel16Nr5gCellIdentityD1Ev=so_stub_for_libtelux_tel
-Wl,--defsym=_ZN5telux3tel16Nr5gCellIdentityD2Ev=so_stub_for_libtelux_tel
-Wl,--defsym=_ZN5telux3tel16nr5gRsrpLevelMapE=so_stub_for_libtelux_tel
-Wl,--defsym=_ZN5telux3tel16PhoneFactoryImpl11getInstanceEv=so_stub_for_libtelux_tel
-Wl,--defsym=_ZN5telux3tel16PhoneFactoryImpl13getSmsManagerEiSt8functionIFvNS_6common13ServiceStatusEEE=so_stub_for_libtelux_tel
-Wl,--defsym=_ZN5telux3tel16PhoneFactoryImpl14getCallManagerESt8functionIFvNS_6common13ServiceStatusEEE=so_stub_for_libtelux_tel
-Wl,--defsym=_ZN5telux3tel16PhoneFactoryImpl14getCardManagerESt8functionIFvNS_6common13ServiceStatusEEE=so_stub_for_libtelux_tel
-Wl,--defsym=_ZN5telux3tel16PhoneFactoryImpl15getEcallManagerESt8functionIFvNS_6common13ServiceStatusEEE=so_stub_for_libtelux_tel
-Wl,--defsym=_ZN5telux3tel16PhoneFactoryImpl15getPhoneManagerESt8functionIFvNS_6common13ServiceStatusEEE=so_stub_for_libtelux_tel
-Wl,--defsym=_ZN5telux3tel16PhoneFactoryImpl17getSapCardManagerEiSt8functionIFvNS_6common13ServiceStatusEEE=so_stub_for_libtelux_tel
-Wl,--defsym=_ZN5telux3tel16PhoneFactoryImpl18getMultiSimManagerESt8functionIFvNS_6common13ServiceStatusEEE=so_stub_for_libtelux_tel
-Wl,--defsym=_ZN5telux3tel16PhoneFactoryImpl19getRemoteSimManagerEiSt8functionIFvNS_6common13ServiceStatusEEE=so_stub_for_libtelux_tel
-Wl,--defsym=_ZN5telux3tel16PhoneFactoryImpl20getSimProfileManagerESt8functionIFvNS_6common13ServiceStatusEEE=so_stub_for_libtelux_tel
-Wl,--defsym=_ZN5telux3tel16PhoneFactoryImpl21getImsSettingsManagerESt8functionIFvNS_6common13ServiceStatusEEE=so_stub_for_libtelux_tel
-Wl,--defsym=_ZN5telux3tel16PhoneFactoryImpl22getApSimProfileManagerESt8functionIFvNS_6common13ServiceStatusEEE=so_stub_for_libtelux_tel
-Wl,--defsym=_ZN5telux3tel16PhoneFactoryImpl22getSubscriptionManagerESt8functionIFvNS_6common13ServiceStatusEEE=so_stub_for_libtelux_tel
-Wl,--defsym=_ZN5telux3tel16PhoneFactoryImpl22getSuppServicesManagerE6SlotIdSt8functionIFvNS_6common13ServiceStatusEEE=so_stub_for_libtelux_tel
-Wl,--defsym=_ZN5telux3tel16PhoneFactoryImpl23getCellBroadcastManagerE6SlotIdSt8functionIFvNS_6common13ServiceStatusEEE=so_stub_for_libtelux_tel
-Wl,--defsym=_ZN5telux3tel16PhoneFactoryImpl23getServingSystemManagerEiSt8functionIFvNS_6common13ServiceStatusEEE=so_stub_for_libtelux_tel
-Wl,--defsym=_ZN5telux3tel16PhoneFactoryImpl25getHttpTransactionManagerESt8functionIFvNS_6common13ServiceStatusEEE=so_stub_for_libtelux_tel
-Wl,--defsym=_ZN5telux3tel16PhoneFactoryImpl26getImsServingSystemManagerE6SlotIdSt8functionIFvNS_6common13ServiceStatusEEE=so_stub_for_libtelux_tel
-Wl,--defsym=_ZN5telux3tel16PhoneFactoryImpl26getNetworkSelectionManagerEiSt8functionIFvNS_6common13ServiceStatusEEE=so_stub_for_libtelux_tel
-Wl,--defsym=_ZN5telux3tel16PhoneFactoryImplC1Ev=so_stub_for_libtelux_tel
-Wl,--defsym=_ZN5telux3tel16PhoneFactoryImplC2Ev=so_stub_for_libtelux_tel
-Wl,--defsym=_ZN5telux3tel16PhoneFactoryImplD0Ev=so_stub_for_libtelux_tel
-Wl,--defsym=_ZN5telux3tel16PhoneFactoryImplD1Ev=so_stub_for_libtelux_tel
-Wl,--defsym=_ZN5telux3tel16PhoneFactoryImplD2Ev=so_stub_for_libtelux_tel
-Wl,--defsym=_ZN5telux3tel16RemoteSimManager13sendCardErrorENS0_14CardErrorCauseESt8functionIFvNS_6common9ErrorCodeEEE=so_stub_for_libtelux_tel
-Wl,--defsym=_ZN5telux3tel16RemoteSimManager13sendCardResetERKSt6vectorIhSaIhEESt8functionIFvNS_6common9ErrorCodeEEE=so_stub_for_libtelux_tel
-Wl,--defsym=_ZN5telux3tel16RemoteSimManager14onApduResponseEP28uim_remote_apdu_resp_msg_v01iPv=so_stub_for_libtelux_tel
-Wl,--defsym=_ZN5telux3tel16RemoteSimManager14sendCardWakeupESt8functionIFvNS_6common9ErrorCodeEEE=so_stub_for_libtelux_tel
-Wl,--defsym=_ZN5telux3tel16RemoteSimManager15onEventResponseEP29uim_remote_event_resp_msg_v01iPv=so_stub_for_libtelux_tel
-Wl,--defsym=_ZN5telux3tel16RemoteSimManager15onResetResponseEP29uim_remote_reset_resp_msg_v01iPv=so_stub_for_libtelux_tel
-Wl,--defsym=_ZN5telux3tel16RemoteSimManager15sendCardRemovedESt8functionIFvNS_6common9ErrorCodeEEE=so_stub_for_libtelux_tel
-Wl,--defsym=_ZN5telux3tel16RemoteSimManager16getServiceStatusEv=so_stub_for_libtelux_tel
-Wl,--defsym=_ZN5telux3tel16RemoteSimManager16isSubsystemReadyEv=so_stub_for_libtelux_tel
-Wl,--defsym=_ZN5telux3tel16RemoteSimManager16onSubsystemReadyEv=so_stub_for_libtelux_tel
-Wl,--defsym=_ZN5telux3tel16RemoteSimManager16registerListenerESt8weak_ptrINS0_18IRemoteSimListenerEE=so_stub_for_libtelux_tel
-Wl,--defsym=_ZN5telux3tel16RemoteSimManager16sendCardInsertedERKSt6vectorIhSaIhEESt8functionIFvNS_6common9ErrorCodeEEE=so_stub_for_libtelux_tel
-Wl,--defsym=_ZN5telux3tel16RemoteSimManager18deregisterListenerESt8weak_ptrINS0_18IRemoteSimListenerEE=so_stub_for_libtelux_tel
-Wl,--defsym=_ZN5telux3tel16RemoteSimManager21waitForInitializationEv=so_stub_for_libtelux_tel
-Wl,--defsym=_ZN5telux3tel16RemoteSimManager23onCardResetNotificationEP33uim_remote_card_reset_ind_msg_v01=so_stub_for_libtelux_tel
-Wl,--defsym=_ZN5telux3tel16RemoteSimManager23sendConnectionAvailableESt8functionIFvNS_6common9ErrorCodeEEE=so_stub_for_libtelux_tel
-Wl,--defsym=_ZN5telux3tel16RemoteSimManager25onCardConnectNotificationEP30uim_remote_connect_ind_msg_v01=so_stub_for_libtelux_tel
-Wl,--defsym=_ZN5telux3tel16RemoteSimManager25onCardPowerUpNotificationEP36uim_remote_card_power_up_ind_msg_v01=so_stub_for_libtelux_tel
-Wl,--defsym=_ZN5telux3tel16RemoteSimManager25sendConnectionUnavailableESt8functionIFvNS_6common9ErrorCodeEEE=so_stub_for_libtelux_tel
-Wl,--defsym=_ZN5telux3tel16RemoteSimManager25setServiceStatusAndNotifyENS_6common13ServiceStatusE=so_stub_for_libtelux_tel
-Wl,--defsym=_ZN5telux3tel16RemoteSimManager26onApduTransferNotificationEP27uim_remote_apdu_ind_msg_v01=so_stub_for_libtelux_tel
-Wl,--defsym=_ZN5telux3tel16RemoteSimManager27onCardPowerDownNotificationEP38uim_remote_card_power_down_ind_msg_v01=so_stub_for_libtelux_tel
-Wl,--defsym=_ZN5telux3tel16RemoteSimManager28onCardDisconnectNotificationEP33uim_remote_disconnect_ind_msg_v01=so_stub_for_libtelux_tel
-Wl,--defsym=_ZN5telux3tel16RemoteSimManager30onRemoteSimServiceStatusChangeENS_6common13ServiceStatusE=so_stub_for_libtelux_tel
-Wl,--defsym=_ZN5telux3tel16RemoteSimManager4initESt8functionIFvNS_6common13ServiceStatusEEE=so_stub_for_libtelux_tel
-Wl,--defsym=_ZN5telux3tel16RemoteSimManager7cleanupEb=so_stub_for_libtelux_tel
-Wl,--defsym=_ZN5telux3tel16RemoteSimManager8initSyncEv=so_stub_for_libtelux_tel
-Wl,--defsym=_ZN5telux3tel16RemoteSimManager8sendApduEjRKSt6vectorIhSaIhEEbjjSt8functionIFvNS_6common9ErrorCodeEEE=so_stub_for_libtelux_tel
-Wl,--defsym=_ZN5telux3tel16RemoteSimManager9getSlotIdEv=so_stub_for_libtelux_tel
-Wl,--defsym=_ZN5telux3tel16RemoteSimManager9sendResetESt8functionIFvNS_6common9ErrorCodeEEE=so_stub_for_libtelux_tel
-Wl,--defsym=_ZN5telux3tel16RemoteSimManagerC1Ei=so_stub_for_libtelux_tel
-Wl,--defsym=_ZN5telux3tel16RemoteSimManagerC2Ei=so_stub_for_libtelux_tel
-Wl,--defsym=_ZN5telux3tel16RemoteSimManagerD0Ev=so_stub_for_libtelux_tel
-Wl,--defsym=_ZN5telux3tel16RemoteSimManagerD1Ev=so_stub_for_libtelux_tel
-Wl,--defsym=_ZN5telux3tel16RemoteSimManagerD2Ev=so_stub_for_libtelux_tel
-Wl,--defsym=_ZN5telux3tel16RilCommandRespCb15commandResponseENS_6common9ErrorCodeE=so_stub_for_libtelux_tel
-Wl,--defsym=_ZN5telux3tel16RilCommandRespCbD0Ev=so_stub_for_libtelux_tel
-Wl,--defsym=_ZN5telux3tel16RilCommandRespCbD1Ev=so_stub_for_libtelux_tel
-Wl,--defsym=_ZN5telux3tel16RilCommandRespCbD2Ev=so_stub_for_libtelux_tel
-Wl,--defsym=_ZN5telux3tel16SubscriptionImpl12OperatorInfoC1ENSt7__cxx1112basic_stringIcSt11char_traitsIcESaIcEEES8_S8_=so_stub_for_libtelux_tel
-Wl,--defsym=_ZN5telux3tel16SubscriptionImpl12OperatorInfoC1ERKS2_=so_stub_for_libtelux_tel
-Wl,--defsym=_ZN5telux3tel16SubscriptionImpl12OperatorInfoC2ENSt7__cxx1112basic_stringIcSt11char_traitsIcESaIcEEES8_S8_=so_stub_for_libtelux_tel
-Wl,--defsym=_ZN5telux3tel16SubscriptionImpl12OperatorInfoC2ERKS2_=so_stub_for_libtelux_tel
-Wl,--defsym=_ZN5telux3tel16SubscriptionImpl12OperatorInfoD1Ev=so_stub_for_libtelux_tel
-Wl,--defsym=_ZN5telux3tel16SubscriptionImpl12OperatorInfoD2Ev=so_stub_for_libtelux_tel
-Wl,--defsym=_ZN5telux3tel16SubscriptionImpl13getCountryISOB5cxx11Ev=so_stub_for_libtelux_tel
-Wl,--defsym=_ZN5telux3tel16SubscriptionImpl13requestMsisdnEv=so_stub_for_libtelux_tel
-Wl,--defsym=_ZN5telux3tel16SubscriptionImpl13setCountryISOEv=so_stub_for_libtelux_tel
-Wl,--defsym=_ZN5telux3tel16SubscriptionImpl14getCarrierNameB5cxx11Ev=so_stub_for_libtelux_tel
-Wl,--defsym=_ZN5telux3tel16SubscriptionImpl14getPhoneNumberB5cxx11Ev=so_stub_for_libtelux_tel
-Wl,--defsym=_ZN5telux3tel16SubscriptionImpl14removeListenerESt8weak_ptrINS0_21ISubscriptionListenerEE=so_stub_for_libtelux_tel
-Wl,--defsym=_ZN5telux3tel16SubscriptionImpl14setCarrierNameENSt7__cxx1112basic_stringIcSt11char_traitsIcESaIcEEE=so_stub_for_libtelux_tel
-Wl,--defsym=_ZN5telux3tel16SubscriptionImpl14setPhoneNumberENSt7__cxx1112basic_stringIcSt11char_traitsIcESaIcEEE=so_stub_for_libtelux_tel
-Wl,--defsym=_ZN5telux3tel16SubscriptionImpl15getOperatorInfoEv=so_stub_for_libtelux_tel
-Wl,--defsym=_ZN5telux3tel16SubscriptionImpl16onSubsystemReadyEv=so_stub_for_libtelux_tel
-Wl,--defsym=_ZN5telux3tel16SubscriptionImpl16registerListenerESt8weak_ptrINS0_21ISubscriptionListenerEE=so_stub_for_libtelux_tel
-Wl,--defsym=_ZN5telux3tel16SubscriptionImpl18extractOperatorMccB5cxx11Ev=so_stub_for_libtelux_tel
-Wl,--defsym=_ZN5telux3tel16SubscriptionImpl18extractOperatorMncB5cxx11Ev=so_stub_for_libtelux_tel
-Wl,--defsym=_ZN5telux3tel16SubscriptionImpl18requestInfoFromSimEv=so_stub_for_libtelux_tel
-Wl,--defsym=_ZN5telux3tel16SubscriptionImpl19isAnyAppReadyPinPukERNS0_7AppTypeE=so_stub_for_libtelux_tel
-Wl,--defsym=_ZN5telux3tel16SubscriptionImpl19setEFFlagAndContentEi=so_stub_for_libtelux_tel
-Wl,--defsym=_ZN5telux3tel16SubscriptionImpl20getMobileCountryCodeB5cxx11Ev=so_stub_for_libtelux_tel
-Wl,--defsym=_ZN5telux3tel16SubscriptionImpl20getMobileNetworkCodeB5cxx11Ev=so_stub_for_libtelux_tel
-Wl,--defsym=_ZN5telux3tel16SubscriptionImpl20populateReadTransReqEiNS0_7AppTypeER32uim_read_transparent_req_msg_v01=so_stub_for_libtelux_tel
-Wl,--defsym=_ZN5telux3tel16SubscriptionImpl20requestEFInfoFromSimEiNS0_7AppTypeE=so_stub_for_libtelux_tel
-Wl,--defsym=_ZN5telux3tel16SubscriptionImpl20setRequestStatusFlagEj=so_stub_for_libtelux_tel
-Wl,--defsym=_ZN5telux3tel16SubscriptionImpl21waitForInitializationEv=so_stub_for_libtelux_tel
-Wl,--defsym=_ZN5telux3tel16SubscriptionImpl22onDmsMsisdnRequestRespEP27dms_get_msisdn_resp_msg_v01Pv=so_stub_for_libtelux_tel
-Wl,--defsym=_ZN5telux3tel16SubscriptionImpl22resetRequestStatusFlagEj=so_stub_for_libtelux_tel
-Wl,--defsym=_ZN5telux3tel16SubscriptionImpl24handleServiceStateChangeENS_6common13ServiceStatusE=so_stub_for_libtelux_tel
-Wl,--defsym=_ZN5telux3tel16SubscriptionImpl24onDmsServiceStatusChangeENS_6common13ServiceStatusEi=so_stub_for_libtelux_tel
-Wl,--defsym=_ZN5telux3tel16SubscriptionImpl24onUimServiceStatusChangeENS_6common13ServiceStatusE=so_stub_for_libtelux_tel
-Wl,--defsym=_ZN5telux3tel16SubscriptionImpl25getSwappedNibbleBcdStringB5cxx11EPhi=so_stub_for_libtelux_tel
-Wl,--defsym=_ZN5telux3tel16SubscriptionImpl26notifySubscriptionListenerESt10shared_ptrINS0_13ISubscriptionEE=so_stub_for_libtelux_tel
-Wl,--defsym=_ZN5telux3tel16SubscriptionImpl29notifySubscriptionReadyStatusENS_6common13ServiceStatusE=so_stub_for_libtelux_tel
-Wl,--defsym=_ZN5telux3tel16SubscriptionImpl30isSubscriptionRequestsCompleteEv=so_stub_for_libtelux_tel
-Wl,--defsym=_ZN5telux3tel16SubscriptionImpl32onReadTransparentRequestResponseEP33uim_read_transparent_resp_msg_v01Pvi=so_stub_for_libtelux_tel
-Wl,--defsym=_ZN5telux3tel16SubscriptionImpl4initEv=so_stub_for_libtelux_tel
-Wl,--defsym=_ZN5telux3tel16SubscriptionImpl6getMccEv=so_stub_for_libtelux_tel
-Wl,--defsym=_ZN5telux3tel16SubscriptionImpl6getMncEv=so_stub_for_libtelux_tel
-Wl,--defsym=_ZN5telux3tel16SubscriptionImpl6setMccENSt7__cxx1112basic_stringIcSt11char_traitsIcESaIcEEE=so_stub_for_libtelux_tel
-Wl,--defsym=_ZN5telux3tel16SubscriptionImpl6setMncENSt7__cxx1112basic_stringIcSt11char_traitsIcESaIcEEE=so_stub_for_libtelux_tel
-Wl,--defsym=_ZN5telux3tel16SubscriptionImpl7cleanupEv=so_stub_for_libtelux_tel
-Wl,--defsym=_ZN5telux3tel16SubscriptionImpl7getGID1B5cxx11Ev=so_stub_for_libtelux_tel
-Wl,--defsym=_ZN5telux3tel16SubscriptionImpl7getGID2B5cxx11Ev=so_stub_for_libtelux_tel
-Wl,--defsym=_ZN5telux3tel16SubscriptionImpl7getImsiB5cxx11Ev=so_stub_for_libtelux_tel
-Wl,--defsym=_ZN5telux3tel16SubscriptionImpl7isReadyEv=so_stub_for_libtelux_tel
-Wl,--defsym=_ZN5telux3tel16SubscriptionImpl7setGID1ENSt7__cxx1112basic_stringIcSt11char_traitsIcESaIcEEE=so_stub_for_libtelux_tel
-Wl,--defsym=_ZN5telux3tel16SubscriptionImpl7setGID2ENSt7__cxx1112basic_stringIcSt11char_traitsIcESaIcEEE=so_stub_for_libtelux_tel
-Wl,--defsym=_ZN5telux3tel16SubscriptionImpl7setImsiENSt7__cxx1112basic_stringIcSt11char_traitsIcESaIcEEE=so_stub_for_libtelux_tel
-Wl,--defsym=_ZN5telux3tel16SubscriptionImpl8getIccIdB5cxx11Ev=so_stub_for_libtelux_tel
-Wl,--defsym=_ZN5telux3tel16SubscriptionImpl8initSyncEv=so_stub_for_libtelux_tel
-Wl,--defsym=_ZN5telux3tel16SubscriptionImpl8setIccIdENSt7__cxx1112basic_stringIcSt11char_traitsIcESaIcEEE=so_stub_for_libtelux_tel
-Wl,--defsym=_ZN5telux3tel16SubscriptionImpl9getSlotIdEv=so_stub_for_libtelux_tel
-Wl,--defsym=_ZN5telux3tel16SubscriptionImplC1Ei=so_stub_for_libtelux_tel
-Wl,--defsym=_ZN5telux3tel16SubscriptionImplC1EiNSt7__cxx1112basic_stringIcSt11char_traitsIcESaIcEEES7_S7_S7_S7_S7_S7_S7_S7_=so_stub_for_libtelux_tel
-Wl,--defsym=_ZN5telux3tel16SubscriptionImplC2Ei=so_stub_for_libtelux_tel
-Wl,--defsym=_ZN5telux3tel16SubscriptionImplC2EiNSt7__cxx1112basic_stringIcSt11char_traitsIcESaIcEEES7_S7_S7_S7_S7_S7_S7_S7_=so_stub_for_libtelux_tel
-Wl,--defsym=_ZN5telux3tel16SubscriptionImplD0Ev=so_stub_for_libtelux_tel
-Wl,--defsym=_ZN5telux3tel16SubscriptionImplD1Ev=so_stub_for_libtelux_tel
-Wl,--defsym=_ZN5telux3tel16VoiceServiceInfo11isEmergencyEv=so_stub_for_libtelux_tel
-Wl,--defsym=_ZN5telux3tel16VoiceServiceInfo11isInServiceEv=so_stub_for_libtelux_tel
-Wl,--defsym=_ZN5telux3tel16VoiceServiceInfo14isOutOfServiceEv=so_stub_for_libtelux_tel
-Wl,--defsym=_ZN5telux3tel16VoiceServiceInfo18getRadioTechnologyEv=so_stub_for_libtelux_tel
-Wl,--defsym=_ZN5telux3tel16VoiceServiceInfo20getVoiceServiceStateEv=so_stub_for_libtelux_tel
-Wl,--defsym=_ZN5telux3tel16VoiceServiceInfo26getVoiceServiceDenialCauseEv=so_stub_for_libtelux_tel
-Wl,--defsym=_ZN5telux3tel16VoiceServiceInfoC1ENS0_17VoiceServiceStateENS0_23VoiceServiceDenialCauseENS0_15RadioTechnologyE=so_stub_for_libtelux_tel
-Wl,--defsym=_ZN5telux3tel16VoiceServiceInfoC2ENS0_17VoiceServiceStateENS0_23VoiceServiceDenialCauseENS0_15RadioTechnologyE=so_stub_for_libtelux_tel
-Wl,--defsym=_ZN5telux3tel17NetworkRejectInfoD1Ev=so_stub_for_libtelux_tel
-Wl,--defsym=_ZN5telux3tel17NetworkRejectInfoD2Ev=so_stub_for_libtelux_tel
-Wl,--defsym=_ZN5telux3tel17nr5gRssnrLevelMapE=so_stub_for_libtelux_tel
-Wl,--defsym=_ZN5telux3tel17RFBandListBuilder12addNrRFBandsENS0_6NrTypeESt6vectorINS0_8NrRFBandESaIS4_EE=so_stub_for_libtelux_tel
-Wl,--defsym=_ZN5telux3tel17RFBandListBuilder13addGsmRFBandsESt6vectorINS0_9GsmRFBandESaIS3_EE=so_stub_for_libtelux_tel
-Wl,--defsym=_ZN5telux3tel17RFBandListBuilder13addLteRFBandsESt6vectorINS0_9LteRFBandESaIS3_EE=so_stub_for_libtelux_tel
-Wl,--defsym=_ZN5telux3tel17RFBandListBuilder15addWcdmaRFBandsESt6vectorINS0_11WcdmaRFBandESaIS3_EE=so_stub_for_libtelux_tel
-Wl,--defsym=_ZN5telux3tel17RFBandListBuilder5buildERNS_6common9ErrorCodeE=so_stub_for_libtelux_tel
-Wl,--defsym=_ZN5telux3tel17RFBandListBuilderC1Ev=so_stub_for_libtelux_tel
-Wl,--defsym=_ZN5telux3tel17RFBandListBuilderC2Ev=so_stub_for_libtelux_tel
-Wl,--defsym=_ZN5telux3tel17SmsManagerWrapper10getPhoneIdEv=so_stub_for_libtelux_tel
-Wl,--defsym=_ZN5telux3tel17SmsManagerWrapper10sendRawSmsESt6vectorIS2_IhSaIhEESaIS4_EESt8functionIFvS2_IiSaIiEENS_6common9ErrorCodeEEE=so_stub_for_libtelux_tel
-Wl,--defsym=_ZN5telux3tel17SmsManagerWrapper11readMessageEjSt8functionIFvNS0_10SmsMessageENS_6common9ErrorCodeEEE=so_stub_for_libtelux_tel
-Wl,--defsym=_ZN5telux3tel17SmsManagerWrapper13deleteMessageENS0_10DeleteInfoESt8functionIFvNS_6common9ErrorCodeEEE=so_stub_for_libtelux_tel
-Wl,--defsym=_ZN5telux3tel17SmsManagerWrapper14removeListenerESt8weak_ptrINS0_12ISmsListenerEE=so_stub_for_libtelux_tel
-Wl,--defsym=_ZN5telux3tel17SmsManagerWrapper14setSmscAddressERKNSt7__cxx1112basic_stringIcSt11char_traitsIcESaIcEEESt8functionIFvNS_6common9ErrorCodeEEE=so_stub_for_libtelux_tel
-Wl,--defsym=_ZN5telux3tel17SmsManagerWrapper16getServiceStatusEv=so_stub_for_libtelux_tel
-Wl,--defsym=_ZN5telux3tel17SmsManagerWrapper16registerListenerESt8weak_ptrINS0_12ISmsListenerEE=so_stub_for_libtelux_tel
-Wl,--defsym=_ZN5telux3tel17SmsManagerWrapper18requestSmscAddressESt10shared_ptrINS0_20ISmscAddressCallbackEE=so_stub_for_libtelux_tel
-Wl,--defsym=_ZN5telux3tel17SmsManagerWrapper19setPreferredStorageENS0_11StorageTypeESt8functionIFvNS_6common9ErrorCodeEEE=so_stub_for_libtelux_tel
-Wl,--defsym=_ZN5telux3tel17SmsManagerWrapper21requestSmsMessageListENS0_10SmsTagTypeESt8functionIFvSt6vectorINS0_11SmsMetaInfoESaIS5_EENS_6common9ErrorCodeEEE=so_stub_for_libtelux_tel
-Wl,--defsym=_ZN5telux3tel17SmsManagerWrapper21requestStorageDetailsESt8functionIFvjjNS_6common9ErrorCodeEEE=so_stub_for_libtelux_tel
-Wl,--defsym=_ZN5telux3tel17SmsManagerWrapper23requestPreferredStorageESt8functionIFvNS0_11StorageTypeENS_6common9ErrorCodeEEE=so_stub_for_libtelux_tel
-Wl,--defsym=_ZN5telux3tel17SmsManagerWrapper26calculateMessageAttributesERKNSt7__cxx1112basic_stringIcSt11char_traitsIcESaIcEEE=so_stub_for_libtelux_tel
-Wl,--defsym=_ZN5telux3tel17SmsManagerWrapper4initEi=so_stub_for_libtelux_tel
-Wl,--defsym=_ZN5telux3tel17SmsManagerWrapper6setTagEjNS0_10SmsTagTypeESt8functionIFvNS_6common9ErrorCodeEEE=so_stub_for_libtelux_tel
-Wl,--defsym=_ZN5telux3tel17SmsManagerWrapper7cleanupEv=so_stub_for_libtelux_tel
-Wl,--defsym=_ZN5telux3tel17SmsManagerWrapper7sendSmsENSt7__cxx1112basic_stringIcSt11char_traitsIcESaIcEEES7_bSt8functionIFvSt6vectorIiSaIiEENS_6common9ErrorCodeEEES7_=so_stub_for_libtelux_tel
-Wl,--defsym=_ZN5telux3tel17SmsManagerWrapper7sendSmsERKNSt7__cxx1112basic_stringIcSt11char_traitsIcESaIcEEES9_St10shared_ptrINS_6common24ICommandResponseCallbackEESD_=so_stub_for_libtelux_tel
-Wl,--defsym=_ZN5telux3tel17SmsManagerWrapperC1Ev=so_stub_for_libtelux_tel
-Wl,--defsym=_ZN5telux3tel17SmsManagerWrapperC2Ev=so_stub_for_libtelux_tel
-Wl,--defsym=_ZN5telux3tel17SmsManagerWrapperD0Ev=so_stub_for_libtelux_tel
-Wl,--defsym=_ZN5telux3tel17SmsManagerWrapperD1Ev=so_stub_for_libtelux_tel
-Wl,--defsym=_ZN5telux3tel17SmsManagerWrapperD2Ev=so_stub_for_libtelux_tel
-Wl,--defsym=_ZN5telux3tel17WcdmaCellIdentity11getIdentityEv=so_stub_for_libtelux_tel
-Wl,--defsym=_ZN5telux3tel17WcdmaCellIdentity20getMobileCountryCodeB5cxx11Ev=so_stub_for_libtelux_tel
-Wl,--defsym=_ZN5telux3tel17WcdmaCellIdentity20getMobileNetworkCodeB5cxx11Ev=so_stub_for_libtelux_tel
-Wl,--defsym=_ZN5telux3tel17WcdmaCellIdentity24getPrimaryScramblingCodeEv=so_stub_for_libtelux_tel
-Wl,--defsym=_ZN5telux3tel17WcdmaCellIdentity6getLacEv=so_stub_for_libtelux_tel
-Wl,--defsym=_ZN5telux3tel17WcdmaCellIdentity6getMccEv=so_stub_for_libtelux_tel
-Wl,--defsym=_ZN5telux3tel17WcdmaCellIdentity6getMncEv=so_stub_for_libtelux_tel
-Wl,--defsym=_ZN5telux3tel17WcdmaCellIdentity9getUarfcnEv=so_stub_for_libtelux_tel
-Wl,--defsym=_ZN5telux3tel17WcdmaCellIdentityC1ENSt7__cxx1112basic_stringIcSt11char_traitsIcESaIcEEES7_iiii=so_stub_for_libtelux_tel
-Wl,--defsym=_ZN5telux3tel17WcdmaCellIdentityC1ERKS1_=so_stub_for_libtelux_tel
-Wl,--defsym=_ZN5telux3tel17WcdmaCellIdentityC2ENSt7__cxx1112basic_stringIcSt11char_traitsIcESaIcEEES7_iiii=so_stub_for_libtelux_tel
-Wl,--defsym=_ZN5telux3tel17WcdmaCellIdentityC2ERKS1_=so_stub_for_libtelux_tel
-Wl,--defsym=_ZN5telux3tel17WcdmaCellIdentityD1Ev=so_stub_for_libtelux_tel
-Wl,--defsym=_ZN5telux3tel17WcdmaCellIdentityD2Ev=so_stub_for_libtelux_tel
-Wl,--defsym=_ZN5telux3tel18CallManagerWrapper10conferenceESt10shared_ptrINS0_5ICallEES4_S2_INS_6common24ICommandResponseCallbackEE=so_stub_for_libtelux_tel
-Wl,--defsym=_ZN5telux3tel18CallManagerWrapper11makeRttCallEiRKNSt7__cxx1112basic_stringIcSt11char_traitsIcESaIcEEESt10shared_ptrINS0_17IMakeCallCallbackEE=so_stub_for_libtelux_tel
-Wl,--defsym=_ZN5telux3tel18CallManagerWrapper11requestEcbmEiSt8functionIFvNS0_7EcbModeENS_6common9ErrorCodeEEE=so_stub_for_libtelux_tel
-Wl,--defsym=_ZN5telux3tel18CallManagerWrapper14encodeECallMsdENS0_12ECallMsdDataERSt6vectorIhSaIhEE=so_stub_for_libtelux_tel
-Wl,--defsym=_ZN5telux3tel18CallManagerWrapper14getECallConfigERNS0_11EcallConfigE=so_stub_for_libtelux_tel
-Wl,--defsym=_ZN5telux3tel18CallManagerWrapper14removeListenerESt10shared_ptrINS0_13ICallListenerEE=so_stub_for_libtelux_tel
-Wl,--defsym=_ZN5telux3tel18CallManagerWrapper14setECallConfigENS0_11EcallConfigE=so_stub_for_libtelux_tel
-Wl,--defsym=_ZN5telux3tel18CallManagerWrapper14updateECallMsdEiRKNS0_12ECallMsdDataESt10shared_ptrINS_6common24ICommandResponseCallbackEE=so_stub_for_libtelux_tel
-Wl,--defsym=_ZN5telux3tel18CallManagerWrapper14updateECallMsdEiRKSt6vectorIhSaIhEESt8functionIFvNS_6common9ErrorCodeEEE=so_stub_for_libtelux_tel
-Wl,--defsym=_ZN5telux3tel18CallManagerWrapper16getServiceStatusEv=so_stub_for_libtelux_tel
-Wl,--defsym=_ZN5telux3tel18CallManagerWrapper16registerListenerESt10shared_ptrINS0_13ICallListenerEE=so_stub_for_libtelux_tel
-Wl,--defsym=_ZN5telux3tel18CallManagerWrapper18getInProgressCallsEv=so_stub_for_libtelux_tel
-Wl,--defsym=_ZN5telux3tel18CallManagerWrapper20configureECallRedialENS0_16RedialConfigTypeERKSt6vectorIiSaIiEESt8functionIFvNS_6common9ErrorCodeEEE=so_stub_for_libtelux_tel
-Wl,--defsym=_ZN5telux3tel18CallManagerWrapper20getECallRedialConfigERSt6vectorIiSaIiEES5_=so_stub_for_libtelux_tel
-Wl,--defsym=_ZN5telux3tel18CallManagerWrapper20updateEcallHlapTimerEiNS0_13HlapTimerTypeEjSt8functionIFvNS_6common9ErrorCodeEEE=so_stub_for_libtelux_tel
-Wl,--defsym=_ZN5telux3tel18CallManagerWrapper21requestEcallHlapTimerEiNS0_13HlapTimerTypeESt8functionIFvNS_6common9ErrorCodeEjEE=so_stub_for_libtelux_tel
-Wl,--defsym=_ZN5telux3tel18CallManagerWrapper21restartECallHlapTimerEiNS0_16EcallHlapTimerIdEiSt8functionIFvNS_6common9ErrorCodeEEE=so_stub_for_libtelux_tel
-Wl,--defsym=_ZN5telux3tel18CallManagerWrapper25hangupWaitingOrBackgroundEiSt8functionIFvNS_6common9ErrorCodeEEE=so_stub_for_libtelux_tel
-Wl,--defsym=_ZN5telux3tel18CallManagerWrapper27requestECallHlapTimerStatusEiSt8functionIFvNS_6common9ErrorCodeEiNS0_20ECallHlapTimerStatusEEE=so_stub_for_libtelux_tel
-Wl,--defsym=_ZN5telux3tel18CallManagerWrapper28requestNetworkDeregistrationEiSt8functionIFvNS_6common9ErrorCodeEEE=so_stub_for_libtelux_tel
-Wl,--defsym=_ZN5telux3tel18CallManagerWrapper32hangupForegroundResumeBackgroundEiSt8functionIFvNS_6common9ErrorCodeEEE=so_stub_for_libtelux_tel
-Wl,--defsym=_ZN5telux3tel18CallManagerWrapper33getECallPostTestRegistrationTimerEiRj=so_stub_for_libtelux_tel
-Wl,--defsym=_ZN5telux3tel18CallManagerWrapper36encodeEuroNcapOptionalAdditionalDataENS0_25ECallOptionalEuroNcapDataERSt6vectorIhSaIhEE=so_stub_for_libtelux_tel
-Wl,--defsym=_ZN5telux3tel18CallManagerWrapper36updateECallPostTestRegistrationTimerEijSt8functionIFvNS_6common9ErrorCodeEEE=so_stub_for_libtelux_tel
-Wl,--defsym=_ZN5telux3tel18CallManagerWrapper4initEv=so_stub_for_libtelux_tel
-Wl,--defsym=_ZN5telux3tel18CallManagerWrapper4swapESt10shared_ptrINS0_5ICallEES4_S2_INS_6common24ICommandResponseCallbackEE=so_stub_for_libtelux_tel
-Wl,--defsym=_ZN5telux3tel18CallManagerWrapper7cleanupEv=so_stub_for_libtelux_tel
-Wl,--defsym=_ZN5telux3tel18CallManagerWrapper7sendRttEiNSt7__cxx1112basic_stringIcSt11char_traitsIcESaIcEEESt8functionIFvNS_6common9ErrorCodeEEE=so_stub_for_libtelux_tel
-Wl,--defsym=_ZN5telux3tel18CallManagerWrapper8exitEcbmEiSt8functionIFvNS_6common9ErrorCodeEEE=so_stub_for_libtelux_tel
-Wl,--defsym=_ZN5telux3tel18CallManagerWrapper8makeCallEiRKNSt7__cxx1112basic_stringIcSt11char_traitsIcESaIcEEESt10shared_ptrINS0_17IMakeCallCallbackEE=so_stub_for_libtelux_tel
-Wl,--defsym=_ZN5telux3tel18CallManagerWrapper9makeECallEiiiSt8functionIFvNS_6common9ErrorCodeESt10shared_ptrINS0_5ICallEEEE=so_stub_for_libtelux_tel
-Wl,--defsym=_ZN5telux3tel18CallManagerWrapper9makeECallEiNSt7__cxx1112basic_stringIcSt11char_traitsIcESaIcEEEiSt8functionIFvNS_6common9ErrorCodeESt10shared_ptrINS0_5ICallEEEE=so_stub_for_libtelux_tel
-Wl,--defsym=_ZN5telux3tel18CallManagerWrapper9makeECallEiNSt7__cxx1112basic_stringIcSt11char_traitsIcESaIcEEERKNS0_12ECallMsdDataEiSt10shared_ptrINS0_17IMakeCallCallbackEE=so_stub_for_libtelux_tel
-Wl,--defsym=_ZN5telux3tel18CallManagerWrapper9makeECallEiNSt7__cxx1112basic_stringIcSt11char_traitsIcESaIcEEERKSt6vectorIhSaIhEEiSt8functionIFvNS_6common9ErrorCodeESt10shared_ptrINS0_5ICallEEEE=so_stub_for_libtelux_tel
-Wl,--defsym=_ZN5telux3tel18CallManagerWrapper9makeECallEiNSt7__cxx1112basic_stringIcSt11char_traitsIcESaIcEEERKSt6vectorIhSaIhEENS0_15CustomSipHeaderESt8functionIFvNS_6common9ErrorCodeESt10shared_ptrINS0_5ICallEEEE=so_stub_for_libtelux_tel
-Wl,--defsym=_ZN5telux3tel18CallManagerWrapper9makeECallEiNSt7__cxx1112basic_stringIcSt11char_traitsIcESaIcEEERKSt6vectorIhSaIhEESt8functionIFvNS_6common9ErrorCodeESt10shared_ptrINS0_5ICallEEEE=so_stub_for_libtelux_tel
-Wl,--defsym=_ZN5telux3tel18CallManagerWrapper9makeECallEiRKNS0_12ECallMsdDataEiiSt10shared_ptrINS0_17IMakeCallCallbackEE=so_stub_for_libtelux_tel
-Wl,--defsym=_ZN5telux3tel18CallManagerWrapper9makeECallEiRKSt6vectorIhSaIhEEiiSt8functionIFvNS_6common9ErrorCodeESt10shared_ptrINS0_5ICallEEEE=so_stub_for_libtelux_tel
-Wl,--defsym=_ZN5telux3tel18CallManagerWrapperC1Ev=so_stub_for_libtelux_tel
-Wl,--defsym=_ZN5telux3tel18CallManagerWrapperC2Ev=so_stub_for_libtelux_tel
-Wl,--defsym=_ZN5telux3tel18CallManagerWrapperD0Ev=so_stub_for_libtelux_tel
-Wl,--defsym=_ZN5telux3tel18CallManagerWrapperD1Ev=so_stub_for_libtelux_tel
-Wl,--defsym=_ZN5telux3tel18CallManagerWrapperD2Ev=so_stub_for_libtelux_tel
-Wl,--defsym=_ZN5telux3tel18CardManagerWrapper10getSlotIdsERSt6vectorIiSaIiEE=so_stub_for_libtelux_tel
-Wl,--defsym=_ZN5telux3tel18CardManagerWrapper11cardPowerUpE6SlotIdSt8functionIFvNS_6common9ErrorCodeEEE=so_stub_for_libtelux_tel
-Wl,--defsym=_ZN5telux3tel18CardManagerWrapper12getSlotCountERi=so_stub_for_libtelux_tel
-Wl,--defsym=_ZN5telux3tel18CardManagerWrapper13cardPowerDownE6SlotIdSt8functionIFvNS_6common9ErrorCodeEEE=so_stub_for_libtelux_tel
-Wl,--defsym=_ZN5telux3tel18CardManagerWrapper14removeListenerESt10shared_ptrINS0_13ICardListenerEE=so_stub_for_libtelux_tel
-Wl,--defsym=_ZN5telux3tel18CardManagerWrapper16allowCardRefreshE6SlotIdbNS0_13RefreshParamsESt8functionIFvNS_6common9ErrorCodeEEE=so_stub_for_libtelux_tel
-Wl,--defsym=_ZN5telux3tel18CardManagerWrapper16getServiceStatusEv=so_stub_for_libtelux_tel
-Wl,--defsym=_ZN5telux3tel18CardManagerWrapper16isSubsystemReadyEv=so_stub_for_libtelux_tel
-Wl,--defsym=_ZN5telux3tel18CardManagerWrapper16onSubsystemReadyEv=so_stub_for_libtelux_tel
-Wl,--defsym=_ZN5telux3tel18CardManagerWrapper16registerListenerESt10shared_ptrINS0_13ICardListenerEE=so_stub_for_libtelux_tel
-Wl,--defsym=_ZN5telux3tel18CardManagerWrapper18setupRefreshConfigE6SlotIdbbSt6vectorINS0_7IccFileESaIS4_EENS0_13RefreshParamsESt8functionIFvNS_6common9ErrorCodeEEE=so_stub_for_libtelux_tel
-Wl,--defsym=_ZN5telux3tel18CardManagerWrapper23requestLastRefreshEventE6SlotIdNS0_13RefreshParamsESt8functionIFvNS0_12RefreshStageENS0_11RefreshModeESt6vectorINS0_7IccFileESaIS8_EES3_NS_6common9ErrorCodeEEE=so_stub_for_libtelux_tel
-Wl,--defsym=_ZN5telux3tel18CardManagerWrapper31confirmRefreshHandlingCompletedE6SlotIdbNS0_13RefreshParamsESt8functionIFvNS_6common9ErrorCodeEEE=so_stub_for_libtelux_tel
-Wl,--defsym=_ZN5telux3tel18CardManagerWrapper4initEv=so_stub_for_libtelux_tel
-Wl,--defsym=_ZN5telux3tel18CardManagerWrapper7cleanupEv=so_stub_for_libtelux_tel
-Wl,--defsym=_ZN5telux3tel18CardManagerWrapper7getCardEiPNS_6common6StatusE=so_stub_for_libtelux_tel
-Wl,--defsym=_ZN5telux3tel18CardManagerWrapperC1Ev=so_stub_for_libtelux_tel
-Wl,--defsym=_ZN5telux3tel18CardManagerWrapperC2Ev=so_stub_for_libtelux_tel
-Wl,--defsym=_ZN5telux3tel18CardManagerWrapperD0Ev=so_stub_for_libtelux_tel
-Wl,--defsym=_ZN5telux3tel18CardManagerWrapperD1Ev=so_stub_for_libtelux_tel
-Wl,--defsym=_ZN5telux3tel18CardManagerWrapperD2Ev=so_stub_for_libtelux_tel
-Wl,--defsym=_ZN5telux3tel18CellInfoListHelper13parseCellInfoEiiRSt6vectorISt10shared_ptrINS0_8CellInfoEESaIS5_EES3_I6ParcelE=so_stub_for_libtelux_tel
-Wl,--defsym=_ZN5telux3tel18CellInfoListHelper14logGSMCellInfoESt10shared_ptrINS0_11GsmCellInfoEE=so_stub_for_libtelux_tel
-Wl,--defsym=_ZN5telux3tel18CellInfoListHelper14logLteCellInfoESt10shared_ptrINS0_11LteCellInfoEE=so_stub_for_libtelux_tel
-Wl,--defsym=_ZN5telux3tel18CellInfoListHelper14parseCellCountESt10shared_ptrI6ParcelE=so_stub_for_libtelux_tel
-Wl,--defsym=_ZN5telux3tel18CellInfoListHelper14parseTimestampESt10shared_ptrI6ParcelE=so_stub_for_libtelux_tel
-Wl,--defsym=_ZN5telux3tel18CellInfoListHelper15getCellInfoListESt10shared_ptrI6ParcelE=so_stub_for_libtelux_tel
-Wl,--defsym=_ZN5telux3tel18CellInfoListHelper15logCdmaCellInfoESt10shared_ptrINS0_12CdmaCellInfoEE=so_stub_for_libtelux_tel
-Wl,--defsym=_ZN5telux3tel18CellInfoListHelper15logNr5gCellInfoESt10shared_ptrINS0_12Nr5gCellInfoEE=so_stub_for_libtelux_tel
-Wl,--defsym=_ZN5telux3tel18CellInfoListHelper16logTimeStampTypeEi=so_stub_for_libtelux_tel
-Wl,--defsym=_ZN5telux3tel18CellInfoListHelper16logWcdmaCellInfoESt10shared_ptrINS0_13WcdmaCellInfoEE=so_stub_for_libtelux_tel
-Wl,--defsym=_ZN5telux3tel18CellInfoListHelper16parseGsmCellInfoEiSt10shared_ptrI6ParcelE=so_stub_for_libtelux_tel
-Wl,--defsym=_ZN5telux3tel18CellInfoListHelper16parseLteCellInfoEiSt10shared_ptrI6ParcelE=so_stub_for_libtelux_tel
-Wl,--defsym=_ZN5telux3tel18CellInfoListHelper17logNb1NtnCellInfoESt10shared_ptrINS0_14Nb1NtnCellInfoEE=so_stub_for_libtelux_tel
-Wl,--defsym=_ZN5telux3tel18CellInfoListHelper17parseCdmaCellInfoEiSt10shared_ptrI6ParcelE=so_stub_for_libtelux_tel
-Wl,--defsym=_ZN5telux3tel18CellInfoListHelper17parseCellInfoTypeESt10shared_ptrI6ParcelE=so_stub_for_libtelux_tel
-Wl,--defsym=_ZN5telux3tel18CellInfoListHelper17parseNr5gCellInfoEiSt10shared_ptrI6ParcelE=so_stub_for_libtelux_tel
-Wl,--defsym=_ZN5telux3tel18CellInfoListHelper18logTdscdmaCellInfoESt10shared_ptrINS0_15TdscdmaCellInfoEE=so_stub_for_libtelux_tel
-Wl,--defsym=_ZN5telux3tel18CellInfoListHelper18parseTimestampTypeESt10shared_ptrI6ParcelE=so_stub_for_libtelux_tel
-Wl,--defsym=_ZN5telux3tel18CellInfoListHelper18parseWcdmaCellInfoEiSt10shared_ptrI6ParcelE=so_stub_for_libtelux_tel
-Wl,--defsym=_ZN5telux3tel18CellInfoListHelper19parseNb1NtnCellInfoEiSt10shared_ptrI6ParcelE=so_stub_for_libtelux_tel
-Wl,--defsym=_ZN5telux3tel18CellInfoListHelper20parseTdscdmaCellInfoEiSt10shared_ptrI6ParcelE=so_stub_for_libtelux_tel
-Wl,--defsym=_ZN5telux3tel18CellInfoListHelper21parseCellRegistrationESt10shared_ptrI6ParcelE=so_stub_for_libtelux_tel
-Wl,--defsym=_ZN5telux3tel18IncomingSmsHandler17notifySmsListenerESt10shared_ptrINS0_10SmsMessageEE=so_stub_for_libtelux_tel
-Wl,--defsym=_ZN5telux3tel18IncomingSmsHandler17notifySmsListenerESt10shared_ptrISt6vectorINS0_10SmsMessageESaIS4_EEE=so_stub_for_libtelux_tel
-Wl,--defsym=_ZN5telux3tel18IncomingSmsHandler21onReadMessageResponseEP25wms_raw_read_resp_msg_v01Pvij=so_stub_for_libtelux_tel
-Wl,--defsym=_ZN5telux3tel18IncomingSmsHandler23handleSolicitedResponseESt10shared_ptrINS_6common6ResultEE=so_stub_for_libtelux_tel
-Wl,--defsym=_ZN5telux3tel18IncomingSmsHandler25handleIncomingSmsResponseEiPv=so_stub_for_libtelux_tel
-Wl,--defsym=_ZN5telux3tel18IncomingSmsHandler25handleUnsolicitedResponseESt10shared_ptrINS_6common6ResultEE=so_stub_for_libtelux_tel
-Wl,--defsym=_ZN5telux3tel18IncomingSmsHandler26parseAndConcatenateSmsInfoERNS0_7SmsInfoE=so_stub_for_libtelux_tel
-Wl,--defsym=_ZN5telux3tel18IncomingSmsHandler30handleIncomingSmsResponseOnSimEiSt10shared_ptrINS_6common6ResultEE=so_stub_for_libtelux_tel
-Wl,--defsym=_ZN5telux3tel18IncomingSmsHandler4initEv=so_stub_for_libtelux_tel
-Wl,--defsym=_ZN5telux3tel18IncomingSmsHandler7cleanupEv=so_stub_for_libtelux_tel
-Wl,--defsym=_ZN5telux3tel18IncomingSmsHandlerC1EiSt10shared_ptrINS0_20IIncomingSmsListenerEE=so_stub_for_libtelux_tel
-Wl,--defsym=_ZN5telux3tel18IncomingSmsHandlerC2EiSt10shared_ptrINS0_20IIncomingSmsListenerEE=so_stub_for_libtelux_tel
-Wl,--defsym=_ZN5telux3tel18IncomingSmsHandlerD0Ev=so_stub_for_libtelux_tel
-Wl,--defsym=_ZN5telux3tel18IncomingSmsHandlerD1Ev=so_stub_for_libtelux_tel
-Wl,--defsym=_ZN5telux3tel18IncomingSmsHandlerD2Ev=so_stub_for_libtelux_tel
-Wl,--defsym=_ZN5telux3tel18Nb1NtnCellIdentity11getIdentityEv=so_stub_for_libtelux_tel
-Wl,--defsym=_ZN5telux3tel18Nb1NtnCellIdentity19getTrackingAreaCodeEv=so_stub_for_libtelux_tel
-Wl,--defsym=_ZN5telux3tel18Nb1NtnCellIdentity20getMobileCountryCodeB5cxx11Ev=so_stub_for_libtelux_tel
-Wl,--defsym=_ZN5telux3tel18Nb1NtnCellIdentity20getMobileNetworkCodeB5cxx11Ev=so_stub_for_libtelux_tel
-Wl,--defsym=_ZN5telux3tel18Nb1NtnCellIdentity9getEarfcnEv=so_stub_for_libtelux_tel
-Wl,--defsym=_ZN5telux3tel18Nb1NtnCellIdentityC1ENSt7__cxx1112basic_stringIcSt11char_traitsIcESaIcEEES7_iii=so_stub_for_libtelux_tel
-Wl,--defsym=_ZN5telux3tel18Nb1NtnCellIdentityC2ENSt7__cxx1112basic_stringIcSt11char_traitsIcESaIcEEES7_iii=so_stub_for_libtelux_tel
-Wl,--defsym=_ZN5telux3tel18Nb1NtnCellIdentityD1Ev=so_stub_for_libtelux_tel
-Wl,--defsym=_ZN5telux3tel18Nb1NtnCellIdentityD2Ev=so_stub_for_libtelux_tel
-Wl,--defsym=_ZN5telux3tel18nb1NtnRsrpLevelMapE=so_stub_for_libtelux_tel
-Wl,--defsym=_ZN5telux3tel18OutgoingSmsHandler10sendRawSmsESt10shared_ptrINS0_7SmsInfoEE=so_stub_for_libtelux_tel
-Wl,--defsym=_ZN5telux3tel18OutgoingSmsHandler12clearSmsInfoEv=so_stub_for_libtelux_tel
-Wl,--defsym=_ZN5telux3tel18OutgoingSmsHandler17notifySmsListenerEv=so_stub_for_libtelux_tel
-Wl,--defsym=_ZN5telux3tel18OutgoingSmsHandler18requestImsRegStateESt10shared_ptrINS_6common24ICommandResponseCallbackEE=so_stub_for_libtelux_tel
-Wl,--defsym=_ZN5telux3tel18OutgoingSmsHandler21handleSendSmsResponseEiPvSt10shared_ptrINS_6common16ICommandCallbackEE=so_stub_for_libtelux_tel
-Wl,--defsym=_ZN5telux3tel18OutgoingSmsHandler23handleSolicitedResponseESt10shared_ptrINS_6common6ResultEE=so_stub_for_libtelux_tel
-Wl,--defsym=_ZN5telux3tel18OutgoingSmsHandler24decodeSmscAddrFromRawPduB5cxx11ESt6vectorIhSaIhEEj=so_stub_for_libtelux_tel
-Wl,--defsym=_ZN5telux3tel18OutgoingSmsHandler25getSwappedNibbleBcdStringERKNSt7__cxx1112basic_stringIcSt11char_traitsIcESaIcEEE=so_stub_for_libtelux_tel
-Wl,--defsym=_ZN5telux3tel18OutgoingSmsHandler25handleImsRegStateResponseEiPvSt10shared_ptrINS_6common16ICommandCallbackEE=so_stub_for_libtelux_tel
-Wl,--defsym=_ZN5telux3tel18OutgoingSmsHandler25handleUnsolicitedResponseESt10shared_ptrINS_6common6ResultEE=so_stub_for_libtelux_tel
-Wl,--defsym=_ZN5telux3tel18OutgoingSmsHandler29handleSmsStatusReportResponseEiPv=so_stub_for_libtelux_tel
-Wl,--defsym=_ZN5telux3tel18OutgoingSmsHandler4initEv=so_stub_for_libtelux_tel
-Wl,--defsym=_ZN5telux3tel18OutgoingSmsHandler7cleanupEv=so_stub_for_libtelux_tel
-Wl,--defsym=_ZN5telux3tel18OutgoingSmsHandler7sendSmsENSt7__cxx1112basic_stringIcSt11char_traitsIcESaIcEEEbS7_St10shared_ptrINS_6common16ICommandCallbackEEb=so_stub_for_libtelux_tel
-Wl,--defsym=_ZN5telux3tel18OutgoingSmsHandler7sendSmsESt10shared_ptrINS0_7SmsInfoEE=so_stub_for_libtelux_tel
-Wl,--defsym=_ZN5telux3tel18OutgoingSmsHandlerC1EiSt10shared_ptrINS0_20IOutgoingSmsListenerEE=so_stub_for_libtelux_tel
-Wl,--defsym=_ZN5telux3tel18OutgoingSmsHandlerC2EiSt10shared_ptrINS0_20IOutgoingSmsListenerEE=so_stub_for_libtelux_tel
-Wl,--defsym=_ZN5telux3tel18OutgoingSmsHandlerD0Ev=so_stub_for_libtelux_tel
-Wl,--defsym=_ZN5telux3tel18OutgoingSmsHandlerD1Ev=so_stub_for_libtelux_tel
-Wl,--defsym=_ZN5telux3tel18OutgoingSmsHandlerD2Ev=so_stub_for_libtelux_tel
-Wl,--defsym=_ZN5telux3tel18SapCardManagerImpl10requestAtrESt10shared_ptrINS0_20IAtrResponseCallbackEE=so_stub_for_libtelux_tel
-Wl,--defsym=_ZN5telux3tel18SapCardManagerImpl12transmitApduEhhhhhSt6vectorIhSaIhEEhSt10shared_ptrINS0_23ISapCardCommandCallbackEE=so_stub_for_libtelux_tel
-Wl,--defsym=_ZN5telux3tel18SapCardManagerImpl14openConnectionENS0_12SapConditionESt10shared_ptrINS_6common24ICommandResponseCallbackEE=so_stub_for_libtelux_tel
-Wl,--defsym=_ZN5telux3tel18SapCardManagerImpl14removeListenerESt10shared_ptrINS0_16ISapCardListenerEE=so_stub_for_libtelux_tel
-Wl,--defsym=_ZN5telux3tel18SapCardManagerImpl15closeConnectionESt10shared_ptrINS_6common24ICommandResponseCallbackEE=so_stub_for_libtelux_tel
-Wl,--defsym=_ZN5telux3tel18SapCardManagerImpl15requestSapStateESt8functionIFvNS0_8SapStateENS_6common9ErrorCodeEEE=so_stub_for_libtelux_tel
-Wl,--defsym=_ZN5telux3tel18SapCardManagerImpl15requestSimResetESt10shared_ptrINS_6common24ICommandResponseCallbackEE=so_stub_for_libtelux_tel
-Wl,--defsym=_ZN5telux3tel18SapCardManagerImpl16getServiceStatusEv=so_stub_for_libtelux_tel
-Wl,--defsym=_ZN5telux3tel18SapCardManagerImpl16registerListenerESt10shared_ptrINS0_16ISapCardListenerEE=so_stub_for_libtelux_tel
-Wl,--defsym=_ZN5telux3tel18SapCardManagerImpl17requestSimPowerOnESt10shared_ptrINS_6common24ICommandResponseCallbackEE=so_stub_for_libtelux_tel
-Wl,--defsym=_ZN5telux3tel18SapCardManagerImpl18requestSimPowerOffESt10shared_ptrINS_6common24ICommandResponseCallbackEE=so_stub_for_libtelux_tel
-Wl,--defsym=_ZN5telux3tel18SapCardManagerImpl20onSapRequestResponseEP28uim_sap_request_resp_msg_v01Pv=so_stub_for_libtelux_tel
-Wl,--defsym=_ZN5telux3tel18SapCardManagerImpl21waitForInitializationEv=so_stub_for_libtelux_tel
-Wl,--defsym=_ZN5telux3tel18SapCardManagerImpl23onSapConnectionResponseEP31uim_sap_connection_resp_msg_v01Pv=so_stub_for_libtelux_tel
-Wl,--defsym=_ZN5telux3tel18SapCardManagerImpl23requestCardReaderStatusESt10shared_ptrINS0_19ICardReaderCallbackEE=so_stub_for_libtelux_tel
-Wl,--defsym=_ZN5telux3tel18SapCardManagerImpl24onUimServiceStatusChangeENS_6common13ServiceStatusE=so_stub_for_libtelux_tel
-Wl,--defsym=_ZN5telux3tel18SapCardManagerImpl25setServiceStatusAndNotifyENS_6common13ServiceStatusE=so_stub_for_libtelux_tel
-Wl,--defsym=_ZN5telux3tel18SapCardManagerImpl4initESt8functionIFvNS_6common13ServiceStatusEEE=so_stub_for_libtelux_tel
-Wl,--defsym=_ZN5telux3tel18SapCardManagerImpl7cleanupEb=so_stub_for_libtelux_tel
-Wl,--defsym=_ZN5telux3tel18SapCardManagerImpl7isReadyEv=so_stub_for_libtelux_tel
-Wl,--defsym=_ZN5telux3tel18SapCardManagerImpl7onReadyEv=so_stub_for_libtelux_tel
-Wl,--defsym=_ZN5telux3tel18SapCardManagerImpl8getStateERNS0_8SapStateE=so_stub_for_libtelux_tel
-Wl,--defsym=_ZN5telux3tel18SapCardManagerImpl8initSyncEv=so_stub_for_libtelux_tel
-Wl,--defsym=_ZN5telux3tel18SapCardManagerImpl9getSlotIdEv=so_stub_for_libtelux_tel
-Wl,--defsym=_ZN5telux3tel18SapCardManagerImplC1Ei=so_stub_for_libtelux_tel
-Wl,--defsym=_ZN5telux3tel18SapCardManagerImplC2Ei=so_stub_for_libtelux_tel
-Wl,--defsym=_ZN5telux3tel18SapCardManagerImplD0Ev=so_stub_for_libtelux_tel
-Wl,--defsym=_ZN5telux3tel18SapCardManagerImplD1Ev=so_stub_for_libtelux_tel
-Wl,--defsym=_ZN5telux3tel18SapCardManagerImplD2Ev=so_stub_for_libtelux_tel
-Wl,--defsym=_ZN5telux3tel19CardFileHandlerImpl10isAppReadyENSt7__cxx1112basic_stringIcSt11char_traitsIcESaIcEEE=so_stub_for_libtelux_tel
-Wl,--defsym=_ZN5telux3tel19CardFileHandlerImpl13exchangeSimIOEthhhhNSt7__cxx1112basic_stringIcSt11char_traitsIcESaIcEEESt6vectorIhSaIhEES7_S7_St10shared_ptrINS_6common16ICommandCallbackEEPv=so_stub_for_libtelux_tel
-Wl,--defsym=_ZN5telux3tel19CardFileHandlerImpl14updateCardAppsESt6vectorISt10shared_ptrINS0_11CardAppImplEESaIS5_EE=so_stub_for_libtelux_tel
-Wl,--defsym=_ZN5telux3tel19CardFileHandlerImpl15getDataFileSizeESt6vectorIiSaIiEE=so_stub_for_libtelux_tel
-Wl,--defsym=_ZN5telux3tel19CardFileHandlerImpl16getServiceStatusEv=so_stub_for_libtelux_tel
-Wl,--defsym=_ZN5telux3tel19CardFileHandlerImpl16setServiceStatusENS_6common13ServiceStatusE=so_stub_for_libtelux_tel
-Wl,--defsym=_ZN5telux3tel19CardFileHandlerImpl17getFileAttributesENS0_9IccResultENS0_6EfTypeEPNS0_19FileHandlerUserDataERNS_6common9ErrorCodeE=so_stub_for_libtelux_tel
-Wl,--defsym=_ZN5telux3tel19CardFileHandlerImpl17readEFLinearFixedENSt7__cxx1112basic_stringIcSt11char_traitsIcESaIcEEEtiS7_St8functionIFvNS_6common9ErrorCodeENS0_9IccResultEEE=so_stub_for_libtelux_tel
-Wl,--defsym=_ZN5telux3tel19CardFileHandlerImpl17readEFTransparentENSt7__cxx1112basic_stringIcSt11char_traitsIcESaIcEEEtiS7_St8functionIFvNS_6common9ErrorCodeENS0_9IccResultEEE=so_stub_for_libtelux_tel
-Wl,--defsym=_ZN5telux3tel19CardFileHandlerImpl18writeEFLinearFixedENSt7__cxx1112basic_stringIcSt11char_traitsIcESaIcEEEtiSt6vectorIhSaIhEES7_S7_St8functionIFvNS_6common9ErrorCodeENS0_9IccResultEEE=so_stub_for_libtelux_tel
-Wl,--defsym=_ZN5telux3tel19CardFileHandlerImpl18writeEFTransparentENSt7__cxx1112basic_stringIcSt11char_traitsIcESaIcEEEtSt6vectorIhSaIhEES7_St8functionIFvNS_6common9ErrorCodeENS0_9IccResultEEE=so_stub_for_libtelux_tel
-Wl,--defsym=_ZN5telux3tel19CardFileHandlerImpl19handleExchangeSimIOEPNS_6common10ResponseExEiSt10shared_ptrINS2_16ICommandCallbackEE=so_stub_for_libtelux_tel
-Wl,--defsym=_ZN5telux3tel19CardFileHandlerImpl19requestEFAttributesENS0_6EfTypeENSt7__cxx1112basic_stringIcSt11char_traitsIcESaIcEEEtS8_St8functionIFvNS_6common9ErrorCodeENS0_9IccResultENS0_14FileAttributesEEE=so_stub_for_libtelux_tel
-Wl,--defsym=_ZN5telux3tel19CardFileHandlerImpl20readEFLinearFixedAllENSt7__cxx1112basic_stringIcSt11char_traitsIcESaIcEEEtS7_St8functionIFvNS_6common9ErrorCodeESt6vectorINS0_9IccResultESaISC_EEEE=so_stub_for_libtelux_tel
-Wl,--defsym=_ZN5telux3tel19CardFileHandlerImpl21processGetResponseCmdERNS0_9IccResultESt10shared_ptrINS_6common16ICommandCallbackEEPNS0_19FileHandlerUserDataERNS5_9ErrorCodeERNS0_14FileAttributesE=so_stub_for_libtelux_tel
-Wl,--defsym=_ZN5telux3tel19CardFileHandlerImpl23handleSolicitedResponseESt10shared_ptrINS_6common6ResultEE=so_stub_for_libtelux_tel
-Wl,--defsym=_ZN5telux3tel19CardFileHandlerImpl25handleUnsolicitedResponseESt10shared_ptrINS_6common6ResultEE=so_stub_for_libtelux_tel
-Wl,--defsym=_ZN5telux3tel19CardFileHandlerImpl4initEv=so_stub_for_libtelux_tel
-Wl,--defsym=_ZN5telux3tel19CardFileHandlerImpl7cleanupEv=so_stub_for_libtelux_tel
-Wl,--defsym=_ZN5telux3tel19CardFileHandlerImpl9getSlotIdEv=so_stub_for_libtelux_tel
-Wl,--defsym=_ZN5telux3tel19CardFileHandlerImplC1E6SlotId=so_stub_for_libtelux_tel
-Wl,--defsym=_ZN5telux3tel19CardFileHandlerImplC2E6SlotId=so_stub_for_libtelux_tel
-Wl,--defsym=_ZN5telux3tel19CardFileHandlerImplD0Ev=so_stub_for_libtelux_tel
-Wl,--defsym=_ZN5telux3tel19CardFileHandlerImplD1Ev=so_stub_for_libtelux_tel
-Wl,--defsym=_ZN5telux3tel19CardFileHandlerImplD2Ev=so_stub_for_libtelux_tel
-Wl,--defsym=_ZN5telux3tel19CellBroadcastHelper11ratToStringB5cxx11E9RadioTech=so_stub_for_libtelux_tel
-Wl,--defsym=_ZN5telux3tel19CellBroadcastHelper13isCmasMessageEj=so_stub_for_libtelux_tel
-Wl,--defsym=_ZN5telux3tel19CellBroadcastHelper13isEtwsMessageEj=so_stub_for_libtelux_tel
-Wl,--defsym=_ZN5telux3tel19CellBroadcastHelper14getCmasUrgencyEj=so_stub_for_libtelux_tel
-Wl,--defsym=_ZN5telux3tel19CellBroadcastHelper15getCmasSeverityEj=so_stub_for_libtelux_tel
-Wl,--defsym=_ZN5telux3tel19CellBroadcastHelper16getCmasCertaintyEj=so_stub_for_libtelux_tel
-Wl,--defsym=_ZN5telux3tel19CellBroadcastHelper16isEtwsPopupAlertEj=so_stub_for_libtelux_tel
-Wl,--defsym=_ZN5telux3tel19CellBroadcastHelper18getEtwsWarningTypeEj=so_stub_for_libtelux_tel
-Wl,--defsym=_ZN5telux3tel19CellBroadcastHelper18isEmergencyMessageEj=so_stub_for_libtelux_tel
-Wl,--defsym=_ZN5telux3tel19CellBroadcastHelper19getCmasMessageClassEj=so_stub_for_libtelux_tel
-Wl,--defsym=_ZN5telux3tel19CellBroadcastHelper20cbRatInfoToRadioTechERK28wms_event_report_ind_msg_v01=so_stub_for_libtelux_tel
-Wl,--defsym=_ZN5telux3tel19CellBroadcastHelper24isEtwsEmergencyUserAlertEj=so_stub_for_libtelux_tel
-Wl,--defsym=_ZN5telux3tel19CellBroadcastHelper24logIncomingMessageFormatE27wms_message_format_enum_v01=so_stub_for_libtelux_tel
-Wl,--defsym=_ZN5telux3tel19CellBroadcastHelper29logIncomingMessageStorageTypeE25wms_storage_type_enum_v01=so_stub_for_libtelux_tel
-Wl,--defsym=_ZN5telux3tel19ICallUpdateListener20onUpdateCurrentCallsEv=so_stub_for_libtelux_tel
-Wl,--defsym=_ZN5telux3tel19nb1NtnRssnrLevelMapE=so_stub_for_libtelux_tel
-Wl,--defsym=_ZN5telux3tel19PhoneManagerWrapper11getPhoneIdsERSt6vectorIiSaIiEE=so_stub_for_libtelux_tel
-Wl,--defsym=_ZN5telux3tel19PhoneManagerWrapper14removeListenerESt8weak_ptrINS0_14IPhoneListenerEE=so_stub_for_libtelux_tel
-Wl,--defsym=_ZN5telux3tel19PhoneManagerWrapper16getServiceStatusEv=so_stub_for_libtelux_tel
-Wl,--defsym=_ZN5telux3tel19PhoneManagerWrapper16isSubsystemReadyEv=so_stub_for_libtelux_tel
-Wl,--defsym=_ZN5telux3tel19PhoneManagerWrapper16onSubsystemReadyEv=so_stub_for_libtelux_tel
-Wl,--defsym=_ZN5telux3tel19PhoneManagerWrapper16registerListenerESt8weak_ptrINS0_14IPhoneListenerEE=so_stub_for_libtelux_tel
-Wl,--defsym=_ZN5telux3tel19PhoneManagerWrapper16setOperatingModeENS0_13OperatingModeESt8functionIFvNS_6common9ErrorCodeEEE=so_stub_for_libtelux_tel
-Wl,--defsym=_ZN5telux3tel19PhoneManagerWrapper20getPhoneIdFromSlotIdEi=so_stub_for_libtelux_tel
-Wl,--defsym=_ZN5telux3tel19PhoneManagerWrapper20getSlotIdFromPhoneIdEi=so_stub_for_libtelux_tel
-Wl,--defsym=_ZN5telux3tel19PhoneManagerWrapper20requestOperatingModeESt10shared_ptrINS0_22IOperatingModeCallbackEE=so_stub_for_libtelux_tel
-Wl,--defsym=_ZN5telux3tel19PhoneManagerWrapper29requestCellularCapabilityInfoESt10shared_ptrINS0_27ICellularCapabilityCallbackEE=so_stub_for_libtelux_tel
-Wl,--defsym=_ZN5telux3tel19PhoneManagerWrapper4initEv=so_stub_for_libtelux_tel
-Wl,--defsym=_ZN5telux3tel19PhoneManagerWrapper7cleanupEv=so_stub_for_libtelux_tel
-Wl,--defsym=_ZN5telux3tel19PhoneManagerWrapper8getPhoneEi=so_stub_for_libtelux_tel
-Wl,--defsym=_ZN5telux3tel19PhoneManagerWrapper9resetWwanESt8functionIFvNS_6common9ErrorCodeEEE=so_stub_for_libtelux_tel
-Wl,--defsym=_ZN5telux3tel19PhoneManagerWrapperC1Ev=so_stub_for_libtelux_tel
-Wl,--defsym=_ZN5telux3tel19PhoneManagerWrapperC2Ev=so_stub_for_libtelux_tel
-Wl,--defsym=_ZN5telux3tel19PhoneManagerWrapperD0Ev=so_stub_for_libtelux_tel
-Wl,--defsym=_ZN5telux3tel19PhoneManagerWrapperD1Ev=so_stub_for_libtelux_tel
-Wl,--defsym=_ZN5telux3tel19PhoneManagerWrapperD2Ev=so_stub_for_libtelux_tel
-Wl,--defsym=_ZN5telux3tel19profileTypeToStringB5cxx11ENS0_11ProfileTypeE=so_stub_for_libtelux_tel
-Wl,--defsym=_ZN5telux3tel19SubscriptionManager14removeListenerESt8weak_ptrINS0_21ISubscriptionListenerEE=so_stub_for_libtelux_tel
-Wl,--defsym=_ZN5telux3tel19SubscriptionManager15getSubscriptionEiPNS_6common6StatusE=so_stub_for_libtelux_tel
-Wl,--defsym=_ZN5telux3tel19SubscriptionManager16getServiceStatusEv=so_stub_for_libtelux_tel
-Wl,--defsym=_ZN5telux3tel19SubscriptionManager16isSubsystemReadyEv=so_stub_for_libtelux_tel
-Wl,--defsym=_ZN5telux3tel19SubscriptionManager16onSubsystemReadyEv=so_stub_for_libtelux_tel
-Wl,--defsym=_ZN5telux3tel19SubscriptionManager16registerListenerESt8weak_ptrINS0_21ISubscriptionListenerEE=so_stub_for_libtelux_tel
-Wl,--defsym=_ZN5telux3tel19SubscriptionManager17onCardInfoChangedEi=so_stub_for_libtelux_tel
-Wl,--defsym=_ZN5telux3tel19SubscriptionManager18addNewSubscriptionEi=so_stub_for_libtelux_tel
-Wl,--defsym=_ZN5telux3tel19SubscriptionManager19getAllSubscriptionsEPNS_6common6StatusE=so_stub_for_libtelux_tel
-Wl,--defsym=_ZN5telux3tel19SubscriptionManager20updateSubsystemReadyEv=so_stub_for_libtelux_tel
-Wl,--defsym=_ZN5telux3tel19SubscriptionManager21onServiceStatusChangeENS_6common13ServiceStatusE=so_stub_for_libtelux_tel
-Wl,--defsym=_ZN5telux3tel19SubscriptionManager21waitForInitializationEv=so_stub_for_libtelux_tel
-Wl,--defsym=_ZN5telux3tel19SubscriptionManager25onSubscriptionInfoChangedESt10shared_ptrINS0_13ISubscriptionEE=so_stub_for_libtelux_tel
-Wl,--defsym=_ZN5telux3tel19SubscriptionManager25setServiceStatusAndNotifyENS_6common13ServiceStatusE=so_stub_for_libtelux_tel
-Wl,--defsym=_ZN5telux3tel19SubscriptionManager26notifySubscriptionListenerESt10shared_ptrINS0_13ISubscriptionEE=so_stub_for_libtelux_tel
-Wl,--defsym=_ZN5telux3tel19SubscriptionManager27notifyNumberOfSubscriptionsEi=so_stub_for_libtelux_tel
-Wl,--defsym=_ZN5telux3tel19SubscriptionManager30updateSubscriptionMapAndNotifyEi=so_stub_for_libtelux_tel
-Wl,--defsym=_ZN5telux3tel19SubscriptionManager4initESt8functionIFvNS_6common13ServiceStatusEEE=so_stub_for_libtelux_tel
-Wl,--defsym=_ZN5telux3tel19SubscriptionManager7cleanupEb=so_stub_for_libtelux_tel
-Wl,--defsym=_ZN5telux3tel19SubscriptionManager8initSyncEv=so_stub_for_libtelux_tel
-Wl,--defsym=_ZN5telux3tel19SubscriptionManagerC1Ev=so_stub_for_libtelux_tel
-Wl,--defsym=_ZN5telux3tel19SubscriptionManagerC2Ev=so_stub_for_libtelux_tel
-Wl,--defsym=_ZN5telux3tel19SubscriptionManagerD0Ev=so_stub_for_libtelux_tel
-Wl,--defsym=_ZN5telux3tel19SubscriptionManagerD1Ev=so_stub_for_libtelux_tel
-Wl,--defsym=_ZN5telux3tel19SubscriptionManagerD2Ev=so_stub_for_libtelux_tel
-Wl,--defsym=_ZN5telux3tel19TdscdmaCellIdentity11getIdentityEv=so_stub_for_libtelux_tel
-Wl,--defsym=_ZN5telux3tel19TdscdmaCellIdentity15getParametersIdEv=so_stub_for_libtelux_tel
-Wl,--defsym=_ZN5telux3tel19TdscdmaCellIdentity20getMobileCountryCodeB5cxx11Ev=so_stub_for_libtelux_tel
-Wl,--defsym=_ZN5telux3tel19TdscdmaCellIdentity20getMobileNetworkCodeB5cxx11Ev=so_stub_for_libtelux_tel
-Wl,--defsym=_ZN5telux3tel19TdscdmaCellIdentity6getLacEv=so_stub_for_libtelux_tel
-Wl,--defsym=_ZN5telux3tel19TdscdmaCellIdentity6getMccEv=so_stub_for_libtelux_tel
-Wl,--defsym=_ZN5telux3tel19TdscdmaCellIdentity6getMncEv=so_stub_for_libtelux_tel
-Wl,--defsym=_ZN5telux3tel19TdscdmaCellIdentityC1ENSt7__cxx1112basic_stringIcSt11char_traitsIcESaIcEEES7_iii=so_stub_for_libtelux_tel
-Wl,--defsym=_ZN5telux3tel19TdscdmaCellIdentityC2ENSt7__cxx1112basic_stringIcSt11char_traitsIcESaIcEEES7_iii=so_stub_for_libtelux_tel
-Wl,--defsym=_ZN5telux3tel19TdscdmaCellIdentityD1Ev=so_stub_for_libtelux_tel
-Wl,--defsym=_ZN5telux3tel19TdscdmaCellIdentityD2Ev=so_stub_for_libtelux_tel
-Wl,--defsym=_ZN5telux3tel20CellBroadcastMessageC1ESt10shared_ptrINS0_8CmasInfoEE=so_stub_for_libtelux_tel
-Wl,--defsym=_ZN5telux3tel20CellBroadcastMessageC1ESt10shared_ptrINS0_8EtwsInfoEE=so_stub_for_libtelux_tel
-Wl,--defsym=_ZN5telux3tel20CellBroadcastMessageC2ESt10shared_ptrINS0_8CmasInfoEE=so_stub_for_libtelux_tel
-Wl,--defsym=_ZN5telux3tel20CellBroadcastMessageC2ESt10shared_ptrINS0_8EtwsInfoEE=so_stub_for_libtelux_tel
-Wl,--defsym=_ZN5telux3tel20profileClassToStringB5cxx11ENS0_12ProfileClassE=so_stub_for_libtelux_tel
-Wl,--defsym=_ZN5telux3tel20ServingSystemManager10onResponseEiPvi=so_stub_for_libtelux_tel
-Wl,--defsym=_ZN5telux3tel20ServingSystemManager11getDcStatusEv=so_stub_for_libtelux_tel
-Wl,--defsym=_ZN5telux3tel20ServingSystemManager13convertQmiRatE21nas_radio_if_enum_v01=so_stub_for_libtelux_tel
-Wl,--defsym=_ZN5telux3tel20ServingSystemManager13getSystemInfoERNS0_17ServingSystemInfoE=so_stub_for_libtelux_tel
-Wl,--defsym=_ZN5telux3tel20ServingSystemManager15convertCallTypeE33nas_cell_access_status_e_type_v01=so_stub_for_libtelux_tel
-Wl,--defsym=_ZN5telux3tel20ServingSystemManager16convertSmsDomainE28nas_sms_status_enum_type_v01=so_stub_for_libtelux_tel
-Wl,--defsym=_ZN5telux3tel20ServingSystemManager16getServiceStatusEv=so_stub_for_libtelux_tel
-Wl,--defsym=_ZN5telux3tel20ServingSystemManager16isSubsystemReadyEv=so_stub_for_libtelux_tel
-Wl,--defsym=_ZN5telux3tel20ServingSystemManager16onRFBandInfoRespEP33nas_get_rf_band_info_resp_msg_v01Pvi=so_stub_for_libtelux_tel
-Wl,--defsym=_ZN5telux3tel20ServingSystemManager16onRFBandPrefRespEP48nas_get_system_selection_preference_resp_msg_v01Pvi=so_stub_for_libtelux_tel
-Wl,--defsym=_ZN5telux3tel20ServingSystemManager16onSubsystemReadyEv=so_stub_for_libtelux_tel
-Wl,--defsym=_ZN5telux3tel20ServingSystemManager16registerListenerESt8weak_ptrINS0_22IServingSystemListenerEESt6bitsetILm32EE=so_stub_for_libtelux_tel
-Wl,--defsym=_ZN5telux3tel20ServingSystemManager16setRatPreferenceESt6bitsetILm16EESt8functionIFvNS_6common9ErrorCodeEEE=so_stub_for_libtelux_tel
-Wl,--defsym=_ZN5telux3tel20ServingSystemManager16updateSystemInfoEv=so_stub_for_libtelux_tel
-Wl,--defsym=_ZN5telux3tel20ServingSystemManager17convertToBandListEimRSt6vectorIiSaIiEE=so_stub_for_libtelux_tel
-Wl,--defsym=_ZN5telux3tel20ServingSystemManager17convertToBandMaskEiSt6vectorIiSaIiEE=so_stub_for_libtelux_tel
-Wl,--defsym=_ZN5telux3tel20ServingSystemManager17requestRFBandInfoESt8functionIFvNS0_10RFBandInfoENS_6common9ErrorCodeEEE=so_stub_for_libtelux_tel
-Wl,--defsym=_ZN5telux3tel20ServingSystemManager18deregisterListenerESt8weak_ptrINS0_22IServingSystemListenerEESt6bitsetILm32EE=so_stub_for_libtelux_tel
-Wl,--defsym=_ZN5telux3tel20ServingSystemManager18getCallBarringInfoERSt6vectorINS0_15CallBarringInfoESaIS3_EE=so_stub_for_libtelux_tel
-Wl,--defsym=_ZN5telux3tel20ServingSystemManager18getLteCsCapabilityERNS0_15LteCsCapabilityE=so_stub_for_libtelux_tel
-Wl,--defsym=_ZN5telux3tel20ServingSystemManager18onNetworkRejectionEPK30nas_network_reject_ind_msg_v01=so_stub_for_libtelux_tel
-Wl,--defsym=_ZN5telux3tel20ServingSystemManager18requestNetworkTimeESt8functionIFvNS0_15NetworkTimeInfoENS_6common9ErrorCodeEEE=so_stub_for_libtelux_tel
-Wl,--defsym=_ZN5telux3tel20ServingSystemManager19convertNtnSmsStatusE36nas_cp_sms_service_status_e_type_v01=so_stub_for_libtelux_tel
-Wl,--defsym=_ZN5telux3tel20ServingSystemManager19convertServiceStateE32nas_service_status_enum_type_v01=so_stub_for_libtelux_tel
-Wl,--defsym=_ZN5telux3tel20ServingSystemManager19onNetworkTimeChangeEPK28nas_network_time_ind_msg_v01=so_stub_for_libtelux_tel
-Wl,--defsym=_ZN5telux3tel20ServingSystemManager19onRFBandInfoChangedEPK28nas_rf_band_info_ind_msg_v01=so_stub_for_libtelux_tel
-Wl,--defsym=_ZN5telux3tel20ServingSystemManager19onSystemInfoChangedEP24nas_sys_info_ind_msg_v01=so_stub_for_libtelux_tel
-Wl,--defsym=_ZN5telux3tel20ServingSystemManager20convertServiceDomainE32nas_service_domain_enum_type_v01=so_stub_for_libtelux_tel
-Wl,--defsym=_ZN5telux3tel20ServingSystemManager20getNetworkRejectInfoERNS0_17NetworkRejectInfoE=so_stub_for_libtelux_tel
-Wl,--defsym=_ZN5telux3tel20ServingSystemManager20requestRatPreferenceESt8functionIFvSt6bitsetILm16EENS_6common9ErrorCodeEEE=so_stub_for_libtelux_tel
-Wl,--defsym=_ZN5telux3tel20ServingSystemManager20setRFBandPreferencesESt10shared_ptrINS0_11IRFBandListEESt8functionIFvNS_6common9ErrorCodeEEE=so_stub_for_libtelux_tel
-Wl,--defsym=_ZN5telux3tel20ServingSystemManager21convertToGsmWcdmaMaskERSt6vectorINS0_9GsmRFBandESaIS3_EERS2_INS0_11WcdmaRFBandESaIS7_EE=so_stub_for_libtelux_tel
-Wl,--defsym=_ZN5telux3tel20ServingSystemManager21onNetworkTimeResponseEP33nas_get_network_time_resp_msg_v01Pvi=so_stub_for_libtelux_tel
-Wl,--defsym=_ZN5telux3tel20ServingSystemManager21onRFBandCapabilityIndEPK34dms_band_capability_ex_ind_msg_v01=so_stub_for_libtelux_tel
-Wl,--defsym=_ZN5telux3tel20ServingSystemManager21requestNr5gRrcUtcTimeESt8functionIFvNS0_15NetworkTimeInfoENS_6common9ErrorCodeEEE=so_stub_for_libtelux_tel
-Wl,--defsym=_ZN5telux3tel20ServingSystemManager21waitForInitializationEv=so_stub_for_libtelux_tel
-Wl,--defsym=_ZN5telux3tel20ServingSystemManager22convertLteCsCapabilityE35nas_lte_cs_capability_enum_type_v01=so_stub_for_libtelux_tel
-Wl,--defsym=_ZN5telux3tel20ServingSystemManager22convertToGsmWcdmaBandsEmRSt6vectorINS0_9GsmRFBandESaIS3_EERS2_INS0_11WcdmaRFBandESaIS7_EE=so_stub_for_libtelux_tel
-Wl,--defsym=_ZN5telux3tel20ServingSystemManager22onNr5gRrcUtcTimeChangeEPK40nas_nr5g_rrc_utc_time_update_ind_msg_v01=so_stub_for_libtelux_tel
-Wl,--defsym=_ZN5telux3tel20ServingSystemManager22onRFBandCapabilityRespEP39dms_get_band_capability_ex_resp_msg_v01Pvi=so_stub_for_libtelux_tel
-Wl,--defsym=_ZN5telux3tel20ServingSystemManager23requestRFBandCapabilityESt8functionIFvSt10shared_ptrINS0_11IRFBandListEENS_6common9ErrorCodeEEE=so_stub_for_libtelux_tel
-Wl,--defsym=_ZN5telux3tel20ServingSystemManager24convertServiceDomainPrefE33nas_srv_domain_pref_enum_type_v01=so_stub_for_libtelux_tel
-Wl,--defsym=_ZN5telux3tel20ServingSystemManager24convertToNetworkTimeInfoE24nas_julian_time_type_v01ah=so_stub_for_libtelux_tel
-Wl,--defsym=_ZN5telux3tel20ServingSystemManager24onNasServiceStatusChangeENS_6common13ServiceStatusE=so_stub_for_libtelux_tel
-Wl,--defsym=_ZN5telux3tel20ServingSystemManager24onNr5gRrcUtcTimeResponseEP38nas_get_nr5g_rrc_utc_time_resp_msg_v01Pvi=so_stub_for_libtelux_tel
-Wl,--defsym=_ZN5telux3tel20ServingSystemManager24requestRFBandPreferencesESt8functionIFvSt10shared_ptrINS0_11IRFBandListEENS_6common9ErrorCodeEEE=so_stub_for_libtelux_tel
-Wl,--defsym=_ZN5telux3tel20ServingSystemManager25setServiceStatusAndNotifyENS_6common13ServiceStatusE=so_stub_for_libtelux_tel
-Wl,--defsym=_ZN5telux3tel20ServingSystemManager26convertFromArrayToBandListEiPKtRSt6vectorIiSaIiEE=so_stub_for_libtelux_tel
-Wl,--defsym=_ZN5telux3tel20ServingSystemManager26requestLteSib16NetworkTimeESt8functionIFvNS0_15NetworkTimeInfoENS_6common9ErrorCodeEEE=so_stub_for_libtelux_tel
-Wl,--defsym=_ZN5telux3tel20ServingSystemManager26setServiceDomainPreferenceENS0_23ServiceDomainPreferenceESt8functionIFvNS_6common9ErrorCodeEEE=so_stub_for_libtelux_tel
-Wl,--defsym=_ZN5telux3tel20ServingSystemManager27convertToLteNetworkTimeInfoE34nas_lte_sib16_julian_time_type_v01ah=so_stub_for_libtelux_tel
-Wl,--defsym=_ZN5telux3tel20ServingSystemManager27getSmsCapabilityOverNetworkERNS0_13SmsCapabilityE=so_stub_for_libtelux_tel
-Wl,--defsym=_ZN5telux3tel20ServingSystemManager27onLteSib16NetworkTimeChangeEPK38nas_lte_sib16_network_time_ind_msg_v01=so_stub_for_libtelux_tel
-Wl,--defsym=_ZN5telux3tel20ServingSystemManager29onLteSib16NetworkTimeResponseEP43nas_get_lte_sib16_network_time_resp_msg_v01Pvi=so_stub_for_libtelux_tel
-Wl,--defsym=_ZN5telux3tel20ServingSystemManager30requestServiceDomainPreferenceESt8functionIFvNS0_23ServiceDomainPreferenceENS_6common9ErrorCodeEEE=so_stub_for_libtelux_tel
-Wl,--defsym=_ZN5telux3tel20ServingSystemManager34onSystemSelectionPreferenceChangedEP43nas_system_selection_preference_ind_msg_v01=so_stub_for_libtelux_tel
-Wl,--defsym=_ZN5telux3tel20ServingSystemManager35onSystemSelectionPreferenceResponseEP48nas_get_system_selection_preference_resp_msg_v01Pvi=so_stub_for_libtelux_tel
-Wl,--defsym=_ZN5telux3tel20ServingSystemManager4initESt8functionIFvNS_6common13ServiceStatusEEE=so_stub_for_libtelux_tel
-Wl,--defsym=_ZN5telux3tel20ServingSystemManager7cleanupEb=so_stub_for_libtelux_tel
-Wl,--defsym=_ZN5telux3tel20ServingSystemManager8initSyncEv=so_stub_for_libtelux_tel
-Wl,--defsym=_ZN5telux3tel20ServingSystemManagerC1Ei=so_stub_for_libtelux_tel
-Wl,--defsym=_ZN5telux3tel20ServingSystemManagerC2Ei=so_stub_for_libtelux_tel
-Wl,--defsym=_ZN5telux3tel20ServingSystemManagerD0Ev=so_stub_for_libtelux_tel
-Wl,--defsym=_ZN5telux3tel20ServingSystemManagerD1Ev=so_stub_for_libtelux_tel
-Wl,--defsym=_ZN5telux3tel20ServingSystemManagerD2Ev=so_stub_for_libtelux_tel
-Wl,--defsym=_ZN5telux3tel21GsmSignalStrengthInfo16getTimingAdvanceEv=so_stub_for_libtelux_tel
-Wl,--defsym=_ZN5telux3tel21GsmSignalStrengthInfoC1Eiii=so_stub_for_libtelux_tel
-Wl,--defsym=_ZN5telux3tel21GsmSignalStrengthInfoC2Eiii=so_stub_for_libtelux_tel
-Wl,--defsym=_ZN5telux3tel21ISubscriptionListener25onSubscriptionInfoChangedESt10shared_ptrINS0_13ISubscriptionEE=so_stub_for_libtelux_tel
-Wl,--defsym=_ZN5telux3tel21ISubscriptionListener30onNumberOfSubscriptionsChangedEi=so_stub_for_libtelux_tel
-Wl,--defsym=_ZN5telux3tel21LteSignalStrengthInfoC1Eiiiiii=so_stub_for_libtelux_tel
-Wl,--defsym=_ZN5telux3tel21LteSignalStrengthInfoC2Eiiiiii=so_stub_for_libtelux_tel
-Wl,--defsym=_ZN5telux3tel21SapCardManagerWrapper10requestAtrESt10shared_ptrINS0_20IAtrResponseCallbackEE=so_stub_for_libtelux_tel
-Wl,--defsym=_ZN5telux3tel21SapCardManagerWrapper12transmitApduEhhhhhSt6vectorIhSaIhEEhSt10shared_ptrINS0_23ISapCardCommandCallbackEE=so_stub_for_libtelux_tel
-Wl,--defsym=_ZN5telux3tel21SapCardManagerWrapper14openConnectionENS0_12SapConditionESt10shared_ptrINS_6common24ICommandResponseCallbackEE=so_stub_for_libtelux_tel
-Wl,--defsym=_ZN5telux3tel21SapCardManagerWrapper14removeListenerESt10shared_ptrINS0_16ISapCardListenerEE=so_stub_for_libtelux_tel
-Wl,--defsym=_ZN5telux3tel21SapCardManagerWrapper15closeConnectionESt10shared_ptrINS_6common24ICommandResponseCallbackEE=so_stub_for_libtelux_tel
-Wl,--defsym=_ZN5telux3tel21SapCardManagerWrapper15requestSapStateESt8functionIFvNS0_8SapStateENS_6common9ErrorCodeEEE=so_stub_for_libtelux_tel
-Wl,--defsym=_ZN5telux3tel21SapCardManagerWrapper15requestSimResetESt10shared_ptrINS_6common24ICommandResponseCallbackEE=so_stub_for_libtelux_tel
-Wl,--defsym=_ZN5telux3tel21SapCardManagerWrapper16getServiceStatusEv=so_stub_for_libtelux_tel
-Wl,--defsym=_ZN5telux3tel21SapCardManagerWrapper16registerListenerESt10shared_ptrINS0_16ISapCardListenerEE=so_stub_for_libtelux_tel
-Wl,--defsym=_ZN5telux3tel21SapCardManagerWrapper17requestSimPowerOnESt10shared_ptrINS_6common24ICommandResponseCallbackEE=so_stub_for_libtelux_tel
-Wl,--defsym=_ZN5telux3tel21SapCardManagerWrapper18requestSimPowerOffESt10shared_ptrINS_6common24ICommandResponseCallbackEE=so_stub_for_libtelux_tel
-Wl,--defsym=_ZN5telux3tel21SapCardManagerWrapper23requestCardReaderStatusESt10shared_ptrINS0_19ICardReaderCallbackEE=so_stub_for_libtelux_tel
-Wl,--defsym=_ZN5telux3tel21SapCardManagerWrapper4initEi=so_stub_for_libtelux_tel
-Wl,--defsym=_ZN5telux3tel21SapCardManagerWrapper7cleanupEv=so_stub_for_libtelux_tel
-Wl,--defsym=_ZN5telux3tel21SapCardManagerWrapper7isReadyEv=so_stub_for_libtelux_tel
-Wl,--defsym=_ZN5telux3tel21SapCardManagerWrapper7onReadyEv=so_stub_for_libtelux_tel
-Wl,--defsym=_ZN5telux3tel21SapCardManagerWrapper8getStateERNS0_8SapStateE=so_stub_for_libtelux_tel
-Wl,--defsym=_ZN5telux3tel21SapCardManagerWrapper9getSlotIdEv=so_stub_for_libtelux_tel
-Wl,--defsym=_ZN5telux3tel21SapCardManagerWrapperC1Ev=so_stub_for_libtelux_tel
-Wl,--defsym=_ZN5telux3tel21SapCardManagerWrapperC2Ev=so_stub_for_libtelux_tel
-Wl,--defsym=_ZN5telux3tel21SapCardManagerWrapperD0Ev=so_stub_for_libtelux_tel
-Wl,--defsym=_ZN5telux3tel21SapCardManagerWrapperD1Ev=so_stub_for_libtelux_tel
-Wl,--defsym=_ZN5telux3tel21SapCardManagerWrapperD2Ev=so_stub_for_libtelux_tel
-Wl,--defsym=_ZN5telux3tel21SimProfileManagerImpl10addProfileE6SlotIdRKNSt7__cxx1112basic_stringIcSt11char_traitsIcESaIcEEESA_bSt8functionIFvNS_6common9ErrorCodeEEE=so_stub_for_libtelux_tel
-Wl,--defsym=_ZN5telux3tel21SimProfileManagerImpl10requestEidE6SlotIdSt8functionIFvNSt7__cxx1112basic_stringIcSt11char_traitsIcESaIcEEENS_6common9ErrorCodeEEE=so_stub_for_libtelux_tel
-Wl,--defsym=_ZN5telux3tel21SimProfileManagerImpl10setProfileE6SlotIdibSt8functionIFvNS_6common9ErrorCodeEEE=so_stub_for_libtelux_tel
-Wl,--defsym=_ZN5telux3tel21SimProfileManagerImpl11memoryResetE6SlotIdSt6bitsetILm64EESt8functionIFvNS_6common9ErrorCodeEEE=so_stub_for_libtelux_tel
-Wl,--defsym=_ZN5telux3tel21SimProfileManagerImpl13deleteProfileE6SlotIdiSt8functionIFvNS_6common9ErrorCodeEEE=so_stub_for_libtelux_tel
-Wl,--defsym=_ZN5telux3tel21SimProfileManagerImpl13onEidResponseEP24uim_get_eid_resp_msg_v01Pvi=so_stub_for_libtelux_tel
-Wl,--defsym=_ZN5telux3tel21SimProfileManagerImpl14updateNickNameE6SlotIdiRKNSt7__cxx1112basic_stringIcSt11char_traitsIcESaIcEEESt8functionIFvNS_6common9ErrorCodeEEE=so_stub_for_libtelux_tel
-Wl,--defsym=_ZN5telux3tel21SimProfileManagerImpl15onAddProfileIndERK27uim_add_profile_ind_msg_v01=so_stub_for_libtelux_tel
-Wl,--defsym=_ZN5telux3tel21SimProfileManagerImpl15onSimRefreshIndERK23uim_refresh_ind_msg_v01=so_stub_for_libtelux_tel
-Wl,--defsym=_ZN5telux3tel21SimProfileManagerImpl16getServiceStatusEv=so_stub_for_libtelux_tel
-Wl,--defsym=_ZN5telux3tel21SimProfileManagerImpl16isSubsystemReadyEv=so_stub_for_libtelux_tel
-Wl,--defsym=_ZN5telux3tel21SimProfileManagerImpl16onSubsystemReadyEv=so_stub_for_libtelux_tel
-Wl,--defsym=_ZN5telux3tel21SimProfileManagerImpl16registerListenerESt8weak_ptrINS0_19ISimProfileListenerEE=so_stub_for_libtelux_tel
-Wl,--defsym=_ZN5telux3tel21SimProfileManagerImpl16setServerAddressE6SlotIdRKNSt7__cxx1112basic_stringIcSt11char_traitsIcESaIcEEESt8functionIFvNS_6common9ErrorCodeEEE=so_stub_for_libtelux_tel
-Wl,--defsym=_ZN5telux3tel21SimProfileManagerImpl16updateReadyStateEv=so_stub_for_libtelux_tel
-Wl,--defsym=_ZN5telux3tel21SimProfileManagerImpl17setProfileCleanupE6SlotIdNS_6common9ErrorCodeE=so_stub_for_libtelux_tel
-Wl,--defsym=_ZN5telux3tel21SimProfileManagerImpl18deregisterListenerESt8weak_ptrINS0_19ISimProfileListenerEE=so_stub_for_libtelux_tel
-Wl,--defsym=_ZN5telux3tel21SimProfileManagerImpl18provideUserConsentE6SlotIdbNS0_21UserConsentReasonTypeESt8functionIFvNS_6common9ErrorCodeEEE=so_stub_for_libtelux_tel
-Wl,--defsym=_ZN5telux3tel21SimProfileManagerImpl18requestProfileInfoE6SlotIdiPNS0_24RemoteSimProfileUserDataE=so_stub_for_libtelux_tel
-Wl,--defsym=_ZN5telux3tel21SimProfileManagerImpl18requestProfileListE6SlotIdSt8functionIFvRKSt6vectorISt10shared_ptrINS0_10SimProfileEESaIS7_EENS_6common9ErrorCodeEEE=so_stub_for_libtelux_tel
-Wl,--defsym=_ZN5telux3tel21SimProfileManagerImpl20deleteProfileCleanupE6SlotIdNS_6common9ErrorCodeE=so_stub_for_libtelux_tel
-Wl,--defsym=_ZN5telux3tel21SimProfileManagerImpl20notifyDownloadStatusE6SlotIdNS0_14DownloadStatusENS0_18DownloadErrorCauseE=so_stub_for_libtelux_tel
-Wl,--defsym=_ZN5telux3tel21SimProfileManagerImpl20onAddProfileResponseEP28uim_add_profile_resp_msg_v01Pvi=so_stub_for_libtelux_tel
-Wl,--defsym=_ZN5telux3tel21SimProfileManagerImpl20onSetProfileResponseEP32uim_set_sim_profile_resp_msg_v01Pvi=so_stub_for_libtelux_tel
-Wl,--defsym=_ZN5telux3tel21SimProfileManagerImpl20performDeleteProfileE6SlotIdi=so_stub_for_libtelux_tel
-Wl,--defsym=_ZN5telux3tel21SimProfileManagerImpl20refreshEventToStringB5cxx11ENS0_12RefreshEventE=so_stub_for_libtelux_tel
-Wl,--defsym=_ZN5telux3tel21SimProfileManagerImpl20requestServerAddressE6SlotIdSt8functionIFvNSt7__cxx1112basic_stringIcSt11char_traitsIcESaIcEEES9_NS_6common9ErrorCodeEEE=so_stub_for_libtelux_tel
-Wl,--defsym=_ZN5telux3tel21SimProfileManagerImpl21onMemoryResetResponseEP35uim_euicc_memory_reset_resp_msg_v01Pvi=so_stub_for_libtelux_tel
-Wl,--defsym=_ZN5telux3tel21SimProfileManagerImpl21onProfileInfoResponseEP33uim_get_profile_info_resp_msg_v01Pvi=so_stub_for_libtelux_tel
-Wl,--defsym=_ZN5telux3tel21SimProfileManagerImpl21onProfileListResponseEP32uim_get_sim_profile_resp_msg_v01Pvi=so_stub_for_libtelux_tel
-Wl,--defsym=_ZN5telux3tel21SimProfileManagerImpl21onUserConsentResponseEP37uim_profile_user_consent_resp_msg_v01Pvi=so_stub_for_libtelux_tel
-Wl,--defsym=_ZN5telux3tel21SimProfileManagerImpl21waitForInitializationEv=so_stub_for_libtelux_tel
-Wl,--defsym=_ZN5telux3tel21SimProfileManagerImpl22onSetProfileResponseCbE6SlotIdiNS_6common9ErrorCodeEb=so_stub_for_libtelux_tel
-Wl,--defsym=_ZN5telux3tel21SimProfileManagerImpl23onDeleteProfileResponseE6SlotIdiP31uim_delete_profile_resp_msg_v01Pvi=so_stub_for_libtelux_tel
-Wl,--defsym=_ZN5telux3tel21SimProfileManagerImpl23onProfileListResponseCbE6SlotIdiRKSt6vectorISt10shared_ptrINS0_10SimProfileEESaIS6_EENS_6common9ErrorCodeE=so_stub_for_libtelux_tel
-Wl,--defsym=_ZN5telux3tel21SimProfileManagerImpl23provideConfirmationCodeE6SlotIdNSt7__cxx1112basic_stringIcSt11char_traitsIcESaIcEEESt8functionIFvNS_6common9ErrorCodeEEE=so_stub_for_libtelux_tel
-Wl,--defsym=_ZN5telux3tel21SimProfileManagerImpl24onUimServiceStatusChangeENS_6common13ServiceStatusE=so_stub_for_libtelux_tel
-Wl,--defsym=_ZN5telux3tel21SimProfileManagerImpl24onUpdateNickNameResponseEP40uim_update_profile_nickname_resp_msg_v01Pvi=so_stub_for_libtelux_tel
-Wl,--defsym=_ZN5telux3tel21SimProfileManagerImpl25getSwappedNibbleBcdStringB5cxx11EPhi=so_stub_for_libtelux_tel
-Wl,--defsym=_ZN5telux3tel21SimProfileManagerImpl25notifyUserConsentRequiredE6SlotIdbSt6bitsetILm16EE=so_stub_for_libtelux_tel
-Wl,--defsym=_ZN5telux3tel21SimProfileManagerImpl25setServiceStatusAndNotifyENS_6common13ServiceStatusE=so_stub_for_libtelux_tel
-Wl,--defsym=_ZN5telux3tel21SimProfileManagerImpl26convertStageToRefreshEventE26uim_refresh_stage_enum_v01=so_stub_for_libtelux_tel
-Wl,--defsym=_ZN5telux3tel21SimProfileManagerImpl26onConfirmationCodeResponseEP42uim_profile_confirmation_code_resp_msg_v01Pvi=so_stub_for_libtelux_tel
-Wl,--defsym=_ZN5telux3tel21SimProfileManagerImpl26onGetServerAddressResponseEP45uim_euicc_default_server_address_resp_msg_v01Pvi=so_stub_for_libtelux_tel
-Wl,--defsym=_ZN5telux3tel21SimProfileManagerImpl26onSetServerAddressResponseEP45uim_euicc_default_server_address_resp_msg_v01Pvi=so_stub_for_libtelux_tel
-Wl,--defsym=_ZN5telux3tel21SimProfileManagerImpl26onUimSimRefreshRegResponseEiPvi=so_stub_for_libtelux_tel
-Wl,--defsym=_ZN5telux3tel21SimProfileManagerImpl28convertProfilePolicyRuleMaskEm=so_stub_for_libtelux_tel
-Wl,--defsym=_ZN5telux3tel21SimProfileManagerImpl30notifyConfirmationCodeRequiredE6SlotIdNSt7__cxx1112basic_stringIcSt11char_traitsIcESaIcEEE=so_stub_for_libtelux_tel
-Wl,--defsym=_ZN5telux3tel21SimProfileManagerImpl36profileListResponseCbonDeleteFailureE6SlotIdiRKSt6vectorISt10shared_ptrINS0_10SimProfileEESaIS6_EENS_6common9ErrorCodeE=so_stub_for_libtelux_tel
-Wl,--defsym=_ZN5telux3tel21SimProfileManagerImpl37profileListResponseCbonProfileDisableE6SlotIdiRKSt6vectorISt10shared_ptrINS0_10SimProfileEESaIS6_EENS_6common9ErrorCodeE=so_stub_for_libtelux_tel
-Wl,--defsym=_ZN5telux3tel21SimProfileManagerImpl4initESt8functionIFvNS_6common13ServiceStatusEEE=so_stub_for_libtelux_tel
-Wl,--defsym=_ZN5telux3tel21SimProfileManagerImpl7cleanupEb=so_stub_for_libtelux_tel
-Wl,--defsym=_ZN5telux3tel21SimProfileManagerImpl8initSyncEv=so_stub_for_libtelux_tel
-Wl,--defsym=_ZN5telux3tel21SimProfileManagerImplC1Ev=so_stub_for_libtelux_tel
-Wl,--defsym=_ZN5telux3tel21SimProfileManagerImplC2Ev=so_stub_for_libtelux_tel
-Wl,--defsym=_ZN5telux3tel21SimProfileManagerImplD0Ev=so_stub_for_libtelux_tel
-Wl,--defsym=_ZN5telux3tel21SimProfileManagerImplD1Ev=so_stub_for_libtelux_tel
-Wl,--defsym=_ZN5telux3tel21SimProfileManagerImplD2Ev=so_stub_for_libtelux_tel
-Wl,--defsym=_ZN5telux3tel22CdmaSignalStrengthInfoC1Eiiiii=so_stub_for_libtelux_tel
-Wl,--defsym=_ZN5telux3tel22CdmaSignalStrengthInfoC2Eiiiii=so_stub_for_libtelux_tel
-Wl,--defsym=_ZN5telux3tel22CellularCapabilityInfoD1Ev=so_stub_for_libtelux_tel
-Wl,--defsym=_ZN5telux3tel22CellularCapabilityInfoD2Ev=so_stub_for_libtelux_tel
-Wl,--defsym=_ZN5telux3tel22ImsSettingsManagerImpl10toggleVonrE6SlotIdbSt8functionIFvNS_6common9ErrorCodeEEE=so_stub_for_libtelux_tel
-Wl,--defsym=_ZN5telux3tel22ImsSettingsManagerImpl15ResponseHandler23handleSolicitedResponseESt10shared_ptrINS_6common6ResultEE=so_stub_for_libtelux_tel
-Wl,--defsym=_ZN5telux3tel22ImsSettingsManagerImpl15ResponseHandler25handleUnsolicitedResponseESt10shared_ptrINS_6common6ResultEE=so_stub_for_libtelux_tel
-Wl,--defsym=_ZN5telux3tel22ImsSettingsManagerImpl15ResponseHandlerD0Ev=so_stub_for_libtelux_tel
-Wl,--defsym=_ZN5telux3tel22ImsSettingsManagerImpl15ResponseHandlerD1Ev=so_stub_for_libtelux_tel
-Wl,--defsym=_ZN5telux3tel22ImsSettingsManagerImpl15ResponseHandlerD2Ev=so_stub_for_libtelux_tel
-Wl,--defsym=_ZN5telux3tel22ImsSettingsManagerImpl15setSipUserAgentE6SlotIdNSt7__cxx1112basic_stringIcSt11char_traitsIcESaIcEEESt8functionIFvNS_6common9ErrorCodeEEE=so_stub_for_libtelux_tel
-Wl,--defsym=_ZN5telux3tel22ImsSettingsManagerImpl16getServiceStatusEv=so_stub_for_libtelux_tel
-Wl,--defsym=_ZN5telux3tel22ImsSettingsManagerImpl16registerListenerESt8weak_ptrINS0_20IImsSettingsListenerEE=so_stub_for_libtelux_tel
-Wl,--defsym=_ZN5telux3tel22ImsSettingsManagerImpl16setServiceConfigE6SlotIdNS0_16ImsServiceConfigESt8functionIFvNS_6common9ErrorCodeEEE=so_stub_for_libtelux_tel
-Wl,--defsym=_ZN5telux3tel22ImsSettingsManagerImpl17requestVonrStatusE6SlotIdSt8functionIFvS2_bNS_6common9ErrorCodeEEE=so_stub_for_libtelux_tel
-Wl,--defsym=_ZN5telux3tel22ImsSettingsManagerImpl18deregisterListenerESt8weak_ptrINS0_20IImsSettingsListenerEE=so_stub_for_libtelux_tel
-Wl,--defsym=_ZN5telux3tel22ImsSettingsManagerImpl18getResponseHandlerEv=so_stub_for_libtelux_tel
-Wl,--defsym=_ZN5telux3tel22ImsSettingsManagerImpl19requestSipUserAgentE6SlotIdSt8functionIFvS2_NSt7__cxx1112basic_stringIcSt11char_traitsIcESaIcEEENS_6common9ErrorCodeEEE=so_stub_for_libtelux_tel
-Wl,--defsym=_ZN5telux3tel22ImsSettingsManagerImpl20onImsNewConfigChangeEP39ims_settings_ims_new_config_ind_msg_v016SlotId=so_stub_for_libtelux_tel
-Wl,--defsym=_ZN5telux3tel22ImsSettingsManagerImpl20requestServiceConfigE6SlotIdSt8functionIFvS2_NS0_16ImsServiceConfigENS_6common9ErrorCodeEEE=so_stub_for_libtelux_tel
-Wl,--defsym=_ZN5telux3tel22ImsSettingsManagerImpl21onServiceStatusChangeENS_6common13ServiceStatusE=so_stub_for_libtelux_tel
-Wl,--defsym=_ZN5telux3tel22ImsSettingsManagerImpl24handleGetImsVonrResponseEiPSt6vectorIiSaIiEESt10shared_ptrINS_6common16ICommandCallbackEEi=so_stub_for_libtelux_tel
-Wl,--defsym=_ZN5telux3tel22ImsSettingsManagerImpl24handleSetImsVonrResponseEiSt10shared_ptrINS_6common16ICommandCallbackEEi=so_stub_for_libtelux_tel
-Wl,--defsym=_ZN5telux3tel22ImsSettingsManagerImpl24onGetUserAgentConfigRespE6SlotIdP43ims_settings_get_ims_new_config_rsp_msg_v01Pvi=so_stub_for_libtelux_tel
-Wl,--defsym=_ZN5telux3tel22ImsSettingsManagerImpl24onImsServiceConfigChangeEP50ims_settings_ims_service_enable_config_ind_msg_v016SlotId=so_stub_for_libtelux_tel
-Wl,--defsym=_ZN5telux3tel22ImsSettingsManagerImpl24onImsServiceStatusChangeENS_6common13ServiceStatusE=so_stub_for_libtelux_tel
-Wl,--defsym=_ZN5telux3tel22ImsSettingsManagerImpl24onSetUserAgentConfigRespE6SlotIdP43ims_settings_set_ims_new_config_rsp_msg_v01Pvi=so_stub_for_libtelux_tel
-Wl,--defsym=_ZN5telux3tel22ImsSettingsManagerImpl25onSetImsServiceConfigRespE6SlotIdP54ims_settings_set_ims_service_enable_config_rsp_msg_v01Pvi=so_stub_for_libtelux_tel
-Wl,--defsym=_ZN5telux3tel22ImsSettingsManagerImpl25setServiceStatusAndNotifyEv=so_stub_for_libtelux_tel
-Wl,--defsym=_ZN5telux3tel22ImsSettingsManagerImpl26ImssettingRespTypeToStringB5cxx11E25ims_settings_rsp_enum_v01=so_stub_for_libtelux_tel
-Wl,--defsym=_ZN5telux3tel22ImsSettingsManagerImpl29onRequestImsServiceConfigRespE6SlotIdP54ims_settings_get_ims_service_enable_config_rsp_msg_v01Pvi=so_stub_for_libtelux_tel
-Wl,--defsym=_ZN5telux3tel22ImsSettingsManagerImpl31notifyImsServiceConfigChangeIndENS0_16ImsServiceConfigE6SlotId=so_stub_for_libtelux_tel
-Wl,--defsym=_ZN5telux3tel22ImsSettingsManagerImpl4initESt8functionIFvNS_6common13ServiceStatusEEE=so_stub_for_libtelux_tel
-Wl,--defsym=_ZN5telux3tel22ImsSettingsManagerImpl7cleanupEb=so_stub_for_libtelux_tel
-Wl,--defsym=_ZN5telux3tel22ImsSettingsManagerImpl7initRilEv=so_stub_for_libtelux_tel
-Wl,--defsym=_ZN5telux3tel22ImsSettingsManagerImpl8initImssEv=so_stub_for_libtelux_tel
-Wl,--defsym=_ZN5telux3tel22ImsSettingsManagerImplC1Ev=so_stub_for_libtelux_tel
-Wl,--defsym=_ZN5telux3tel22ImsSettingsManagerImplC2Ev=so_stub_for_libtelux_tel
-Wl,--defsym=_ZN5telux3tel22ImsSettingsManagerImplD0Ev=so_stub_for_libtelux_tel
-Wl,--defsym=_ZN5telux3tel22ImsSettingsManagerImplD1Ev=so_stub_for_libtelux_tel
-Wl,--defsym=_ZN5telux3tel22ImsSettingsManagerImplD2Ev=so_stub_for_libtelux_tel
-Wl,--defsym=_ZN5telux3tel22MultiSimManagerWrapper12getSlotCountERi=so_stub_for_libtelux_tel
-Wl,--defsym=_ZN5telux3tel22MultiSimManagerWrapper16getServiceStatusEv=so_stub_for_libtelux_tel
-Wl,--defsym=_ZN5telux3tel22MultiSimManagerWrapper16isSubsystemReadyEv=so_stub_for_libtelux_tel
-Wl,--defsym=_ZN5telux3tel22MultiSimManagerWrapper16onSubsystemReadyEv=so_stub_for_libtelux_tel
-Wl,--defsym=_ZN5telux3tel22MultiSimManagerWrapper16registerListenerESt8weak_ptrINS0_17IMultiSimListenerEE=so_stub_for_libtelux_tel
-Wl,--defsym=_ZN5telux3tel22MultiSimManagerWrapper16switchActiveSlotE6SlotIdSt8functionIFvNS_6common9ErrorCodeEEE=so_stub_for_libtelux_tel
-Wl,--defsym=_ZN5telux3tel22MultiSimManagerWrapper17requestSlotStatusESt8functionIFvSt3mapI6SlotIdNS0_10SlotStatusESt4lessIS4_ESaISt4pairIKS4_S5_EEENS_6common9ErrorCodeEEE=so_stub_for_libtelux_tel
-Wl,--defsym=_ZN5telux3tel22MultiSimManagerWrapper17setHighCapabilityEiSt8functionIFvNS_6common9ErrorCodeEEE=so_stub_for_libtelux_tel
-Wl,--defsym=_ZN5telux3tel22MultiSimManagerWrapper18deregisterListenerESt8weak_ptrINS0_17IMultiSimListenerEE=so_stub_for_libtelux_tel
-Wl,--defsym=_ZN5telux3tel22MultiSimManagerWrapper21requestHighCapabilityESt8functionIFviNS_6common9ErrorCodeEEE=so_stub_for_libtelux_tel
-Wl,--defsym=_ZN5telux3tel22MultiSimManagerWrapper4initEv=so_stub_for_libtelux_tel
-Wl,--defsym=_ZN5telux3tel22MultiSimManagerWrapper7cleanupEv=so_stub_for_libtelux_tel
-Wl,--defsym=_ZN5telux3tel22MultiSimManagerWrapperC1Ev=so_stub_for_libtelux_tel
-Wl,--defsym=_ZN5telux3tel22MultiSimManagerWrapperC2Ev=so_stub_for_libtelux_tel
-Wl,--defsym=_ZN5telux3tel22MultiSimManagerWrapperD0Ev=so_stub_for_libtelux_tel
-Wl,--defsym=_ZN5telux3tel22MultiSimManagerWrapperD1Ev=so_stub_for_libtelux_tel
-Wl,--defsym=_ZN5telux3tel22MultiSimManagerWrapperD2Ev=so_stub_for_libtelux_tel
-Wl,--defsym=_ZN5telux3tel22Nr5gSignalStrengthInfoC1Eiii=so_stub_for_libtelux_tel
-Wl,--defsym=_ZN5telux3tel22Nr5gSignalStrengthInfoC2Eiii=so_stub_for_libtelux_tel
-Wl,--defsym=_ZN5telux3tel23ApSimProfileManagerImpl16getServiceStatusEv=so_stub_for_libtelux_tel
-Wl,--defsym=_ZN5telux3tel23ApSimProfileManagerImpl16registerListenerESt8weak_ptrINS0_21IApSimProfileListenerEE=so_stub_for_libtelux_tel
-Wl,--defsym=_ZN5telux3tel23ApSimProfileManagerImpl18deregisterListenerESt8weak_ptrINS0_21IApSimProfileListenerEE=so_stub_for_libtelux_tel
-Wl,--defsym=_ZN5telux3tel23ApSimProfileManagerImpl21onServiceStatusChangeENS_6common13ServiceStatusE=so_stub_for_libtelux_tel
-Wl,--defsym=_ZN5telux3tel23ApSimProfileManagerImpl23handleSolicitedResponseESt10shared_ptrINS_6common6ResultEE=so_stub_for_libtelux_tel
-Wl,--defsym=_ZN5telux3tel23ApSimProfileManagerImpl24handleServiceStateChangeENS_6common13ServiceStatusE=so_stub_for_libtelux_tel
-Wl,--defsym=_ZN5telux3tel23ApSimProfileManagerImpl25handleUnsolicitedResponseESt10shared_ptrINS_6common6ResultEE=so_stub_for_libtelux_tel
-Wl,--defsym=_ZN5telux3tel23ApSimProfileManagerImpl25setServiceStatusAndNotifyENS_6common13ServiceStatusE=so_stub_for_libtelux_tel
-Wl,--defsym=_ZN5telux3tel23ApSimProfileManagerImpl28sendProfileOperationResponseE6SlotIdNS0_18ApduExchangeStatusEjSt8functionIFvNS_6common9ErrorCodeEEE=so_stub_for_libtelux_tel
-Wl,--defsym=_ZN5telux3tel23ApSimProfileManagerImpl29notifyProfileOperationRequestE6SlotIdjNSt7__cxx1112basic_stringIcSt11char_traitsIcESaIcEEEb=so_stub_for_libtelux_tel
-Wl,--defsym=_ZN5telux3tel23ApSimProfileManagerImpl31handleProfileListResponseResultEiSt10shared_ptrINS_6common16ICommandCallbackEE=so_stub_for_libtelux_tel
-Wl,--defsym=_ZN5telux3tel23ApSimProfileManagerImpl31sendRetrieveProfileListResponseE6SlotIdNS0_18ApduExchangeStatusEjSt6vectorINSt7__cxx1112basic_stringIcSt11char_traitsIcESaIcEEESaISA_EESt8functionIFvNS_6common9ErrorCodeEEE=so_stub_for_libtelux_tel
-Wl,--defsym=_ZN5telux3tel23ApSimProfileManagerImpl32notifyRetrieveProfileListRequestE6SlotIdj=so_stub_for_libtelux_tel
-Wl,--defsym=_ZN5telux3tel23ApSimProfileManagerImpl36handleProfileOperationResponseResultEiSt10shared_ptrINS_6common16ICommandCallbackEE=so_stub_for_libtelux_tel
-Wl,--defsym=_ZN5telux3tel23ApSimProfileManagerImpl4initESt8functionIFvNS_6common13ServiceStatusEEE=so_stub_for_libtelux_tel
-Wl,--defsym=_ZN5telux3tel23ApSimProfileManagerImpl7cleanupEb=so_stub_for_libtelux_tel
-Wl,--defsym=_ZN5telux3tel23ApSimProfileManagerImpl8initSyncEv=so_stub_for_libtelux_tel
-Wl,--defsym=_ZN5telux3tel23ApSimProfileManagerImplC1Ev=so_stub_for_libtelux_tel
-Wl,--defsym=_ZN5telux3tel23ApSimProfileManagerImplC2Ev=so_stub_for_libtelux_tel
-Wl,--defsym=_ZN5telux3tel23ApSimProfileManagerImplD0Ev=so_stub_for_libtelux_tel
-Wl,--defsym=_ZN5telux3tel23ApSimProfileManagerImplD1Ev=so_stub_for_libtelux_tel
-Wl,--defsym=_ZN5telux3tel23ApSimProfileManagerImplD2Ev=so_stub_for_libtelux_tel
-Wl,--defsym=_ZN5telux3tel23NetworkSelectionManager10onResponseEiPvi=so_stub_for_libtelux_tel
-Wl,--defsym=_ZN5telux3tel23NetworkSelectionManager10onResponseEP37nas_perform_network_scan_resp_msg_v01Pvi=so_stub_for_libtelux_tel
-Wl,--defsym=_ZN5telux3tel23NetworkSelectionManager10onResponseEP39nas_get_preferred_networks_resp_msg_v01Pvi=so_stub_for_libtelux_tel
-Wl,--defsym=_ZN5telux3tel23NetworkSelectionManager13convertSlotIdERK6SlotId=so_stub_for_libtelux_tel
-Wl,--defsym=_ZN5telux3tel23NetworkSelectionManager16getServiceStatusEv=so_stub_for_libtelux_tel
-Wl,--defsym=_ZN5telux3tel23NetworkSelectionManager16isSubsystemReadyEv=so_stub_for_libtelux_tel
-Wl,--defsym=_ZN5telux3tel23NetworkSelectionManager16onSubsystemReadyEv=so_stub_for_libtelux_tel
-Wl,--defsym=_ZN5telux3tel23NetworkSelectionManager16registerListenerESt8weak_ptrINS0_25INetworkSelectionListenerEE=so_stub_for_libtelux_tel
-Wl,--defsym=_ZN5telux3tel23NetworkSelectionManager16setNrDubiousCellERKSt6vectorINS0_13NrDubiousCellESaIS3_EE=so_stub_for_libtelux_tel
-Wl,--defsym=_ZN5telux3tel23NetworkSelectionManager17setLteDubiousCellERKSt6vectorINS0_14LteDubiousCellESaIS3_EE=so_stub_for_libtelux_tel
-Wl,--defsym=_ZN5telux3tel23NetworkSelectionManager18deregisterListenerESt8weak_ptrINS0_25INetworkSelectionListenerEE=so_stub_for_libtelux_tel
-Wl,--defsym=_ZN5telux3tel23NetworkSelectionManager18performNetworkScanENS0_15NetworkScanInfoESt8functionIFvNS_6common9ErrorCodeEEE=so_stub_for_libtelux_tel
-Wl,--defsym=_ZN5telux3tel23NetworkSelectionManager18performNetworkScanESt8functionIFvSt6vectorINS0_12OperatorInfoESaIS4_EENS_6common9ErrorCodeEEE=so_stub_for_libtelux_tel
-Wl,--defsym=_ZN5telux3tel23NetworkSelectionManager20convertNetworkStatusEh=so_stub_for_libtelux_tel
-Wl,--defsym=_ZN5telux3tel23NetworkSelectionManager20convertQmsActiveBandERKNS0_6RFBandE=so_stub_for_libtelux_tel
-Wl,--defsym=_ZN5telux3tel23NetworkSelectionManager20convertToScsCellInfoERKSt6vectorINS0_13NrDubiousCellESaIS3_EERP22nr_dubious_cell_info_s=so_stub_for_libtelux_tel
-Wl,--defsym=_ZN5telux3tel23NetworkSelectionManager20setPreferredNetworksESt6vectorINS0_20PreferredNetworkInfoESaIS3_EEbSt8functionIFvNS_6common9ErrorCodeEEE=so_stub_for_libtelux_tel
-Wl,--defsym=_ZN5telux3tel23NetworkSelectionManager21waitForInitializationEv=so_stub_for_libtelux_tel
-Wl,--defsym=_ZN5telux3tel23NetworkSelectionManager22convertToQmsDbCellInfoINS0_13NrDubiousCellE22nr_dubious_cell_info_sEENS_6common6StatusERKSt6vectorIT_SaIS8_EERPT0_=so_stub_for_libtelux_tel
-Wl,--defsym=_ZN5telux3tel23NetworkSelectionManager22convertToQmsDbCellInfoINS0_14LteDubiousCellE23lte_dubious_cell_info_sEENS_6common6StatusERKSt6vectorIT_SaIS8_EERPT0_=so_stub_for_libtelux_tel
-Wl,--defsym=_ZN5telux3tel23NetworkSelectionManager23setNetworkSelectionModeENS0_20NetworkSelectionModeENSt7__cxx1112basic_stringIcSt11char_traitsIcESaIcEEES8_St8functionIFvNS_6common9ErrorCodeEEE=so_stub_for_libtelux_tel
-Wl,--defsym=_ZN5telux3tel23NetworkSelectionManager24onNasServiceStatusChangeENS_6common13ServiceStatusE=so_stub_for_libtelux_tel
-Wl,--defsym=_ZN5telux3tel23NetworkSelectionManager24onQmsServiceStatusChangeENS_6common13ServiceStatusE=so_stub_for_libtelux_tel
-Wl,--defsym=_ZN5telux3tel23NetworkSelectionManager24requestPreferredNetworksESt8functionIFvSt6vectorINS0_20PreferredNetworkInfoESaIS4_EES6_NS_6common9ErrorCodeEEE=so_stub_for_libtelux_tel
-Wl,--defsym=_ZN5telux3tel23NetworkSelectionManager25convertQmsDbCellCauseCodeESt6bitsetILm32EE=so_stub_for_libtelux_tel
-Wl,--defsym=_ZN5telux3tel23NetworkSelectionManager25setServiceStatusAndNotifyENS_6common13ServiceStatusE=so_stub_for_libtelux_tel
-Wl,--defsym=_ZN5telux3tel23NetworkSelectionManager27convertNetworkSelectionModeE25nas_net_sel_pref_enum_v01=so_stub_for_libtelux_tel
-Wl,--defsym=_ZN5telux3tel23NetworkSelectionManager27onIncrementalNetworkScanIndEP48nas_perform_incremental_network_scan_ind_msg_v01=so_stub_for_libtelux_tel
-Wl,--defsym=_ZN5telux3tel23NetworkSelectionManager27requestNetworkSelectionModeESt8functionIFvNS0_15NetworkModeInfoENS_6common9ErrorCodeEEE=so_stub_for_libtelux_tel
-Wl,--defsym=_ZN5telux3tel23NetworkSelectionManager27requestNetworkSelectionModeESt8functionIFvNS0_20NetworkSelectionModeENS_6common9ErrorCodeEEE=so_stub_for_libtelux_tel
-Wl,--defsym=_ZN5telux3tel23NetworkSelectionManager28convertNetworkScanResultTypeE24nas_scan_status_enum_v01=so_stub_for_libtelux_tel
-Wl,--defsym=_ZN5telux3tel23NetworkSelectionManager29networkScanRatInfoToRadioTechEi=so_stub_for_libtelux_tel
-Wl,--defsym=_ZN5telux3tel23NetworkSelectionManager34onSystemSelectionPreferenceChangedEP43nas_system_selection_preference_ind_msg_v01=so_stub_for_libtelux_tel
-Wl,--defsym=_ZN5telux3tel23NetworkSelectionManager35onSystemSelectionPreferenceResponseEP48nas_get_system_selection_preference_resp_msg_v01Pvib=so_stub_for_libtelux_tel
-Wl,--defsym=_ZN5telux3tel23NetworkSelectionManager4initESt8functionIFvNS_6common13ServiceStatusEEE=so_stub_for_libtelux_tel
-Wl,--defsym=_ZN5telux3tel23NetworkSelectionManager7cleanupEb=so_stub_for_libtelux_tel
-Wl,--defsym=_ZN5telux3tel23NetworkSelectionManager8initSyncEv=so_stub_for_libtelux_tel
-Wl,--defsym=_ZN5telux3tel23NetworkSelectionManagerC1Ei=so_stub_for_libtelux_tel
-Wl,--defsym=_ZN5telux3tel23NetworkSelectionManagerC2Ei=so_stub_for_libtelux_tel
-Wl,--defsym=_ZN5telux3tel23NetworkSelectionManagerD0Ev=so_stub_for_libtelux_tel
-Wl,--defsym=_ZN5telux3tel23NetworkSelectionManagerD1Ev=so_stub_for_libtelux_tel
-Wl,--defsym=_ZN5telux3tel23NetworkSelectionManagerD2Ev=so_stub_for_libtelux_tel
-Wl,--defsym=_ZN5telux3tel23RemoteSimManagerWrapper13sendCardErrorENS0_14CardErrorCauseESt8functionIFvNS_6common9ErrorCodeEEE=so_stub_for_libtelux_tel
-Wl,--defsym=_ZN5telux3tel23RemoteSimManagerWrapper13sendCardResetERKSt6vectorIhSaIhEESt8functionIFvNS_6common9ErrorCodeEEE=so_stub_for_libtelux_tel
-Wl,--defsym=_ZN5telux3tel23RemoteSimManagerWrapper14sendCardWakeupESt8functionIFvNS_6common9ErrorCodeEEE=so_stub_for_libtelux_tel
-Wl,--defsym=_ZN5telux3tel23RemoteSimManagerWrapper15sendCardRemovedESt8functionIFvNS_6common9ErrorCodeEEE=so_stub_for_libtelux_tel
-Wl,--defsym=_ZN5telux3tel23RemoteSimManagerWrapper16getServiceStatusEv=so_stub_for_libtelux_tel
-Wl,--defsym=_ZN5telux3tel23RemoteSimManagerWrapper16isSubsystemReadyEv=so_stub_for_libtelux_tel
-Wl,--defsym=_ZN5telux3tel23RemoteSimManagerWrapper16onSubsystemReadyEv=so_stub_for_libtelux_tel
-Wl,--defsym=_ZN5telux3tel23RemoteSimManagerWrapper16registerListenerESt8weak_ptrINS0_18IRemoteSimListenerEE=so_stub_for_libtelux_tel
-Wl,--defsym=_ZN5telux3tel23RemoteSimManagerWrapper16sendCardInsertedERKSt6vectorIhSaIhEESt8functionIFvNS_6common9ErrorCodeEEE=so_stub_for_libtelux_tel
-Wl,--defsym=_ZN5telux3tel23RemoteSimManagerWrapper18deregisterListenerESt8weak_ptrINS0_18IRemoteSimListenerEE=so_stub_for_libtelux_tel
-Wl,--defsym=_ZN5telux3tel23RemoteSimManagerWrapper23sendConnectionAvailableESt8functionIFvNS_6common9ErrorCodeEEE=so_stub_for_libtelux_tel
-Wl,--defsym=_ZN5telux3tel23RemoteSimManagerWrapper25sendConnectionUnavailableESt8functionIFvNS_6common9ErrorCodeEEE=so_stub_for_libtelux_tel
-Wl,--defsym=_ZN5telux3tel23RemoteSimManagerWrapper4initEi=so_stub_for_libtelux_tel
-Wl,--defsym=_ZN5telux3tel23RemoteSimManagerWrapper7cleanupEv=so_stub_for_libtelux_tel
-Wl,--defsym=_ZN5telux3tel23RemoteSimManagerWrapper8sendApduEjRKSt6vectorIhSaIhEEbjjSt8functionIFvNS_6common9ErrorCodeEEE=so_stub_for_libtelux_tel
-Wl,--defsym=_ZN5telux3tel23RemoteSimManagerWrapper9getSlotIdEv=so_stub_for_libtelux_tel
-Wl,--defsym=_ZN5telux3tel23RemoteSimManagerWrapper9sendResetESt8functionIFvNS_6common9ErrorCodeEEE=so_stub_for_libtelux_tel
-Wl,--defsym=_ZN5telux3tel23RemoteSimManagerWrapperC1Ev=so_stub_for_libtelux_tel
-Wl,--defsym=_ZN5telux3tel23RemoteSimManagerWrapperC2Ev=so_stub_for_libtelux_tel
-Wl,--defsym=_ZN5telux3tel23RemoteSimManagerWrapperD0Ev=so_stub_for_libtelux_tel
-Wl,--defsym=_ZN5telux3tel23RemoteSimManagerWrapperD1Ev=so_stub_for_libtelux_tel
-Wl,--defsym=_ZN5telux3tel23RemoteSimManagerWrapperD2Ev=so_stub_for_libtelux_tel
-Wl,--defsym=_ZN5telux3tel23SuppServicesManagerImpl10setOirPrefESt6bitsetILm8EENS0_18SuppServicesStatusESt8functionIFvNS_6common9ErrorCodeENS0_12FailureCauseEEE=so_stub_for_libtelux_tel
-Wl,--defsym=_ZN5telux3tel23SuppServicesManagerImpl14removeListenerESt8weak_ptrINS0_21ISuppServicesListenerEE=so_stub_for_libtelux_tel
-Wl,--defsym=_ZN5telux3tel23SuppServicesManagerImpl14requestOirPrefESt6bitsetILm8EESt8functionIFvNS0_18SuppServicesStatusENS0_22SuppSvcProvisionStatusENS0_12FailureCauseENS_6common9ErrorCodeEEE=so_stub_for_libtelux_tel
-Wl,--defsym=_ZN5telux3tel23SuppServicesManagerImpl16getServiceStatusEv=so_stub_for_libtelux_tel
-Wl,--defsym=_ZN5telux3tel23SuppServicesManagerImpl16registerListenerESt8weak_ptrINS0_21ISuppServicesListenerEE=so_stub_for_libtelux_tel
-Wl,--defsym=_ZN5telux3tel23SuppServicesManagerImpl17setForwardingPrefENS0_10ForwardReqESt8functionIFvNS_6common9ErrorCodeENS0_12FailureCauseEEE=so_stub_for_libtelux_tel
-Wl,--defsym=_ZN5telux3tel23SuppServicesManagerImpl18setCallWaitingPrefENS0_18SuppServicesStatusESt8functionIFvNS_6common9ErrorCodeENS0_12FailureCauseEEE=so_stub_for_libtelux_tel
-Wl,--defsym=_ZN5telux3tel23SuppServicesManagerImpl21requestForwardingPrefESt6bitsetILm8EENS0_13ForwardReasonESt8functionIFvSt6vectorINS0_11ForwardInfoESaIS7_EENS0_12FailureCauseENS_6common9ErrorCodeEEE=so_stub_for_libtelux_tel
-Wl,--defsym=_ZN5telux3tel23SuppServicesManagerImpl21requestForwardingPrefESt6bitsetILm8EENS0_13ForwardReasonESt8functionIFvSt6vectorINS0_11ForwardInfoESaIS7_EENS0_22SuppSvcProvisionStatusENS0_12FailureCauseENS_6common9ErrorCodeEEE=so_stub_for_libtelux_tel
-Wl,--defsym=_ZN5telux3tel23SuppServicesManagerImpl21sendGetForwardingPrefIJSt6vectorINS0_11ForwardInfoESaIS4_EENS0_12FailureCauseENS_6common9ErrorCodeEEEENS8_6StatusESt6bitsetILm8EENS0_13ForwardReasonESt8functionIFvDpT_EEb=so_stub_for_libtelux_tel
-Wl,--defsym=_ZN5telux3tel23SuppServicesManagerImpl21sendGetForwardingPrefIJSt6vectorINS0_11ForwardInfoESaIS4_EENS0_22SuppSvcProvisionStatusENS0_12FailureCauseENS_6common9ErrorCodeEEEENS9_6StatusESt6bitsetILm8EENS0_13ForwardReasonESt8functionIFvDpT_EEb=so_stub_for_libtelux_tel
-Wl,--defsym=_ZN5telux3tel23SuppServicesManagerImpl22onGetOIRStatusResponseEP27voice_get_clir_resp_msg_v02Pvi=so_stub_for_libtelux_tel
-Wl,--defsym=_ZN5telux3tel23SuppServicesManagerImpl22requestCallWaitingPrefESt8functionIFvNS0_18SuppServicesStatusENS0_12FailureCauseENS_6common9ErrorCodeEEE=so_stub_for_libtelux_tel
-Wl,--defsym=_ZN5telux3tel23SuppServicesManagerImpl22requestCallWaitingPrefESt8functionIFvNS0_18SuppServicesStatusENS0_22SuppSvcProvisionStatusENS0_12FailureCauseENS_6common9ErrorCodeEEE=so_stub_for_libtelux_tel
-Wl,--defsym=_ZN5telux3tel23SuppServicesManagerImpl22sendGetCallWaitingPrefIJNS0_18SuppServicesStatusENS0_12FailureCauseENS_6common9ErrorCodeEEEENS5_6StatusESt8functionIFvDpT_EEb=so_stub_for_libtelux_tel
-Wl,--defsym=_ZN5telux3tel23SuppServicesManagerImpl22sendGetCallWaitingPrefIJNS0_18SuppServicesStatusENS0_22SuppSvcProvisionStatusENS0_12FailureCauseENS_6common9ErrorCodeEEEENS6_6StatusESt8functionIFvDpT_EEb=so_stub_for_libtelux_tel
-Wl,--defsym=_ZN5telux3tel23SuppServicesManagerImpl24handleServiceStateChangeENS_6common13ServiceStatusE=so_stub_for_libtelux_tel
-Wl,--defsym=_ZN5telux3tel23SuppServicesManagerImpl25setServiceStatusAndNotifyENS_6common13ServiceStatusE=so_stub_for_libtelux_tel
-Wl,--defsym=_ZN5telux3tel23SuppServicesManagerImpl26onVoiceServiceStatusChangeENS_6common13ServiceStatusEi=so_stub_for_libtelux_tel
-Wl,--defsym=_ZN5telux3tel23SuppServicesManagerImpl27onGetForwardingPrefResponseEP38voice_get_call_forwarding_resp_msg_v02Pvi=so_stub_for_libtelux_tel
-Wl,--defsym=_ZN5telux3tel23SuppServicesManagerImpl28onGetCallWaitingPrefResponseEP35voice_get_call_waiting_resp_msg_v02Pvi=so_stub_for_libtelux_tel
-Wl,--defsym=_ZN5telux3tel23SuppServicesManagerImpl28onSetSupsServicePrefResponseEP35voice_set_sups_service_resp_msg_v02Pvi=so_stub_for_libtelux_tel
-Wl,--defsym=_ZN5telux3tel23SuppServicesManagerImpl4initESt8functionIFvNS_6common13ServiceStatusEEE=so_stub_for_libtelux_tel
-Wl,--defsym=_ZN5telux3tel23SuppServicesManagerImpl7cleanupEb=so_stub_for_libtelux_tel
-Wl,--defsym=_ZN5telux3tel23SuppServicesManagerImpl8initSyncEv=so_stub_for_libtelux_tel
-Wl,--defsym=_ZN5telux3tel23SuppServicesManagerImplC1E6SlotId=so_stub_for_libtelux_tel
-Wl,--defsym=_ZN5telux3tel23SuppServicesManagerImplC2E6SlotId=so_stub_for_libtelux_tel
-Wl,--defsym=_ZN5telux3tel23SuppServicesManagerImplD0Ev=so_stub_for_libtelux_tel
-Wl,--defsym=_ZN5telux3tel23SuppServicesManagerImplD1Ev=so_stub_for_libtelux_tel
-Wl,--defsym=_ZN5telux3tel23SuppServicesManagerImplD2Ev=so_stub_for_libtelux_tel
-Wl,--defsym=_ZN5telux3tel23WcdmaSignalStrengthInfoC1Eii=so_stub_for_libtelux_tel
-Wl,--defsym=_ZN5telux3tel23WcdmaSignalStrengthInfoC1Eiiii=so_stub_for_libtelux_tel
-Wl,--defsym=_ZN5telux3tel23WcdmaSignalStrengthInfoC2Eii=so_stub_for_libtelux_tel
-Wl,--defsym=_ZN5telux3tel23WcdmaSignalStrengthInfoC2Eiiii=so_stub_for_libtelux_tel
-Wl,--defsym=_ZN5telux3tel24CellBroadcastManagerImpl10parsePagesE9RadioTechSt10shared_ptrISt6vectorIS4_IhSaIhEESaIS6_EEEibRNSt7__cxx1112basic_stringIcSt11char_traitsIcESaIcEEESG_=so_stub_for_libtelux_tel
-Wl,--defsym=_ZN5telux3tel24CellBroadcastManagerImpl12createCbPdusE9RadioTechjjjjRSt6vectorIhSaIhEE=so_stub_for_libtelux_tel
-Wl,--defsym=_ZN5telux3tel24CellBroadcastManagerImpl13getCmasBufferERK28wms_event_report_ind_msg_v01=so_stub_for_libtelux_tel
-Wl,--defsym=_ZN5telux3tel24CellBroadcastManagerImpl15createCbMessageE9RadioTechjjjjRSt6vectorIhSaIhEESt10shared_ptrIS3_IS5_SaIS5_EEE=so_stub_for_libtelux_tel
-Wl,--defsym=_ZN5telux3tel24CellBroadcastManagerImpl15notifyCbMessageESt10shared_ptrINS0_20CellBroadcastMessageEE=so_stub_for_libtelux_tel
-Wl,--defsym=_ZN5telux3tel24CellBroadcastManagerImpl15removeCRPaddingERNSt7__cxx1112basic_stringIcSt11char_traitsIcESaIcEEE=so_stub_for_libtelux_tel
-Wl,--defsym=_ZN5telux3tel24CellBroadcastManagerImpl16getServiceStatusEv=so_stub_for_libtelux_tel
-Wl,--defsym=_ZN5telux3tel24CellBroadcastManagerImpl16isSubsystemReadyEv=so_stub_for_libtelux_tel
-Wl,--defsym=_ZN5telux3tel24CellBroadcastManagerImpl16onSubsystemReadyEv=so_stub_for_libtelux_tel
-Wl,--defsym=_ZN5telux3tel24CellBroadcastManagerImpl16registerListenerESt8weak_ptrINS0_22ICellBroadcastListenerEE=so_stub_for_libtelux_tel
-Wl,--defsym=_ZN5telux3tel24CellBroadcastManagerImpl18deregisterListenerESt8weak_ptrINS0_22ICellBroadcastListenerEE=so_stub_for_libtelux_tel
-Wl,--defsym=_ZN5telux3tel24CellBroadcastManagerImpl18handleSmsCbMessageE9RadioTechRK17CmasCellbroadcast=so_stub_for_libtelux_tel
-Wl,--defsym=_ZN5telux3tel24CellBroadcastManagerImpl19extractEncodingInfoEjRiRNSt7__cxx1112basic_stringIcSt11char_traitsIcESaIcEEERbS2_=so_stub_for_libtelux_tel
-Wl,--defsym=_ZN5telux3tel24CellBroadcastManagerImpl19handleETWSCbMessageE9RadioTechRSt6vectorIhSaIhEES6_=so_stub_for_libtelux_tel
-Wl,--defsym=_ZN5telux3tel24CellBroadcastManagerImpl19setActivationStatusEbSt8functionIFvNS_6common9ErrorCodeEEE=so_stub_for_libtelux_tel
-Wl,--defsym=_ZN5telux3tel24CellBroadcastManagerImpl20getWarningAreaBufferERK28wms_event_report_ind_msg_v01=so_stub_for_libtelux_tel
-Wl,--defsym=_ZN5telux3tel24CellBroadcastManagerImpl20updateMessageFiltersESt6vectorINS0_19CellBroadcastFilterESaIS3_EESt8functionIFvNS_6common9ErrorCodeEEE=so_stub_for_libtelux_tel
-Wl,--defsym=_ZN5telux3tel24CellBroadcastManagerImpl21byteBufferToHexStringB5cxx11ERKSt6vectorIhSaIhEE=so_stub_for_libtelux_tel
-Wl,--defsym=_ZN5telux3tel24CellBroadcastManagerImpl21getEtwsPrimaryMessageB5cxx11ENS0_15EtwsWarningTypeE=so_stub_for_libtelux_tel
-Wl,--defsym=_ZN5telux3tel24CellBroadcastManagerImpl21onGetCbConfigResponseEP37wms_get_broadcast_config_resp_msg_v01Pvi=so_stub_for_libtelux_tel
-Wl,--defsym=_ZN5telux3tel24CellBroadcastManagerImpl21onSetCbConfigResponseEP37wms_set_broadcast_config_resp_msg_v01Pvi=so_stub_for_libtelux_tel
-Wl,--defsym=_ZN5telux3tel24CellBroadcastManagerImpl21requestMessageFiltersESt8functionIFvSt6vectorINS0_19CellBroadcastFilterESaIS4_EENS_6common9ErrorCodeEEE=so_stub_for_libtelux_tel
-Wl,--defsym=_ZN5telux3tel24CellBroadcastManagerImpl21waitForInitializationEv=so_stub_for_libtelux_tel
-Wl,--defsym=_ZN5telux3tel24CellBroadcastManagerImpl23onEventReportIndicationEP28wms_event_report_ind_msg_v01=so_stub_for_libtelux_tel
-Wl,--defsym=_ZN5telux3tel24CellBroadcastManagerImpl23requestActivationStatusESt8functionIFvbNS_6common9ErrorCodeEEE=so_stub_for_libtelux_tel
-Wl,--defsym=_ZN5telux3tel24CellBroadcastManagerImpl24onSetEventReportResponseEP33wms_set_event_report_resp_msg_v01Pvi=so_stub_for_libtelux_tel
-Wl,--defsym=_ZN5telux3tel24CellBroadcastManagerImpl24onWmsServiceStatusChangeENS_6common13ServiceStatusE=so_stub_for_libtelux_tel
-Wl,--defsym=_ZN5telux3tel24CellBroadcastManagerImpl25onSetCbActivationResponseEP41wms_set_broadcast_activation_resp_msg_v01Pvi=so_stub_for_libtelux_tel
-Wl,--defsym=_ZN5telux3tel24CellBroadcastManagerImpl25setServiceStatusAndNotifyENS_6common13ServiceStatusE=so_stub_for_libtelux_tel
-Wl,--defsym=_ZN5telux3tel24CellBroadcastManagerImpl26getBroadcastConfigurationsEPv=so_stub_for_libtelux_tel
-Wl,--defsym=_ZN5telux3tel24CellBroadcastManagerImpl27parseWarningAreaCoordinatesERSt6vectorIhSaIhEEi=so_stub_for_libtelux_tel
-Wl,--defsym=_ZN5telux3tel24CellBroadcastManagerImpl31onBroadcastConfigurationChangedEP32wms_broadcast_config_ind_msg_v01=so_stub_for_libtelux_tel
-Wl,--defsym=_ZN5telux3tel24CellBroadcastManagerImpl4initESt8functionIFvNS_6common13ServiceStatusEEE=so_stub_for_libtelux_tel
-Wl,--defsym=_ZN5telux3tel24CellBroadcastManagerImpl7cleanupEb=so_stub_for_libtelux_tel
-Wl,--defsym=_ZN5telux3tel24CellBroadcastManagerImpl7getHashB5cxx11Eii=so_stub_for_libtelux_tel
-Wl,--defsym=_ZN5telux3tel24CellBroadcastManagerImpl8initSyncEv=so_stub_for_libtelux_tel
-Wl,--defsym=_ZN5telux3tel24CellBroadcastManagerImpl9getSlotIdEv=so_stub_for_libtelux_tel
-Wl,--defsym=_ZN5telux3tel24CellBroadcastManagerImplC1E6SlotId=so_stub_for_libtelux_tel
-Wl,--defsym=_ZN5telux3tel24CellBroadcastManagerImplC2E6SlotId=so_stub_for_libtelux_tel
-Wl,--defsym=_ZN5telux3tel24CellBroadcastManagerImplD0Ev=so_stub_for_libtelux_tel
-Wl,--defsym=_ZN5telux3tel24CellBroadcastManagerImplD1Ev=so_stub_for_libtelux_tel
-Wl,--defsym=_ZN5telux3tel24CellBroadcastManagerImplD2Ev=so_stub_for_libtelux_tel
-Wl,--defsym=_ZN5telux3tel24CellularCapabilityHelper25cellularCapabilityFromQmiEP31dms_get_device_cap_resp_msg_v01RNS0_22CellularCapabilityInfoE=so_stub_for_libtelux_tel
-Wl,--defsym=_ZN5telux3tel24CellularCapabilityHelper26ratCapabilitiesMaskFromQmiEiRSt6bitsetILm16EE=so_stub_for_libtelux_tel
-Wl,--defsym=_ZN5telux3tel24CellularCapabilityHelper35voiceServiceTechnologiesMaskFromQmiEiRSt6bitsetILm16EE=so_stub_for_libtelux_tel
-Wl,--defsym=_ZN5telux3tel24Nb1NtnSignalStrengthInfoC1Eiiii=so_stub_for_libtelux_tel
-Wl,--defsym=_ZN5telux3tel24Nb1NtnSignalStrengthInfoC2Eiiii=so_stub_for_libtelux_tel
-Wl,--defsym=_ZN5telux3tel24SimProfileManagerWrapper10addProfileE6SlotIdRKNSt7__cxx1112basic_stringIcSt11char_traitsIcESaIcEEESA_bSt8functionIFvNS_6common9ErrorCodeEEE=so_stub_for_libtelux_tel
-Wl,--defsym=_ZN5telux3tel24SimProfileManagerWrapper10requestEidE6SlotIdSt8functionIFvNSt7__cxx1112basic_stringIcSt11char_traitsIcESaIcEEENS_6common9ErrorCodeEEE=so_stub_for_libtelux_tel
-Wl,--defsym=_ZN5telux3tel24SimProfileManagerWrapper10setProfileE6SlotIdibSt8functionIFvNS_6common9ErrorCodeEEE=so_stub_for_libtelux_tel
-Wl,--defsym=_ZN5telux3tel24SimProfileManagerWrapper11memoryResetE6SlotIdSt6bitsetILm64EESt8functionIFvNS_6common9ErrorCodeEEE=so_stub_for_libtelux_tel
-Wl,--defsym=_ZN5telux3tel24SimProfileManagerWrapper13deleteProfileE6SlotIdiSt8functionIFvNS_6common9ErrorCodeEEE=so_stub_for_libtelux_tel
-Wl,--defsym=_ZN5telux3tel24SimProfileManagerWrapper14updateNickNameE6SlotIdiRKNSt7__cxx1112basic_stringIcSt11char_traitsIcESaIcEEESt8functionIFvNS_6common9ErrorCodeEEE=so_stub_for_libtelux_tel
-Wl,--defsym=_ZN5telux3tel24SimProfileManagerWrapper16getServiceStatusEv=so_stub_for_libtelux_tel
-Wl,--defsym=_ZN5telux3tel24SimProfileManagerWrapper16isSubsystemReadyEv=so_stub_for_libtelux_tel
-Wl,--defsym=_ZN5telux3tel24SimProfileManagerWrapper16onSubsystemReadyEv=so_stub_for_libtelux_tel
-Wl,--defsym=_ZN5telux3tel24SimProfileManagerWrapper16registerListenerESt8weak_ptrINS0_19ISimProfileListenerEE=so_stub_for_libtelux_tel
-Wl,--defsym=_ZN5telux3tel24SimProfileManagerWrapper16setServerAddressE6SlotIdRKNSt7__cxx1112basic_stringIcSt11char_traitsIcESaIcEEESt8functionIFvNS_6common9ErrorCodeEEE=so_stub_for_libtelux_tel
-Wl,--defsym=_ZN5telux3tel24SimProfileManagerWrapper18deregisterListenerESt8weak_ptrINS0_19ISimProfileListenerEE=so_stub_for_libtelux_tel
-Wl,--defsym=_ZN5telux3tel24SimProfileManagerWrapper18provideUserConsentE6SlotIdbNS0_21UserConsentReasonTypeESt8functionIFvNS_6common9ErrorCodeEEE=so_stub_for_libtelux_tel
-Wl,--defsym=_ZN5telux3tel24SimProfileManagerWrapper18requestProfileListE6SlotIdSt8functionIFvRKSt6vectorISt10shared_ptrINS0_10SimProfileEESaIS7_EENS_6common9ErrorCodeEEE=so_stub_for_libtelux_tel
-Wl,--defsym=_ZN5telux3tel24SimProfileManagerWrapper20requestServerAddressE6SlotIdSt8functionIFvNSt7__cxx1112basic_stringIcSt11char_traitsIcESaIcEEES9_NS_6common9ErrorCodeEEE=so_stub_for_libtelux_tel
-Wl,--defsym=_ZN5telux3tel24SimProfileManagerWrapper23provideConfirmationCodeE6SlotIdNSt7__cxx1112basic_stringIcSt11char_traitsIcESaIcEEESt8functionIFvNS_6common9ErrorCodeEEE=so_stub_for_libtelux_tel
-Wl,--defsym=_ZN5telux3tel24SimProfileManagerWrapper4initEv=so_stub_for_libtelux_tel
-Wl,--defsym=_ZN5telux3tel24SimProfileManagerWrapper7cleanupEv=so_stub_for_libtelux_tel
-Wl,--defsym=_ZN5telux3tel24SimProfileManagerWrapperC1Ev=so_stub_for_libtelux_tel
-Wl,--defsym=_ZN5telux3tel24SimProfileManagerWrapperC2Ev=so_stub_for_libtelux_tel
-Wl,--defsym=_ZN5telux3tel24SimProfileManagerWrapperD0Ev=so_stub_for_libtelux_tel
-Wl,--defsym=_ZN5telux3tel24SimProfileManagerWrapperD1Ev=so_stub_for_libtelux_tel
-Wl,--defsym=_ZN5telux3tel24SimProfileManagerWrapperD2Ev=so_stub_for_libtelux_tel
-Wl,--defsym=_ZN5telux3tel25CallListWithLastFailCauseD1Ev=so_stub_for_libtelux_tel
-Wl,--defsym=_ZN5telux3tel25CallListWithLastFailCauseD2Ev=so_stub_for_libtelux_tel
-Wl,--defsym=_ZN5telux3tel25ImsSettingsManagerWrapper10toggleVonrE6SlotIdbSt8functionIFvNS_6common9ErrorCodeEEE=so_stub_for_libtelux_tel
-Wl,--defsym=_ZN5telux3tel25ImsSettingsManagerWrapper15setSipUserAgentE6SlotIdNSt7__cxx1112basic_stringIcSt11char_traitsIcESaIcEEESt8functionIFvNS_6common9ErrorCodeEEE=so_stub_for_libtelux_tel
-Wl,--defsym=_ZN5telux3tel25ImsSettingsManagerWrapper16getServiceStatusEv=so_stub_for_libtelux_tel
-Wl,--defsym=_ZN5telux3tel25ImsSettingsManagerWrapper16registerListenerESt8weak_ptrINS0_20IImsSettingsListenerEE=so_stub_for_libtelux_tel
-Wl,--defsym=_ZN5telux3tel25ImsSettingsManagerWrapper16setServiceConfigE6SlotIdNS0_16ImsServiceConfigESt8functionIFvNS_6common9ErrorCodeEEE=so_stub_for_libtelux_tel
-Wl,--defsym=_ZN5telux3tel25ImsSettingsManagerWrapper17requestVonrStatusE6SlotIdSt8functionIFvS2_bNS_6common9ErrorCodeEEE=so_stub_for_libtelux_tel
-Wl,--defsym=_ZN5telux3tel25ImsSettingsManagerWrapper18deregisterListenerESt8weak_ptrINS0_20IImsSettingsListenerEE=so_stub_for_libtelux_tel
-Wl,--defsym=_ZN5telux3tel25ImsSettingsManagerWrapper19requestSipUserAgentE6SlotIdSt8functionIFvS2_NSt7__cxx1112basic_stringIcSt11char_traitsIcESaIcEEENS_6common9ErrorCodeEEE=so_stub_for_libtelux_tel
-Wl,--defsym=_ZN5telux3tel25ImsSettingsManagerWrapper20requestServiceConfigE6SlotIdSt8functionIFvS2_NS0_16ImsServiceConfigENS_6common9ErrorCodeEEE=so_stub_for_libtelux_tel
-Wl,--defsym=_ZN5telux3tel25ImsSettingsManagerWrapper4initEv=so_stub_for_libtelux_tel
-Wl,--defsym=_ZN5telux3tel25ImsSettingsManagerWrapper7cleanupEv=so_stub_for_libtelux_tel
-Wl,--defsym=_ZN5telux3tel25ImsSettingsManagerWrapperC1Ev=so_stub_for_libtelux_tel
-Wl,--defsym=_ZN5telux3tel25ImsSettingsManagerWrapperC2Ev=so_stub_for_libtelux_tel
-Wl,--defsym=_ZN5telux3tel25ImsSettingsManagerWrapperD0Ev=so_stub_for_libtelux_tel
-Wl,--defsym=_ZN5telux3tel25ImsSettingsManagerWrapperD1Ev=so_stub_for_libtelux_tel
-Wl,--defsym=_ZN5telux3tel25ImsSettingsManagerWrapperD2Ev=so_stub_for_libtelux_tel
-Wl,--defsym=_ZN5telux3tel25TdscdmaSignalStrengthInfoC1Ei=so_stub_for_libtelux_tel
-Wl,--defsym=_ZN5telux3tel25TdscdmaSignalStrengthInfoC2Ei=so_stub_for_libtelux_tel
-Wl,--defsym=_ZN5telux3tel26ApSimProfileManagerWrapper16getServiceStatusEv=so_stub_for_libtelux_tel
-Wl,--defsym=_ZN5telux3tel26ApSimProfileManagerWrapper16registerListenerESt8weak_ptrINS0_21IApSimProfileListenerEE=so_stub_for_libtelux_tel
-Wl,--defsym=_ZN5telux3tel26ApSimProfileManagerWrapper18deregisterListenerESt8weak_ptrINS0_21IApSimProfileListenerEE=so_stub_for_libtelux_tel
-Wl,--defsym=_ZN5telux3tel26ApSimProfileManagerWrapper28sendProfileOperationResponseE6SlotIdNS0_18ApduExchangeStatusEjSt8functionIFvNS_6common9ErrorCodeEEE=so_stub_for_libtelux_tel
-Wl,--defsym=_ZN5telux3tel26ApSimProfileManagerWrapper31sendRetrieveProfileListResponseE6SlotIdNS0_18ApduExchangeStatusEjSt6vectorINSt7__cxx1112basic_stringIcSt11char_traitsIcESaIcEEESaISA_EESt8functionIFvNS_6common9ErrorCodeEEE=so_stub_for_libtelux_tel
-Wl,--defsym=_ZN5telux3tel26ApSimProfileManagerWrapper4initEv=so_stub_for_libtelux_tel
-Wl,--defsym=_ZN5telux3tel26ApSimProfileManagerWrapper7cleanupEv=so_stub_for_libtelux_tel
-Wl,--defsym=_ZN5telux3tel26ApSimProfileManagerWrapperC1Ev=so_stub_for_libtelux_tel
-Wl,--defsym=_ZN5telux3tel26ApSimProfileManagerWrapperC2Ev=so_stub_for_libtelux_tel
-Wl,--defsym=_ZN5telux3tel26ApSimProfileManagerWrapperD0Ev=so_stub_for_libtelux_tel
-Wl,--defsym=_ZN5telux3tel26ApSimProfileManagerWrapperD1Ev=so_stub_for_libtelux_tel
-Wl,--defsym=_ZN5telux3tel26ApSimProfileManagerWrapperD2Ev=so_stub_for_libtelux_tel
-Wl,--defsym=_ZN5telux3tel26HttpTransactionManagerImpl16getServiceStatusEv=so_stub_for_libtelux_tel
-Wl,--defsym=_ZN5telux3tel26HttpTransactionManagerImpl16registerListenerESt8weak_ptrINS0_24IHttpTransactionListenerEE=so_stub_for_libtelux_tel
-Wl,--defsym=_ZN5telux3tel26HttpTransactionManagerImpl18deregisterListenerESt8weak_ptrINS0_24IHttpTransactionListenerEE=so_stub_for_libtelux_tel
-Wl,--defsym=_ZN5telux3tel26HttpTransactionManagerImpl20onHttpTransactionIndERK32uim_http_transaction_ind_msg_v01=so_stub_for_libtelux_tel
-Wl,--defsym=_ZN5telux3tel26HttpTransactionManagerImpl23onSendHttpResetResponseEiPvi=so_stub_for_libtelux_tel
-Wl,--defsym=_ZN5telux3tel26HttpTransactionManagerImpl25sendHttpTransactionResultEjNS0_10HttpResultERKSt6vectorINS0_12CustomHeaderESaIS4_EERKS3_IhSaIhEESt8functionIFvNS_6common9ErrorCodeEEE=so_stub_for_libtelux_tel
-Wl,--defsym=_ZN5telux3tel26HttpTransactionManagerImpl25setServiceStatusAndNotifyENS_6common13ServiceStatusE=so_stub_for_libtelux_tel
-Wl,--defsym=_ZN5telux3tel26HttpTransactionManagerImpl28onUimHttpServiceStatusChangeENS_6common13ServiceStatusE=so_stub_for_libtelux_tel
-Wl,--defsym=_ZN5telux3tel26HttpTransactionManagerImpl35onSendHttpTransactionResultResponseEiPvi=so_stub_for_libtelux_tel
-Wl,--defsym=_ZN5telux3tel26HttpTransactionManagerImpl4initESt8functionIFvNS_6common13ServiceStatusEEE=so_stub_for_libtelux_tel
-Wl,--defsym=_ZN5telux3tel26HttpTransactionManagerImpl7cleanupEb=so_stub_for_libtelux_tel
-Wl,--defsym=_ZN5telux3tel26HttpTransactionManagerImpl8initSyncEv=so_stub_for_libtelux_tel
-Wl,--defsym=_ZN5telux3tel26HttpTransactionManagerImplC1Ev=so_stub_for_libtelux_tel
-Wl,--defsym=_ZN5telux3tel26HttpTransactionManagerImplC2Ev=so_stub_for_libtelux_tel
-Wl,--defsym=_ZN5telux3tel26HttpTransactionManagerImplD0Ev=so_stub_for_libtelux_tel
-Wl,--defsym=_ZN5telux3tel26HttpTransactionManagerImplD1Ev=so_stub_for_libtelux_tel
-Wl,--defsym=_ZN5telux3tel26HttpTransactionManagerImplD2Ev=so_stub_for_libtelux_tel
-Wl,--defsym=_ZN5telux3tel26IVoiceServiceStateCallback25voiceServiceStateResponseERKSt10shared_ptrINS0_16VoiceServiceInfoEENS_6common9ErrorCodeE=so_stub_for_libtelux_tel
-Wl,--defsym=_ZN5telux3tel26IVoiceServiceStateCallbackD0Ev=so_stub_for_libtelux_tel
-Wl,--defsym=_ZN5telux3tel26IVoiceServiceStateCallbackD1Ev=so_stub_for_libtelux_tel
-Wl,--defsym=_ZN5telux3tel26IVoiceServiceStateCallbackD2Ev=so_stub_for_libtelux_tel
-Wl,--defsym=_ZN5telux3tel26SubscriptionManagerWrapper14removeListenerESt8weak_ptrINS0_21ISubscriptionListenerEE=so_stub_for_libtelux_tel
-Wl,--defsym=_ZN5telux3tel26SubscriptionManagerWrapper15getSubscriptionEiPNS_6common6StatusE=so_stub_for_libtelux_tel
-Wl,--defsym=_ZN5telux3tel26SubscriptionManagerWrapper16getServiceStatusEv=so_stub_for_libtelux_tel
-Wl,--defsym=_ZN5telux3tel26SubscriptionManagerWrapper16isSubsystemReadyEv=so_stub_for_libtelux_tel
-Wl,--defsym=_ZN5telux3tel26SubscriptionManagerWrapper16onSubsystemReadyEv=so_stub_for_libtelux_tel
-Wl,--defsym=_ZN5telux3tel26SubscriptionManagerWrapper16registerListenerESt8weak_ptrINS0_21ISubscriptionListenerEE=so_stub_for_libtelux_tel
-Wl,--defsym=_ZN5telux3tel26SubscriptionManagerWrapper19getAllSubscriptionsEPNS_6common6StatusE=so_stub_for_libtelux_tel
-Wl,--defsym=_ZN5telux3tel26SubscriptionManagerWrapper4initEv=so_stub_for_libtelux_tel
-Wl,--defsym=_ZN5telux3tel26SubscriptionManagerWrapper7cleanupEv=so_stub_for_libtelux_tel
-Wl,--defsym=_ZN5telux3tel26SubscriptionManagerWrapperC1Ev=so_stub_for_libtelux_tel
-Wl,--defsym=_ZN5telux3tel26SubscriptionManagerWrapperC2Ev=so_stub_for_libtelux_tel
-Wl,--defsym=_ZN5telux3tel26SubscriptionManagerWrapperD0Ev=so_stub_for_libtelux_tel
-Wl,--defsym=_ZN5telux3tel26SubscriptionManagerWrapperD1Ev=so_stub_for_libtelux_tel
-Wl,--defsym=_ZN5telux3tel26SubscriptionManagerWrapperD2Ev=so_stub_for_libtelux_tel
-Wl,--defsym=_ZN5telux3tel26SuppServicesManagerWrapper10setOirPrefESt6bitsetILm8EENS0_18SuppServicesStatusESt8functionIFvNS_6common9ErrorCodeENS0_12FailureCauseEEE=so_stub_for_libtelux_tel
-Wl,--defsym=_ZN5telux3tel26SuppServicesManagerWrapper14removeListenerESt8weak_ptrINS0_21ISuppServicesListenerEE=so_stub_for_libtelux_tel
-Wl,--defsym=_ZN5telux3tel26SuppServicesManagerWrapper14requestOirPrefESt6bitsetILm8EESt8functionIFvNS0_18SuppServicesStatusENS0_22SuppSvcProvisionStatusENS0_12FailureCauseENS_6common9ErrorCodeEEE=so_stub_for_libtelux_tel
-Wl,--defsym=_ZN5telux3tel26SuppServicesManagerWrapper16getServiceStatusEv=so_stub_for_libtelux_tel
-Wl,--defsym=_ZN5telux3tel26SuppServicesManagerWrapper16registerListenerESt8weak_ptrINS0_21ISuppServicesListenerEE=so_stub_for_libtelux_tel
-Wl,--defsym=_ZN5telux3tel26SuppServicesManagerWrapper17setForwardingPrefENS0_10ForwardReqESt8functionIFvNS_6common9ErrorCodeENS0_12FailureCauseEEE=so_stub_for_libtelux_tel
-Wl,--defsym=_ZN5telux3tel26SuppServicesManagerWrapper18setCallWaitingPrefENS0_18SuppServicesStatusESt8functionIFvNS_6common9ErrorCodeENS0_12FailureCauseEEE=so_stub_for_libtelux_tel
-Wl,--defsym=_ZN5telux3tel26SuppServicesManagerWrapper21requestForwardingPrefESt6bitsetILm8EENS0_13ForwardReasonESt8functionIFvSt6vectorINS0_11ForwardInfoESaIS7_EENS0_12FailureCauseENS_6common9ErrorCodeEEE=so_stub_for_libtelux_tel
-Wl,--defsym=_ZN5telux3tel26SuppServicesManagerWrapper21requestForwardingPrefESt6bitsetILm8EENS0_13ForwardReasonESt8functionIFvSt6vectorINS0_11ForwardInfoESaIS7_EENS0_22SuppSvcProvisionStatusENS0_12FailureCauseENS_6common9ErrorCodeEEE=so_stub_for_libtelux_tel
-Wl,--defsym=_ZN5telux3tel26SuppServicesManagerWrapper22requestCallWaitingPrefESt8functionIFvNS0_18SuppServicesStatusENS0_12FailureCauseENS_6common9ErrorCodeEEE=so_stub_for_libtelux_tel
-Wl,--defsym=_ZN5telux3tel26SuppServicesManagerWrapper22requestCallWaitingPrefESt8functionIFvNS0_18SuppServicesStatusENS0_22SuppSvcProvisionStatusENS0_12FailureCauseENS_6common9ErrorCodeEEE=so_stub_for_libtelux_tel
-Wl,--defsym=_ZN5telux3tel26SuppServicesManagerWrapper4initE6SlotId=so_stub_for_libtelux_tel
-Wl,--defsym=_ZN5telux3tel26SuppServicesManagerWrapper7cleanupEv=so_stub_for_libtelux_tel
-Wl,--defsym=_ZN5telux3tel26SuppServicesManagerWrapperC1Ev=so_stub_for_libtelux_tel
-Wl,--defsym=_ZN5telux3tel26SuppServicesManagerWrapperC2Ev=so_stub_for_libtelux_tel
-Wl,--defsym=_ZN5telux3tel26SuppServicesManagerWrapperD0Ev=so_stub_for_libtelux_tel
-Wl,--defsym=_ZN5telux3tel26SuppServicesManagerWrapperD1Ev=so_stub_for_libtelux_tel
-Wl,--defsym=_ZN5telux3tel26SuppServicesManagerWrapperD2Ev=so_stub_for_libtelux_tel
-Wl,--defsym=_ZN5telux3tel27CellBroadcastManagerWrapper16getServiceStatusEv=so_stub_for_libtelux_tel
-Wl,--defsym=_ZN5telux3tel27CellBroadcastManagerWrapper16isSubsystemReadyEv=so_stub_for_libtelux_tel
-Wl,--defsym=_ZN5telux3tel27CellBroadcastManagerWrapper16onSubsystemReadyEv=so_stub_for_libtelux_tel
-Wl,--defsym=_ZN5telux3tel27CellBroadcastManagerWrapper16registerListenerESt8weak_ptrINS0_22ICellBroadcastListenerEE=so_stub_for_libtelux_tel
-Wl,--defsym=_ZN5telux3tel27CellBroadcastManagerWrapper18deregisterListenerESt8weak_ptrINS0_22ICellBroadcastListenerEE=so_stub_for_libtelux_tel
-Wl,--defsym=_ZN5telux3tel27CellBroadcastManagerWrapper19setActivationStatusEbSt8functionIFvNS_6common9ErrorCodeEEE=so_stub_for_libtelux_tel
-Wl,--defsym=_ZN5telux3tel27CellBroadcastManagerWrapper20updateMessageFiltersESt6vectorINS0_19CellBroadcastFilterESaIS3_EESt8functionIFvNS_6common9ErrorCodeEEE=so_stub_for_libtelux_tel
-Wl,--defsym=_ZN5telux3tel27CellBroadcastManagerWrapper21requestMessageFiltersESt8functionIFvSt6vectorINS0_19CellBroadcastFilterESaIS4_EENS_6common9ErrorCodeEEE=so_stub_for_libtelux_tel
-Wl,--defsym=_ZN5telux3tel27CellBroadcastManagerWrapper23requestActivationStatusESt8functionIFvbNS_6common9ErrorCodeEEE=so_stub_for_libtelux_tel
-Wl,--defsym=_ZN5telux3tel27CellBroadcastManagerWrapper4initE6SlotId=so_stub_for_libtelux_tel
-Wl,--defsym=_ZN5telux3tel27CellBroadcastManagerWrapper7cleanupEv=so_stub_for_libtelux_tel
-Wl,--defsym=_ZN5telux3tel27CellBroadcastManagerWrapper9getSlotIdEv=so_stub_for_libtelux_tel
-Wl,--defsym=_ZN5telux3tel27CellBroadcastManagerWrapperC1Ev=so_stub_for_libtelux_tel
-Wl,--defsym=_ZN5telux3tel27CellBroadcastManagerWrapperC2Ev=so_stub_for_libtelux_tel
-Wl,--defsym=_ZN5telux3tel27CellBroadcastManagerWrapperD0Ev=so_stub_for_libtelux_tel
-Wl,--defsym=_ZN5telux3tel27CellBroadcastManagerWrapperD1Ev=so_stub_for_libtelux_tel
-Wl,--defsym=_ZN5telux3tel27CellBroadcastManagerWrapperD2Ev=so_stub_for_libtelux_tel
-Wl,--defsym=_ZN5telux3tel27ImsServingSystemManagerImpl16convertQmiRegRatE21imsa_sys_rat_enum_v01=so_stub_for_libtelux_tel
-Wl,--defsym=_ZN5telux3tel27ImsServingSystemManagerImpl16getServiceStatusEv=so_stub_for_libtelux_tel
-Wl,--defsym=_ZN5telux3tel27ImsServingSystemManagerImpl16registerListenerESt8weak_ptrINS0_25IImsServingSystemListenerEE=so_stub_for_libtelux_tel
-Wl,--defsym=_ZN5telux3tel27ImsServingSystemManagerImpl16requestPdpStatusESt8functionIFvNS0_16ImsPdpStatusInfoENS_6common9ErrorCodeEEE=so_stub_for_libtelux_tel
-Wl,--defsym=_ZN5telux3tel27ImsServingSystemManagerImpl18deregisterListenerESt8weak_ptrINS0_25IImsServingSystemListenerEE=so_stub_for_libtelux_tel
-Wl,--defsym=_ZN5telux3tel27ImsServingSystemManagerImpl18requestServiceInfoESt8functionIFvNS0_14ImsServiceInfoENS_6common9ErrorCodeEEE=so_stub_for_libtelux_tel
-Wl,--defsym=_ZN5telux3tel27ImsServingSystemManagerImpl19convertQmiRatStatusE21nas_radio_if_enum_v01=so_stub_for_libtelux_tel
-Wl,--defsym=_ZN5telux3tel27ImsServingSystemManagerImpl19convertQmiRegStatusE37imsa_ims_registration_status_enum_v01=so_stub_for_libtelux_tel
-Wl,--defsym=_ZN5telux3tel27ImsServingSystemManagerImpl22onImsServiceInfoChangeEP31imsa_service_status_ind_msg_v016SlotId=so_stub_for_libtelux_tel
-Wl,--defsym=_ZN5telux3tel27ImsServingSystemManagerImpl23convertQmiServiceStatusE28imsa_service_status_enum_v01=so_stub_for_libtelux_tel
-Wl,--defsym=_ZN5telux3tel27ImsServingSystemManagerImpl23requestRegistrationInfoESt8functionIFvNS0_19ImsRegistrationInfoENS_6common9ErrorCodeEEE=so_stub_for_libtelux_tel
-Wl,--defsym=_ZN5telux3tel27ImsServingSystemManagerImpl24convertQmiPdpFailureCodeE36imsa_pdp_failure_error_code_enum_v01=so_stub_for_libtelux_tel
-Wl,--defsym=_ZN5telux3tel27ImsServingSystemManagerImpl24handleServiceStateChangeENS_6common13ServiceStatusE=so_stub_for_libtelux_tel
-Wl,--defsym=_ZN5telux3tel27ImsServingSystemManagerImpl24onImsPdpStatusInfoChangeEP27imsa_pdp_status_ind_msg_v016SlotId=so_stub_for_libtelux_tel
-Wl,--defsym=_ZN5telux3tel27ImsServingSystemManagerImpl24onImsPreferredStatusRespEP36nas_get_ims_pref_status_resp_msg_v01Pvi=so_stub_for_libtelux_tel
-Wl,--defsym=_ZN5telux3tel27ImsServingSystemManagerImpl25onImsaServiceStatusChangeENS_6common13ServiceStatusE=so_stub_for_libtelux_tel
-Wl,--defsym=_ZN5telux3tel27ImsServingSystemManagerImpl25requestImsPreferredStatusEi=so_stub_for_libtelux_tel
-Wl,--defsym=_ZN5telux3tel27ImsServingSystemManagerImpl25setServiceStatusAndNotifyENS_6common13ServiceStatusE=so_stub_for_libtelux_tel
-Wl,--defsym=_ZN5telux3tel27ImsServingSystemManagerImpl27onImsServSysRegStatusChangeEP36imsa_registration_status_ind_msg_v016SlotId=so_stub_for_libtelux_tel
-Wl,--defsym=_ZN5telux3tel27ImsServingSystemManagerImpl27onRequestImsServiceInfoRespEP36imsa_get_service_status_resp_msg_v01Pvi=so_stub_for_libtelux_tel
-Wl,--defsym=_ZN5telux3tel27ImsServingSystemManagerImpl29onRequestImsPdpStatusInfoRespEP32imsa_get_pdp_status_resp_msg_v01Pvi=so_stub_for_libtelux_tel
-Wl,--defsym=_ZN5telux3tel27ImsServingSystemManagerImpl30convertQmiPdpFailureReasonTypeE42imsa_verbose_call_end_reason_type_enum_v01t=so_stub_for_libtelux_tel
-Wl,--defsym=_ZN5telux3tel27ImsServingSystemManagerImpl32onRequestImsServSysRegStatusRespEP41imsa_get_registration_status_resp_msg_v01Pvi=so_stub_for_libtelux_tel
-Wl,--defsym=_ZN5telux3tel27ImsServingSystemManagerImpl34notifyImsServSysRegStatusChangeIndENS0_19ImsRegistrationInfoE6SlotId=so_stub_for_libtelux_tel
-Wl,--defsym=_ZN5telux3tel27ImsServingSystemManagerImpl4initESt8functionIFvNS_6common13ServiceStatusEEE=so_stub_for_libtelux_tel
-Wl,--defsym=_ZN5telux3tel27ImsServingSystemManagerImpl7cleanupEb=so_stub_for_libtelux_tel
-Wl,--defsym=_ZN5telux3tel27ImsServingSystemManagerImpl8initSyncEv=so_stub_for_libtelux_tel
-Wl,--defsym=_ZN5telux3tel27ImsServingSystemManagerImplC1E6SlotId=so_stub_for_libtelux_tel
-Wl,--defsym=_ZN5telux3tel27ImsServingSystemManagerImplC2E6SlotId=so_stub_for_libtelux_tel
-Wl,--defsym=_ZN5telux3tel27ImsServingSystemManagerImplD0Ev=so_stub_for_libtelux_tel
-Wl,--defsym=_ZN5telux3tel27ImsServingSystemManagerImplD1Ev=so_stub_for_libtelux_tel
-Wl,--defsym=_ZN5telux3tel27ImsServingSystemManagerImplD2Ev=so_stub_for_libtelux_tel
-Wl,--defsym=_ZN5telux3tel27ServingSystemManagerWrapper11getDcStatusEv=so_stub_for_libtelux_tel
-Wl,--defsym=_ZN5telux3tel27ServingSystemManagerWrapper13getSystemInfoERNS0_17ServingSystemInfoE=so_stub_for_libtelux_tel
-Wl,--defsym=_ZN5telux3tel27ServingSystemManagerWrapper16getServiceStatusEv=so_stub_for_libtelux_tel
-Wl,--defsym=_ZN5telux3tel27ServingSystemManagerWrapper16isSubsystemReadyEv=so_stub_for_libtelux_tel
-Wl,--defsym=_ZN5telux3tel27ServingSystemManagerWrapper16onSubsystemReadyEv=so_stub_for_libtelux_tel
-Wl,--defsym=_ZN5telux3tel27ServingSystemManagerWrapper16registerListenerESt8weak_ptrINS0_22IServingSystemListenerEESt6bitsetILm32EE=so_stub_for_libtelux_tel
-Wl,--defsym=_ZN5telux3tel27ServingSystemManagerWrapper16setRatPreferenceESt6bitsetILm16EESt8functionIFvNS_6common9ErrorCodeEEE=so_stub_for_libtelux_tel
-Wl,--defsym=_ZN5telux3tel27ServingSystemManagerWrapper17requestRFBandInfoESt8functionIFvNS0_10RFBandInfoENS_6common9ErrorCodeEEE=so_stub_for_libtelux_tel
-Wl,--defsym=_ZN5telux3tel27ServingSystemManagerWrapper18deregisterListenerESt8weak_ptrINS0_22IServingSystemListenerEESt6bitsetILm32EE=so_stub_for_libtelux_tel
-Wl,--defsym=_ZN5telux3tel27ServingSystemManagerWrapper18getCallBarringInfoERSt6vectorINS0_15CallBarringInfoESaIS3_EE=so_stub_for_libtelux_tel
-Wl,--defsym=_ZN5telux3tel27ServingSystemManagerWrapper18getLteCsCapabilityERNS0_15LteCsCapabilityE=so_stub_for_libtelux_tel
-Wl,--defsym=_ZN5telux3tel27ServingSystemManagerWrapper18requestNetworkTimeESt8functionIFvNS0_15NetworkTimeInfoENS_6common9ErrorCodeEEE=so_stub_for_libtelux_tel
-Wl,--defsym=_ZN5telux3tel27ServingSystemManagerWrapper20getNetworkRejectInfoERNS0_17NetworkRejectInfoE=so_stub_for_libtelux_tel
-Wl,--defsym=_ZN5telux3tel27ServingSystemManagerWrapper20requestRatPreferenceESt8functionIFvSt6bitsetILm16EENS_6common9ErrorCodeEEE=so_stub_for_libtelux_tel
-Wl,--defsym=_ZN5telux3tel27ServingSystemManagerWrapper20setRFBandPreferencesESt10shared_ptrINS0_11IRFBandListEESt8functionIFvNS_6common9ErrorCodeEEE=so_stub_for_libtelux_tel
-Wl,--defsym=_ZN5telux3tel27ServingSystemManagerWrapper21requestNr5gRrcUtcTimeESt8functionIFvNS0_15NetworkTimeInfoENS_6common9ErrorCodeEEE=so_stub_for_libtelux_tel
-Wl,--defsym=_ZN5telux3tel27ServingSystemManagerWrapper23requestRFBandCapabilityESt8functionIFvSt10shared_ptrINS0_11IRFBandListEENS_6common9ErrorCodeEEE=so_stub_for_libtelux_tel
-Wl,--defsym=_ZN5telux3tel27ServingSystemManagerWrapper24requestRFBandPreferencesESt8functionIFvSt10shared_ptrINS0_11IRFBandListEENS_6common9ErrorCodeEEE=so_stub_for_libtelux_tel
-Wl,--defsym=_ZN5telux3tel27ServingSystemManagerWrapper26requestLteSib16NetworkTimeESt8functionIFvNS0_15NetworkTimeInfoENS_6common9ErrorCodeEEE=so_stub_for_libtelux_tel
-Wl,--defsym=_ZN5telux3tel27ServingSystemManagerWrapper26setServiceDomainPreferenceENS0_23ServiceDomainPreferenceESt8functionIFvNS_6common9ErrorCodeEEE=so_stub_for_libtelux_tel
-Wl,--defsym=_ZN5telux3tel27ServingSystemManagerWrapper27getSmsCapabilityOverNetworkERNS0_13SmsCapabilityE=so_stub_for_libtelux_tel
-Wl,--defsym=_ZN5telux3tel27ServingSystemManagerWrapper30requestServiceDomainPreferenceESt8functionIFvNS0_23ServiceDomainPreferenceENS_6common9ErrorCodeEEE=so_stub_for_libtelux_tel
-Wl,--defsym=_ZN5telux3tel27ServingSystemManagerWrapper4initEi=so_stub_for_libtelux_tel
-Wl,--defsym=_ZN5telux3tel27ServingSystemManagerWrapper7cleanupEv=so_stub_for_libtelux_tel
-Wl,--defsym=_ZN5telux3tel27ServingSystemManagerWrapperC1Ev=so_stub_for_libtelux_tel
-Wl,--defsym=_ZN5telux3tel27ServingSystemManagerWrapperC2Ev=so_stub_for_libtelux_tel
-Wl,--defsym=_ZN5telux3tel27ServingSystemManagerWrapperD0Ev=so_stub_for_libtelux_tel
-Wl,--defsym=_ZN5telux3tel27ServingSystemManagerWrapperD1Ev=so_stub_for_libtelux_tel
-Wl,--defsym=_ZN5telux3tel27ServingSystemManagerWrapperD2Ev=so_stub_for_libtelux_tel
-Wl,--defsym=_ZN5telux3tel29convertPolicyRuleMaskToStringB5cxx11ESt6bitsetILm16EE=so_stub_for_libtelux_tel
-Wl,--defsym=_ZN5telux3tel29HttpTransactionManagerWrapper16getServiceStatusEv=so_stub_for_libtelux_tel
-Wl,--defsym=_ZN5telux3tel29HttpTransactionManagerWrapper16registerListenerESt8weak_ptrINS0_24IHttpTransactionListenerEE=so_stub_for_libtelux_tel
-Wl,--defsym=_ZN5telux3tel29HttpTransactionManagerWrapper18deregisterListenerESt8weak_ptrINS0_24IHttpTransactionListenerEE=so_stub_for_libtelux_tel
-Wl,--defsym=_ZN5telux3tel29HttpTransactionManagerWrapper25sendHttpTransactionResultEjNS0_10HttpResultERKSt6vectorINS0_12CustomHeaderESaIS4_EERKS3_IhSaIhEESt8functionIFvNS_6common9ErrorCodeEEE=so_stub_for_libtelux_tel
-Wl,--defsym=_ZN5telux3tel29HttpTransactionManagerWrapper4initEv=so_stub_for_libtelux_tel
-Wl,--defsym=_ZN5telux3tel29HttpTransactionManagerWrapper7cleanupEv=so_stub_for_libtelux_tel
-Wl,--defsym=_ZN5telux3tel29HttpTransactionManagerWrapperC1Ev=so_stub_for_libtelux_tel
-Wl,--defsym=_ZN5telux3tel29HttpTransactionManagerWrapperC2Ev=so_stub_for_libtelux_tel
-Wl,--defsym=_ZN5telux3tel29HttpTransactionManagerWrapperD0Ev=so_stub_for_libtelux_tel
-Wl,--defsym=_ZN5telux3tel29HttpTransactionManagerWrapperD1Ev=so_stub_for_libtelux_tel
-Wl,--defsym=_ZN5telux3tel29HttpTransactionManagerWrapperD2Ev=so_stub_for_libtelux_tel
-Wl,--defsym=_ZN5telux3tel30ImsServingSystemManagerWrapper16getServiceStatusEv=so_stub_for_libtelux_tel
-Wl,--defsym=_ZN5telux3tel30ImsServingSystemManagerWrapper16registerListenerESt8weak_ptrINS0_25IImsServingSystemListenerEE=so_stub_for_libtelux_tel
-Wl,--defsym=_ZN5telux3tel30ImsServingSystemManagerWrapper16requestPdpStatusESt8functionIFvNS0_16ImsPdpStatusInfoENS_6common9ErrorCodeEEE=so_stub_for_libtelux_tel
-Wl,--defsym=_ZN5telux3tel30ImsServingSystemManagerWrapper18deregisterListenerESt8weak_ptrINS0_25IImsServingSystemListenerEE=so_stub_for_libtelux_tel
-Wl,--defsym=_ZN5telux3tel30ImsServingSystemManagerWrapper18requestServiceInfoESt8functionIFvNS0_14ImsServiceInfoENS_6common9ErrorCodeEEE=so_stub_for_libtelux_tel
-Wl,--defsym=_ZN5telux3tel30ImsServingSystemManagerWrapper23requestRegistrationInfoESt8functionIFvNS0_19ImsRegistrationInfoENS_6common9ErrorCodeEEE=so_stub_for_libtelux_tel
-Wl,--defsym=_ZN5telux3tel30ImsServingSystemManagerWrapper4initE6SlotId=so_stub_for_libtelux_tel
-Wl,--defsym=_ZN5telux3tel30ImsServingSystemManagerWrapper7cleanupEv=so_stub_for_libtelux_tel
-Wl,--defsym=_ZN5telux3tel30ImsServingSystemManagerWrapperC1Ev=so_stub_for_libtelux_tel
-Wl,--defsym=_ZN5telux3tel30ImsServingSystemManagerWrapperC2Ev=so_stub_for_libtelux_tel
-Wl,--defsym=_ZN5telux3tel30ImsServingSystemManagerWrapperD0Ev=so_stub_for_libtelux_tel
-Wl,--defsym=_ZN5telux3tel30ImsServingSystemManagerWrapperD1Ev=so_stub_for_libtelux_tel
-Wl,--defsym=_ZN5telux3tel30ImsServingSystemManagerWrapperD2Ev=so_stub_for_libtelux_tel
-Wl,--defsym=_ZN5telux3tel30NetworkSelectionManagerWrapper16getServiceStatusEv=so_stub_for_libtelux_tel
-Wl,--defsym=_ZN5telux3tel30NetworkSelectionManagerWrapper16isSubsystemReadyEv=so_stub_for_libtelux_tel
-Wl,--defsym=_ZN5telux3tel30NetworkSelectionManagerWrapper16onSubsystemReadyEv=so_stub_for_libtelux_tel
-Wl,--defsym=_ZN5telux3tel30NetworkSelectionManagerWrapper16registerListenerESt8weak_ptrINS0_25INetworkSelectionListenerEE=so_stub_for_libtelux_tel
-Wl,--defsym=_ZN5telux3tel30NetworkSelectionManagerWrapper16setNrDubiousCellERKSt6vectorINS0_13NrDubiousCellESaIS3_EE=so_stub_for_libtelux_tel
-Wl,--defsym=_ZN5telux3tel30NetworkSelectionManagerWrapper17setLteDubiousCellERKSt6vectorINS0_14LteDubiousCellESaIS3_EE=so_stub_for_libtelux_tel
-Wl,--defsym=_ZN5telux3tel30NetworkSelectionManagerWrapper18deregisterListenerESt8weak_ptrINS0_25INetworkSelectionListenerEE=so_stub_for_libtelux_tel
-Wl,--defsym=_ZN5telux3tel30NetworkSelectionManagerWrapper18performNetworkScanENS0_15NetworkScanInfoESt8functionIFvNS_6common9ErrorCodeEEE=so_stub_for_libtelux_tel
-Wl,--defsym=_ZN5telux3tel30NetworkSelectionManagerWrapper18performNetworkScanESt8functionIFvSt6vectorINS0_12OperatorInfoESaIS4_EENS_6common9ErrorCodeEEE=so_stub_for_libtelux_tel
-Wl,--defsym=_ZN5telux3tel30NetworkSelectionManagerWrapper20setPreferredNetworksESt6vectorINS0_20PreferredNetworkInfoESaIS3_EEbSt8functionIFvNS_6common9ErrorCodeEEE=so_stub_for_libtelux_tel
-Wl,--defsym=_ZN5telux3tel30NetworkSelectionManagerWrapper23setNetworkSelectionModeENS0_20NetworkSelectionModeENSt7__cxx1112basic_stringIcSt11char_traitsIcESaIcEEES8_St8functionIFvNS_6common9ErrorCodeEEE=so_stub_for_libtelux_tel
-Wl,--defsym=_ZN5telux3tel30NetworkSelectionManagerWrapper24requestPreferredNetworksESt8functionIFvSt6vectorINS0_20PreferredNetworkInfoESaIS4_EES6_NS_6common9ErrorCodeEEE=so_stub_for_libtelux_tel
-Wl,--defsym=_ZN5telux3tel30NetworkSelectionManagerWrapper27requestNetworkSelectionModeESt8functionIFvNS0_15NetworkModeInfoENS_6common9ErrorCodeEEE=so_stub_for_libtelux_tel
-Wl,--defsym=_ZN5telux3tel30NetworkSelectionManagerWrapper27requestNetworkSelectionModeESt8functionIFvNS0_20NetworkSelectionModeENS_6common9ErrorCodeEEE=so_stub_for_libtelux_tel
-Wl,--defsym=_ZN5telux3tel30NetworkSelectionManagerWrapper4initEi=so_stub_for_libtelux_tel
-Wl,--defsym=_ZN5telux3tel30NetworkSelectionManagerWrapper7cleanupEv=so_stub_for_libtelux_tel
-Wl,--defsym=_ZN5telux3tel30NetworkSelectionManagerWrapperC1Ev=so_stub_for_libtelux_tel
-Wl,--defsym=_ZN5telux3tel30NetworkSelectionManagerWrapperC2Ev=so_stub_for_libtelux_tel
-Wl,--defsym=_ZN5telux3tel30NetworkSelectionManagerWrapperD0Ev=so_stub_for_libtelux_tel
-Wl,--defsym=_ZN5telux3tel30NetworkSelectionManagerWrapperD1Ev=so_stub_for_libtelux_tel
-Wl,--defsym=_ZN5telux3tel30NetworkSelectionManagerWrapperD2Ev=so_stub_for_libtelux_tel
-Wl,--defsym=_ZN5telux3tel32ECallVehicleIdentificationNumberC1ERKS1_=so_stub_for_libtelux_tel
-Wl,--defsym=_ZN5telux3tel32ECallVehicleIdentificationNumberC1Ev=so_stub_for_libtelux_tel
-Wl,--defsym=_ZN5telux3tel32ECallVehicleIdentificationNumberC2ERKS1_=so_stub_for_libtelux_tel
-Wl,--defsym=_ZN5telux3tel32ECallVehicleIdentificationNumberC2Ev=so_stub_for_libtelux_tel
-Wl,--defsym=_ZN5telux3tel32ECallVehicleIdentificationNumberD1Ev=so_stub_for_libtelux_tel
-Wl,--defsym=_ZN5telux3tel32ECallVehicleIdentificationNumberD2Ev=so_stub_for_libtelux_tel
-Wl,--defsym=_ZN5telux3tel3ril11unsolRoutesE=so_stub_for_libtelux_tel
-Wl,--defsym=_ZN5telux3tel3ril13beginResponseERNSt7__cxx1118basic_stringstreamIcSt11char_traitsIcESaIcEEEbiii=so_stub_for_libtelux_tel
-Wl,--defsym=_ZN5telux3tel3ril14ResponseRouter11ResponseIntESt10shared_ptrI6ParcelEiiS3_INS_6common15ResponseHandlerEEbiS3_INS6_16ICommandCallbackEEPvi=so_stub_for_libtelux_tel
-Wl,--defsym=_ZN5telux3tel3ril14ResponseRouter11ResponseRawESt10shared_ptrI6ParcelEiiS3_INS_6common15ResponseHandlerEEbiS3_INS6_16ICommandCallbackEEPvi=so_stub_for_libtelux_tel
-Wl,--defsym=_ZN5telux3tel3ril14ResponseRouter12currentCallsESt6vectorINS0_8CallInfoESaIS4_EERNSt7__cxx1118basic_stringstreamIcSt11char_traitsIcESaIcEEE=so_stub_for_libtelux_tel
-Wl,--defsym=_ZN5telux3tel3ril14ResponseRouter12ResponseIntsESt10shared_ptrI6ParcelEiiS3_INS_6common15ResponseHandlerEEbiS3_INS6_16ICommandCallbackEEPvi=so_stub_for_libtelux_tel
-Wl,--defsym=_ZN5telux3tel3ril14ResponseRouter12ResponseVoidESt10shared_ptrI6ParcelEiiS3_INS_6common15ResponseHandlerEEbiS3_INS6_16ICommandCallbackEEPvi=so_stub_for_libtelux_tel
-Wl,--defsym=_ZN5telux3tel3ril14ResponseRouter13ResponseIccIoESt10shared_ptrI6ParcelEiiS3_INS_6common15ResponseHandlerEEbiS3_INS6_16ICommandCallbackEEPvi=so_stub_for_libtelux_tel
-Wl,--defsym=_ZN5telux3tel3ril14ResponseRouter14ResponseNewSMSESt10shared_ptrI6ParcelEiiS3_INS_6common15ResponseHandlerEEbiS3_INS6_16ICommandCallbackEEPvi=so_stub_for_libtelux_tel
-Wl,--defsym=_ZN5telux3tel3ril14ResponseRouter14ResponseStringESt10shared_ptrI6ParcelEiiS3_INS_6common15ResponseHandlerEEbiS3_INS6_16ICommandCallbackEEPvi=so_stub_for_libtelux_tel
-Wl,--defsym=_ZN5telux3tel3ril14ResponseRouter15ResponseCdmaSmsESt10shared_ptrI6ParcelEiiS3_INS_6common15ResponseHandlerEEbiS3_INS6_16ICommandCallbackEEPvi=so_stub_for_libtelux_tel
-Wl,--defsym=_ZN5telux3tel3ril14ResponseRouter15ResponseRilNitzESt10shared_ptrI6ParcelEiiS3_INS_6common15ResponseHandlerEEbiS3_INS6_16ICommandCallbackEEPvi=so_stub_for_libtelux_tel
-Wl,--defsym=_ZN5telux3tel3ril14ResponseRouter15ResponseSendSmsESt10shared_ptrI6ParcelEiiS3_INS_6common15ResponseHandlerEEbiS3_INS6_16ICommandCallbackEEPvi=so_stub_for_libtelux_tel
-Wl,--defsym=_ZN5telux3tel3ril14ResponseRouter15ResponseStringsESt10shared_ptrI6ParcelEiiS3_INS_6common15ResponseHandlerEEbiS3_INS6_16ICommandCallbackEEPvi=so_stub_for_libtelux_tel
-Wl,--defsym=_ZN5telux3tel3ril14ResponseRouter16ResponseCallListESt10shared_ptrI6ParcelEiiS3_INS_6common15ResponseHandlerEEbiS3_INS6_16ICommandCallbackEEPvi=so_stub_for_libtelux_tel
-Wl,--defsym=_ZN5telux3tel3ril14ResponseRouter16ResponseCellInfoESt10shared_ptrI6ParcelEiiS3_INS_6common15ResponseHandlerEEbiS3_INS6_16ICommandCallbackEEPvi=so_stub_for_libtelux_tel
-Wl,--defsym=_ZN5telux3tel3ril14ResponseRouter18ResponseSimRefreshESt10shared_ptrI6ParcelEiiS3_INS_6common15ResponseHandlerEEbiS3_INS6_16ICommandCallbackEEPvi=so_stub_for_libtelux_tel
-Wl,--defsym=_ZN5telux3tel3ril14ResponseRouter20ResponseDataCallListESt10shared_ptrI6ParcelEiiS3_INS_6common15ResponseHandlerEEbiS3_INS6_16ICommandCallbackEEPvi=so_stub_for_libtelux_tel
-Wl,--defsym=_ZN5telux3tel3ril14ResponseRouter20ResponseNotSupportedESt10shared_ptrI6ParcelEiiS3_INS_6common15ResponseHandlerEEbiS3_INS6_16ICommandCallbackEEPvi=so_stub_for_libtelux_tel
-Wl,--defsym=_ZN5telux3tel3ril14ResponseRouter20ResponseOperatorInfoESt10shared_ptrI6ParcelEiiS3_INS_6common15ResponseHandlerEEbiS3_INS6_16ICommandCallbackEEPvi=so_stub_for_libtelux_tel
-Wl,--defsym=_ZN5telux3tel3ril14ResponseRouter21ResponseIccCardStatusESt10shared_ptrI6ParcelEiiS3_INS_6common15ResponseHandlerEEbiS3_INS6_16ICommandCallbackEEPvi=so_stub_for_libtelux_tel
-Wl,--defsym=_ZN5telux3tel3ril14ResponseRouter22ResponseSignalStrengthESt10shared_ptrI6ParcelEiiS3_INS_6common15ResponseHandlerEEbiS3_INS6_16ICommandCallbackEEPvi=so_stub_for_libtelux_tel
-Wl,--defsym=_ZN5telux3tel3ril14ResponseRouter23ResponseCdmaCallWaitingESt10shared_ptrI6ParcelEiiS3_INS_6common15ResponseHandlerEEbiS3_INS6_16ICommandCallbackEEPvi=so_stub_for_libtelux_tel
-Wl,--defsym=_ZN5telux3tel3ril14ResponseRouter23ResponseCdmaInfoRecordsESt10shared_ptrI6ParcelEiiS3_INS_6common15ResponseHandlerEEbiS3_INS6_16ICommandCallbackEEPvi=so_stub_for_libtelux_tel
-Wl,--defsym=_ZN5telux3tel3ril14ResponseRouter24ResponseLastCallEndCauseESt10shared_ptrI6ParcelEiiS3_INS_6common15ResponseHandlerEEbiS3_INS6_16ICommandCallbackEEPvi=so_stub_for_libtelux_tel
-Wl,--defsym=_ZN5telux3tel3ril14ResponseRouter26ResponseNewSMSStatusReportESt10shared_ptrI6ParcelEiiS3_INS_6common15ResponseHandlerEEbiS3_INS6_16ICommandCallbackEEPvi=so_stub_for_libtelux_tel
-Wl,--defsym=_ZN5telux3tel3ril14ResponseRouter27ResponseSimProfileOperationESt10shared_ptrI6ParcelEiiS3_INS_6common15ResponseHandlerEEbiS3_INS6_16ICommandCallbackEEPvi=so_stub_for_libtelux_tel
-Wl,--defsym=_ZN5telux3tel3ril14ResponseRouter36ResponseCallListWithLastCallEndCauseESt10shared_ptrI6ParcelEiiS3_INS_6common15ResponseHandlerEEbiS3_INS6_16ICommandCallbackEEPvi=so_stub_for_libtelux_tel
-Wl,--defsym=_ZN5telux3tel3ril15ISocketListener13removeConnectENS1_11QrtrAddressE=so_stub_for_libtelux_tel
-Wl,--defsym=_ZN5telux3tel3ril15ISocketListener14onDataReceivedESt10shared_ptrI6ParcelENS1_11QrtrAddressE=so_stub_for_libtelux_tel
-Wl,--defsym=_ZN5telux3tel3ril18logAndSendResponseERNSt7__cxx1118basic_stringstreamIcSt11char_traitsIcESaIcEEESt10shared_ptrINS_6common15ResponseHandlerEEbS9_INSA_6ResultEE=so_stub_for_libtelux_tel
-Wl,--defsym=_ZN5telux3tel3ril19writeStringToParcelER6ParcelPKc=so_stub_for_libtelux_tel
-Wl,--defsym=_ZN5telux3tel3ril3Ril10answerCallENS0_7RttModeESt10shared_ptrINS_6common15ResponseHandlerEES4_INS5_16ICommandCallbackEEi=so_stub_for_libtelux_tel
-Wl,--defsym=_ZN5telux3tel3ril3Ril10disconnectEv=so_stub_for_libtelux_tel
-Wl,--defsym=_ZN5telux3tel3ril3Ril10modifyCallENS0_7RttModeEiSt10shared_ptrINS_6common15ResponseHandlerEES4_INS5_16ICommandCallbackEEi=so_stub_for_libtelux_tel
-Wl,--defsym=_ZN5telux3tel3ril3Ril10rejectCallESt10shared_ptrINS_6common15ResponseHandlerEES3_INS4_16ICommandCallbackEEi=so_stub_for_libtelux_tel
-Wl,--defsym=_ZN5telux3tel3ril3Ril11getInstanceEv=so_stub_for_libtelux_tel
-Wl,--defsym=_ZN5telux3tel3ril3Ril11sendStopDftESt10shared_ptrINS_6common15ResponseHandlerEES3_INS4_16ICommandCallbackEEi=so_stub_for_libtelux_tel
-Wl,--defsym=_ZN5telux3tel3ril3Ril11updateReadyEv=so_stub_for_libtelux_tel
-Wl,--defsym=_ZN5telux3tel3ril3Ril12requestIccIoESt10shared_ptrINS_6common15ResponseHandlerEEiiNSt7__cxx1112basic_stringIcSt11char_traitsIcESaIcEEEiiiSC_SC_SC_S3_INS4_16ICommandCallbackEEiPv=so_stub_for_libtelux_tel
-Wl,--defsym=_ZN5telux3tel3ril3Ril12sendStopDtmfESt10shared_ptrINS_6common15ResponseHandlerEES3_INS4_16ICommandCallbackEEi=so_stub_for_libtelux_tel
-Wl,--defsym=_ZN5telux3tel3ril3Ril13requestThreadEv=so_stub_for_libtelux_tel
-Wl,--defsym=_ZN5telux3tel3ril3Ril13sendStartDtmfERKcSt10shared_ptrINS_6common15ResponseHandlerEES5_INS6_16ICommandCallbackEEi=so_stub_for_libtelux_tel
-Wl,--defsym=_ZN5telux3tel3ril3Ril14conferenceCallESt10shared_ptrINS_6common15ResponseHandlerEES3_INS4_16ICommandCallbackEEi=so_stub_for_libtelux_tel
-Wl,--defsym=_ZN5telux3tel3ril3Ril14sendSimImsiReqESt10shared_ptrINS_6common15ResponseHandlerEENSt7__cxx1112basic_stringIcSt11char_traitsIcESaIcEEE=so_stub_for_libtelux_tel
-Wl,--defsym=_ZN5telux3tel3ril3Ril14SocketListener12onDisconnectEi=so_stub_for_libtelux_tel
-Wl,--defsym=_ZN5telux3tel3ril3Ril14SocketListener14onDataReceivedESt10shared_ptrI6ParcelE=so_stub_for_libtelux_tel
-Wl,--defsym=_ZN5telux3tel3ril3Ril14SocketListener9onConnectEi=so_stub_for_libtelux_tel
-Wl,--defsym=_ZN5telux3tel3ril3Ril14SocketListenerC1EPS2_i=so_stub_for_libtelux_tel
-Wl,--defsym=_ZN5telux3tel3ril3Ril14SocketListenerC2EPS2_i=so_stub_for_libtelux_tel
-Wl,--defsym=_ZN5telux3tel3ril3Ril14SocketListenerD0Ev=so_stub_for_libtelux_tel
-Wl,--defsym=_ZN5telux3tel3ril3Ril14SocketListenerD1Ev=so_stub_for_libtelux_tel
-Wl,--defsym=_ZN5telux3tel3ril3Ril14SocketListenerD2Ev=so_stub_for_libtelux_tel
-Wl,--defsym=_ZN5telux3tel3ril3Ril15getCurrentCallsESt10shared_ptrINS_6common15ResponseHandlerEEi=so_stub_for_libtelux_tel
-Wl,--defsym=_ZN5telux3tel3ril3Ril15processResponseESt10shared_ptrI6ParcelEi=so_stub_for_libtelux_tel
-Wl,--defsym=_ZN5telux3tel3ril3Ril15sendDialRequestERKNSt7__cxx1112basic_stringIcSt11char_traitsIcESaIcEEEibSt10shared_ptrINS_6common15ResponseHandlerEESB_INSC_16ICommandCallbackEEi=so_stub_for_libtelux_tel
-Wl,--defsym=_ZN5telux3tel3ril3Ril15sendExitEcbmReqESt10shared_ptrINS_6common15ResponseHandlerEES3_INS4_16ICommandCallbackEEi=so_stub_for_libtelux_tel
-Wl,--defsym=_ZN5telux3tel3ril3Ril15sendRequestDtmfERKcSt10shared_ptrINS_6common15ResponseHandlerEES5_INS6_16ICommandCallbackEEi=so_stub_for_libtelux_tel
-Wl,--defsym=_ZN5telux3tel3ril3Ril16errorToStatusMapEi=so_stub_for_libtelux_tel
-Wl,--defsym=_ZN5telux3tel3ril3Ril16hangupConnectionEiSt10shared_ptrINS_6common15ResponseHandlerEES3_INS4_16ICommandCallbackEEi=so_stub_for_libtelux_tel
-Wl,--defsym=_ZN5telux3tel3ril3Ril16registerListenerESt8weak_ptrINS1_12IRilListenerEE=so_stub_for_libtelux_tel
-Wl,--defsym=_ZN5telux3tel3ril3Ril16sendGetSimStatusESt10shared_ptrINS_6common15ResponseHandlerEEi=so_stub_for_libtelux_tel
-Wl,--defsym=_ZN5telux3tel3ril3Ril16sendQueryEcbmReqESt10shared_ptrINS_6common15ResponseHandlerEES3_INS4_16ICommandCallbackEEi=so_stub_for_libtelux_tel
-Wl,--defsym=_ZN5telux3tel3ril3Ril16sendResetWwanReqESt10shared_ptrINS_6common15ResponseHandlerEES3_INS4_16ICommandCallbackEEi=so_stub_for_libtelux_tel
-Wl,--defsym=_ZN5telux3tel3ril3Ril17sendGetImsVonrReqESt10shared_ptrINS_6common15ResponseHandlerEEiS3_INS4_16ICommandCallbackEE=so_stub_for_libtelux_tel
-Wl,--defsym=_ZN5telux3tel3ril3Ril17sendGsmSmsRequestENSt7__cxx1112basic_stringIcSt11char_traitsIcESaIcEEES8_St10shared_ptrINS_6common15ResponseHandlerEES9_INSA_16ICommandCallbackEEi=so_stub_for_libtelux_tel
-Wl,--defsym=_ZN5telux3tel3ril3Ril17sendRadioPowerReqEbSt10shared_ptrINS_6common15ResponseHandlerEES3_INS4_16ICommandCallbackEEi=so_stub_for_libtelux_tel
-Wl,--defsym=_ZN5telux3tel3ril3Ril17sendSetImsVonrReqEbSt10shared_ptrINS_6common15ResponseHandlerEEiS3_INS4_16ICommandCallbackEE=so_stub_for_libtelux_tel
-Wl,--defsym=_ZN5telux3tel3ril3Ril17setHighCapabilityEiSt10shared_ptrINS_6common15ResponseHandlerEES3_INS4_16ICommandCallbackEEi=so_stub_for_libtelux_tel
-Wl,--defsym=_ZN5telux3tel3ril3Ril18deregisterListenerESt8weak_ptrINS1_12IRilListenerEE=so_stub_for_libtelux_tel
-Wl,--defsym=_ZN5telux3tel3ril3Ril18sendGetOperatorReqESt10shared_ptrINS_6common15ResponseHandlerEES3_INS4_16ICommandCallbackEEiPv=so_stub_for_libtelux_tel
-Wl,--defsym=_ZN5telux3tel3ril3Ril19sendChangeSimPinReqENS1_8LockTypeENSt7__cxx1112basic_stringIcSt11char_traitsIcESaIcEEES9_S9_St10shared_ptrINS_6common15ResponseHandlerEESA_INSB_16ICommandCallbackEEi=so_stub_for_libtelux_tel
-Wl,--defsym=_ZN5telux3tel3ril3Ril19sendSimPinUnlockReqENS1_8LockTypeENSt7__cxx1112basic_stringIcSt11char_traitsIcESaIcEEES9_St10shared_ptrINS_6common15ResponseHandlerEESA_INSB_16ICommandCallbackEEi=so_stub_for_libtelux_tel
-Wl,--defsym=_ZN5telux3tel3ril3Ril19sendSimPukUnlockReqENS1_8LockTypeENSt7__cxx1112basic_stringIcSt11char_traitsIcESaIcEEES9_S9_St10shared_ptrINS_6common15ResponseHandlerEESA_INSB_16ICommandCallbackEEi=so_stub_for_libtelux_tel
-Wl,--defsym=_ZN5telux3tel3ril3Ril19sendSwapCallRequestESt10shared_ptrINS_6common15ResponseHandlerEES3_INS4_16ICommandCallbackEEi=so_stub_for_libtelux_tel
-Wl,--defsym=_ZN5telux3tel3ril3Ril20FindAndRemoveRequestEi=so_stub_for_libtelux_tel
-Wl,--defsym=_ZN5telux3tel3ril3Ril20sendAckGsmSmsRequestEbiSt10shared_ptrINS_6common15ResponseHandlerEEi=so_stub_for_libtelux_tel
-Wl,--defsym=_ZN5telux3tel3ril3Ril20sendImsGsmSmsRequestENSt7__cxx1112basic_stringIcSt11char_traitsIcESaIcEEES8_St10shared_ptrINS_6common15ResponseHandlerEES9_INSA_16ICommandCallbackEEi=so_stub_for_libtelux_tel
-Wl,--defsym=_ZN5telux3tel3ril3Ril21addOutstandingRequestESt10shared_ptrINS1_7RequestEE=so_stub_for_libtelux_tel
-Wl,--defsym=_ZN5telux3tel3ril3Ril21getEcallOperatingModeESt10shared_ptrINS_6common15ResponseHandlerEES3_INS4_16ICommandCallbackEEi=so_stub_for_libtelux_tel
-Wl,--defsym=_ZN5telux3tel3ril3Ril21requestHighCapabilityESt10shared_ptrINS_6common15ResponseHandlerEES3_INS4_16ICommandCallbackEEi=so_stub_for_libtelux_tel
-Wl,--defsym=_ZN5telux3tel3ril3Ril21responseTimeoutThreadEv=so_stub_for_libtelux_tel
-Wl,--defsym=_ZN5telux3tel3ril3Ril21restartEcallHlapTimerENS0_16EcallHlapTimerIdEiSt10shared_ptrINS_6common15ResponseHandlerEEiS4_INS5_16ICommandCallbackEE=so_stub_for_libtelux_tel
-Wl,--defsym=_ZN5telux3tel3ril3Ril21sendIccOpenChannelReqESt10shared_ptrINS_6common15ResponseHandlerEERKNSt7__cxx1112basic_stringIcSt11char_traitsIcESaIcEEES3_INS4_16ICommandCallbackEEi=so_stub_for_libtelux_tel
-Wl,--defsym=_ZN5telux3tel3ril3Ril21sendSignalStrengthReqESt10shared_ptrINS_6common15ResponseHandlerEES3_INS4_16ICommandCallbackEEi=so_stub_for_libtelux_tel
-Wl,--defsym=_ZN5telux3tel3ril3Ril21sendVoiceRadioTechReqESt10shared_ptrINS_6common15ResponseHandlerEES3_INS4_16ICommandCallbackEEi=so_stub_for_libtelux_tel
-Wl,--defsym=_ZN5telux3tel3ril3Ril21setEcallOperatingModeEiSt10shared_ptrINS_6common15ResponseHandlerEES3_INS4_16ICommandCallbackEEi=so_stub_for_libtelux_tel
-Wl,--defsym=_ZN5telux3tel3ril3Ril21setSmscAddressRequestENSt7__cxx1112basic_stringIcSt11char_traitsIcESaIcEEESt10shared_ptrINS_6common15ResponseHandlerEES9_INSA_16ICommandCallbackEEi=so_stub_for_libtelux_tel
-Wl,--defsym=_ZN5telux3tel3ril3Ril22respondToModifyRequestENS0_7RttModeEiSt10shared_ptrINS_6common15ResponseHandlerEES4_INS5_16ICommandCallbackEEi=so_stub_for_libtelux_tel
-Wl,--defsym=_ZN5telux3tel3ril3Ril22sendIccCloseChannelReqESt10shared_ptrINS_6common15ResponseHandlerEEiS3_INS4_16ICommandCallbackEEi=so_stub_for_libtelux_tel
-Wl,--defsym=_ZN5telux3tel3ril3Ril22sendIccTransmitApduReqESt10shared_ptrINS_6common15ResponseHandlerEEiiiiiiRKNSt7__cxx1112basic_stringIcSt11char_traitsIcESaIcEEESE_S3_INS4_16ICommandCallbackEEi=so_stub_for_libtelux_tel
-Wl,--defsym=_ZN5telux3tel3ril3Ril22sendSetFacilityLockReqENSt7__cxx1112basic_stringIcSt11char_traitsIcESaIcEEEbS8_iS8_St10shared_ptrINS_6common15ResponseHandlerEES9_INSA_16ICommandCallbackEEi=so_stub_for_libtelux_tel
-Wl,--defsym=_ZN5telux3tel3ril3Ril22sendSmscAddressRequestESt10shared_ptrINS_6common15ResponseHandlerEES3_INS4_16ICommandCallbackEEi=so_stub_for_libtelux_tel
-Wl,--defsym=_ZN5telux3tel3ril3Ril23hasPendingRequestToSendEv=so_stub_for_libtelux_tel
-Wl,--defsym=_ZN5telux3tel3ril3Ril23requestLastCallEndCauseESt10shared_ptrINS_6common15ResponseHandlerEEi=so_stub_for_libtelux_tel
-Wl,--defsym=_ZN5telux3tel3ril3Ril23sendCellInfoListRequestESt10shared_ptrINS_6common15ResponseHandlerEEPvS3_INS4_16ICommandCallbackEEi=so_stub_for_libtelux_tel
-Wl,--defsym=_ZN5telux3tel3ril3Ril24notifyServiceStateChangeEb=so_stub_for_libtelux_tel
-Wl,--defsym=_ZN5telux3tel3ril3Ril24responseDispatcherThreadEv=so_stub_for_libtelux_tel
-Wl,--defsym=_ZN5telux3tel3ril3Ril24sendGetDeviceIdentityReqESt10shared_ptrINS_6common15ResponseHandlerEE=so_stub_for_libtelux_tel
-Wl,--defsym=_ZN5telux3tel3ril3Ril24sendQueryFacilityLockReqENSt7__cxx1112basic_stringIcSt11char_traitsIcESaIcEEES8_iS8_St10shared_ptrINS_6common15ResponseHandlerEES9_INSA_16ICommandCallbackEEi=so_stub_for_libtelux_tel
-Wl,--defsym=_ZN5telux3tel3ril3Ril25hangupWaitingOrBackgroundESt10shared_ptrINS_6common15ResponseHandlerEES3_INS4_16ICommandCallbackEEi=so_stub_for_libtelux_tel
-Wl,--defsym=_ZN5telux3tel3ril3Ril26configureSignalStrengthReqESt6vectorINS0_20SignalStrengthConfigESaIS4_EESt10shared_ptrINS_6common15ResponseHandlerEES7_INS8_16ICommandCallbackEEi=so_stub_for_libtelux_tel
-Wl,--defsym=_ZN5telux3tel3ril3Ril26configureSignalStrengthReqESt6vectorINS0_22SignalStrengthConfigExESaIS4_EEtSt10shared_ptrINS_6common15ResponseHandlerEES7_INS8_16ICommandCallbackEEi=so_stub_for_libtelux_tel
-Wl,--defsym=_ZN5telux3tel3ril3Ril26sendProfileListResponseReqESt10shared_ptrINS_6common15ResponseHandlerEEjjSt6vectorINSt7__cxx1112basic_stringIcSt11char_traitsIcESaIcEEESaISD_EES3_INS4_16ICommandCallbackEEi=so_stub_for_libtelux_tel
-Wl,--defsym=_ZN5telux3tel3ril3Ril27sendImsRegistrationStateReqESt10shared_ptrINS_6common15ResponseHandlerEES3_INS4_16ICommandCallbackEEi=so_stub_for_libtelux_tel
-Wl,--defsym=_ZN5telux3tel3ril3Ril29sendVoiceRegistrationStateReqESt10shared_ptrINS_6common15ResponseHandlerEES3_INS4_16ICommandCallbackEEi=so_stub_for_libtelux_tel
-Wl,--defsym=_ZN5telux3tel3ril3Ril30sendSetCellInfoListRateRequestEjSt10shared_ptrINS_6common15ResponseHandlerEES3_INS4_16ICommandCallbackEEi=so_stub_for_libtelux_tel
-Wl,--defsym=_ZN5telux3tel3ril3Ril31sendProfileOperationResponseReqESt10shared_ptrINS_6common15ResponseHandlerEEjjS3_INS4_16ICommandCallbackEEi=so_stub_for_libtelux_tel
-Wl,--defsym=_ZN5telux3tel3ril3Ril32hangupForegroundResumeBackgroundESt10shared_ptrINS_6common15ResponseHandlerEEiS3_INS4_16ICommandCallbackEE=so_stub_for_libtelux_tel
-Wl,--defsym=_ZN5telux3tel3ril3Ril4initEv=so_stub_for_libtelux_tel
-Wl,--defsym=_ZN5telux3tel3ril3Ril4sendESt10shared_ptrINS1_7RequestEE=so_stub_for_libtelux_tel
-Wl,--defsym=_ZN5telux3tel3ril3Ril7isReadyEv=so_stub_for_libtelux_tel
-Wl,--defsym=_ZN5telux3tel3ril3Ril9getSocketEi=so_stub_for_libtelux_tel
-Wl,--defsym=_ZN5telux3tel3ril3Ril9isExitingEv=so_stub_for_libtelux_tel
-Wl,--defsym=_ZN5telux3tel3ril3RilC1Ev=so_stub_for_libtelux_tel
-Wl,--defsym=_ZN5telux3tel3ril3RilC2Ev=so_stub_for_libtelux_tel
-Wl,--defsym=_ZN5telux3tel3ril3RilD1Ev=so_stub_for_libtelux_tel
-Wl,--defsym=_ZN5telux3tel3ril3RilD2Ev=so_stub_for_libtelux_tel
-Wl,--defsym=_ZN5telux3tel3ril6Socket10sendToQrtrEPKvmNS1_11QrtrAddressE=so_stub_for_libtelux_tel
-Wl,--defsym=_ZN5telux3tel3ril6Socket11isConnectedEv=so_stub_for_libtelux_tel
-Wl,--defsym=_ZN5telux3tel3ril6Socket12onDisconnectEv=so_stub_for_libtelux_tel
-Wl,--defsym=_ZN5telux3tel3ril6Socket22socketQrtrReaderThreadEjt=so_stub_for_libtelux_tel
-Wl,--defsym=_ZN5telux3tel3ril6Socket4initEbjt=so_stub_for_libtelux_tel
-Wl,--defsym=_ZN5telux3tel3ril6Socket4sendERK6Parcel=so_stub_for_libtelux_tel
-Wl,--defsym=_ZN5telux3tel3ril6Socket5closeEv=so_stub_for_libtelux_tel
-Wl,--defsym=_ZN5telux3tel3ril6Socket5getFdEv=so_stub_for_libtelux_tel
-Wl,--defsym=_ZN5telux3tel3ril6Socket8shutdownEv=so_stub_for_libtelux_tel
-Wl,--defsym=_ZN5telux3tel3ril6Socket9isExitingEv=so_stub_for_libtelux_tel
-Wl,--defsym=_ZN5telux3tel3ril6Socket9onConnectEv=so_stub_for_libtelux_tel
-Wl,--defsym=_ZN5telux3tel3ril6SocketC1EiSt10shared_ptrINS1_15ISocketListenerEE=so_stub_for_libtelux_tel
-Wl,--defsym=_ZN5telux3tel3ril6SocketC1ENSt7__cxx1112basic_stringIcSt11char_traitsIcESaIcEEESt10shared_ptrINS1_15ISocketListenerEE=so_stub_for_libtelux_tel
-Wl,--defsym=_ZN5telux3tel3ril6SocketC2EiSt10shared_ptrINS1_15ISocketListenerEE=so_stub_for_libtelux_tel
-Wl,--defsym=_ZN5telux3tel3ril6SocketC2ENSt7__cxx1112basic_stringIcSt11char_traitsIcESaIcEEESt10shared_ptrINS1_15ISocketListenerEE=so_stub_for_libtelux_tel
-Wl,--defsym=_ZN5telux3tel3ril6SocketD1Ev=so_stub_for_libtelux_tel
-Wl,--defsym=_ZN5telux3tel3ril6SocketD2Ev=so_stub_for_libtelux_tel
-Wl,--defsym=_ZN5telux3tel3ril7Request10getHandlerEv=so_stub_for_libtelux_tel
-Wl,--defsym=_ZN5telux3tel3ril7Request11getUserDataEv=so_stub_for_libtelux_tel
-Wl,--defsym=_ZN5telux3tel3ril7Request12getCommandIdEv=so_stub_for_libtelux_tel
-Wl,--defsym=_ZN5telux3tel3ril7Request12getStartTimeEv=so_stub_for_libtelux_tel
-Wl,--defsym=_ZN5telux3tel3ril7Request13isRequestSentEv=so_stub_for_libtelux_tel
-Wl,--defsym=_ZN5telux3tel3ril7Request14getRequestNameB5cxx11Ev=so_stub_for_libtelux_tel
-Wl,--defsym=_ZN5telux3tel3ril7Request14isTimeoutBoundEv=so_stub_for_libtelux_tel
-Wl,--defsym=_ZN5telux3tel3ril7Request15updateStartTimeEv=so_stub_for_libtelux_tel
-Wl,--defsym=_ZN5telux3tel3ril7Request16updateStatusSentEv=so_stub_for_libtelux_tel
-Wl,--defsym=_ZN5telux3tel3ril7Request18getCommandCallbackEv=so_stub_for_libtelux_tel
-Wl,--defsym=_ZN5telux3tel3ril7Request8g_SerialE=so_stub_for_libtelux_tel
-Wl,--defsym=_ZN5telux3tel3ril7Request9getParcelEv=so_stub_for_libtelux_tel
-Wl,--defsym=_ZN5telux3tel3ril7Request9getSlotIdEv=so_stub_for_libtelux_tel
-Wl,--defsym=_ZN5telux3tel3ril7RequestC1EiSt10shared_ptrINS_6common15ResponseHandlerEEiS3_INS4_16ICommandCallbackEEPvib=so_stub_for_libtelux_tel
-Wl,--defsym=_ZN5telux3tel3ril7RequestC2EiSt10shared_ptrINS_6common15ResponseHandlerEEiS3_INS4_16ICommandCallbackEEPvib=so_stub_for_libtelux_tel
-Wl,--defsym=_ZN5telux3tel3ril8ResponseC1EiSt10shared_ptrI6ParcelE=so_stub_for_libtelux_tel
-Wl,--defsym=_ZN5telux3tel3ril8ResponseC2EiSt10shared_ptrI6ParcelE=so_stub_for_libtelux_tel
-Wl,--defsym=_ZN5telux3tel3ril9solRoutesE=so_stub_for_libtelux_tel
-Wl,--defsym=_ZN5telux3tel4Call10getPhoneIdEv=so_stub_for_libtelux_tel
-Wl,--defsym=_ZN5telux3tel4Call10getRttModeEv=so_stub_for_libtelux_tel
-Wl,--defsym=_ZN5telux3tel4Call11getCallInfoEv=so_stub_for_libtelux_tel
-Wl,--defsym=_ZN5telux3tel4Call11getCallTypeEv=so_stub_for_libtelux_tel
-Wl,--defsym=_ZN5telux3tel4Call11isInfoStaleERKNS0_8CallInfoE=so_stub_for_libtelux_tel
-Wl,--defsym=_ZN5telux3tel4Call12getCallIndexEv=so_stub_for_libtelux_tel
-Wl,--defsym=_ZN5telux3tel4Call12getCallStateEv=so_stub_for_libtelux_tel
-Wl,--defsym=_ZN5telux3tel4Call12playDtmfToneEcSt10shared_ptrINS_6common24ICommandResponseCallbackEE=so_stub_for_libtelux_tel
-Wl,--defsym=_ZN5telux3tel4Call12setCallStateENS0_9CallStateE=so_stub_for_libtelux_tel
-Wl,--defsym=_ZN5telux3tel4Call12stopDtmfToneESt10shared_ptrINS_6common24ICommandResponseCallbackEE=so_stub_for_libtelux_tel
-Wl,--defsym=_ZN5telux3tel4Call13startDtmfToneEcSt10shared_ptrINS_6common24ICommandResponseCallbackEE=so_stub_for_libtelux_tel
-Wl,--defsym=_ZN5telux3tel4Call14logCallDetailsEv=so_stub_for_libtelux_tel
-Wl,--defsym=_ZN5telux3tel4Call14updateCallInfoERNS0_8CallInfoE=so_stub_for_libtelux_tel
-Wl,--defsym=_ZN5telux3tel4Call15getCallEndCauseEv=so_stub_for_libtelux_tel
-Wl,--defsym=_ZN5telux3tel4Call15getSipErrorCodeEv=so_stub_for_libtelux_tel
-Wl,--defsym=_ZN5telux3tel4Call15setCallEndCauseENS0_12CallEndCauseE=so_stub_for_libtelux_tel
-Wl,--defsym=_ZN5telux3tel4Call15setSipErrorCodeEi=so_stub_for_libtelux_tel
-Wl,--defsym=_ZN5telux3tel4Call16getCallDirectionEv=so_stub_for_libtelux_tel
-Wl,--defsym=_ZN5telux3tel4Call16isMultiPartyCallEv=so_stub_for_libtelux_tel
-Wl,--defsym=_ZN5telux3tel4Call16registerListenerESt8weak_ptrINS0_19ICallUpdateListenerEE=so_stub_for_libtelux_tel
-Wl,--defsym=_ZN5telux3tel4Call17initiateDialEcallERKSt6vectorIhSaIhEEbiiib=so_stub_for_libtelux_tel
-Wl,--defsym=_ZN5telux3tel4Call17isTpsEcallOverImsEv=so_stub_for_libtelux_tel
-Wl,--defsym=_ZN5telux3tel4Call18deregisterListenerESt8weak_ptrINS0_19ICallUpdateListenerEE=so_stub_for_libtelux_tel
-Wl,--defsym=_ZN5telux3tel4Call18handleDialResponseEiSt10shared_ptrINS_6common16ICommandCallbackEE=so_stub_for_libtelux_tel
-Wl,--defsym=_ZN5telux3tel4Call18handleHoldResponseEiSt10shared_ptrINS_6common16ICommandCallbackEE=so_stub_for_libtelux_tel
-Wl,--defsym=_ZN5telux3tel4Call18isInfoToBeNotifiedERNS0_8CallInfoE=so_stub_for_libtelux_tel
-Wl,--defsym=_ZN5telux3tel4Call19onDialECallResponseEP28voice_dial_call_resp_msg_v02Pv=so_stub_for_libtelux_tel
-Wl,--defsym=_ZN5telux3tel4Call20getPeerRttCapabilityEv=so_stub_for_libtelux_tel
-Wl,--defsym=_ZN5telux3tel4Call20getRemotePartyNumberB5cxx11Ev=so_stub_for_libtelux_tel
-Wl,--defsym=_ZN5telux3tel4Call20handleAnswerResponseEiSt10shared_ptrINS_6common16ICommandCallbackEE=so_stub_for_libtelux_tel
-Wl,--defsym=_ZN5telux3tel4Call20handleHangupResponseEiSt10shared_ptrINS_6common16ICommandCallbackEE=so_stub_for_libtelux_tel
-Wl,--defsym=_ZN5telux3tel4Call20handleRejectResponseEiSt10shared_ptrINS_6common16ICommandCallbackEE=so_stub_for_libtelux_tel
-Wl,--defsym=_ZN5telux3tel4Call21getCallEndCauseStringB5cxx11Ev=so_stub_for_libtelux_tel
-Wl,--defsym=_ZN5telux3tel4Call21getLocalRttCapabilityEv=so_stub_for_libtelux_tel
-Wl,--defsym=_ZN5telux3tel4Call21setCallEndCauseStringENSt7__cxx1112basic_stringIcSt11char_traitsIcESaIcEEE=so_stub_for_libtelux_tel
-Wl,--defsym=_ZN5telux3tel4Call22respondToModifyRequestEbSt10shared_ptrINS_6common24ICommandResponseCallbackEE=so_stub_for_libtelux_tel
-Wl,--defsym=_ZN5telux3tel4Call23handleSolicitedResponseESt10shared_ptrINS_6common6ResultEE=so_stub_for_libtelux_tel
-Wl,--defsym=_ZN5telux3tel4Call24handleHangupWtBgResponseEiSt10shared_ptrINS_6common16ICommandCallbackEE=so_stub_for_libtelux_tel
-Wl,--defsym=_ZN5telux3tel4Call25handleUnsolicitedResponseESt10shared_ptrINS_6common6ResultEE=so_stub_for_libtelux_tel
-Wl,--defsym=_ZN5telux3tel4Call26handlePlayDtmfToneResponseEiSt10shared_ptrINS_6common16ICommandCallbackEE=so_stub_for_libtelux_tel
-Wl,--defsym=_ZN5telux3tel4Call26handleStopDtmfToneResponseEiSt10shared_ptrINS_6common16ICommandCallbackEE=so_stub_for_libtelux_tel
-Wl,--defsym=_ZN5telux3tel4Call26notifyToUpdateCurrentCallsEv=so_stub_for_libtelux_tel
-Wl,--defsym=_ZN5telux3tel4Call27handleStartDtmfToneResponseEiSt10shared_ptrINS_6common16ICommandCallbackEE=so_stub_for_libtelux_tel
-Wl,--defsym=_ZN5telux3tel4Call28handleAcceptOrRejectResponseEiSt10shared_ptrINS_6common16ICommandCallbackEE=so_stub_for_libtelux_tel
-Wl,--defsym=_ZN5telux3tel4Call31handleModifyCallInitateResponseEiSt10shared_ptrINS_6common16ICommandCallbackEE=so_stub_for_libtelux_tel
-Wl,--defsym=_ZN5telux3tel4Call4dialESt10shared_ptrINS0_17IMakeCallCallbackEE=so_stub_for_libtelux_tel
-Wl,--defsym=_ZN5telux3tel4Call4holdESt10shared_ptrINS_6common24ICommandResponseCallbackEE=so_stub_for_libtelux_tel
-Wl,--defsym=_ZN5telux3tel4Call5matchERNS0_8CallInfoEi=so_stub_for_libtelux_tel
-Wl,--defsym=_ZN5telux3tel4Call6answerESt10shared_ptrINS_6common24ICommandResponseCallbackEENS0_7RttModeE=so_stub_for_libtelux_tel
-Wl,--defsym=_ZN5telux3tel4Call6hangupESt10shared_ptrINS_6common24ICommandResponseCallbackEE=so_stub_for_libtelux_tel
-Wl,--defsym=_ZN5telux3tel4Call6modifyENS0_7RttModeESt10shared_ptrINS_6common24ICommandResponseCallbackEE=so_stub_for_libtelux_tel
-Wl,--defsym=_ZN5telux3tel4Call6rejectERKNSt7__cxx1112basic_stringIcSt11char_traitsIcESaIcEEESt10shared_ptrINS_6common24ICommandResponseCallbackEE=so_stub_for_libtelux_tel
-Wl,--defsym=_ZN5telux3tel4Call6rejectESt10shared_ptrINS_6common24ICommandResponseCallbackEE=so_stub_for_libtelux_tel
-Wl,--defsym=_ZN5telux3tel4Call6resumeESt10shared_ptrINS_6common24ICommandResponseCallbackEE=so_stub_for_libtelux_tel
-Wl,--defsym=_ZN5telux3tel4Call9dialECallERKNS0_12ECallMsdDataEiiSt10shared_ptrINS0_17IMakeCallCallbackEE=so_stub_for_libtelux_tel
-Wl,--defsym=_ZN5telux3tel4Call9dialECallERKSt6vectorIhSaIhEEbiiSt8functionIFvNS_6common9ErrorCodeESt10shared_ptrINS0_5ICallEEEE=so_stub_for_libtelux_tel
-Wl,--defsym=_ZN5telux3tel4Call9dialECallERKSt6vectorIhSaIhEERNS0_15CustomSipHeaderESt8functionIFvNS_6common9ErrorCodeESt10shared_ptrINS0_5ICallEEEE=so_stub_for_libtelux_tel
-Wl,--defsym=_ZN5telux3tel4CallC1EiNS0_8CallInfoE=so_stub_for_libtelux_tel
-Wl,--defsym=_ZN5telux3tel4CallC2EiNS0_8CallInfoE=so_stub_for_libtelux_tel
-Wl,--defsym=_ZN5telux3tel4CallD0Ev=so_stub_for_libtelux_tel
-Wl,--defsym=_ZN5telux3tel4CallD1Ev=so_stub_for_libtelux_tel
-Wl,--defsym=_ZN5telux3tel4CallD2Ev=so_stub_for_libtelux_tel
-Wl,--defsym=_ZN5telux3tel5Phone10getPhoneIdERi=so_stub_for_libtelux_tel
-Wl,--defsym=_ZN5telux3tel5Phone11updateReadyEv=so_stub_for_libtelux_tel
-Wl,--defsym=_ZN5telux3tel5Phone13getRadioStateEv=so_stub_for_libtelux_tel
-Wl,--defsym=_ZN5telux3tel5Phone13setRadioPowerEbSt10shared_ptrINS_6common24ICommandResponseCallbackEE=so_stub_for_libtelux_tel
-Wl,--defsym=_ZN5telux3tel5Phone13setRadioStateENS0_10RadioStateE=so_stub_for_libtelux_tel
-Wl,--defsym=_ZN5telux3tel5Phone14onOperatorInfoEi=so_stub_for_libtelux_tel
-Wl,--defsym=_ZN5telux3tel5Phone14removeListenerESt8weak_ptrINS0_14IPhoneListenerEE=so_stub_for_libtelux_tel
-Wl,--defsym=_ZN5telux3tel5Phone15getServiceStateEv=so_stub_for_libtelux_tel
-Wl,--defsym=_ZN5telux3tel5Phone15onECallOprtModeEPvi=so_stub_for_libtelux_tel
-Wl,--defsym=_ZN5telux3tel5Phone15requestCellInfoESt8functionIFvSt6vectorISt10shared_ptrINS0_8CellInfoEESaIS6_EENS_6common9ErrorCodeEEE=so_stub_for_libtelux_tel
-Wl,--defsym=_ZN5telux3tel5Phone15setServiceStateENS0_12ServiceStateE=so_stub_for_libtelux_tel
-Wl,--defsym=_ZN5telux3tel5Phone16registerListenerESt8weak_ptrINS0_14IPhoneListenerEE=so_stub_for_libtelux_tel
-Wl,--defsym=_ZN5telux3tel5Phone16updateRadioStateENS0_10RadioStateE=so_stub_for_libtelux_tel
-Wl,--defsym=_ZN5telux3tel5Phone19requestOperatorInfoESt8functionIFvNS0_8PlmnInfoENS_6common9ErrorCodeEEE=so_stub_for_libtelux_tel
-Wl,--defsym=_ZN5telux3tel5Phone19requestOperatorNameESt8functionIFvNSt7__cxx1112basic_stringIcSt11char_traitsIcESaIcEEES8_NS_6common9ErrorCodeEEE=so_stub_for_libtelux_tel
-Wl,--defsym=_ZN5telux3tel5Phone19setCellInfoListRateEjSt8functionIFvNS_6common9ErrorCodeEEE=so_stub_for_libtelux_tel
-Wl,--defsym=_ZN5telux3tel5Phone20handleSignalStrengthEiPvbSt10shared_ptrINS_6common16ICommandCallbackEE=so_stub_for_libtelux_tel
-Wl,--defsym=_ZN5telux3tel5Phone21onServiceStatusChangeENS_6common13ServiceStatusE=so_stub_for_libtelux_tel
-Wl,--defsym=_ZN5telux3tel5Phone21requestSignalStrengthESt10shared_ptrINS0_23ISignalStrengthCallbackEE=so_stub_for_libtelux_tel
-Wl,--defsym=_ZN5telux3tel5Phone21setECallOperatingModeENS0_9ECallModeESt8functionIFvNS_6common9ErrorCodeEEE=so_stub_for_libtelux_tel
-Wl,--defsym=_ZN5telux3tel5Phone21waitForInitializationEv=so_stub_for_libtelux_tel
-Wl,--defsym=_ZN5telux3tel5Phone22handleGetEcallOprtModeEiPvSt10shared_ptrINS_6common16ICommandCallbackEE=so_stub_for_libtelux_tel
-Wl,--defsym=_ZN5telux3tel5Phone22handleSetEcallOprtModeEiSt10shared_ptrINS_6common16ICommandCallbackEE=so_stub_for_libtelux_tel
-Wl,--defsym=_ZN5telux3tel5Phone23configureSignalStrengthESt6vectorINS0_20SignalStrengthConfigESaIS3_EESt8functionIFvNS_6common9ErrorCodeEEE=so_stub_for_libtelux_tel
-Wl,--defsym=_ZN5telux3tel5Phone23configureSignalStrengthESt6vectorINS0_22SignalStrengthConfigExESaIS3_EEtSt8functionIFvNS_6common9ErrorCodeEEE=so_stub_for_libtelux_tel
-Wl,--defsym=_ZN5telux3tel5Phone23handleSolicitedResponseESt10shared_ptrINS_6common6ResultEE=so_stub_for_libtelux_tel
-Wl,--defsym=_ZN5telux3tel5Phone23notifyRadioStateChangedEiNS0_10RadioStateE=so_stub_for_libtelux_tel
-Wl,--defsym=_ZN5telux3tel5Phone24handleRadioPowerResponseEiSt10shared_ptrINS_6common16ICommandCallbackEE=so_stub_for_libtelux_tel
-Wl,--defsym=_ZN5telux3tel5Phone24handleServiceStateChangeENS_6common13ServiceStatusE=so_stub_for_libtelux_tel
-Wl,--defsym=_ZN5telux3tel5Phone24requestVoiceServiceStateESt8weak_ptrINS0_26IVoiceServiceStateCallbackEE=so_stub_for_libtelux_tel
-Wl,--defsym=_ZN5telux3tel5Phone25handleUnsolicitedResponseESt10shared_ptrINS_6common6ResultEE=so_stub_for_libtelux_tel
-Wl,--defsym=_ZN5telux3tel5Phone25notifyCellInfoListChangedEiRSt6vectorISt10shared_ptrINS0_8CellInfoEESaIS5_EE=so_stub_for_libtelux_tel
-Wl,--defsym=_ZN5telux3tel5Phone25notifyServiceStateChangedEiNS0_12ServiceStateE=so_stub_for_libtelux_tel
-Wl,--defsym=_ZN5telux3tel5Phone25requestECallOperatingModeESt8functionIFvNS0_9ECallModeENS_6common9ErrorCodeEEE=so_stub_for_libtelux_tel
-Wl,--defsym=_ZN5telux3tel5Phone25voiceServiceStateResponseERKSt10shared_ptrINS0_16VoiceServiceInfoEENS_6common9ErrorCodeE=so_stub_for_libtelux_tel
-Wl,--defsym=_ZN5telux3tel5Phone26handleCellInfoListResponseEiPvbSt10shared_ptrINS_6common16ICommandCallbackEE=so_stub_for_libtelux_tel
-Wl,--defsym=_ZN5telux3tel5Phone27getVoiceServiceStateFromMapEi=so_stub_for_libtelux_tel
-Wl,--defsym=_ZN5telux3tel5Phone27notifySignalStrengthChangedEiSt10shared_ptrINS0_14SignalStrengthEE=so_stub_for_libtelux_tel
-Wl,--defsym=_ZN5telux3tel5Phone27requestVoiceRadioTechnologyESt8functionIFvNS0_15RadioTechnologyENS_6common9ErrorCodeEEE=so_stub_for_libtelux_tel
-Wl,--defsym=_ZN5telux3tel5Phone28handleSignalStrengthResponseEiPvbSt10shared_ptrINS_6common16ICommandCallbackEE=so_stub_for_libtelux_tel
-Wl,--defsym=_ZN5telux3tel5Phone28handleVoiceRadioTechResponseEiPvSt10shared_ptrINS_6common16ICommandCallbackEEb=so_stub_for_libtelux_tel
-Wl,--defsym=_ZN5telux3tel5Phone28notifyRadioTechnologyChangedEiNS0_15RadioTechnologyE=so_stub_for_libtelux_tel
-Wl,--defsym=_ZN5telux3tel5Phone29handleConfigureSignalStrengthEiSt10shared_ptrINS_6common16ICommandCallbackEE=so_stub_for_libtelux_tel
-Wl,--defsym=_ZN5telux3tel5Phone29handleRequestOperatorResponseEiPvSt10shared_ptrINS_6common16ICommandCallbackEE=so_stub_for_libtelux_tel
-Wl,--defsym=_ZN5telux3tel5Phone30handleCellInfoListRateResponseEiSt10shared_ptrINS_6common16ICommandCallbackEE=so_stub_for_libtelux_tel
-Wl,--defsym=_ZN5telux3tel5Phone30notifyVoiceServiceStateChangedESt10shared_ptrINS0_16VoiceServiceInfoEE=so_stub_for_libtelux_tel
-Wl,--defsym=_ZN5telux3tel5Phone31handleVoiceServiceStateResponseEiPvSt10shared_ptrINS_6common16ICommandCallbackEE=so_stub_for_libtelux_tel
-Wl,--defsym=_ZN5telux3tel5Phone31validateSignalStrengthThresholdENS0_29SignalStrengthMeasurementTypeEi=so_stub_for_libtelux_tel
-Wl,--defsym=_ZN5telux3tel5Phone32validateSignalStrengthThresholdsENS0_23RadioSignalStrengthTypeEii=so_stub_for_libtelux_tel
-Wl,--defsym=_ZN5telux3tel5Phone33getVoiceServiceDenialCauseFromMapEi=so_stub_for_libtelux_tel
-Wl,--defsym=_ZN5telux3tel5Phone41handleDeprecatedVoiceServiceStateResponseERKSt10shared_ptrINS0_16VoiceServiceInfoEE=so_stub_for_libtelux_tel
-Wl,--defsym=_ZN5telux3tel5Phone4initEv=so_stub_for_libtelux_tel
-Wl,--defsym=_ZN5telux3tel5Phone7cleanupEv=so_stub_for_libtelux_tel
-Wl,--defsym=_ZN5telux3tel5Phone7isReadyEv=so_stub_for_libtelux_tel
-Wl,--defsym=_ZN5telux3tel5Phone7onReadyEv=so_stub_for_libtelux_tel
-Wl,--defsym=_ZN5telux3tel5Phone8initSyncEv=so_stub_for_libtelux_tel
-Wl,--defsym=_ZN5telux3tel5PhoneC1Ei=so_stub_for_libtelux_tel
-Wl,--defsym=_ZN5telux3tel5PhoneC2Ei=so_stub_for_libtelux_tel
-Wl,--defsym=_ZN5telux3tel5PhoneD0Ev=so_stub_for_libtelux_tel
-Wl,--defsym=_ZN5telux3tel5PhoneD1Ev=so_stub_for_libtelux_tel
-Wl,--defsym=_ZN5telux3tel5PhoneD2Ev=so_stub_for_libtelux_tel
-Wl,--defsym=_ZN5telux3tel5Utils10checkErrorEi=so_stub_for_libtelux_tel
-Wl,--defsym=_ZN5telux3tel5Utils12getHexStringB5cxx11Et=so_stub_for_libtelux_tel
-Wl,--defsym=_ZN5telux3tel5Utils12readHexOctetENSt7__cxx1112basic_stringIcSt11char_traitsIcESaIcEEERi=so_stub_for_libtelux_tel
-Wl,--defsym=_ZN5telux3tel5Utils14readConfigFileENSt7__cxx1112basic_stringIcSt11char_traitsIcESaIcEEERSt3mapIS7_S7_St4lessIS7_ESaISt4pairIKS7_S7_EEE=so_stub_for_libtelux_tel
-Wl,--defsym=_ZN5telux3tel5Utils15hexStringToIntsENSt7__cxx1112basic_stringIcSt11char_traitsIcESaIcEEEi=so_stub_for_libtelux_tel
-Wl,--defsym=_ZN5telux3tel5Utils16bytesToHexStringB5cxx11ESt6vectorIhSaIhEE=so_stub_for_libtelux_tel
-Wl,--defsym=_ZN5telux3tel5Utils16getToaFromStringENSt7__cxx1112basic_stringIcSt11char_traitsIcESaIcEEE=so_stub_for_libtelux_tel
-Wl,--defsym=_ZN5telux3tel5Utils16hexStringToBytesENSt7__cxx1112basic_stringIcSt11char_traitsIcESaIcEEEi=so_stub_for_libtelux_tel
-Wl,--defsym=_ZN5telux3tel5Utils18decodeUcs2ToStringB5cxx11EPhi=so_stub_for_libtelux_tel
-Wl,--defsym=_ZN5telux3tel5Utils19ParcelReadExceptionD0Ev=so_stub_for_libtelux_tel
-Wl,--defsym=_ZN5telux3tel5Utils19ParcelReadExceptionD1Ev=so_stub_for_libtelux_tel
-Wl,--defsym=_ZN5telux3tel5Utils19ParcelReadExceptionD2Ev=so_stub_for_libtelux_tel
-Wl,--defsym=_ZN5telux3tel5Utils20charBytesToHexStringB5cxx11ESt6vectorIcSaIcEE=so_stub_for_libtelux_tel
-Wl,--defsym=_ZN5telux3tel5Utils20hexStringToCharBytesENSt7__cxx1112basic_stringIcSt11char_traitsIcESaIcEEEi=so_stub_for_libtelux_tel
-Wl,--defsym=_ZN5telux3tel5Utils21convertUTF16To8StringENSt7__cxx1112basic_stringIDsSt11char_traitsIDsESaIDsEEE=so_stub_for_libtelux_tel
-Wl,--defsym=_ZN5telux3tel5Utils21convertUTF8To16StringENSt7__cxx1112basic_stringIcSt11char_traitsIcESaIcEEE=so_stub_for_libtelux_tel
-Wl,--defsym=_ZN5telux3tel5Utils21decodeGsm8BitToStringB5cxx11EPhii=so_stub_for_libtelux_tel
-Wl,--defsym=_ZN5telux3tel5Utils25decodeAlphaFieldsToStringB5cxx11EPhii=so_stub_for_libtelux_tel
-Wl,--defsym=_ZN5telux3tel5Utils25getSwappedNibbleBcdStringERKNSt7__cxx1112basic_stringIcSt11char_traitsIcESaIcEEE=so_stub_for_libtelux_tel
-Wl,--defsym=_ZN5telux3tel5Utils26readWideStringAsByteStringB5cxx11ESt10shared_ptrI6ParcelE=so_stub_for_libtelux_tel
-Wl,--defsym=_ZN5telux3tel5Utils9charToIntEc=so_stub_for_libtelux_tel
-Wl,--defsym=_ZN5telux3tel6Circle9getCenterEv=so_stub_for_libtelux_tel
-Wl,--defsym=_ZN5telux3tel6Circle9getRadiusEv=so_stub_for_libtelux_tel
-Wl,--defsym=_ZN5telux3tel6CircleC1ENS0_5PointEd=so_stub_for_libtelux_tel
-Wl,--defsym=_ZN5telux3tel6CircleC2ENS0_5PointEd=so_stub_for_libtelux_tel
-Wl,--defsym=_ZN5telux3tel7Polygon11getVerticesEv=so_stub_for_libtelux_tel
-Wl,--defsym=_ZN5telux3tel7PolygonC1ESt6vectorINS0_5PointESaIS3_EE=so_stub_for_libtelux_tel
-Wl,--defsym=_ZN5telux3tel7PolygonC2ESt6vectorINS0_5PointESaIS3_EE=so_stub_for_libtelux_tel
-Wl,--defsym=_ZN5telux3tel7readDcsEtRhS1_=so_stub_for_libtelux_tel
-Wl,--defsym=_ZN5telux3tel7SmsInfoaSEOS1_=so_stub_for_libtelux_tel
-Wl,--defsym=_ZN5telux3tel7SmsInfoaSERKS1_=so_stub_for_libtelux_tel
-Wl,--defsym=_ZN5telux3tel7SmsInfoC1EOS1_=so_stub_for_libtelux_tel
-Wl,--defsym=_ZN5telux3tel7SmsInfoC1ERKS1_=so_stub_for_libtelux_tel
-Wl,--defsym=_ZN5telux3tel7SmsInfoC1Ev=so_stub_for_libtelux_tel
-Wl,--defsym=_ZN5telux3tel7SmsInfoC2EOS1_=so_stub_for_libtelux_tel
-Wl,--defsym=_ZN5telux3tel7SmsInfoC2ERKS1_=so_stub_for_libtelux_tel
-Wl,--defsym=_ZN5telux3tel7SmsInfoC2Ev=so_stub_for_libtelux_tel
-Wl,--defsym=_ZN5telux3tel7SmsInfoD1Ev=so_stub_for_libtelux_tel
-Wl,--defsym=_ZN5telux3tel7SmsInfoD2Ev=so_stub_for_libtelux_tel
-Wl,--defsym=_ZN5telux3tel8CallInfoaSERKS1_=so_stub_for_libtelux_tel
-Wl,--defsym=_ZN5telux3tel8CallInfoC1ERKS1_=so_stub_for_libtelux_tel
-Wl,--defsym=_ZN5telux3tel8CallInfoC1Ev=so_stub_for_libtelux_tel
-Wl,--defsym=_ZN5telux3tel8CallInfoC2ERKS1_=so_stub_for_libtelux_tel
-Wl,--defsym=_ZN5telux3tel8CallInfoC2Ev=so_stub_for_libtelux_tel
-Wl,--defsym=_ZN5telux3tel8CallInfoD1Ev=so_stub_for_libtelux_tel
-Wl,--defsym=_ZN5telux3tel8CallInfoD2Ev=so_stub_for_libtelux_tel
-Wl,--defsym=_ZN5telux3tel8CardImpl10requestEidESt8functionIFvRKNSt7__cxx1112basic_stringIcSt11char_traitsIcESaIcEEENS_6common9ErrorCodeEEE=so_stub_for_libtelux_tel
-Wl,--defsym=_ZN5telux3tel8CardImpl13exchangeSimIOEthhhhNSt7__cxx1112basic_stringIcSt11char_traitsIcESaIcEEESt6vectorIhSaIhEES7_S7_St10shared_ptrINS0_20ICardCommandCallbackEE=so_stub_for_libtelux_tel
-Wl,--defsym=_ZN5telux3tel8CardImpl13onEidResponseEP24uim_get_eid_resp_msg_v01Pvi=so_stub_for_libtelux_tel
-Wl,--defsym=_ZN5telux3tel8CardImpl13validateAppIdENSt7__cxx1112basic_stringIcSt11char_traitsIcESaIcEEE=so_stub_for_libtelux_tel
-Wl,--defsym=_ZN5telux3tel8CardImpl14getFileHandlerEv=so_stub_for_libtelux_tel
-Wl,--defsym=_ZN5telux3tel8CardImpl15getApplicationsEPNS_6common6StatusE=so_stub_for_libtelux_tel
-Wl,--defsym=_ZN5telux3tel8CardImpl16getServiceStatusEv=so_stub_for_libtelux_tel
-Wl,--defsym=_ZN5telux3tel8CardImpl16handleSimRefreshEPNS0_18IccRefreshResponseE=so_stub_for_libtelux_tel
-Wl,--defsym=_ZN5telux3tel8CardImpl16setServiceStatusENS_6common13ServiceStatusE=so_stub_for_libtelux_tel
-Wl,--defsym=_ZN5telux3tel8CardImpl17handleOpenChannelEPSt6vectorIiSaIiEEiSt10shared_ptrINS_6common16ICommandCallbackEE=so_stub_for_libtelux_tel
-Wl,--defsym=_ZN5telux3tel8CardImpl18handleCloseChannelEiSt10shared_ptrINS_6common16ICommandCallbackEE=so_stub_for_libtelux_tel
-Wl,--defsym=_ZN5telux3tel8CardImpl18isNtnProfileActiveEv=so_stub_for_libtelux_tel
-Wl,--defsym=_ZN5telux3tel8CardImpl18openLogicalChannelENSt7__cxx1112basic_stringIcSt11char_traitsIcESaIcEEESt10shared_ptrINS0_20ICardChannelCallbackEE=so_stub_for_libtelux_tel
-Wl,--defsym=_ZN5telux3tel8CardImpl18updateGetSimStatusEPNS0_10CardStatusEi=so_stub_for_libtelux_tel
-Wl,--defsym=_ZN5telux3tel8CardImpl19closeLogicalChannelEiSt10shared_ptrINS_6common24ICommandResponseCallbackEE=so_stub_for_libtelux_tel
-Wl,--defsym=_ZN5telux3tel8CardImpl19handleExchangeSimIOEPNS0_9IccResultEiSt10shared_ptrINS_6common16ICommandCallbackEE=so_stub_for_libtelux_tel
-Wl,--defsym=_ZN5telux3tel8CardImpl23handleSolicitedResponseESt10shared_ptrINS_6common6ResultEE=so_stub_for_libtelux_tel
-Wl,--defsym=_ZN5telux3tel8CardImpl24onUimServiceStatusChangeENS_6common13ServiceStatusE=so_stub_for_libtelux_tel
-Wl,--defsym=_ZN5telux3tel8CardImpl24transmitApduBasicChannelEhhhhhSt6vectorIhSaIhEESt10shared_ptrINS0_20ICardCommandCallbackEE=so_stub_for_libtelux_tel
-Wl,--defsym=_ZN5telux3tel8CardImpl25handleUnsolicitedResponseESt10shared_ptrINS_6common6ResultEE=so_stub_for_libtelux_tel
-Wl,--defsym=_ZN5telux3tel8CardImpl26transmitApduLogicalChannelEihhhhhSt6vectorIhSaIhEESt10shared_ptrINS0_20ICardCommandCallbackEE=so_stub_for_libtelux_tel
-Wl,--defsym=_ZN5telux3tel8CardImpl30handleTransmitApduBasicChannelEPNS0_9IccResultEiSt10shared_ptrINS_6common16ICommandCallbackEE=so_stub_for_libtelux_tel
-Wl,--defsym=_ZN5telux3tel8CardImpl32handleTransmitApduLogicalChannelEPNS0_9IccResultEiSt10shared_ptrINS_6common16ICommandCallbackEE=so_stub_for_libtelux_tel
-Wl,--defsym=_ZN5telux3tel8CardImpl4initEv=so_stub_for_libtelux_tel
-Wl,--defsym=_ZN5telux3tel8CardImpl7cleanupEv=so_stub_for_libtelux_tel
-Wl,--defsym=_ZN5telux3tel8CardImpl8getStateERNS0_9CardStateE=so_stub_for_libtelux_tel
-Wl,--defsym=_ZN5telux3tel8CardImpl9getSlotIdEv=so_stub_for_libtelux_tel
-Wl,--defsym=_ZN5telux3tel8CardImplC1Ei=so_stub_for_libtelux_tel
-Wl,--defsym=_ZN5telux3tel8CardImplC2Ei=so_stub_for_libtelux_tel
-Wl,--defsym=_ZN5telux3tel8CardImplD0Ev=so_stub_for_libtelux_tel
-Wl,--defsym=_ZN5telux3tel8CardImplD1Ev=so_stub_for_libtelux_tel
-Wl,--defsym=_ZN5telux3tel8CardImplD2Ev=so_stub_for_libtelux_tel
-Wl,--defsym=_ZN5telux3tel8CellInfo12isRegisteredEv=so_stub_for_libtelux_tel
-Wl,--defsym=_ZN5telux3tel8CellInfo7getTypeEv=so_stub_for_libtelux_tel
-Wl,--defsym=_ZN5telux3tel8CellInfoD0Ev=so_stub_for_libtelux_tel
-Wl,--defsym=_ZN5telux3tel8CellInfoD1Ev=so_stub_for_libtelux_tel
-Wl,--defsym=_ZN5telux3tel8CellInfoD2Ev=so_stub_for_libtelux_tel
-Wl,--defsym=_ZN5telux3tel8CmasInfo10getUrgencyEv=so_stub_for_libtelux_tel
-Wl,--defsym=_ZN5telux3tel8CmasInfo11getSeverityEv=so_stub_for_libtelux_tel
-Wl,--defsym=_ZN5telux3tel8CmasInfo12getCertaintyEv=so_stub_for_libtelux_tel
-Wl,--defsym=_ZN5telux3tel8CmasInfo15getMessageClassEv=so_stub_for_libtelux_tel
-Wl,--defsym=_ZN5telux3tel8CmasInfo18getWarningAreaInfoEv=so_stub_for_libtelux_tel
-Wl,--defsym=_ZN5telux3tel8CmasInfoC1ENS0_17GeographicalScopeEiiNSt7__cxx1112basic_stringIcSt11char_traitsIcESaIcEEES8_NS0_15MessagePriorityENS0_16CmasMessageClassENS0_12CmasSeverityENS0_11CmasUrgencyENS0_13CmasCertaintyESt10shared_ptrINS0_15WarningAreaInfoEE=so_stub_for_libtelux_tel
-Wl,--defsym=_ZN5telux3tel8CmasInfoC2ENS0_17GeographicalScopeEiiNSt7__cxx1112basic_stringIcSt11char_traitsIcESaIcEEES8_NS0_15MessagePriorityENS0_16CmasMessageClassENS0_12CmasSeverityENS0_11CmasUrgencyENS0_13CmasCertaintyESt10shared_ptrINS0_15WarningAreaInfoEE=so_stub_for_libtelux_tel
-Wl,--defsym=_ZN5telux3tel8CmasInfoD1Ev=so_stub_for_libtelux_tel
-Wl,--defsym=_ZN5telux3tel8CmasInfoD2Ev=so_stub_for_libtelux_tel
-Wl,--defsym=_ZN5telux3tel8ECallMsd11getInstanceEv=so_stub_for_libtelux_tel
-Wl,--defsym=_ZN5telux3tel8ECallMsd11writeMsdPduILm10EEEvSt6bitsetIXT_EERNSt7__cxx1112basic_stringIcSt11char_traitsIcESaIcEEE=so_stub_for_libtelux_tel
-Wl,--defsym=_ZN5telux3tel8ECallMsd11writeMsdPduILm1EEEvSt6bitsetIXT_EERNSt7__cxx1112basic_stringIcSt11char_traitsIcESaIcEEE=so_stub_for_libtelux_tel
-Wl,--defsym=_ZN5telux3tel8ECallMsd11writeMsdPduILm32EEEvSt6bitsetIXT_EERNSt7__cxx1112basic_stringIcSt11char_traitsIcESaIcEEE=so_stub_for_libtelux_tel
-Wl,--defsym=_ZN5telux3tel8ECallMsd11writeMsdPduILm4EEEvSt6bitsetIXT_EERNSt7__cxx1112basic_stringIcSt11char_traitsIcESaIcEEE=so_stub_for_libtelux_tel
-Wl,--defsym=_ZN5telux3tel8ECallMsd11writeMsdPduILm5EEEvSt6bitsetIXT_EERNSt7__cxx1112basic_stringIcSt11char_traitsIcESaIcEEE=so_stub_for_libtelux_tel
-Wl,--defsym=_ZN5telux3tel8ECallMsd11writeMsdPduILm6EEEvSt6bitsetIXT_EERNSt7__cxx1112basic_stringIcSt11char_traitsIcESaIcEEE=so_stub_for_libtelux_tel
-Wl,--defsym=_ZN5telux3tel8ECallMsd11writeMsdPduILm7EEEvSt6bitsetIXT_EERNSt7__cxx1112basic_stringIcSt11char_traitsIcESaIcEEE=so_stub_for_libtelux_tel
-Wl,--defsym=_ZN5telux3tel8ECallMsd11writeMsdPduILm8EEEvSt6bitsetIXT_EERNSt7__cxx1112basic_stringIcSt11char_traitsIcESaIcEEE=so_stub_for_libtelux_tel
-Wl,--defsym=_ZN5telux3tel8ECallMsd12processOctetEi=so_stub_for_libtelux_tel
-Wl,--defsym=_ZN5telux3tel8ECallMsd16generateECallMsdERKNS0_12ECallMsdDataERSt6vectorIhSaIhEE=so_stub_for_libtelux_tel
-Wl,--defsym=_ZN5telux3tel8ECallMsd17writeOptionalDataERKNS0_12ECallMsdDataERNSt7__cxx1112basic_stringIcSt11char_traitsIcESaIcEEE=so_stub_for_libtelux_tel
-Wl,--defsym=_ZN5telux3tel8ECallMsd18convertOidToOctetsENSt7__cxx1112basic_stringIcSt11char_traitsIcESaIcEEE=so_stub_for_libtelux_tel
-Wl,--defsym=_ZN5telux3tel8ECallMsd18encodeOneByteFieldEttPhS2_=so_stub_for_libtelux_tel
-Wl,--defsym=_ZN5telux3tel8ECallMsd19encodeTwoBytesFieldEttPtPh=so_stub_for_libtelux_tel
-Wl,--defsym=_ZN5telux3tel8ECallMsd19encodingToMultiByteEi=so_stub_for_libtelux_tel
-Wl,--defsym=_ZN5telux3tel8ECallMsd20writePrintableStringENSt7__cxx1112basic_stringIcSt11char_traitsIcESaIcEEERS7_b=so_stub_for_libtelux_tel
-Wl,--defsym=_ZN5telux3tel8ECallMsd21uperEncodingForOctetsESt6vectorIiSaIiEE=so_stub_for_libtelux_tel
-Wl,--defsym=_ZN5telux3tel8ECallMsd25calculateMsdMessageLengthERKNS0_12ECallMsdDataEh=so_stub_for_libtelux_tel
-Wl,--defsym=_ZN5telux3tel8ECallMsd25getEncodedOIDLengthInBitsENSt7__cxx1112basic_stringIcSt11char_traitsIcESaIcEEE=so_stub_for_libtelux_tel
-Wl,--defsym=_ZN5telux3tel8ECallMsd25writeVehicleLocationDeltaERKNS0_12ECallMsdDataERNSt7__cxx1112basic_stringIcSt11char_traitsIcESaIcEEEss=so_stub_for_libtelux_tel
-Wl,--defsym=_ZN5telux3tel8ECallMsd26writeVehicleIdentificationERKNS0_12ECallMsdDataERNSt7__cxx1112basic_stringIcSt11char_traitsIcESaIcEEE=so_stub_for_libtelux_tel
-Wl,--defsym=_ZN5telux3tel8ECallMsd27writeOptionalAdditionalDataERKNS0_12ECallMsdDataERNSt7__cxx1112basic_stringIcSt11char_traitsIcESaIcEEE=so_stub_for_libtelux_tel
-Wl,--defsym=_ZN5telux3tel8ECallMsd29writeVehiclePropulsionStorageERKNS0_12ECallMsdDataERNSt7__cxx1112basic_stringIcSt11char_traitsIcESaIcEEE=so_stub_for_libtelux_tel
-Wl,--defsym=_ZN5telux3tel8ECallMsd43encodeEuroNcapOptionalAdditionalDataContentENS0_25ECallOptionalEuroNcapDataERSt6vectorIhSaIhEE=so_stub_for_libtelux_tel
-Wl,--defsym=_ZN5telux3tel8ECallMsd6logMsdERKNS0_12ECallMsdDataE=so_stub_for_libtelux_tel
-Wl,--defsym=_ZN5telux3tel8ECallMsd8writeOidERKNS0_12ECallMsdDataERNSt7__cxx1112basic_stringIcSt11char_traitsIcESaIcEEE=so_stub_for_libtelux_tel
-Wl,--defsym=_ZN5telux3tel8ECallMsdC1Ev=so_stub_for_libtelux_tel
-Wl,--defsym=_ZN5telux3tel8ECallMsdC2Ev=so_stub_for_libtelux_tel
-Wl,--defsym=_ZN5telux3tel8ECallMsdD1Ev=so_stub_for_libtelux_tel
-Wl,--defsym=_ZN5telux3tel8ECallMsdD2Ev=so_stub_for_libtelux_tel
-Wl,--defsym=_ZN5telux3tel8EtwsInfo12isPopupAlertEv=so_stub_for_libtelux_tel
-Wl,--defsym=_ZN5telux3tel8EtwsInfo18getEtwsWarningTypeEv=so_stub_for_libtelux_tel
-Wl,--defsym=_ZN5telux3tel8EtwsInfo20isEmergencyUserAlertEv=so_stub_for_libtelux_tel
-Wl,--defsym=_ZN5telux3tel8EtwsInfo29getWarningSecurityInformationEv=so_stub_for_libtelux_tel
-Wl,--defsym=_ZN5telux3tel8EtwsInfo9isPrimaryEv=so_stub_for_libtelux_tel
-Wl,--defsym=_ZN5telux3tel8EtwsInfoC1ENS0_17GeographicalScopeEiiNSt7__cxx1112basic_stringIcSt11char_traitsIcESaIcEEES8_NS0_15MessagePriorityENS0_15EtwsWarningTypeEbbbSt6vectorIhSaIhEE=so_stub_for_libtelux_tel
-Wl,--defsym=_ZN5telux3tel8EtwsInfoC2ENS0_17GeographicalScopeEiiNSt7__cxx1112basic_stringIcSt11char_traitsIcESaIcEEES8_NS0_15MessagePriorityENS0_15EtwsWarningTypeEbbbSt6vectorIhSaIhEE=so_stub_for_libtelux_tel
-Wl,--defsym=_ZN5telux3tel8EtwsInfoD1Ev=so_stub_for_libtelux_tel
-Wl,--defsym=_ZN5telux3tel8EtwsInfoD2Ev=so_stub_for_libtelux_tel
-Wl,--defsym=_ZN5telux3tel8GeometryC1ESt10shared_ptrINS0_6CircleEE=so_stub_for_libtelux_tel
-Wl,--defsym=_ZN5telux3tel8GeometryC1ESt10shared_ptrINS0_7PolygonEE=so_stub_for_libtelux_tel
-Wl,--defsym=_ZN5telux3tel8GeometryC2ESt10shared_ptrINS0_6CircleEE=so_stub_for_libtelux_tel
-Wl,--defsym=_ZN5telux3tel8GeometryC2ESt10shared_ptrINS0_7PolygonEE=so_stub_for_libtelux_tel
-Wl,--defsym=_ZN5telux3tel8GeometryD1Ev=so_stub_for_libtelux_tel
-Wl,--defsym=_ZN5telux3tel8GeometryD2Ev=so_stub_for_libtelux_tel
-Wl,--defsym=_ZN5telux3tel8PlmnInfoC1ERKS1_=so_stub_for_libtelux_tel
-Wl,--defsym=_ZN5telux3tel8PlmnInfoC2ERKS1_=so_stub_for_libtelux_tel
-Wl,--defsym=_ZN5telux3tel8PlmnInfoD1Ev=so_stub_for_libtelux_tel
-Wl,--defsym=_ZN5telux3tel8PlmnInfoD2Ev=so_stub_for_libtelux_tel
-Wl,--defsym=_ZN5telux3tel9IccResultC1ERKS1_=so_stub_for_libtelux_tel
-Wl,--defsym=_ZN5telux3tel9IccResultC2ERKS1_=so_stub_for_libtelux_tel
-Wl,--defsym=_ZN5telux3tel9IccResultD1Ev=so_stub_for_libtelux_tel
-Wl,--defsym=_ZN5telux3tel9IccResultD2Ev=so_stub_for_libtelux_tel
-Wl,--defsym=_ZN5telux3tel9SmsHelper12findLangInfoERKSt10shared_ptrINS0_7SmsInfoEE=so_stub_for_libtelux_tel
-Wl,--defsym=_ZN5telux3tel9SmsHelper12getGsmSmsPduB5cxx11ERKSt10shared_ptrINS0_7SmsInfoEEPNS_6common6StatusE=so_stub_for_libtelux_tel
-Wl,--defsym=_ZN5telux3tel9SmsHelper12getHexStringB5cxx11Et=so_stub_for_libtelux_tel
-Wl,--defsym=_ZN5telux3tel9SmsHelper13byteToHexCharEh=so_stub_for_libtelux_tel
-Wl,--defsym=_ZN5telux3tel9SmsHelper13readTimeStampEPKNSt7__cxx1112basic_stringIcSt11char_traitsIcESaIcEEERNS0_12SmsTimeStampE=so_stub_for_libtelux_tel
-Wl,--defsym=_ZN5telux3tel9SmsHelper15logSmsTimestampERKNS0_12SmsTimeStampE=so_stub_for_libtelux_tel
-Wl,--defsym=_ZN5telux3tel9SmsHelper15readSmsResponseERKSt10shared_ptrI6ParcelE=so_stub_for_libtelux_tel
-Wl,--defsym=_ZN5telux3tel9SmsHelper16countGsm7SeptetsERKSt10shared_ptrINS0_7SmsInfoEEb=so_stub_for_libtelux_tel
-Wl,--defsym=_ZN5telux3tel9SmsHelper16createSmsMessageERNS0_7SmsInfoE=so_stub_for_libtelux_tel
-Wl,--defsym=_ZN5telux3tel9SmsHelper16updateSegmentRefERKSt10shared_ptrINS0_7SmsInfoEE=so_stub_for_libtelux_tel
-Wl,--defsym=_ZN5telux3tel9SmsHelper18readIncomingSmsPduERKSt10shared_ptrI6ParcelE=so_stub_for_libtelux_tel
-Wl,--defsym=_ZN5telux3tel9SmsHelper18readIncomingSmsPduERNSt7__cxx1112basic_stringIcSt11char_traitsIcESaIcEEE=so_stub_for_libtelux_tel
-Wl,--defsym=_ZN5telux3tel9SmsHelper20octetsToSeptetsCountEh=so_stub_for_libtelux_tel
-Wl,--defsym=_ZN5telux3tel9SmsHelper20septetsToOctetsCountEh=so_stub_for_libtelux_tel
-Wl,--defsym=_ZN5telux3tel9SmsHelper21logIncomingSmsDetailsEttNSt7__cxx1112basic_stringIcSt11char_traitsIcESaIcEEEttttiNS3_IDsS4_IDsESaIDsEEE=so_stub_for_libtelux_tel
-Wl,--defsym=_ZN5telux3tel9SmsHelper21validateAndGetSmscLenESt6vectorIhSaIhEERj=so_stub_for_libtelux_tel
-Wl,--defsym=_ZN5telux3tel9SmsHelper22readNewSmsStatusReportERKSt10shared_ptrI6ParcelE=so_stub_for_libtelux_tel
-Wl,--defsym=_ZN5telux3tel9SmsHelper23decodeCellBroadcastTextEiNSt7__cxx1112basic_stringIcSt11char_traitsIcESaIcEEEiRNS3_IDsS4_IDsESaIDsEEERibRS7_=so_stub_for_libtelux_tel
-Wl,--defsym=_ZN5telux3tel9SmsHelper24calculateMessageSegmentsERKSt10shared_ptrINS0_7SmsInfoEE=so_stub_for_libtelux_tel
-Wl,--defsym=_ZN5telux3tel9SmsHelper25convertByteVecToHexStringB5cxx11ERKSt6vectorIhSaIhEE=so_stub_for_libtelux_tel
-Wl,--defsym=_ZN5telux3tel9SmsHelper25decodeSmsMessageUsingGsm7ENSt7__cxx1112basic_stringIcSt11char_traitsIcESaIcEEEiRNS3_IDsS4_IDsESaIDsEEERiiiii=so_stub_for_libtelux_tel
-Wl,--defsym=_ZN5telux3tel9SmsHelper25decodeSmsMessageUsingGsm8ENSt7__cxx1112basic_stringIcSt11char_traitsIcESaIcEEEiRNS3_IDsS4_IDsESaIDsEEERi=so_stub_for_libtelux_tel
-Wl,--defsym=_ZN5telux3tel9SmsHelper25decodeSmsMessageUsingUcs2ENSt7__cxx1112basic_stringIcSt11char_traitsIcESaIcEEEiRNS3_IDsS4_IDsESaIDsEEERi=so_stub_for_libtelux_tel
-Wl,--defsym=_ZN5telux3tel9SmsHelper25encodeSmsMessageUsingGsm7ENSt7__cxx1112basic_stringIDsSt11char_traitsIDsESaIDsEEEiiiRNS3_IcS4_IcESaIcEEERijjiib=so_stub_for_libtelux_tel
-Wl,--defsym=_ZN5telux3tel9SmsHelper25encodeSmsMessageUsingGsm8ENSt7__cxx1112basic_stringIDsSt11char_traitsIDsESaIDsEEEiiRNS3_IcS4_IcESaIcEEERi=so_stub_for_libtelux_tel
-Wl,--defsym=_ZN5telux3tel9SmsHelper25encodeSmsMessageUsingUcs2ENSt7__cxx1112basic_stringIDsSt11char_traitsIDsESaIDsEEEiiRNS3_IcS4_IcESaIcEEERi=so_stub_for_libtelux_tel
-Wl,--defsym=_ZN5telux3tel9SmsHelper25getSwappedNibbleBcdStringERKNSt7__cxx1112basic_stringIcSt11char_traitsIcESaIcEEE=so_stub_for_libtelux_tel
-Wl,--defsym=_ZN5telux3tel9SmsHelper26getConcatenatedIEHeaderLenEb=so_stub_for_libtelux_tel
-Wl,--defsym=_ZN5telux3tel9SmsHelper27updateGsm7MultipartSegmentsERKSt10shared_ptrINS0_7SmsInfoEEb=so_stub_for_libtelux_tel
-Wl,--defsym=_ZN5telux3tel9SmsHelper28calculateGsm7MessageSegmentsERKSt10shared_ptrINS0_7SmsInfoEEb=so_stub_for_libtelux_tel
-Wl,--defsym=_ZN5telux3tel9SmsHelper28calculateGsm8MessageSegmentsERKSt10shared_ptrINS0_7SmsInfoEE=so_stub_for_libtelux_tel
-Wl,--defsym=_ZN5telux3tel9SmsHelper28calculateUcs2MessageSegmentsERKSt10shared_ptrINS0_7SmsInfoEE=so_stub_for_libtelux_tel
-Wl,--defsym=_ZN5telux6common13FactoryHelper10getManagerINS_3tel11ISmsManagerEEESt10shared_ptrIT_ENSt7__cxx1112basic_stringIcSt11char_traitsIcESaIcEEERSt8weak_ptrIS6_ERSt3mapIjSt6vectorISt8functionIFvNS0_13ServiceStatusEEESaISM_EESt4lessIjESaISt4pairIKjSO_EEERjSM_SJ_IFS7_SM_jEE=so_stub_for_libtelux_tel
-Wl,--defsym=_ZN5telux6common13FactoryHelper10getManagerINS_3tel12ICallManagerEEESt10shared_ptrIT_ENSt7__cxx1112basic_stringIcSt11char_traitsIcESaIcEEERSt8weak_ptrIS6_ERSt3mapIjSt6vectorISt8functionIFvNS0_13ServiceStatusEEESaISM_EESt4lessIjESaISt4pairIKjSO_EEERjSM_SJ_IFS7_SM_jEE=so_stub_for_libtelux_tel
-Wl,--defsym=_ZN5telux6common13FactoryHelper10getManagerINS_3tel12ICardManagerEEESt10shared_ptrIT_ENSt7__cxx1112basic_stringIcSt11char_traitsIcESaIcEEERSt8weak_ptrIS6_ERSt3mapIjSt6vectorISt8functionIFvNS0_13ServiceStatusEEESaISM_EESt4lessIjESaISt4pairIKjSO_EEERjSM_SJ_IFS7_SM_jEE=so_stub_for_libtelux_tel
-Wl,--defsym=_ZN5telux6common13FactoryHelper10getManagerINS_3tel13IEcallManagerEEESt10shared_ptrIT_ENSt7__cxx1112basic_stringIcSt11char_traitsIcESaIcEEERSt8weak_ptrIS6_ERSt6vectorISt8functionIFvNS0_13ServiceStatusEEESaISL_EESL_SI_IFS7_SL_EE=so_stub_for_libtelux_tel
-Wl,--defsym=_ZN5telux6common13FactoryHelper10getManagerINS_3tel13IPhoneManagerEEESt10shared_ptrIT_ENSt7__cxx1112basic_stringIcSt11char_traitsIcESaIcEEERSt8weak_ptrIS6_ERSt3mapIjSt6vectorISt8functionIFvNS0_13ServiceStatusEEESaISM_EESt4lessIjESaISt4pairIKjSO_EEERjSM_SJ_IFS7_SM_jEE=so_stub_for_libtelux_tel
-Wl,--defsym=_ZN5telux6common13FactoryHelper10getManagerINS_3tel15ISapCardManagerEEESt10shared_ptrIT_ENSt7__cxx1112basic_stringIcSt11char_traitsIcESaIcEEERSt8weak_ptrIS6_ERSt3mapIjSt6vectorISt8functionIFvNS0_13ServiceStatusEEESaISM_EESt4lessIjESaISt4pairIKjSO_EEERjSM_SJ_IFS7_SM_jEE=so_stub_for_libtelux_tel
-Wl,--defsym=_ZN5telux6common13FactoryHelper10getManagerINS_3tel16IMultiSimManagerEEESt10shared_ptrIT_ENSt7__cxx1112basic_stringIcSt11char_traitsIcESaIcEEERSt8weak_ptrIS6_ERSt3mapIjSt6vectorISt8functionIFvNS0_13ServiceStatusEEESaISM_EESt4lessIjESaISt4pairIKjSO_EEERjSM_SJ_IFS7_SM_jEE=so_stub_for_libtelux_tel
-Wl,--defsym=_ZN5telux6common13FactoryHelper10getManagerINS_3tel17IRemoteSimManagerEEESt10shared_ptrIT_ENSt7__cxx1112basic_stringIcSt11char_traitsIcESaIcEEERSt8weak_ptrIS6_ERSt3mapIjSt6vectorISt8functionIFvNS0_13ServiceStatusEEESaISM_EESt4lessIjESaISt4pairIKjSO_EEERjSM_SJ_IFS7_SM_jEE=so_stub_for_libtelux_tel
-Wl,--defsym=_ZN5telux6common13FactoryHelper10getManagerINS_3tel18ISimProfileManagerEEESt10shared_ptrIT_ENSt7__cxx1112basic_stringIcSt11char_traitsIcESaIcEEERSt8weak_ptrIS6_ERSt3mapIjSt6vectorISt8functionIFvNS0_13ServiceStatusEEESaISM_EESt4lessIjESaISt4pairIKjSO_EEERjSM_SJ_IFS7_SM_jEE=so_stub_for_libtelux_tel
-Wl,--defsym=_ZN5telux6common13FactoryHelper10getManagerINS_3tel19IImsSettingsManagerEEESt10shared_ptrIT_ENSt7__cxx1112basic_stringIcSt11char_traitsIcESaIcEEERSt8weak_ptrIS6_ERSt3mapIjSt6vectorISt8functionIFvNS0_13ServiceStatusEEESaISM_EESt4lessIjESaISt4pairIKjSO_EEERjSM_SJ_IFS7_SM_jEE=so_stub_for_libtelux_tel
-Wl,--defsym=_ZN5telux6common13FactoryHelper10getManagerINS_3tel20IApSimProfileManagerEEESt10shared_ptrIT_ENSt7__cxx1112basic_stringIcSt11char_traitsIcESaIcEEERSt8weak_ptrIS6_ERSt3mapIjSt6vectorISt8functionIFvNS0_13ServiceStatusEEESaISM_EESt4lessIjESaISt4pairIKjSO_EEERjSM_SJ_IFS7_SM_jEE=so_stub_for_libtelux_tel
-Wl,--defsym=_ZN5telux6common13FactoryHelper10getManagerINS_3tel20ISubscriptionManagerEEESt10shared_ptrIT_ENSt7__cxx1112basic_stringIcSt11char_traitsIcESaIcEEERSt8weak_ptrIS6_ERSt3mapIjSt6vectorISt8functionIFvNS0_13ServiceStatusEEESaISM_EESt4lessIjESaISt4pairIKjSO_EEERjSM_SJ_IFS7_SM_jEE=so_stub_for_libtelux_tel
-Wl,--defsym=_ZN5telux6common13FactoryHelper10getManagerINS_3tel20ISuppServicesManagerEEESt10shared_ptrIT_ENSt7__cxx1112basic_stringIcSt11char_traitsIcESaIcEEERSt8weak_ptrIS6_ERSt3mapIjSt6vectorISt8functionIFvNS0_13ServiceStatusEEESaISM_EESt4lessIjESaISt4pairIKjSO_EEERjSM_SJ_IFS7_SM_jEE=so_stub_for_libtelux_tel
-Wl,--defsym=_ZN5telux6common13FactoryHelper10getManagerINS_3tel21ICellBroadcastManagerEEESt10shared_ptrIT_ENSt7__cxx1112basic_stringIcSt11char_traitsIcESaIcEEERSt8weak_ptrIS6_ERSt3mapIjSt6vectorISt8functionIFvNS0_13ServiceStatusEEESaISM_EESt4lessIjESaISt4pairIKjSO_EEERjSM_SJ_IFS7_SM_jEE=so_stub_for_libtelux_tel
-Wl,--defsym=_ZN5telux6common13FactoryHelper10getManagerINS_3tel21IServingSystemManagerEEESt10shared_ptrIT_ENSt7__cxx1112basic_stringIcSt11char_traitsIcESaIcEEERSt8weak_ptrIS6_ERSt3mapIjSt6vectorISt8functionIFvNS0_13ServiceStatusEEESaISM_EESt4lessIjESaISt4pairIKjSO_EEERjSM_SJ_IFS7_SM_jEE=so_stub_for_libtelux_tel
-Wl,--defsym=_ZN5telux6common13FactoryHelper10getManagerINS_3tel23IHttpTransactionManagerEEESt10shared_ptrIT_ENSt7__cxx1112basic_stringIcSt11char_traitsIcESaIcEEERSt8weak_ptrIS6_ERSt3mapIjSt6vectorISt8functionIFvNS0_13ServiceStatusEEESaISM_EESt4lessIjESaISt4pairIKjSO_EEERjSM_SJ_IFS7_SM_jEE=so_stub_for_libtelux_tel
-Wl,--defsym=_ZN5telux6common13FactoryHelper10getManagerINS_3tel24IImsServingSystemManagerEEESt10shared_ptrIT_ENSt7__cxx1112basic_stringIcSt11char_traitsIcESaIcEEERSt8weak_ptrIS6_ERSt3mapIjSt6vectorISt8functionIFvNS0_13ServiceStatusEEESaISM_EESt4lessIjESaISt4pairIKjSO_EEERjSM_SJ_IFS7_SM_jEE=so_stub_for_libtelux_tel
-Wl,--defsym=_ZN5telux6common13FactoryHelper10getManagerINS_3tel24INetworkSelectionManagerEEESt10shared_ptrIT_ENSt7__cxx1112basic_stringIcSt11char_traitsIcESaIcEEERSt8weak_ptrIS6_ERSt3mapIjSt6vectorISt8functionIFvNS0_13ServiceStatusEEESaISM_EESt4lessIjESaISt4pairIKjSO_EEERjSM_SJ_IFS7_SM_jEE=so_stub_for_libtelux_tel
-Wl,--defsym=_ZN5telux6common13FactoryHelper20initCompleteNotifierENSt7__cxx1112basic_stringIcSt11char_traitsIcESaIcEEERSt6vectorISt8functionIFvNS0_13ServiceStatusEEESaISC_EESA_=so_stub_for_libtelux_tel
-Wl,--defsym=_ZN5telux6common14AsyncTaskQueueIvE11executeTaskEv=so_stub_for_libtelux_tel
-Wl,--defsym=_ZN5telux6common14AsyncTaskQueueIvE14purgeCompletedEv=so_stub_for_libtelux_tel
-Wl,--defsym=_ZN5telux6common14AsyncTaskQueueIvE3addERSt13shared_futureIvE=so_stub_for_libtelux_tel
-Wl,--defsym=_ZN5telux6common14AsyncTaskQueueIvE8shutdownEb=so_stub_for_libtelux_tel
-Wl,--defsym=_ZN5telux6common14AsyncTaskQueueIvEC1Ev=so_stub_for_libtelux_tel
-Wl,--defsym=_ZN5telux6common14AsyncTaskQueueIvEC2Ev=so_stub_for_libtelux_tel
-Wl,--defsym=_ZN5telux6common14AsyncTaskQueueIvED1Ev=so_stub_for_libtelux_tel
-Wl,--defsym=_ZN5telux6common14AsyncTaskQueueIvED2Ev=so_stub_for_libtelux_tel
-Wl,--defsym=_ZN5telux6common15ListenerManager16registerListenerESt8weak_ptrINS0_12ISDKListenerEE=so_stub_for_libtelux_tel
-Wl,--defsym=_ZN5telux6common15ListenerManager16registerListenerISt6bitsetILm32EEEENS0_6StatusESt8weak_ptrINS0_12ISDKListenerEET_RS9_=so_stub_for_libtelux_tel
-Wl,--defsym=_ZN5telux6common15ListenerManager18deRegisterListenerESt8weak_ptrINS0_12ISDKListenerEE=so_stub_for_libtelux_tel
-Wl,--defsym=_ZN5telux6common15ListenerManager18deRegisterListenerISt6bitsetILm32EEEENS0_6StatusESt8weak_ptrINS0_12ISDKListenerEET_RS9_=so_stub_for_libtelux_tel
-Wl,--defsym=_ZN5telux6common15ListenerManager21getAvailableListenersEjRSt6vectorISt8weak_ptrINS0_12ISDKListenerEESaIS5_EE=so_stub_for_libtelux_tel
-Wl,--defsym=_ZN5telux6common15ListenerManager21getAvailableListenersERSt6vectorISt8weak_ptrINS0_12ISDKListenerEESaIS5_EE=so_stub_for_libtelux_tel
-Wl,--defsym=_ZN5telux6common15ListenerManager5purgeEv=so_stub_for_libtelux_tel
-Wl,--defsym=_ZN5telux6common15ListenerManager7cleanupEv=so_stub_for_libtelux_tel
-Wl,--defsym=_ZN5telux6common15ListenerManagerC1Ev=so_stub_for_libtelux_tel
-Wl,--defsym=_ZN5telux6common15ListenerManagerC2Ev=so_stub_for_libtelux_tel
-Wl,--defsym=_ZN5telux6common15ListenerManagerD1Ev=so_stub_for_libtelux_tel
-Wl,--defsym=_ZN5telux6common15ListenerManagerD2Ev=so_stub_for_libtelux_tel
-Wl,--defsym=_ZN5telux6common18FunctionalCallbackIJ6SlotIdbNS0_9ErrorCodeEEED0Ev=so_stub_for_libtelux_tel
-Wl,--defsym=_ZN5telux6common18FunctionalCallbackIJ6SlotIdbNS0_9ErrorCodeEEED1Ev=so_stub_for_libtelux_tel
-Wl,--defsym=_ZN5telux6common18FunctionalCallbackIJ6SlotIdbNS0_9ErrorCodeEEED2Ev=so_stub_for_libtelux_tel
-Wl,--defsym=_ZN5telux6common18FunctionalCallbackIJ6SlotIdNS_3tel16ImsServiceConfigENS0_9ErrorCodeEEED0Ev=so_stub_for_libtelux_tel
-Wl,--defsym=_ZN5telux6common18FunctionalCallbackIJ6SlotIdNS_3tel16ImsServiceConfigENS0_9ErrorCodeEEED1Ev=so_stub_for_libtelux_tel
-Wl,--defsym=_ZN5telux6common18FunctionalCallbackIJ6SlotIdNS_3tel16ImsServiceConfigENS0_9ErrorCodeEEED2Ev=so_stub_for_libtelux_tel
-Wl,--defsym=_ZN5telux6common18FunctionalCallbackIJ6SlotIdNSt7__cxx1112basic_stringIcSt11char_traitsIcESaIcEEENS0_9ErrorCodeEEED0Ev=so_stub_for_libtelux_tel
-Wl,--defsym=_ZN5telux6common18FunctionalCallbackIJ6SlotIdNSt7__cxx1112basic_stringIcSt11char_traitsIcESaIcEEENS0_9ErrorCodeEEED1Ev=so_stub_for_libtelux_tel
-Wl,--defsym=_ZN5telux6common18FunctionalCallbackIJ6SlotIdNSt7__cxx1112basic_stringIcSt11char_traitsIcESaIcEEENS0_9ErrorCodeEEED2Ev=so_stub_for_libtelux_tel
-Wl,--defsym=_ZN5telux6common18FunctionalCallbackIJbbNS0_9ErrorCodeEEED0Ev=so_stub_for_libtelux_tel
-Wl,--defsym=_ZN5telux6common18FunctionalCallbackIJbbNS0_9ErrorCodeEEED1Ev=so_stub_for_libtelux_tel
-Wl,--defsym=_ZN5telux6common18FunctionalCallbackIJbbNS0_9ErrorCodeEEED2Ev=so_stub_for_libtelux_tel
-Wl,--defsym=_ZN5telux6common18FunctionalCallbackIJbNS0_9ErrorCodeEEED0Ev=so_stub_for_libtelux_tel
-Wl,--defsym=_ZN5telux6common18FunctionalCallbackIJbNS0_9ErrorCodeEEED1Ev=so_stub_for_libtelux_tel
-Wl,--defsym=_ZN5telux6common18FunctionalCallbackIJbNS0_9ErrorCodeEEED2Ev=so_stub_for_libtelux_tel
-Wl,--defsym=_ZN5telux6common18FunctionalCallbackIJiNS0_9ErrorCodeEEED0Ev=so_stub_for_libtelux_tel
-Wl,--defsym=_ZN5telux6common18FunctionalCallbackIJiNS0_9ErrorCodeEEED1Ev=so_stub_for_libtelux_tel
-Wl,--defsym=_ZN5telux6common18FunctionalCallbackIJiNS0_9ErrorCodeEEED2Ev=so_stub_for_libtelux_tel
-Wl,--defsym=_ZN5telux6common18FunctionalCallbackIJjjNS0_9ErrorCodeEEED0Ev=so_stub_for_libtelux_tel
-Wl,--defsym=_ZN5telux6common18FunctionalCallbackIJjjNS0_9ErrorCodeEEED1Ev=so_stub_for_libtelux_tel
-Wl,--defsym=_ZN5telux6common18FunctionalCallbackIJjjNS0_9ErrorCodeEEED2Ev=so_stub_for_libtelux_tel
-Wl,--defsym=_ZN5telux6common18FunctionalCallbackIJNS0_9ErrorCodeEEED0Ev=so_stub_for_libtelux_tel
-Wl,--defsym=_ZN5telux6common18FunctionalCallbackIJNS0_9ErrorCodeEEED1Ev=so_stub_for_libtelux_tel
-Wl,--defsym=_ZN5telux6common18FunctionalCallbackIJNS0_9ErrorCodeEEED2Ev=so_stub_for_libtelux_tel
-Wl,--defsym=_ZN5telux6common18FunctionalCallbackIJNS0_9ErrorCodeEiNS_3tel20ECallHlapTimerStatusEEED0Ev=so_stub_for_libtelux_tel
-Wl,--defsym=_ZN5telux6common18FunctionalCallbackIJNS0_9ErrorCodeEiNS_3tel20ECallHlapTimerStatusEEED1Ev=so_stub_for_libtelux_tel
-Wl,--defsym=_ZN5telux6common18FunctionalCallbackIJNS0_9ErrorCodeEiNS_3tel20ECallHlapTimerStatusEEED2Ev=so_stub_for_libtelux_tel
-Wl,--defsym=_ZN5telux6common18FunctionalCallbackIJNS0_9ErrorCodeEjEED0Ev=so_stub_for_libtelux_tel
-Wl,--defsym=_ZN5telux6common18FunctionalCallbackIJNS0_9ErrorCodeEjEED1Ev=so_stub_for_libtelux_tel
-Wl,--defsym=_ZN5telux6common18FunctionalCallbackIJNS0_9ErrorCodeEjEED2Ev=so_stub_for_libtelux_tel
-Wl,--defsym=_ZN5telux6common18FunctionalCallbackIJNS0_9ErrorCodeENS_3tel12FailureCauseEEED0Ev=so_stub_for_libtelux_tel
-Wl,--defsym=_ZN5telux6common18FunctionalCallbackIJNS0_9ErrorCodeENS_3tel12FailureCauseEEED1Ev=so_stub_for_libtelux_tel
-Wl,--defsym=_ZN5telux6common18FunctionalCallbackIJNS0_9ErrorCodeENS_3tel12FailureCauseEEED2Ev=so_stub_for_libtelux_tel
-Wl,--defsym=_ZN5telux6common18FunctionalCallbackIJNS0_9ErrorCodeENS_3tel9IccResultEEED0Ev=so_stub_for_libtelux_tel
-Wl,--defsym=_ZN5telux6common18FunctionalCallbackIJNS0_9ErrorCodeENS_3tel9IccResultEEED1Ev=so_stub_for_libtelux_tel
-Wl,--defsym=_ZN5telux6common18FunctionalCallbackIJNS0_9ErrorCodeENS_3tel9IccResultEEED2Ev=so_stub_for_libtelux_tel
-Wl,--defsym=_ZN5telux6common18FunctionalCallbackIJNS0_9ErrorCodeENS_3tel9IccResultENS3_14FileAttributesEEED0Ev=so_stub_for_libtelux_tel
-Wl,--defsym=_ZN5telux6common18FunctionalCallbackIJNS0_9ErrorCodeENS_3tel9IccResultENS3_14FileAttributesEEED1Ev=so_stub_for_libtelux_tel
-Wl,--defsym=_ZN5telux6common18FunctionalCallbackIJNS0_9ErrorCodeENS_3tel9IccResultENS3_14FileAttributesEEED2Ev=so_stub_for_libtelux_tel
-Wl,--defsym=_ZN5telux6common18FunctionalCallbackIJNS0_9ErrorCodeESt10shared_ptrINS_3tel5ICallEEEED0Ev=so_stub_for_libtelux_tel
-Wl,--defsym=_ZN5telux6common18FunctionalCallbackIJNS0_9ErrorCodeESt10shared_ptrINS_3tel5ICallEEEED1Ev=so_stub_for_libtelux_tel
-Wl,--defsym=_ZN5telux6common18FunctionalCallbackIJNS0_9ErrorCodeESt10shared_ptrINS_3tel5ICallEEEED2Ev=so_stub_for_libtelux_tel
-Wl,--defsym=_ZN5telux6common18FunctionalCallbackIJNS0_9ErrorCodeESt6vectorINS_3tel9IccResultESaIS5_EEEED0Ev=so_stub_for_libtelux_tel
-Wl,--defsym=_ZN5telux6common18FunctionalCallbackIJNS0_9ErrorCodeESt6vectorINS_3tel9IccResultESaIS5_EEEED1Ev=so_stub_for_libtelux_tel
-Wl,--defsym=_ZN5telux6common18FunctionalCallbackIJNS0_9ErrorCodeESt6vectorINS_3tel9IccResultESaIS5_EEEED2Ev=so_stub_for_libtelux_tel
-Wl,--defsym=_ZN5telux6common18FunctionalCallbackIJNS_3tel10RFBandInfoENS0_9ErrorCodeEEED0Ev=so_stub_for_libtelux_tel
-Wl,--defsym=_ZN5telux6common18FunctionalCallbackIJNS_3tel10RFBandInfoENS0_9ErrorCodeEEED1Ev=so_stub_for_libtelux_tel
-Wl,--defsym=_ZN5telux6common18FunctionalCallbackIJNS_3tel10RFBandInfoENS0_9ErrorCodeEEED2Ev=so_stub_for_libtelux_tel
-Wl,--defsym=_ZN5telux6common18FunctionalCallbackIJNS_3tel10SmsMessageENS0_9ErrorCodeEEED0Ev=so_stub_for_libtelux_tel
-Wl,--defsym=_ZN5telux6common18FunctionalCallbackIJNS_3tel10SmsMessageENS0_9ErrorCodeEEED1Ev=so_stub_for_libtelux_tel
-Wl,--defsym=_ZN5telux6common18FunctionalCallbackIJNS_3tel10SmsMessageENS0_9ErrorCodeEEED2Ev=so_stub_for_libtelux_tel
-Wl,--defsym=_ZN5telux6common18FunctionalCallbackIJNS_3tel11StorageTypeENS0_9ErrorCodeEEED0Ev=so_stub_for_libtelux_tel
-Wl,--defsym=_ZN5telux6common18FunctionalCallbackIJNS_3tel11StorageTypeENS0_9ErrorCodeEEED1Ev=so_stub_for_libtelux_tel
-Wl,--defsym=_ZN5telux6common18FunctionalCallbackIJNS_3tel11StorageTypeENS0_9ErrorCodeEEED2Ev=so_stub_for_libtelux_tel
-Wl,--defsym=_ZN5telux6common18FunctionalCallbackIJNS_3tel12RefreshStageENS2_11RefreshModeESt6vectorINS2_7IccFileESaIS6_EENS2_13RefreshParamsENS0_9ErrorCodeEEED0Ev=so_stub_for_libtelux_tel
-Wl,--defsym=_ZN5telux6common18FunctionalCallbackIJNS_3tel12RefreshStageENS2_11RefreshModeESt6vectorINS2_7IccFileESaIS6_EENS2_13RefreshParamsENS0_9ErrorCodeEEED1Ev=so_stub_for_libtelux_tel
-Wl,--defsym=_ZN5telux6common18FunctionalCallbackIJNS_3tel12RefreshStageENS2_11RefreshModeESt6vectorINS2_7IccFileESaIS6_EENS2_13RefreshParamsENS0_9ErrorCodeEEED2Ev=so_stub_for_libtelux_tel
-Wl,--defsym=_ZN5telux6common18FunctionalCallbackIJNS_3tel14ImsServiceInfoENS0_9ErrorCodeEEED0Ev=so_stub_for_libtelux_tel
-Wl,--defsym=_ZN5telux6common18FunctionalCallbackIJNS_3tel14ImsServiceInfoENS0_9ErrorCodeEEED1Ev=so_stub_for_libtelux_tel
-Wl,--defsym=_ZN5telux6common18FunctionalCallbackIJNS_3tel14ImsServiceInfoENS0_9ErrorCodeEEED2Ev=so_stub_for_libtelux_tel
-Wl,--defsym=_ZN5telux6common18FunctionalCallbackIJNS_3tel15NetworkModeInfoENS0_9ErrorCodeEEED0Ev=so_stub_for_libtelux_tel
-Wl,--defsym=_ZN5telux6common18FunctionalCallbackIJNS_3tel15NetworkModeInfoENS0_9ErrorCodeEEED1Ev=so_stub_for_libtelux_tel
-Wl,--defsym=_ZN5telux6common18FunctionalCallbackIJNS_3tel15NetworkModeInfoENS0_9ErrorCodeEEED2Ev=so_stub_for_libtelux_tel
-Wl,--defsym=_ZN5telux6common18FunctionalCallbackIJNS_3tel15NetworkTimeInfoENS0_9ErrorCodeEEED0Ev=so_stub_for_libtelux_tel
-Wl,--defsym=_ZN5telux6common18FunctionalCallbackIJNS_3tel15NetworkTimeInfoENS0_9ErrorCodeEEED1Ev=so_stub_for_libtelux_tel
-Wl,--defsym=_ZN5telux6common18FunctionalCallbackIJNS_3tel15NetworkTimeInfoENS0_9ErrorCodeEEED2Ev=so_stub_for_libtelux_tel
-Wl,--defsym=_ZN5telux6common18FunctionalCallbackIJNS_3tel15RadioTechnologyENS0_9ErrorCodeEEED0Ev=so_stub_for_libtelux_tel
-Wl,--defsym=_ZN5telux6common18FunctionalCallbackIJNS_3tel15RadioTechnologyENS0_9ErrorCodeEEED1Ev=so_stub_for_libtelux_tel
-Wl,--defsym=_ZN5telux6common18FunctionalCallbackIJNS_3tel15RadioTechnologyENS0_9ErrorCodeEEED2Ev=so_stub_for_libtelux_tel
-Wl,--defsym=_ZN5telux6common18FunctionalCallbackIJNS_3tel16ImsPdpStatusInfoENS0_9ErrorCodeEEED0Ev=so_stub_for_libtelux_tel
-Wl,--defsym=_ZN5telux6common18FunctionalCallbackIJNS_3tel16ImsPdpStatusInfoENS0_9ErrorCodeEEED1Ev=so_stub_for_libtelux_tel
-Wl,--defsym=_ZN5telux6common18FunctionalCallbackIJNS_3tel16ImsPdpStatusInfoENS0_9ErrorCodeEEED2Ev=so_stub_for_libtelux_tel
-Wl,--defsym=_ZN5telux6common18FunctionalCallbackIJNS_3tel18SuppServicesStatusENS2_12FailureCauseENS0_9ErrorCodeEEED0Ev=so_stub_for_libtelux_tel
-Wl,--defsym=_ZN5telux6common18FunctionalCallbackIJNS_3tel18SuppServicesStatusENS2_12FailureCauseENS0_9ErrorCodeEEED1Ev=so_stub_for_libtelux_tel
-Wl,--defsym=_ZN5telux6common18FunctionalCallbackIJNS_3tel18SuppServicesStatusENS2_12FailureCauseENS0_9ErrorCodeEEED2Ev=so_stub_for_libtelux_tel
-Wl,--defsym=_ZN5telux6common18FunctionalCallbackIJNS_3tel18SuppServicesStatusENS2_22SuppSvcProvisionStatusENS2_12FailureCauseENS0_9ErrorCodeEEED0Ev=so_stub_for_libtelux_tel
-Wl,--defsym=_ZN5telux6common18FunctionalCallbackIJNS_3tel18SuppServicesStatusENS2_22SuppSvcProvisionStatusENS2_12FailureCauseENS0_9ErrorCodeEEED1Ev=so_stub_for_libtelux_tel
-Wl,--defsym=_ZN5telux6common18FunctionalCallbackIJNS_3tel18SuppServicesStatusENS2_22SuppSvcProvisionStatusENS2_12FailureCauseENS0_9ErrorCodeEEED2Ev=so_stub_for_libtelux_tel
-Wl,--defsym=_ZN5telux6common18FunctionalCallbackIJNS_3tel19ImsRegistrationInfoENS0_9ErrorCodeEEED0Ev=so_stub_for_libtelux_tel
-Wl,--defsym=_ZN5telux6common18FunctionalCallbackIJNS_3tel19ImsRegistrationInfoENS0_9ErrorCodeEEED1Ev=so_stub_for_libtelux_tel
-Wl,--defsym=_ZN5telux6common18FunctionalCallbackIJNS_3tel19ImsRegistrationInfoENS0_9ErrorCodeEEED2Ev=so_stub_for_libtelux_tel
-Wl,--defsym=_ZN5telux6common18FunctionalCallbackIJNS_3tel20NetworkSelectionModeENS0_9ErrorCodeEEED0Ev=so_stub_for_libtelux_tel
-Wl,--defsym=_ZN5telux6common18FunctionalCallbackIJNS_3tel20NetworkSelectionModeENS0_9ErrorCodeEEED1Ev=so_stub_for_libtelux_tel
-Wl,--defsym=_ZN5telux6common18FunctionalCallbackIJNS_3tel20NetworkSelectionModeENS0_9ErrorCodeEEED2Ev=so_stub_for_libtelux_tel
-Wl,--defsym=_ZN5telux6common18FunctionalCallbackIJNS_3tel23ServiceDomainPreferenceENS0_9ErrorCodeEEED0Ev=so_stub_for_libtelux_tel
-Wl,--defsym=_ZN5telux6common18FunctionalCallbackIJNS_3tel23ServiceDomainPreferenceENS0_9ErrorCodeEEED1Ev=so_stub_for_libtelux_tel
-Wl,--defsym=_ZN5telux6common18FunctionalCallbackIJNS_3tel23ServiceDomainPreferenceENS0_9ErrorCodeEEED2Ev=so_stub_for_libtelux_tel
-Wl,--defsym=_ZN5telux6common18FunctionalCallbackIJNS_3tel7EcbModeENS0_9ErrorCodeEEED0Ev=so_stub_for_libtelux_tel
-Wl,--defsym=_ZN5telux6common18FunctionalCallbackIJNS_3tel7EcbModeENS0_9ErrorCodeEEED1Ev=so_stub_for_libtelux_tel
-Wl,--defsym=_ZN5telux6common18FunctionalCallbackIJNS_3tel7EcbModeENS0_9ErrorCodeEEED2Ev=so_stub_for_libtelux_tel
-Wl,--defsym=_ZN5telux6common18FunctionalCallbackIJNS_3tel8PlmnInfoENS0_9ErrorCodeEEED0Ev=so_stub_for_libtelux_tel
-Wl,--defsym=_ZN5telux6common18FunctionalCallbackIJNS_3tel8PlmnInfoENS0_9ErrorCodeEEED1Ev=so_stub_for_libtelux_tel
-Wl,--defsym=_ZN5telux6common18FunctionalCallbackIJNS_3tel8PlmnInfoENS0_9ErrorCodeEEED2Ev=so_stub_for_libtelux_tel
-Wl,--defsym=_ZN5telux6common18FunctionalCallbackIJNS_3tel8SapStateENS0_9ErrorCodeEEED0Ev=so_stub_for_libtelux_tel
-Wl,--defsym=_ZN5telux6common18FunctionalCallbackIJNS_3tel8SapStateENS0_9ErrorCodeEEED1Ev=so_stub_for_libtelux_tel
-Wl,--defsym=_ZN5telux6common18FunctionalCallbackIJNS_3tel8SapStateENS0_9ErrorCodeEEED2Ev=so_stub_for_libtelux_tel
-Wl,--defsym=_ZN5telux6common18FunctionalCallbackIJNS_3tel9ECallModeENS0_9ErrorCodeEEED0Ev=so_stub_for_libtelux_tel
-Wl,--defsym=_ZN5telux6common18FunctionalCallbackIJNS_3tel9ECallModeENS0_9ErrorCodeEEED1Ev=so_stub_for_libtelux_tel
-Wl,--defsym=_ZN5telux6common18FunctionalCallbackIJNS_3tel9ECallModeENS0_9ErrorCodeEEED2Ev=so_stub_for_libtelux_tel
-Wl,--defsym=_ZN5telux6common18FunctionalCallbackIJNSt7__cxx1112basic_stringIcSt11char_traitsIcESaIcEEENS0_9ErrorCodeEEED0Ev=so_stub_for_libtelux_tel
-Wl,--defsym=_ZN5telux6common18FunctionalCallbackIJNSt7__cxx1112basic_stringIcSt11char_traitsIcESaIcEEENS0_9ErrorCodeEEED1Ev=so_stub_for_libtelux_tel
-Wl,--defsym=_ZN5telux6common18FunctionalCallbackIJNSt7__cxx1112basic_stringIcSt11char_traitsIcESaIcEEENS0_9ErrorCodeEEED2Ev=so_stub_for_libtelux_tel
-Wl,--defsym=_ZN5telux6common18FunctionalCallbackIJNSt7__cxx1112basic_stringIcSt11char_traitsIcESaIcEEES7_NS0_9ErrorCodeEEED0Ev=so_stub_for_libtelux_tel
-Wl,--defsym=_ZN5telux6common18FunctionalCallbackIJNSt7__cxx1112basic_stringIcSt11char_traitsIcESaIcEEES7_NS0_9ErrorCodeEEED1Ev=so_stub_for_libtelux_tel
-Wl,--defsym=_ZN5telux6common18FunctionalCallbackIJNSt7__cxx1112basic_stringIcSt11char_traitsIcESaIcEEES7_NS0_9ErrorCodeEEED2Ev=so_stub_for_libtelux_tel
-Wl,--defsym=_ZN5telux6common18FunctionalCallbackIJRKNSt7__cxx1112basic_stringIcSt11char_traitsIcESaIcEEENS0_9ErrorCodeEEED0Ev=so_stub_for_libtelux_tel
-Wl,--defsym=_ZN5telux6common18FunctionalCallbackIJRKNSt7__cxx1112basic_stringIcSt11char_traitsIcESaIcEEENS0_9ErrorCodeEEED1Ev=so_stub_for_libtelux_tel
-Wl,--defsym=_ZN5telux6common18FunctionalCallbackIJRKNSt7__cxx1112basic_stringIcSt11char_traitsIcESaIcEEENS0_9ErrorCodeEEED2Ev=so_stub_for_libtelux_tel
-Wl,--defsym=_ZN5telux6common18FunctionalCallbackIJRKSt6vectorISt10shared_ptrINS_3tel10SimProfileEESaIS6_EENS0_9ErrorCodeEEED0Ev=so_stub_for_libtelux_tel
-Wl,--defsym=_ZN5telux6common18FunctionalCallbackIJRKSt6vectorISt10shared_ptrINS_3tel10SimProfileEESaIS6_EENS0_9ErrorCodeEEED1Ev=so_stub_for_libtelux_tel
-Wl,--defsym=_ZN5telux6common18FunctionalCallbackIJRKSt6vectorISt10shared_ptrINS_3tel10SimProfileEESaIS6_EENS0_9ErrorCodeEEED2Ev=so_stub_for_libtelux_tel
-Wl,--defsym=_ZN5telux6common18FunctionalCallbackIJSt10shared_ptrINS_3tel11IRFBandListEENS0_9ErrorCodeEEED0Ev=so_stub_for_libtelux_tel
-Wl,--defsym=_ZN5telux6common18FunctionalCallbackIJSt10shared_ptrINS_3tel11IRFBandListEENS0_9ErrorCodeEEED1Ev=so_stub_for_libtelux_tel
-Wl,--defsym=_ZN5telux6common18FunctionalCallbackIJSt10shared_ptrINS_3tel11IRFBandListEENS0_9ErrorCodeEEED2Ev=so_stub_for_libtelux_tel
-Wl,--defsym=_ZN5telux6common18FunctionalCallbackIJSt3mapI6SlotIdNS_3tel10SlotStatusESt4lessIS3_ESaISt4pairIKS3_S5_EEENS0_9ErrorCodeEEED0Ev=so_stub_for_libtelux_tel
-Wl,--defsym=_ZN5telux6common18FunctionalCallbackIJSt3mapI6SlotIdNS_3tel10SlotStatusESt4lessIS3_ESaISt4pairIKS3_S5_EEENS0_9ErrorCodeEEED1Ev=so_stub_for_libtelux_tel
-Wl,--defsym=_ZN5telux6common18FunctionalCallbackIJSt3mapI6SlotIdNS_3tel10SlotStatusESt4lessIS3_ESaISt4pairIKS3_S5_EEENS0_9ErrorCodeEEED2Ev=so_stub_for_libtelux_tel
-Wl,--defsym=_ZN5telux6common18FunctionalCallbackIJSt6bitsetILm16EENS0_9ErrorCodeEEED0Ev=so_stub_for_libtelux_tel
-Wl,--defsym=_ZN5telux6common18FunctionalCallbackIJSt6bitsetILm16EENS0_9ErrorCodeEEED1Ev=so_stub_for_libtelux_tel
-Wl,--defsym=_ZN5telux6common18FunctionalCallbackIJSt6bitsetILm16EENS0_9ErrorCodeEEED2Ev=so_stub_for_libtelux_tel
-Wl,--defsym=_ZN5telux6common18FunctionalCallbackIJSt6vectorIiSaIiEENS0_9ErrorCodeEEED0Ev=so_stub_for_libtelux_tel
-Wl,--defsym=_ZN5telux6common18FunctionalCallbackIJSt6vectorIiSaIiEENS0_9ErrorCodeEEED1Ev=so_stub_for_libtelux_tel
-Wl,--defsym=_ZN5telux6common18FunctionalCallbackIJSt6vectorIiSaIiEENS0_9ErrorCodeEEED2Ev=so_stub_for_libtelux_tel
-Wl,--defsym=_ZN5telux6common18FunctionalCallbackIJSt6vectorINS_3tel11ForwardInfoESaIS4_EENS3_12FailureCauseENS0_9ErrorCodeEEED0Ev=so_stub_for_libtelux_tel
-Wl,--defsym=_ZN5telux6common18FunctionalCallbackIJSt6vectorINS_3tel11ForwardInfoESaIS4_EENS3_12FailureCauseENS0_9ErrorCodeEEED1Ev=so_stub_for_libtelux_tel
-Wl,--defsym=_ZN5telux6common18FunctionalCallbackIJSt6vectorINS_3tel11ForwardInfoESaIS4_EENS3_12FailureCauseENS0_9ErrorCodeEEED2Ev=so_stub_for_libtelux_tel
-Wl,--defsym=_ZN5telux6common18FunctionalCallbackIJSt6vectorINS_3tel11ForwardInfoESaIS4_EENS3_22SuppSvcProvisionStatusENS3_12FailureCauseENS0_9ErrorCodeEEED0Ev=so_stub_for_libtelux_tel
-Wl,--defsym=_ZN5telux6common18FunctionalCallbackIJSt6vectorINS_3tel11ForwardInfoESaIS4_EENS3_22SuppSvcProvisionStatusENS3_12FailureCauseENS0_9ErrorCodeEEED1Ev=so_stub_for_libtelux_tel
-Wl,--defsym=_ZN5telux6common18FunctionalCallbackIJSt6vectorINS_3tel11ForwardInfoESaIS4_EENS3_22SuppSvcProvisionStatusENS3_12FailureCauseENS0_9ErrorCodeEEED2Ev=so_stub_for_libtelux_tel
-Wl,--defsym=_ZN5telux6common18FunctionalCallbackIJSt6vectorINS_3tel11SmsMetaInfoESaIS4_EENS0_9ErrorCodeEEED0Ev=so_stub_for_libtelux_tel
-Wl,--defsym=_ZN5telux6common18FunctionalCallbackIJSt6vectorINS_3tel11SmsMetaInfoESaIS4_EENS0_9ErrorCodeEEED1Ev=so_stub_for_libtelux_tel
-Wl,--defsym=_ZN5telux6common18FunctionalCallbackIJSt6vectorINS_3tel11SmsMetaInfoESaIS4_EENS0_9ErrorCodeEEED2Ev=so_stub_for_libtelux_tel
-Wl,--defsym=_ZN5telux6common18FunctionalCallbackIJSt6vectorINS_3tel12OperatorInfoESaIS4_EENS0_9ErrorCodeEEED0Ev=so_stub_for_libtelux_tel
-Wl,--defsym=_ZN5telux6common18FunctionalCallbackIJSt6vectorINS_3tel12OperatorInfoESaIS4_EENS0_9ErrorCodeEEED1Ev=so_stub_for_libtelux_tel
-Wl,--defsym=_ZN5telux6common18FunctionalCallbackIJSt6vectorINS_3tel12OperatorInfoESaIS4_EENS0_9ErrorCodeEEED2Ev=so_stub_for_libtelux_tel
-Wl,--defsym=_ZN5telux6common18FunctionalCallbackIJSt6vectorINS_3tel19CellBroadcastFilterESaIS4_EENS0_9ErrorCodeEEED0Ev=so_stub_for_libtelux_tel
-Wl,--defsym=_ZN5telux6common18FunctionalCallbackIJSt6vectorINS_3tel19CellBroadcastFilterESaIS4_EENS0_9ErrorCodeEEED1Ev=so_stub_for_libtelux_tel
-Wl,--defsym=_ZN5telux6common18FunctionalCallbackIJSt6vectorINS_3tel19CellBroadcastFilterESaIS4_EENS0_9ErrorCodeEEED2Ev=so_stub_for_libtelux_tel
-Wl,--defsym=_ZN5telux6common18FunctionalCallbackIJSt6vectorINS_3tel20PreferredNetworkInfoESaIS4_EES6_NS0_9ErrorCodeEEED0Ev=so_stub_for_libtelux_tel
-Wl,--defsym=_ZN5telux6common18FunctionalCallbackIJSt6vectorINS_3tel20PreferredNetworkInfoESaIS4_EES6_NS0_9ErrorCodeEEED1Ev=so_stub_for_libtelux_tel
-Wl,--defsym=_ZN5telux6common18FunctionalCallbackIJSt6vectorINS_3tel20PreferredNetworkInfoESaIS4_EES6_NS0_9ErrorCodeEEED2Ev=so_stub_for_libtelux_tel
-Wl,--defsym=_ZN5telux6common18FunctionalCallbackIJSt6vectorISt10shared_ptrINS_3tel8CellInfoEESaIS6_EENS0_9ErrorCodeEEED0Ev=so_stub_for_libtelux_tel
-Wl,--defsym=_ZN5telux6common18FunctionalCallbackIJSt6vectorISt10shared_ptrINS_3tel8CellInfoEESaIS6_EENS0_9ErrorCodeEEED1Ev=so_stub_for_libtelux_tel
-Wl,--defsym=_ZN5telux6common18FunctionalCallbackIJSt6vectorISt10shared_ptrINS_3tel8CellInfoEESaIS6_EENS0_9ErrorCodeEEED2Ev=so_stub_for_libtelux_tel
-Wl,--defsym=_ZN5telux6common22CommandCallbackManager11addCallbackIJ6SlotIdNS_3tel16ImsServiceConfigENS0_9ErrorCodeEEEEiSt8functionIFvDpT_EE=so_stub_for_libtelux_tel
-Wl,--defsym=_ZN5telux6common22CommandCallbackManager11addCallbackIJ6SlotIdNSt7__cxx1112basic_stringIcSt11char_traitsIcESaIcEEENS0_9ErrorCodeEEEEiSt8functionIFvDpT_EE=so_stub_for_libtelux_tel
-Wl,--defsym=_ZN5telux6common22CommandCallbackManager11addCallbackIJbNS0_9ErrorCodeEEEEiSt8functionIFvDpT_EE=so_stub_for_libtelux_tel
-Wl,--defsym=_ZN5telux6common22CommandCallbackManager11addCallbackIJjjNS0_9ErrorCodeEEEEiSt8functionIFvDpT_EE=so_stub_for_libtelux_tel
-Wl,--defsym=_ZN5telux6common22CommandCallbackManager11addCallbackIJNS0_9ErrorCodeEEEEiSt8functionIFvDpT_EE=so_stub_for_libtelux_tel
-Wl,--defsym=_ZN5telux6common22CommandCallbackManager11addCallbackIJNS0_9ErrorCodeEiNS_3tel20ECallHlapTimerStatusEEEEiSt8functionIFvDpT_EE=so_stub_for_libtelux_tel
-Wl,--defsym=_ZN5telux6common22CommandCallbackManager11addCallbackIJNS0_9ErrorCodeEjEEEiSt8functionIFvDpT_EE=so_stub_for_libtelux_tel
-Wl,--defsym=_ZN5telux6common22CommandCallbackManager11addCallbackIJNS0_9ErrorCodeENS_3tel12FailureCauseEEEEiSt8functionIFvDpT_EE=so_stub_for_libtelux_tel
-Wl,--defsym=_ZN5telux6common22CommandCallbackManager11addCallbackIJNS0_9ErrorCodeESt10shared_ptrINS_3tel5ICallEEEEEiSt8functionIFvDpT_EE=so_stub_for_libtelux_tel
-Wl,--defsym=_ZN5telux6common22CommandCallbackManager11addCallbackIJNS_3tel10RFBandInfoENS0_9ErrorCodeEEEEiSt8functionIFvDpT_EE=so_stub_for_libtelux_tel
-Wl,--defsym=_ZN5telux6common22CommandCallbackManager11addCallbackIJNS_3tel10SmsMessageENS0_9ErrorCodeEEEEiSt8functionIFvDpT_EE=so_stub_for_libtelux_tel
-Wl,--defsym=_ZN5telux6common22CommandCallbackManager11addCallbackIJNS_3tel11StorageTypeENS0_9ErrorCodeEEEEiSt8functionIFvDpT_EE=so_stub_for_libtelux_tel
-Wl,--defsym=_ZN5telux6common22CommandCallbackManager11addCallbackIJNS_3tel12RefreshStageENS3_11RefreshModeESt6vectorINS3_7IccFileESaIS7_EENS3_13RefreshParamsENS0_9ErrorCodeEEEEiSt8functionIFvDpT_EE=so_stub_for_libtelux_tel
-Wl,--defsym=_ZN5telux6common22CommandCallbackManager11addCallbackIJNS_3tel14ImsServiceInfoENS0_9ErrorCodeEEEEiSt8functionIFvDpT_EE=so_stub_for_libtelux_tel
-Wl,--defsym=_ZN5telux6common22CommandCallbackManager11addCallbackIJNS_3tel15NetworkModeInfoENS0_9ErrorCodeEEEEiSt8functionIFvDpT_EE=so_stub_for_libtelux_tel
-Wl,--defsym=_ZN5telux6common22CommandCallbackManager11addCallbackIJNS_3tel15NetworkTimeInfoENS0_9ErrorCodeEEEEiSt8functionIFvDpT_EE=so_stub_for_libtelux_tel
-Wl,--defsym=_ZN5telux6common22CommandCallbackManager11addCallbackIJNS_3tel16ImsPdpStatusInfoENS0_9ErrorCodeEEEEiSt8functionIFvDpT_EE=so_stub_for_libtelux_tel
-Wl,--defsym=_ZN5telux6common22CommandCallbackManager11addCallbackIJNS_3tel18SuppServicesStatusENS3_12FailureCauseENS0_9ErrorCodeEEEEiSt8functionIFvDpT_EE=so_stub_for_libtelux_tel
-Wl,--defsym=_ZN5telux6common22CommandCallbackManager11addCallbackIJNS_3tel18SuppServicesStatusENS3_22SuppSvcProvisionStatusENS3_12FailureCauseENS0_9ErrorCodeEEEEiSt8functionIFvDpT_EE=so_stub_for_libtelux_tel
-Wl,--defsym=_ZN5telux6common22CommandCallbackManager11addCallbackIJNS_3tel19ImsRegistrationInfoENS0_9ErrorCodeEEEEiSt8functionIFvDpT_EE=so_stub_for_libtelux_tel
-Wl,--defsym=_ZN5telux6common22CommandCallbackManager11addCallbackIJNS_3tel20NetworkSelectionModeENS0_9ErrorCodeEEEEiSt8functionIFvDpT_EE=so_stub_for_libtelux_tel
-Wl,--defsym=_ZN5telux6common22CommandCallbackManager11addCallbackIJNS_3tel23ServiceDomainPreferenceENS0_9ErrorCodeEEEEiSt8functionIFvDpT_EE=so_stub_for_libtelux_tel
-Wl,--defsym=_ZN5telux6common22CommandCallbackManager11addCallbackIJNS_3tel8SapStateENS0_9ErrorCodeEEEEiSt8functionIFvDpT_EE=so_stub_for_libtelux_tel
-Wl,--defsym=_ZN5telux6common22CommandCallbackManager11addCallbackIJNSt7__cxx1112basic_stringIcSt11char_traitsIcESaIcEEENS0_9ErrorCodeEEEEiSt8functionIFvDpT_EE=so_stub_for_libtelux_tel
-Wl,--defsym=_ZN5telux6common22CommandCallbackManager11addCallbackIJNSt7__cxx1112basic_stringIcSt11char_traitsIcESaIcEEES8_NS0_9ErrorCodeEEEEiSt8functionIFvDpT_EE=so_stub_for_libtelux_tel
-Wl,--defsym=_ZN5telux6common22CommandCallbackManager11addCallbackIJRKNSt7__cxx1112basic_stringIcSt11char_traitsIcESaIcEEENS0_9ErrorCodeEEEEiSt8functionIFvDpT_EE=so_stub_for_libtelux_tel
-Wl,--defsym=_ZN5telux6common22CommandCallbackManager11addCallbackIJRKSt6vectorISt10shared_ptrINS_3tel10SimProfileEESaIS7_EENS0_9ErrorCodeEEEEiSt8functionIFvDpT_EE=so_stub_for_libtelux_tel
-Wl,--defsym=_ZN5telux6common22CommandCallbackManager11addCallbackIJSt10shared_ptrINS_3tel11IRFBandListEENS0_9ErrorCodeEEEEiSt8functionIFvDpT_EE=so_stub_for_libtelux_tel
-Wl,--defsym=_ZN5telux6common22CommandCallbackManager11addCallbackIJSt3mapI6SlotIdNS_3tel10SlotStatusESt4lessIS4_ESaISt4pairIKS4_S6_EEENS0_9ErrorCodeEEEEiSt8functionIFvDpT_EE=so_stub_for_libtelux_tel
-Wl,--defsym=_ZN5telux6common22CommandCallbackManager11addCallbackIJSt6bitsetILm16EENS0_9ErrorCodeEEEEiSt8functionIFvDpT_EE=so_stub_for_libtelux_tel
-Wl,--defsym=_ZN5telux6common22CommandCallbackManager11addCallbackIJSt6vectorINS_3tel11ForwardInfoESaIS5_EENS4_12FailureCauseENS0_9ErrorCodeEEEEiSt8functionIFvDpT_EE=so_stub_for_libtelux_tel
-Wl,--defsym=_ZN5telux6common22CommandCallbackManager11addCallbackIJSt6vectorINS_3tel11ForwardInfoESaIS5_EENS4_22SuppSvcProvisionStatusENS4_12FailureCauseENS0_9ErrorCodeEEEEiSt8functionIFvDpT_EE=so_stub_for_libtelux_tel
-Wl,--defsym=_ZN5telux6common22CommandCallbackManager11addCallbackIJSt6vectorINS_3tel11SmsMetaInfoESaIS5_EENS0_9ErrorCodeEEEEiSt8functionIFvDpT_EE=so_stub_for_libtelux_tel
-Wl,--defsym=_ZN5telux6common22CommandCallbackManager11addCallbackIJSt6vectorINS_3tel12OperatorInfoESaIS5_EENS0_9ErrorCodeEEEEiSt8functionIFvDpT_EE=so_stub_for_libtelux_tel
-Wl,--defsym=_ZN5telux6common22CommandCallbackManager11addCallbackIJSt6vectorINS_3tel19CellBroadcastFilterESaIS5_EENS0_9ErrorCodeEEEEiSt8functionIFvDpT_EE=so_stub_for_libtelux_tel
-Wl,--defsym=_ZN5telux6common22CommandCallbackManager11addCallbackIJSt6vectorINS_3tel20PreferredNetworkInfoESaIS5_EES7_NS0_9ErrorCodeEEEEiSt8functionIFvDpT_EE=so_stub_for_libtelux_tel
-Wl,--defsym=_ZN5telux6common22CommandCallbackManager15executeCallbackIJlRNS0_9ErrorCodeEEEEvSt10shared_ptrINS0_16ICommandCallbackEEDpOT_=so_stub_for_libtelux_tel
-Wl,--defsym=_ZN5telux6common22CommandCallbackManager15executeCallbackIJNS0_9ErrorCodeEEEEvSt10shared_ptrINS0_16ICommandCallbackEEDpOT_=so_stub_for_libtelux_tel
-Wl,--defsym=_ZN5telux6common22CommandCallbackManager15executeCallbackIJNS_3tel11StorageTypeERNS0_9ErrorCodeEEEEvSt10shared_ptrINS0_16ICommandCallbackEEDpOT_=so_stub_for_libtelux_tel
-Wl,--defsym=_ZN5telux6common22CommandCallbackManager15executeCallbackIJNS_3tel7EcbModeENS0_9ErrorCodeEEEEvSt10shared_ptrINS0_16ICommandCallbackEEDpOT_=so_stub_for_libtelux_tel
-Wl,--defsym=_ZN5telux6common22CommandCallbackManager15executeCallbackIJR6SlotIdRNS_3tel16ImsServiceConfigERNS0_9ErrorCodeEEEEvSt10shared_ptrINS0_16ICommandCallbackEEDpOT_=so_stub_for_libtelux_tel
-Wl,--defsym=_ZN5telux6common22CommandCallbackManager15executeCallbackIJR6SlotIdRNSt7__cxx1112basic_stringIcSt11char_traitsIcESaIcEEERNS0_9ErrorCodeEEEEvSt10shared_ptrINS0_16ICommandCallbackEEDpOT_=so_stub_for_libtelux_tel
-Wl,--defsym=_ZN5telux6common22CommandCallbackManager15executeCallbackIJRbRiEEEvSt10shared_ptrINS0_16ICommandCallbackEEDpOT_=so_stub_for_libtelux_tel
-Wl,--defsym=_ZN5telux6common22CommandCallbackManager15executeCallbackIJRbRNS0_9ErrorCodeEEEEvSt10shared_ptrINS0_16ICommandCallbackEEDpOT_=so_stub_for_libtelux_tel
-Wl,--defsym=_ZN5telux6common22CommandCallbackManager15executeCallbackIJRbS3_RiEEEvSt10shared_ptrINS0_16ICommandCallbackEEDpOT_=so_stub_for_libtelux_tel
-Wl,--defsym=_ZN5telux6common22CommandCallbackManager15executeCallbackIJRiRbRNS0_9ErrorCodeEEEEvSt10shared_ptrINS0_16ICommandCallbackEEDpOT_=so_stub_for_libtelux_tel
-Wl,--defsym=_ZN5telux6common22CommandCallbackManager15executeCallbackIJRiRNS0_9ErrorCodeEEEEvSt10shared_ptrINS0_16ICommandCallbackEEDpOT_=so_stub_for_libtelux_tel
-Wl,--defsym=_ZN5telux6common22CommandCallbackManager15executeCallbackIJRiS3_EEEvSt10shared_ptrINS0_16ICommandCallbackEEDpOT_=so_stub_for_libtelux_tel
-Wl,--defsym=_ZN5telux6common22CommandCallbackManager15executeCallbackIJRjS3_RNS0_9ErrorCodeEEEEvSt10shared_ptrINS0_16ICommandCallbackEEDpOT_=so_stub_for_libtelux_tel
-Wl,--defsym=_ZN5telux6common22CommandCallbackManager15executeCallbackIJRNS0_9ErrorCodeEEEEvSt10shared_ptrINS0_16ICommandCallbackEEDpOT_=so_stub_for_libtelux_tel
-Wl,--defsym=_ZN5telux6common22CommandCallbackManager15executeCallbackIJRNS0_9ErrorCodeERiEEEvSt10shared_ptrINS0_16ICommandCallbackEEDpOT_=so_stub_for_libtelux_tel
-Wl,--defsym=_ZN5telux6common22CommandCallbackManager15executeCallbackIJRNS0_9ErrorCodeERiRNS_3tel20ECallHlapTimerStatusEEEEvSt10shared_ptrINS0_16ICommandCallbackEEDpOT_=so_stub_for_libtelux_tel
-Wl,--defsym=_ZN5telux6common22CommandCallbackManager15executeCallbackIJRNS0_9ErrorCodeERNS_3tel12FailureCauseEEEEvSt10shared_ptrINS0_16ICommandCallbackEEDpOT_=so_stub_for_libtelux_tel
-Wl,--defsym=_ZN5telux6common22CommandCallbackManager15executeCallbackIJRNS0_9ErrorCodeERNS_3tel9IccResultEEEEvSt10shared_ptrINS0_16ICommandCallbackEEDpOT_=so_stub_for_libtelux_tel
-Wl,--defsym=_ZN5telux6common22CommandCallbackManager15executeCallbackIJRNS0_9ErrorCodeERNS_3tel9IccResultERNS5_14FileAttributesEEEEvSt10shared_ptrINS0_16ICommandCallbackEEDpOT_=so_stub_for_libtelux_tel
-Wl,--defsym=_ZN5telux6common22CommandCallbackManager15executeCallbackIJRNS0_9ErrorCodeERSt6vectorINS_3tel9IccResultESaIS7_EEEEEvSt10shared_ptrINS0_16ICommandCallbackEEDpOT_=so_stub_for_libtelux_tel
-Wl,--defsym=_ZN5telux6common22CommandCallbackManager15executeCallbackIJRNS0_9ErrorCodeESt10shared_ptrINS_3tel4CallEEEEEvS5_INS0_16ICommandCallbackEEDpOT_=so_stub_for_libtelux_tel
-Wl,--defsym=_ZN5telux6common22CommandCallbackManager15executeCallbackIJRNS_3tel10RFBandInfoERNS0_9ErrorCodeEEEEvSt10shared_ptrINS0_16ICommandCallbackEEDpOT_=so_stub_for_libtelux_tel
-Wl,--defsym=_ZN5telux6common22CommandCallbackManager15executeCallbackIJRNS_3tel10SmsMessageERNS0_9ErrorCodeEEEEvSt10shared_ptrINS0_16ICommandCallbackEEDpOT_=so_stub_for_libtelux_tel
-Wl,--defsym=_ZN5telux6common22CommandCallbackManager15executeCallbackIJRNS_3tel12RefreshStageERNS3_11RefreshModeERSt6vectorINS3_7IccFileESaIS9_EERNS3_13RefreshParamsERNS0_9ErrorCodeEEEEvSt10shared_ptrINS0_16ICommandCallbackEEDpOT_=so_stub_for_libtelux_tel
-Wl,--defsym=_ZN5telux6common22CommandCallbackManager15executeCallbackIJRNS_3tel14ImsServiceInfoERNS0_9ErrorCodeEEEEvSt10shared_ptrINS0_16ICommandCallbackEEDpOT_=so_stub_for_libtelux_tel
-Wl,--defsym=_ZN5telux6common22CommandCallbackManager15executeCallbackIJRNS_3tel15NetworkModeInfoERNS0_9ErrorCodeEEEEvSt10shared_ptrINS0_16ICommandCallbackEEDpOT_=so_stub_for_libtelux_tel
-Wl,--defsym=_ZN5telux6common22CommandCallbackManager15executeCallbackIJRNS_3tel15NetworkTimeInfoERNS0_9ErrorCodeEEEEvSt10shared_ptrINS0_16ICommandCallbackEEDpOT_=so_stub_for_libtelux_tel
-Wl,--defsym=_ZN5telux6common22CommandCallbackManager15executeCallbackIJRNS_3tel15RadioTechnologyERNS0_9ErrorCodeEEEEvSt10shared_ptrINS0_16ICommandCallbackEEDpOT_=so_stub_for_libtelux_tel
-Wl,--defsym=_ZN5telux6common22CommandCallbackManager15executeCallbackIJRNS_3tel16ImsPdpStatusInfoERNS0_9ErrorCodeEEEEvSt10shared_ptrINS0_16ICommandCallbackEEDpOT_=so_stub_for_libtelux_tel
-Wl,--defsym=_ZN5telux6common22CommandCallbackManager15executeCallbackIJRNS_3tel18SuppServicesStatusERNS3_12FailureCauseERNS0_9ErrorCodeEEEEvSt10shared_ptrINS0_16ICommandCallbackEEDpOT_=so_stub_for_libtelux_tel
-Wl,--defsym=_ZN5telux6common22CommandCallbackManager15executeCallbackIJRNS_3tel18SuppServicesStatusERNS3_22SuppSvcProvisionStatusERNS3_12FailureCauseERNS0_9ErrorCodeEEEEvSt10shared_ptrINS0_16ICommandCallbackEEDpOT_=so_stub_for_libtelux_tel
-Wl,--defsym=_ZN5telux6common22CommandCallbackManager15executeCallbackIJRNS_3tel19ImsRegistrationInfoERNS0_9ErrorCodeEEEEvSt10shared_ptrINS0_16ICommandCallbackEEDpOT_=so_stub_for_libtelux_tel
-Wl,--defsym=_ZN5telux6common22CommandCallbackManager15executeCallbackIJRNS_3tel20NetworkSelectionModeERNS0_9ErrorCodeEEEEvSt10shared_ptrINS0_16ICommandCallbackEEDpOT_=so_stub_for_libtelux_tel
-Wl,--defsym=_ZN5telux6common22CommandCallbackManager15executeCallbackIJRNS_3tel23ServiceDomainPreferenceERNS0_9ErrorCodeEEEEvSt10shared_ptrINS0_16ICommandCallbackEEDpOT_=so_stub_for_libtelux_tel
-Wl,--defsym=_ZN5telux6common22CommandCallbackManager15executeCallbackIJRNS_3tel8PlmnInfoERNS0_9ErrorCodeEEEEvSt10shared_ptrINS0_16ICommandCallbackEEDpOT_=so_stub_for_libtelux_tel
-Wl,--defsym=_ZN5telux6common22CommandCallbackManager15executeCallbackIJRNS_3tel8SapStateERNS0_9ErrorCodeEEEEvSt10shared_ptrINS0_16ICommandCallbackEEDpOT_=so_stub_for_libtelux_tel
-Wl,--defsym=_ZN5telux6common22CommandCallbackManager15executeCallbackIJRNS_3tel9ECallModeERNS0_9ErrorCodeEEEEvSt10shared_ptrINS0_16ICommandCallbackEEDpOT_=so_stub_for_libtelux_tel
-Wl,--defsym=_ZN5telux6common22CommandCallbackManager15executeCallbackIJRNSt7__cxx1112basic_stringIcSt11char_traitsIcESaIcEEERNS0_9ErrorCodeEEEEvSt10shared_ptrINS0_16ICommandCallbackEEDpOT_=so_stub_for_libtelux_tel
-Wl,--defsym=_ZN5telux6common22CommandCallbackManager15executeCallbackIJRNSt7__cxx1112basic_stringIcSt11char_traitsIcESaIcEEES9_RNS0_9ErrorCodeEEEEvSt10shared_ptrINS0_16ICommandCallbackEEDpOT_=so_stub_for_libtelux_tel
-Wl,--defsym=_ZN5telux6common22CommandCallbackManager15executeCallbackIJRSt10shared_ptrINS_3tel11IRFBandListEERNS0_9ErrorCodeEEEEvS3_INS0_16ICommandCallbackEEDpOT_=so_stub_for_libtelux_tel
-Wl,--defsym=_ZN5telux6common22CommandCallbackManager15executeCallbackIJRSt3mapI6SlotIdNS_3tel10SlotStatusESt4lessIS4_ESaISt4pairIKS4_S6_EEERNS0_9ErrorCodeEEEEvSt10shared_ptrINS0_16ICommandCallbackEEDpOT_=so_stub_for_libtelux_tel
-Wl,--defsym=_ZN5telux6common22CommandCallbackManager15executeCallbackIJRSt6bitsetILm16EERNS0_9ErrorCodeEEEEvSt10shared_ptrINS0_16ICommandCallbackEEDpOT_=so_stub_for_libtelux_tel
-Wl,--defsym=_ZN5telux6common22CommandCallbackManager15executeCallbackIJRSt6vectorIiSaIiEERNS0_9ErrorCodeEEEEvSt10shared_ptrINS0_16ICommandCallbackEEDpOT_=so_stub_for_libtelux_tel
-Wl,--defsym=_ZN5telux6common22CommandCallbackManager15executeCallbackIJRSt6vectorINS_3tel11ForwardInfoESaIS5_EERNS4_12FailureCauseERNS0_9ErrorCodeEEEEvSt10shared_ptrINS0_16ICommandCallbackEEDpOT_=so_stub_for_libtelux_tel
-Wl,--defsym=_ZN5telux6common22CommandCallbackManager15executeCallbackIJRSt6vectorINS_3tel11ForwardInfoESaIS5_EERNS4_22SuppSvcProvisionStatusERNS4_12FailureCauseERNS0_9ErrorCodeEEEEvSt10shared_ptrINS0_16ICommandCallbackEEDpOT_=so_stub_for_libtelux_tel
-Wl,--defsym=_ZN5telux6common22CommandCallbackManager15executeCallbackIJRSt6vectorINS_3tel11SmsMetaInfoESaIS5_EERNS0_9ErrorCodeEEEEvSt10shared_ptrINS0_16ICommandCallbackEEDpOT_=so_stub_for_libtelux_tel
-Wl,--defsym=_ZN5telux6common22CommandCallbackManager15executeCallbackIJRSt6vectorINS_3tel12OperatorInfoESaIS5_EERNS0_9ErrorCodeEEEEvSt10shared_ptrINS0_16ICommandCallbackEEDpOT_=so_stub_for_libtelux_tel
-Wl,--defsym=_ZN5telux6common22CommandCallbackManager15executeCallbackIJRSt6vectorINS_3tel19CellBroadcastFilterESaIS5_EERNS0_9ErrorCodeEEEEvSt10shared_ptrINS0_16ICommandCallbackEEDpOT_=so_stub_for_libtelux_tel
-Wl,--defsym=_ZN5telux6common22CommandCallbackManager15executeCallbackIJRSt6vectorINS_3tel20PreferredNetworkInfoESaIS5_EES8_RNS0_9ErrorCodeEEEEvSt10shared_ptrINS0_16ICommandCallbackEEDpOT_=so_stub_for_libtelux_tel
-Wl,--defsym=_ZN5telux6common22CommandCallbackManager15executeCallbackIJRSt6vectorISt10shared_ptrINS_3tel10SimProfileEESaIS7_EERNS0_9ErrorCodeEEEEvS4_INS0_16ICommandCallbackEEDpOT_=so_stub_for_libtelux_tel
-Wl,--defsym=_ZN5telux6common22CommandCallbackManager15executeCallbackIJRSt6vectorISt10shared_ptrINS_3tel8CellInfoEESaIS7_EENS0_9ErrorCodeEEEEvS4_INS0_16ICommandCallbackEEDpOT_=so_stub_for_libtelux_tel
-Wl,--defsym=_ZN5telux6common22IServiceStatusListener21onServiceStatusChangeENS0_13ServiceStatusE=so_stub_for_libtelux_tel
-Wl,--defsym=_ZN5telux6common3Log10logMessageIJNSt7__cxx1112basic_stringIcSt11char_traitsIcESaIcEEEEEEvNS0_8LogLevelERKS8_SB_RKiDpT_=so_stub_for_libtelux_tel
-Wl,--defsym=_ZN5telux6common3Log10logMessageIJNSt7__cxx1112basic_stringIcSt11char_traitsIcESaIcEEEPKcbSA_bSA_bEEEvNS0_8LogLevelERKS8_SD_RKiDpT_=so_stub_for_libtelux_tel
-Wl,--defsym=_ZN5telux6common3Log10logMessageIJNSt7__cxx1112basic_stringIcSt11char_traitsIcESaIcEEEPKcEEEvNS0_8LogLevelERKS8_SD_RKiDpT_=so_stub_for_libtelux_tel
-Wl,--defsym=_ZN5telux6common3Log10logMessageIJNSt7__cxx1112basic_stringIcSt11char_traitsIcESaIcEEEPKciEEEvNS0_8LogLevelERKS8_SD_RKiDpT_=so_stub_for_libtelux_tel
-Wl,--defsym=_ZN5telux6common3Log10logMessageIJNSt7__cxx1112basic_stringIcSt11char_traitsIcESaIcEEEPKciSA_bEEEvNS0_8LogLevelERKS8_SD_RKiDpT_=so_stub_for_libtelux_tel
-Wl,--defsym=_ZN5telux6common3Log10logMessageIJNSt7__cxx1112basic_stringIcSt11char_traitsIcESaIcEEEPKciSA_EEEvNS0_8LogLevelERKS8_SD_RKiDpT_=so_stub_for_libtelux_tel
-Wl,--defsym=_ZN5telux6common3Log10logMessageIJNSt7__cxx1112basic_stringIcSt11char_traitsIcESaIcEEEPKciSA_iSA_EEEvNS0_8LogLevelERKS8_SD_RKiDpT_=so_stub_for_libtelux_tel
-Wl,--defsym=_ZN5telux6common3Log10logMessageIJNSt7__cxx1112basic_stringIcSt11char_traitsIcESaIcEEEPKciSA_iSA_iEEEvNS0_8LogLevelERKS8_SD_RKiDpT_=so_stub_for_libtelux_tel
-Wl,--defsym=_ZN5telux6common3Log10logMessageIJNSt7__cxx1112basic_stringIcSt11char_traitsIcESaIcEEEPKcjEEEvNS0_8LogLevelERKS8_SD_RKiDpT_=so_stub_for_libtelux_tel
-Wl,--defsym=_ZN5telux6common3Log10logMessageIJNSt7__cxx1112basic_stringIcSt11char_traitsIcESaIcEEEPKcjSA_iEEEvNS0_8LogLevelERKS8_SD_RKiDpT_=so_stub_for_libtelux_tel
-Wl,--defsym=_ZN5telux6common3Log10logMessageIJNSt7__cxx1112basic_stringIcSt11char_traitsIcESaIcEEEPKcmSA_EEEvNS0_8LogLevelERKS8_SD_RKiDpT_=so_stub_for_libtelux_tel
-Wl,--defsym=_ZN5telux6common3Log10logMessageIJNSt7__cxx1112basic_stringIcSt11char_traitsIcESaIcEEEPKcmSA_PNS_3tel11ISmsManagerESA_jSA_iEEEvNS0_8LogLevelERKS8_SG_RKiDpT_=so_stub_for_libtelux_tel
-Wl,--defsym=_ZN5telux6common3Log10logMessageIJNSt7__cxx1112basic_stringIcSt11char_traitsIcESaIcEEEPKcmSA_PNS_3tel12ICallManagerESA_jSA_iEEEvNS0_8LogLevelERKS8_SG_RKiDpT_=so_stub_for_libtelux_tel
-Wl,--defsym=_ZN5telux6common3Log10logMessageIJNSt7__cxx1112basic_stringIcSt11char_traitsIcESaIcEEEPKcmSA_PNS_3tel12ICardManagerESA_jSA_iEEEvNS0_8LogLevelERKS8_SG_RKiDpT_=so_stub_for_libtelux_tel
-Wl,--defsym=_ZN5telux6common3Log10logMessageIJNSt7__cxx1112basic_stringIcSt11char_traitsIcESaIcEEEPKcmSA_PNS_3tel13IEcallManagerESA_iEEEvNS0_8LogLevelERKS8_SG_RKiDpT_=so_stub_for_libtelux_tel
-Wl,--defsym=_ZN5telux6common3Log10logMessageIJNSt7__cxx1112basic_stringIcSt11char_traitsIcESaIcEEEPKcmSA_PNS_3tel13IPhoneManagerESA_jSA_iEEEvNS0_8LogLevelERKS8_SG_RKiDpT_=so_stub_for_libtelux_tel
-Wl,--defsym=_ZN5telux6common3Log10logMessageIJNSt7__cxx1112basic_stringIcSt11char_traitsIcESaIcEEEPKcmSA_PNS_3tel15ISapCardManagerESA_jSA_iEEEvNS0_8LogLevelERKS8_SG_RKiDpT_=so_stub_for_libtelux_tel
-Wl,--defsym=_ZN5telux6common3Log10logMessageIJNSt7__cxx1112basic_stringIcSt11char_traitsIcESaIcEEEPKcmSA_PNS_3tel16IMultiSimManagerESA_jSA_iEEEvNS0_8LogLevelERKS8_SG_RKiDpT_=so_stub_for_libtelux_tel
-Wl,--defsym=_ZN5telux6common3Log10logMessageIJNSt7__cxx1112basic_stringIcSt11char_traitsIcESaIcEEEPKcmSA_PNS_3tel17IRemoteSimManagerESA_jSA_iEEEvNS0_8LogLevelERKS8_SG_RKiDpT_=so_stub_for_libtelux_tel
-Wl,--defsym=_ZN5telux6common3Log10logMessageIJNSt7__cxx1112basic_stringIcSt11char_traitsIcESaIcEEEPKcmSA_PNS_3tel18ISimProfileManagerESA_jSA_iEEEvNS0_8LogLevelERKS8_SG_RKiDpT_=so_stub_for_libtelux_tel
-Wl,--defsym=_ZN5telux6common3Log10logMessageIJNSt7__cxx1112basic_stringIcSt11char_traitsIcESaIcEEEPKcmSA_PNS_3tel19IImsSettingsManagerESA_jSA_iEEEvNS0_8LogLevelERKS8_SG_RKiDpT_=so_stub_for_libtelux_tel
-Wl,--defsym=_ZN5telux6common3Log10logMessageIJNSt7__cxx1112basic_stringIcSt11char_traitsIcESaIcEEEPKcmSA_PNS_3tel20IApSimProfileManagerESA_jSA_iEEEvNS0_8LogLevelERKS8_SG_RKiDpT_=so_stub_for_libtelux_tel
-Wl,--defsym=_ZN5telux6common3Log10logMessageIJNSt7__cxx1112basic_stringIcSt11char_traitsIcESaIcEEEPKcmSA_PNS_3tel20ISubscriptionManagerESA_jSA_iEEEvNS0_8LogLevelERKS8_SG_RKiDpT_=so_stub_for_libtelux_tel
-Wl,--defsym=_ZN5telux6common3Log10logMessageIJNSt7__cxx1112basic_stringIcSt11char_traitsIcESaIcEEEPKcmSA_PNS_3tel20ISuppServicesManagerESA_jSA_iEEEvNS0_8LogLevelERKS8_SG_RKiDpT_=so_stub_for_libtelux_tel
-Wl,--defsym=_ZN5telux6common3Log10logMessageIJNSt7__cxx1112basic_stringIcSt11char_traitsIcESaIcEEEPKcmSA_PNS_3tel21ICellBroadcastManagerESA_jSA_iEEEvNS0_8LogLevelERKS8_SG_RKiDpT_=so_stub_for_libtelux_tel
-Wl,--defsym=_ZN5telux6common3Log10logMessageIJNSt7__cxx1112basic_stringIcSt11char_traitsIcESaIcEEEPKcmSA_PNS_3tel21IServingSystemManagerESA_jSA_iEEEvNS0_8LogLevelERKS8_SG_RKiDpT_=so_stub_for_libtelux_tel
-Wl,--defsym=_ZN5telux6common3Log10logMessageIJNSt7__cxx1112basic_stringIcSt11char_traitsIcESaIcEEEPKcmSA_PNS_3tel23IHttpTransactionManagerESA_jSA_iEEEvNS0_8LogLevelERKS8_SG_RKiDpT_=so_stub_for_libtelux_tel
-Wl,--defsym=_ZN5telux6common3Log10logMessageIJNSt7__cxx1112basic_stringIcSt11char_traitsIcESaIcEEEPKcmSA_PNS_3tel24IImsServingSystemManagerESA_jSA_iEEEvNS0_8LogLevelERKS8_SG_RKiDpT_=so_stub_for_libtelux_tel
-Wl,--defsym=_ZN5telux6common3Log10logMessageIJNSt7__cxx1112basic_stringIcSt11char_traitsIcESaIcEEEPKcmSA_PNS_3tel24INetworkSelectionManagerESA_jSA_iEEEvNS0_8LogLevelERKS8_SG_RKiDpT_=so_stub_for_libtelux_tel
-Wl,--defsym=_ZN5telux6common3Log10logMessageIJNSt7__cxx1112basic_stringIcSt11char_traitsIcESaIcEEEPKcPNS_3tel11ISmsManagerEEEEvNS0_8LogLevelERKS8_SG_RKiDpT_=so_stub_for_libtelux_tel
-Wl,--defsym=_ZN5telux6common3Log10logMessageIJNSt7__cxx1112basic_stringIcSt11char_traitsIcESaIcEEEPKcPNS_3tel11ISmsManagerESA_jEEEvNS0_8LogLevelERKS8_SG_RKiDpT_=so_stub_for_libtelux_tel
-Wl,--defsym=_ZN5telux6common3Log10logMessageIJNSt7__cxx1112basic_stringIcSt11char_traitsIcESaIcEEEPKcPNS_3tel12ICallManagerEEEEvNS0_8LogLevelERKS8_SG_RKiDpT_=so_stub_for_libtelux_tel
-Wl,--defsym=_ZN5telux6common3Log10logMessageIJNSt7__cxx1112basic_stringIcSt11char_traitsIcESaIcEEEPKcPNS_3tel12ICallManagerESA_jEEEvNS0_8LogLevelERKS8_SG_RKiDpT_=so_stub_for_libtelux_tel
-Wl,--defsym=_ZN5telux6common3Log10logMessageIJNSt7__cxx1112basic_stringIcSt11char_traitsIcESaIcEEEPKcPNS_3tel12ICardManagerEEEEvNS0_8LogLevelERKS8_SG_RKiDpT_=so_stub_for_libtelux_tel
-Wl,--defsym=_ZN5telux6common3Log10logMessageIJNSt7__cxx1112basic_stringIcSt11char_traitsIcESaIcEEEPKcPNS_3tel12ICardManagerESA_jEEEvNS0_8LogLevelERKS8_SG_RKiDpT_=so_stub_for_libtelux_tel
-Wl,--defsym=_ZN5telux6common3Log10logMessageIJNSt7__cxx1112basic_stringIcSt11char_traitsIcESaIcEEEPKcPNS_3tel13IEcallManagerEEEEvNS0_8LogLevelERKS8_SG_RKiDpT_=so_stub_for_libtelux_tel
-Wl,--defsym=_ZN5telux6common3Log10logMessageIJNSt7__cxx1112basic_stringIcSt11char_traitsIcESaIcEEEPKcPNS_3tel13IEcallManagerESA_EEEvNS0_8LogLevelERKS8_SG_RKiDpT_=so_stub_for_libtelux_tel
-Wl,--defsym=_ZN5telux6common3Log10logMessageIJNSt7__cxx1112basic_stringIcSt11char_traitsIcESaIcEEEPKcPNS_3tel13IEcallManagerESA_iEEEvNS0_8LogLevelERKS8_SG_RKiDpT_=so_stub_for_libtelux_tel
-Wl,--defsym=_ZN5telux6common3Log10logMessageIJNSt7__cxx1112basic_stringIcSt11char_traitsIcESaIcEEEPKcPNS_3tel13IPhoneManagerEEEEvNS0_8LogLevelERKS8_SG_RKiDpT_=so_stub_for_libtelux_tel
-Wl,--defsym=_ZN5telux6common3Log10logMessageIJNSt7__cxx1112basic_stringIcSt11char_traitsIcESaIcEEEPKcPNS_3tel13IPhoneManagerESA_jEEEvNS0_8LogLevelERKS8_SG_RKiDpT_=so_stub_for_libtelux_tel
-Wl,--defsym=_ZN5telux6common3Log10logMessageIJNSt7__cxx1112basic_stringIcSt11char_traitsIcESaIcEEEPKcPNS_3tel15ISapCardManagerEEEEvNS0_8LogLevelERKS8_SG_RKiDpT_=so_stub_for_libtelux_tel
-Wl,--defsym=_ZN5telux6common3Log10logMessageIJNSt7__cxx1112basic_stringIcSt11char_traitsIcESaIcEEEPKcPNS_3tel15ISapCardManagerESA_jEEEvNS0_8LogLevelERKS8_SG_RKiDpT_=so_stub_for_libtelux_tel
-Wl,--defsym=_ZN5telux6common3Log10logMessageIJNSt7__cxx1112basic_stringIcSt11char_traitsIcESaIcEEEPKcPNS_3tel16IMultiSimManagerEEEEvNS0_8LogLevelERKS8_SG_RKiDpT_=so_stub_for_libtelux_tel
-Wl,--defsym=_ZN5telux6common3Log10logMessageIJNSt7__cxx1112basic_stringIcSt11char_traitsIcESaIcEEEPKcPNS_3tel16IMultiSimManagerESA_jEEEvNS0_8LogLevelERKS8_SG_RKiDpT_=so_stub_for_libtelux_tel
-Wl,--defsym=_ZN5telux6common3Log10logMessageIJNSt7__cxx1112basic_stringIcSt11char_traitsIcESaIcEEEPKcPNS_3tel17IRemoteSimManagerEEEEvNS0_8LogLevelERKS8_SG_RKiDpT_=so_stub_for_libtelux_tel
-Wl,--defsym=_ZN5telux6common3Log10logMessageIJNSt7__cxx1112basic_stringIcSt11char_traitsIcESaIcEEEPKcPNS_3tel17IRemoteSimManagerESA_jEEEvNS0_8LogLevelERKS8_SG_RKiDpT_=so_stub_for_libtelux_tel
-Wl,--defsym=_ZN5telux6common3Log10logMessageIJNSt7__cxx1112basic_stringIcSt11char_traitsIcESaIcEEEPKcPNS_3tel18ISimProfileManagerEEEEvNS0_8LogLevelERKS8_SG_RKiDpT_=so_stub_for_libtelux_tel
-Wl,--defsym=_ZN5telux6common3Log10logMessageIJNSt7__cxx1112basic_stringIcSt11char_traitsIcESaIcEEEPKcPNS_3tel18ISimProfileManagerESA_jEEEvNS0_8LogLevelERKS8_SG_RKiDpT_=so_stub_for_libtelux_tel
-Wl,--defsym=_ZN5telux6common3Log10logMessageIJNSt7__cxx1112basic_stringIcSt11char_traitsIcESaIcEEEPKcPNS_3tel19IImsSettingsManagerEEEEvNS0_8LogLevelERKS8_SG_RKiDpT_=so_stub_for_libtelux_tel
-Wl,--defsym=_ZN5telux6common3Log10logMessageIJNSt7__cxx1112basic_stringIcSt11char_traitsIcESaIcEEEPKcPNS_3tel19IImsSettingsManagerESA_jEEEvNS0_8LogLevelERKS8_SG_RKiDpT_=so_stub_for_libtelux_tel
-Wl,--defsym=_ZN5telux6common3Log10logMessageIJNSt7__cxx1112basic_stringIcSt11char_traitsIcESaIcEEEPKcPNS_3tel20IApSimProfileManagerEEEEvNS0_8LogLevelERKS8_SG_RKiDpT_=so_stub_for_libtelux_tel
-Wl,--defsym=_ZN5telux6common3Log10logMessageIJNSt7__cxx1112basic_stringIcSt11char_traitsIcESaIcEEEPKcPNS_3tel20IApSimProfileManagerESA_jEEEvNS0_8LogLevelERKS8_SG_RKiDpT_=so_stub_for_libtelux_tel
-Wl,--defsym=_ZN5telux6common3Log10logMessageIJNSt7__cxx1112basic_stringIcSt11char_traitsIcESaIcEEEPKcPNS_3tel20ISubscriptionManagerEEEEvNS0_8LogLevelERKS8_SG_RKiDpT_=so_stub_for_libtelux_tel
-Wl,--defsym=_ZN5telux6common3Log10logMessageIJNSt7__cxx1112basic_stringIcSt11char_traitsIcESaIcEEEPKcPNS_3tel20ISubscriptionManagerESA_jEEEvNS0_8LogLevelERKS8_SG_RKiDpT_=so_stub_for_libtelux_tel
-Wl,--defsym=_ZN5telux6common3Log10logMessageIJNSt7__cxx1112basic_stringIcSt11char_traitsIcESaIcEEEPKcPNS_3tel20ISuppServicesManagerEEEEvNS0_8LogLevelERKS8_SG_RKiDpT_=so_stub_for_libtelux_tel
-Wl,--defsym=_ZN5telux6common3Log10logMessageIJNSt7__cxx1112basic_stringIcSt11char_traitsIcESaIcEEEPKcPNS_3tel20ISuppServicesManagerESA_jEEEvNS0_8LogLevelERKS8_SG_RKiDpT_=so_stub_for_libtelux_tel
-Wl,--defsym=_ZN5telux6common3Log10logMessageIJNSt7__cxx1112basic_stringIcSt11char_traitsIcESaIcEEEPKcPNS_3tel21ICellBroadcastManagerEEEEvNS0_8LogLevelERKS8_SG_RKiDpT_=so_stub_for_libtelux_tel
-Wl,--defsym=_ZN5telux6common3Log10logMessageIJNSt7__cxx1112basic_stringIcSt11char_traitsIcESaIcEEEPKcPNS_3tel21ICellBroadcastManagerESA_jEEEvNS0_8LogLevelERKS8_SG_RKiDpT_=so_stub_for_libtelux_tel
-Wl,--defsym=_ZN5telux6common3Log10logMessageIJNSt7__cxx1112basic_stringIcSt11char_traitsIcESaIcEEEPKcPNS_3tel21IServingSystemManagerEEEEvNS0_8LogLevelERKS8_SG_RKiDpT_=so_stub_for_libtelux_tel
-Wl,--defsym=_ZN5telux6common3Log10logMessageIJNSt7__cxx1112basic_stringIcSt11char_traitsIcESaIcEEEPKcPNS_3tel21IServingSystemManagerESA_jEEEvNS0_8LogLevelERKS8_SG_RKiDpT_=so_stub_for_libtelux_tel
-Wl,--defsym=_ZN5telux6common3Log10logMessageIJNSt7__cxx1112basic_stringIcSt11char_traitsIcESaIcEEEPKcPNS_3tel23IHttpTransactionManagerEEEEvNS0_8LogLevelERKS8_SG_RKiDpT_=so_stub_for_libtelux_tel
-Wl,--defsym=_ZN5telux6common3Log10logMessageIJNSt7__cxx1112basic_stringIcSt11char_traitsIcESaIcEEEPKcPNS_3tel23IHttpTransactionManagerESA_jEEEvNS0_8LogLevelERKS8_SG_RKiDpT_=so_stub_for_libtelux_tel
-Wl,--defsym=_ZN5telux6common3Log10logMessageIJNSt7__cxx1112basic_stringIcSt11char_traitsIcESaIcEEEPKcPNS_3tel24IImsServingSystemManagerEEEEvNS0_8LogLevelERKS8_SG_RKiDpT_=so_stub_for_libtelux_tel
-Wl,--defsym=_ZN5telux6common3Log10logMessageIJNSt7__cxx1112basic_stringIcSt11char_traitsIcESaIcEEEPKcPNS_3tel24IImsServingSystemManagerESA_jEEEvNS0_8LogLevelERKS8_SG_RKiDpT_=so_stub_for_libtelux_tel
-Wl,--defsym=_ZN5telux6common3Log10logMessageIJNSt7__cxx1112basic_stringIcSt11char_traitsIcESaIcEEEPKcPNS_3tel24INetworkSelectionManagerEEEEvNS0_8LogLevelERKS8_SG_RKiDpT_=so_stub_for_libtelux_tel
-Wl,--defsym=_ZN5telux6common3Log10logMessageIJNSt7__cxx1112basic_stringIcSt11char_traitsIcESaIcEEEPKcPNS_3tel24INetworkSelectionManagerESA_jEEEvNS0_8LogLevelERKS8_SG_RKiDpT_=so_stub_for_libtelux_tel
-Wl,--defsym=_ZN5telux6common3Log10logMessageIJNSt7__cxx1112basic_stringIcSt11char_traitsIcESaIcEEEPKcS8_EEEvNS0_8LogLevelERKS8_SD_RKiDpT_=so_stub_for_libtelux_tel
-Wl,--defsym=_ZN5telux6common3Log10logMessageIJNSt7__cxx1112basic_stringIcSt11char_traitsIcESaIcEEEPKcS8_SA_iEEEvNS0_8LogLevelERKS8_SD_RKiDpT_=so_stub_for_libtelux_tel
-Wl,--defsym=_ZN5telux6common3Log10logMessageIJNSt7__cxx1112basic_stringIcSt11char_traitsIcESaIcEEEPKcS8_SA_iSA_bEEEvNS0_8LogLevelERKS8_SD_RKiDpT_=so_stub_for_libtelux_tel
-Wl,--defsym=_ZN5telux6common3Log10logMessageIJNSt7__cxx1112basic_stringIcSt11char_traitsIcESaIcEEEPKcSA_bEEEvNS0_8LogLevelERKS8_SD_RKiDpT_=so_stub_for_libtelux_tel
-Wl,--defsym=_ZN5telux6common3Log10logMessageIJNSt7__cxx1112basic_stringIcSt11char_traitsIcESaIcEEEPKcSA_EEEvNS0_8LogLevelERKS8_SD_RKiDpT_=so_stub_for_libtelux_tel
-Wl,--defsym=_ZN5telux6common3Log10logMessageIJNSt7__cxx1112basic_stringIcSt11char_traitsIcESaIcEEEPKcSA_iEEEvNS0_8LogLevelERKS8_SD_RKiDpT_=so_stub_for_libtelux_tel
-Wl,--defsym=_ZN5telux6common3Log10logMessageIJNSt7__cxx1112basic_stringIcSt11char_traitsIcESaIcEEEPKcSA_iSA_EEEvNS0_8LogLevelERKS8_SD_RKiDpT_=so_stub_for_libtelux_tel
-Wl,--defsym=_ZN5telux6common3Log10logMessageIJNSt7__cxx1112basic_stringIcSt11char_traitsIcESaIcEEEPKcSA_iSA_iEEEvNS0_8LogLevelERKS8_SD_RKiDpT_=so_stub_for_libtelux_tel
-Wl,--defsym=_ZN5telux6common3Log10logMessageIJNSt7__cxx1112basic_stringIcSt11char_traitsIcESaIcEEEPKcSA_iSA_iSA_iEEEvNS0_8LogLevelERKS8_SD_RKiDpT_=so_stub_for_libtelux_tel
-Wl,--defsym=_ZN5telux6common3Log10logMessageIJNSt7__cxx1112basic_stringIcSt11char_traitsIcESaIcEEEPKcSA_iSA_iSA_iSA_iSA_iSA_mSA_S8_EEEvNS0_8LogLevelERKS8_SD_RKiDpT_=so_stub_for_libtelux_tel
-Wl,--defsym=_ZN5telux6common3Log10logMessageIJNSt7__cxx1112basic_stringIcSt11char_traitsIcESaIcEEEPKcSA_iSA_iSA_S8_EEEvNS0_8LogLevelERKS8_SD_RKiDpT_=so_stub_for_libtelux_tel
-Wl,--defsym=_ZN5telux6common3Log10logMessageIJNSt7__cxx1112basic_stringIcSt11char_traitsIcESaIcEEEPKcSA_iSA_iSA_S8_SA_iSA_S8_EEEvNS0_8LogLevelERKS8_SD_RKiDpT_=so_stub_for_libtelux_tel
-Wl,--defsym=_ZN5telux6common3Log10logMessageIJNSt7__cxx1112basic_stringIcSt11char_traitsIcESaIcEEEPKcSA_iSA_tEEEvNS0_8LogLevelERKS8_SD_RKiDpT_=so_stub_for_libtelux_tel
-Wl,--defsym=_ZN5telux6common3Log10logMessageIJNSt7__cxx1112basic_stringIcSt11char_traitsIcESaIcEEEPKcSA_iSA_tSA_tSA_tEEEvNS0_8LogLevelERKS8_SD_RKiDpT_=so_stub_for_libtelux_tel
-Wl,--defsym=_ZN5telux6common3Log10logMessageIJNSt7__cxx1112basic_stringIcSt11char_traitsIcESaIcEEEPKcSA_S8_EEEvNS0_8LogLevelERKS8_SD_RKiDpT_=so_stub_for_libtelux_tel
-Wl,--defsym=_ZN5telux6common3Log10logMessageIJNSt7__cxx1112basic_stringIcSt11char_traitsIcESaIcEEEPKcSA_S8_SA_iSA_tSA_S8_EEEvNS0_8LogLevelERKS8_SD_RKiDpT_=so_stub_for_libtelux_tel
-Wl,--defsym=_ZN5telux6common3Log10logMessageIJNSt7__cxx1112basic_stringIcSt11char_traitsIcESaIcEEEPKcSA_S8_SA_iSA_tSA_S8_SA_S8_SA_mEEEvNS0_8LogLevelERKS8_SD_RKiDpT_=so_stub_for_libtelux_tel
-Wl,--defsym=_ZN5telux6common3Log10logMessageIJNSt7__cxx1112basic_stringIcSt11char_traitsIcESaIcEEEPKcSA_S8_SA_tSA_iSA_S8_EEEvNS0_8LogLevelERKS8_SD_RKiDpT_=so_stub_for_libtelux_tel
-Wl,--defsym=_ZN5telux6common3Log10logMessageIJNSt7__cxx1112basic_stringIcSt11char_traitsIcESaIcEEEPKcSA_S8_SA_tSA_mSA_S8_EEEvNS0_8LogLevelERKS8_SD_RKiDpT_=so_stub_for_libtelux_tel
-Wl,--defsym=_ZN5telux6common3Log10logMessageIJNSt7__cxx1112basic_stringIcSt11char_traitsIcESaIcEEEPKcSA_S8_SA_tSA_S8_EEEvNS0_8LogLevelERKS8_SD_RKiDpT_=so_stub_for_libtelux_tel
-Wl,--defsym=_ZN5telux6common3Log10logMessageIJNSt7__cxx1112basic_stringIcSt11char_traitsIcESaIcEEEPKcSA_tSA_iSA_S8_EEEvNS0_8LogLevelERKS8_SD_RKiDpT_=so_stub_for_libtelux_tel
-Wl,--defsym=_ZN5telux6common3Log10logMessageIJNSt7__cxx1112basic_stringIcSt11char_traitsIcESaIcEEES8_EEEvNS0_8LogLevelERKS8_SB_RKiDpT_=so_stub_for_libtelux_tel
-Wl,--defsym=_ZN5telux6common3Log10logMessageIJPKc28nas_sms_status_enum_type_v01EEEvNS0_8LogLevelERKNSt7__cxx1112basic_stringIcSt11char_traitsIcESaIcEEESE_RKiDpT_=so_stub_for_libtelux_tel
-Wl,--defsym=_ZN5telux6common3Log10logMessageIJPKc32nas_service_status_enum_type_v01EEEvNS0_8LogLevelERKNSt7__cxx1112basic_stringIcSt11char_traitsIcESaIcEEESE_RKiDpT_=so_stub_for_libtelux_tel
-Wl,--defsym=_ZN5telux6common3Log10logMessageIJPKc33nas_srv_domain_pref_enum_type_v01EEEvNS0_8LogLevelERKNSt7__cxx1112basic_stringIcSt11char_traitsIcESaIcEEESE_RKiDpT_=so_stub_for_libtelux_tel
-Wl,--defsym=_ZN5telux6common3Log10logMessageIJPKc35nas_lte_cs_capability_enum_type_v01EEEvNS0_8LogLevelERKNSt7__cxx1112basic_stringIcSt11char_traitsIcESaIcEEESE_RKiDpT_=so_stub_for_libtelux_tel
-Wl,--defsym=_ZN5telux6common3Log10logMessageIJPKc36nas_cp_sms_service_status_e_type_v01EEEvNS0_8LogLevelERKNSt7__cxx1112basic_stringIcSt11char_traitsIcESaIcEEESE_RKiDpT_=so_stub_for_libtelux_tel
-Wl,--defsym=_ZN5telux6common3Log10logMessageIJPKcbEEEvNS0_8LogLevelERKNSt7__cxx1112basic_stringIcSt11char_traitsIcESaIcEEESD_RKiDpT_=so_stub_for_libtelux_tel
-Wl,--defsym=_ZN5telux6common3Log10logMessageIJPKccEEEvNS0_8LogLevelERKNSt7__cxx1112basic_stringIcSt11char_traitsIcESaIcEEESD_RKiDpT_=so_stub_for_libtelux_tel
-Wl,--defsym=_ZN5telux6common3Log10logMessageIJPKcEEEvNS0_8LogLevelERKNSt7__cxx1112basic_stringIcSt11char_traitsIcESaIcEEESD_RKiDpT_=so_stub_for_libtelux_tel
-Wl,--defsym=_ZN5telux6common3Log10logMessageIJPKchEEEvNS0_8LogLevelERKNSt7__cxx1112basic_stringIcSt11char_traitsIcESaIcEEESD_RKiDpT_=so_stub_for_libtelux_tel
-Wl,--defsym=_ZN5telux6common3Log10logMessageIJPKciEEEvNS0_8LogLevelERKNSt7__cxx1112basic_stringIcSt11char_traitsIcESaIcEEESD_RKiDpT_=so_stub_for_libtelux_tel
-Wl,--defsym=_ZN5telux6common3Log10logMessageIJPKciS4_EEEvNS0_8LogLevelERKNSt7__cxx1112basic_stringIcSt11char_traitsIcESaIcEEESD_RKiDpT_=so_stub_for_libtelux_tel
-Wl,--defsym=_ZN5telux6common3Log10logMessageIJPKciS4_iEEEvNS0_8LogLevelERKNSt7__cxx1112basic_stringIcSt11char_traitsIcESaIcEEESD_RKiDpT_=so_stub_for_libtelux_tel
-Wl,--defsym=_ZN5telux6common3Log10logMessageIJPKciS4_iS4_iEEEvNS0_8LogLevelERKNSt7__cxx1112basic_stringIcSt11char_traitsIcESaIcEEESD_RKiDpT_=so_stub_for_libtelux_tel
-Wl,--defsym=_ZN5telux6common3Log10logMessageIJPKciS4_iS4_iS4_iEEEvNS0_8LogLevelERKNSt7__cxx1112basic_stringIcSt11char_traitsIcESaIcEEESD_RKiDpT_=so_stub_for_libtelux_tel
-Wl,--defsym=_ZN5telux6common3Log10logMessageIJPKciS4_iS4_iS4_iS4_iEEEvNS0_8LogLevelERKNSt7__cxx1112basic_stringIcSt11char_traitsIcESaIcEEESD_RKiDpT_=so_stub_for_libtelux_tel
-Wl,--defsym=_ZN5telux6common3Log10logMessageIJPKciS4_iS4_iS4_iS4_iS4_iEEEvNS0_8LogLevelERKNSt7__cxx1112basic_stringIcSt11char_traitsIcESaIcEEESD_RKiDpT_=so_stub_for_libtelux_tel
-Wl,--defsym=_ZN5telux6common3Log10logMessageIJPKciS4_iS4_iS4_NSt7__cxx1112basic_stringIcSt11char_traitsIcESaIcEEES4_iS4_iS4_iEEEvNS0_8LogLevelERKSA_SD_RKiDpT_=so_stub_for_libtelux_tel
-Wl,--defsym=_ZN5telux6common3Log10logMessageIJPKciS4_iS4_NSt7__cxx1112basic_stringIcSt11char_traitsIcESaIcEEEEEEvNS0_8LogLevelERKSA_SD_RKiDpT_=so_stub_for_libtelux_tel
-Wl,--defsym=_ZN5telux6common3Log10logMessageIJPKciS4_iS4_NSt7__cxx1112basic_stringIcSt11char_traitsIcESaIcEEES4_iS4_iS4_iS4_iS4_SA_EEEvNS0_8LogLevelERKSA_SD_RKiDpT_=so_stub_for_libtelux_tel
-Wl,--defsym=_ZN5telux6common3Log10logMessageIJPKciS4_NSt7__cxx1112basic_stringIcSt11char_traitsIcESaIcEEEEEEvNS0_8LogLevelERKSA_SD_RKiDpT_=so_stub_for_libtelux_tel
-Wl,--defsym=_ZN5telux6common3Log10logMessageIJPKciS4_NSt7__cxx1112basic_stringIcSt11char_traitsIcESaIcEEES4_iS4_iS4_iS4_iS4_iS4_iS4_iS4_iEEEvNS0_8LogLevelERKSA_SD_RKiDpT_=so_stub_for_libtelux_tel
-Wl,--defsym=_ZN5telux6common3Log10logMessageIJPKciS4_St6bitsetILm16EEEEEvNS0_8LogLevelERKNSt7__cxx1112basic_stringIcSt11char_traitsIcESaIcEEESF_RKiDpT_=so_stub_for_libtelux_tel
-Wl,--defsym=_ZN5telux6common3Log10logMessageIJPKcjEEEvNS0_8LogLevelERKNSt7__cxx1112basic_stringIcSt11char_traitsIcESaIcEEESD_RKiDpT_=so_stub_for_libtelux_tel
-Wl,--defsym=_ZN5telux6common3Log10logMessageIJPKcjS4_EEEvNS0_8LogLevelERKNSt7__cxx1112basic_stringIcSt11char_traitsIcESaIcEEESD_RKiDpT_=so_stub_for_libtelux_tel
-Wl,--defsym=_ZN5telux6common3Log10logMessageIJPKcjS4_iEEEvNS0_8LogLevelERKNSt7__cxx1112basic_stringIcSt11char_traitsIcESaIcEEESD_RKiDpT_=so_stub_for_libtelux_tel
-Wl,--defsym=_ZN5telux6common3Log10logMessageIJPKcjS4_jS4_jS4_jEEEvNS0_8LogLevelERKNSt7__cxx1112basic_stringIcSt11char_traitsIcESaIcEEESD_RKiDpT_=so_stub_for_libtelux_tel
-Wl,--defsym=_ZN5telux6common3Log10logMessageIJPKcjS4_NSt7__cxx1112basic_stringIcSt11char_traitsIcESaIcEEES4_bEEEvNS0_8LogLevelERKSA_SD_RKiDpT_=so_stub_for_libtelux_tel
-Wl,--defsym=_ZN5telux6common3Log10logMessageIJPKcmEEEvNS0_8LogLevelERKNSt7__cxx1112basic_stringIcSt11char_traitsIcESaIcEEESD_RKiDpT_=so_stub_for_libtelux_tel
-Wl,--defsym=_ZN5telux6common3Log10logMessageIJPKcmS4_mS4_mS4_mEEEvNS0_8LogLevelERKNSt7__cxx1112basic_stringIcSt11char_traitsIcESaIcEEESD_RKiDpT_=so_stub_for_libtelux_tel
-Wl,--defsym=_ZN5telux6common3Log10logMessageIJPKcmS4_mS4_mS4_mS4_mS4_mS4_mS4_mEEEvNS0_8LogLevelERKNSt7__cxx1112basic_stringIcSt11char_traitsIcESaIcEEESD_RKiDpT_=so_stub_for_libtelux_tel
-Wl,--defsym=_ZN5telux6common3Log10logMessageIJPKcNS_3tel7AppTypeEEEEvNS0_8LogLevelERKNSt7__cxx1112basic_stringIcSt11char_traitsIcESaIcEEESF_RKiDpT_=so_stub_for_libtelux_tel
-Wl,--defsym=_ZN5telux6common3Log10logMessageIJPKcNS_3tel8AppStateEEEEvNS0_8LogLevelERKNSt7__cxx1112basic_stringIcSt11char_traitsIcESaIcEEESF_RKiDpT_=so_stub_for_libtelux_tel
-Wl,--defsym=_ZN5telux6common3Log10logMessageIJPKcNS_3tel8AppStateES4_S6_EEEvNS0_8LogLevelERKNSt7__cxx1112basic_stringIcSt11char_traitsIcESaIcEEESF_RKiDpT_=so_stub_for_libtelux_tel
-Wl,--defsym=_ZN5telux6common3Log10logMessageIJPKcNSt7__cxx1112basic_stringIcSt11char_traitsIcESaIcEEEEEEvNS0_8LogLevelERKSA_SD_RKiDpT_=so_stub_for_libtelux_tel
-Wl,--defsym=_ZN5telux6common3Log10logMessageIJPKcNSt7__cxx1112basic_stringIcSt11char_traitsIcESaIcEEES4_iEEEvNS0_8LogLevelERKSA_SD_RKiDpT_=so_stub_for_libtelux_tel
-Wl,--defsym=_ZN5telux6common3Log10logMessageIJPKcNSt7__cxx1112basic_stringIcSt11char_traitsIcESaIcEEES4_iS4_iEEEvNS0_8LogLevelERKSA_SD_RKiDpT_=so_stub_for_libtelux_tel
-Wl,--defsym=_ZN5telux6common3Log10logMessageIJPKcNSt7__cxx1112basic_stringIcSt11char_traitsIcESaIcEEES4_jS4_iEEEvNS0_8LogLevelERKSA_SD_RKiDpT_=so_stub_for_libtelux_tel
-Wl,--defsym=_ZN5telux6common3Log10logMessageIJPKcNSt7__cxx1112basic_stringIcSt11char_traitsIcESaIcEEES4_mEEEvNS0_8LogLevelERKSA_SD_RKiDpT_=so_stub_for_libtelux_tel
-Wl,--defsym=_ZN5telux6common3Log10logMessageIJPKcNSt7__cxx1112basic_stringIcSt11char_traitsIcESaIcEEES4_PNS_3tel11ISmsManagerES4_jEEEvNS0_8LogLevelERKSA_SG_RKiDpT_=so_stub_for_libtelux_tel
-Wl,--defsym=_ZN5telux6common3Log10logMessageIJPKcNSt7__cxx1112basic_stringIcSt11char_traitsIcESaIcEEES4_PNS_3tel12ICallManagerES4_jEEEvNS0_8LogLevelERKSA_SG_RKiDpT_=so_stub_for_libtelux_tel
-Wl,--defsym=_ZN5telux6common3Log10logMessageIJPKcNSt7__cxx1112basic_stringIcSt11char_traitsIcESaIcEEES4_PNS_3tel12ICardManagerES4_jEEEvNS0_8LogLevelERKSA_SG_RKiDpT_=so_stub_for_libtelux_tel
-Wl,--defsym=_ZN5telux6common3Log10logMessageIJPKcNSt7__cxx1112basic_stringIcSt11char_traitsIcESaIcEEES4_PNS_3tel13IEcallManagerEEEEvNS0_8LogLevelERKSA_SG_RKiDpT_=so_stub_for_libtelux_tel
-Wl,--defsym=_ZN5telux6common3Log10logMessageIJPKcNSt7__cxx1112basic_stringIcSt11char_traitsIcESaIcEEES4_PNS_3tel13IPhoneManagerES4_jEEEvNS0_8LogLevelERKSA_SG_RKiDpT_=so_stub_for_libtelux_tel
-Wl,--defsym=_ZN5telux6common3Log10logMessageIJPKcNSt7__cxx1112basic_stringIcSt11char_traitsIcESaIcEEES4_PNS_3tel15ISapCardManagerES4_jEEEvNS0_8LogLevelERKSA_SG_RKiDpT_=so_stub_for_libtelux_tel
-Wl,--defsym=_ZN5telux6common3Log10logMessageIJPKcNSt7__cxx1112basic_stringIcSt11char_traitsIcESaIcEEES4_PNS_3tel16IMultiSimManagerES4_jEEEvNS0_8LogLevelERKSA_SG_RKiDpT_=so_stub_for_libtelux_tel
-Wl,--defsym=_ZN5telux6common3Log10logMessageIJPKcNSt7__cxx1112basic_stringIcSt11char_traitsIcESaIcEEES4_PNS_3tel17IRemoteSimManagerES4_jEEEvNS0_8LogLevelERKSA_SG_RKiDpT_=so_stub_for_libtelux_tel
-Wl,--defsym=_ZN5telux6common3Log10logMessageIJPKcNSt7__cxx1112basic_stringIcSt11char_traitsIcESaIcEEES4_PNS_3tel18ISimProfileManagerES4_jEEEvNS0_8LogLevelERKSA_SG_RKiDpT_=so_stub_for_libtelux_tel
-Wl,--defsym=_ZN5telux6common3Log10logMessageIJPKcNSt7__cxx1112basic_stringIcSt11char_traitsIcESaIcEEES4_PNS_3tel19IImsSettingsManagerES4_jEEEvNS0_8LogLevelERKSA_SG_RKiDpT_=so_stub_for_libtelux_tel
-Wl,--defsym=_ZN5telux6common3Log10logMessageIJPKcNSt7__cxx1112basic_stringIcSt11char_traitsIcESaIcEEES4_PNS_3tel20IApSimProfileManagerES4_jEEEvNS0_8LogLevelERKSA_SG_RKiDpT_=so_stub_for_libtelux_tel
-Wl,--defsym=_ZN5telux6common3Log10logMessageIJPKcNSt7__cxx1112basic_stringIcSt11char_traitsIcESaIcEEES4_PNS_3tel20ISubscriptionManagerES4_jEEEvNS0_8LogLevelERKSA_SG_RKiDpT_=so_stub_for_libtelux_tel
-Wl,--defsym=_ZN5telux6common3Log10logMessageIJPKcNSt7__cxx1112basic_stringIcSt11char_traitsIcESaIcEEES4_PNS_3tel20ISuppServicesManagerES4_jEEEvNS0_8LogLevelERKSA_SG_RKiDpT_=so_stub_for_libtelux_tel
-Wl,--defsym=_ZN5telux6common3Log10logMessageIJPKcNSt7__cxx1112basic_stringIcSt11char_traitsIcESaIcEEES4_PNS_3tel21ICellBroadcastManagerES4_jEEEvNS0_8LogLevelERKSA_SG_RKiDpT_=so_stub_for_libtelux_tel
-Wl,--defsym=_ZN5telux6common3Log10logMessageIJPKcNSt7__cxx1112basic_stringIcSt11char_traitsIcESaIcEEES4_PNS_3tel21IServingSystemManagerES4_jEEEvNS0_8LogLevelERKSA_SG_RKiDpT_=so_stub_for_libtelux_tel
-Wl,--defsym=_ZN5telux6common3Log10logMessageIJPKcNSt7__cxx1112basic_stringIcSt11char_traitsIcESaIcEEES4_PNS_3tel23IHttpTransactionManagerES4_jEEEvNS0_8LogLevelERKSA_SG_RKiDpT_=so_stub_for_libtelux_tel
-Wl,--defsym=_ZN5telux6common3Log10logMessageIJPKcNSt7__cxx1112basic_stringIcSt11char_traitsIcESaIcEEES4_PNS_3tel24IImsServingSystemManagerES4_jEEEvNS0_8LogLevelERKSA_SG_RKiDpT_=so_stub_for_libtelux_tel
-Wl,--defsym=_ZN5telux6common3Log10logMessageIJPKcNSt7__cxx1112basic_stringIcSt11char_traitsIcESaIcEEES4_PNS_3tel24INetworkSelectionManagerES4_jEEEvNS0_8LogLevelERKSA_SG_RKiDpT_=so_stub_for_libtelux_tel
-Wl,--defsym=_ZN5telux6common3Log10logMessageIJPKcNSt7__cxx1112basic_stringIcSt11char_traitsIcESaIcEEES4_SA_S4_iEEEvNS0_8LogLevelERKSA_SD_RKiDpT_=so_stub_for_libtelux_tel
-Wl,--defsym=_ZN5telux6common3Log10logMessageIJPKcNSt7__cxx1112basic_stringIcSt11char_traitsIcESaIcEEES4_SA_S4_iS4_bEEEvNS0_8LogLevelERKSA_SD_RKiDpT_=so_stub_for_libtelux_tel
-Wl,--defsym=_ZN5telux6common3Log10logMessageIJPKcPFRSt8ios_baseS6_ES4_iEEEvNS0_8LogLevelERKNSt7__cxx1112basic_stringIcSt11char_traitsIcESaIcEEESH_RKiDpT_=so_stub_for_libtelux_tel
-Wl,--defsym=_ZN5telux6common3Log10logMessageIJPKcS4_18qmi_error_type_v01EEEvNS0_8LogLevelERKNSt7__cxx1112basic_stringIcSt11char_traitsIcESaIcEEESE_RKiDpT_=so_stub_for_libtelux_tel
-Wl,--defsym=_ZN5telux6common3Log10logMessageIJPKcS4_19qmi_result_type_v01EEEvNS0_8LogLevelERKNSt7__cxx1112basic_stringIcSt11char_traitsIcESaIcEEESE_RKiDpT_=so_stub_for_libtelux_tel
-Wl,--defsym=_ZN5telux6common3Log10logMessageIJPKcS4_22active_status_enum_v02EEEvNS0_8LogLevelERKNSt7__cxx1112basic_stringIcSt11char_traitsIcESaIcEEESE_RKiDpT_=so_stub_for_libtelux_tel
-Wl,--defsym=_ZN5telux6common3Log10logMessageIJPKcS4_41uim_profile_download_status_enum_type_v01S4_28uim_download_error_cause_v01S4_iEEEvNS0_8LogLevelERKNSt7__cxx1112basic_stringIcSt11char_traitsIcESaIcEEESF_RKiDpT_=so_stub_for_libtelux_tel
-Wl,--defsym=_ZN5telux6common3Log10logMessageIJPKcS4_6SlotIdEEEvNS0_8LogLevelERKNSt7__cxx1112basic_stringIcSt11char_traitsIcESaIcEEESE_RKiDpT_=so_stub_for_libtelux_tel
-Wl,--defsym=_ZN5telux6common3Log10logMessageIJPKcS4_6SlotIdS4_iEEEvNS0_8LogLevelERKNSt7__cxx1112basic_stringIcSt11char_traitsIcESaIcEEESE_RKiDpT_=so_stub_for_libtelux_tel
-Wl,--defsym=_ZN5telux6common3Log10logMessageIJPKcS4_6SlotIdS4_iS4_jEEEvNS0_8LogLevelERKNSt7__cxx1112basic_stringIcSt11char_traitsIcESaIcEEESE_RKiDpT_=so_stub_for_libtelux_tel
-Wl,--defsym=_ZN5telux6common3Log10logMessageIJPKcS4_6SlotIdS4_mEEEvNS0_8LogLevelERKNSt7__cxx1112basic_stringIcSt11char_traitsIcESaIcEEESE_RKiDpT_=so_stub_for_libtelux_tel
-Wl,--defsym=_ZN5telux6common3Log10logMessageIJPKcS4_6SlotIdS4_NSt7__cxx1112basic_stringIcSt11char_traitsIcESaIcEEEEEEvNS0_8LogLevelERKSB_SE_RKiDpT_=so_stub_for_libtelux_tel
-Wl,--defsym=_ZN5telux6common3Log10logMessageIJPKcS4_bbEEEvNS0_8LogLevelERKNSt7__cxx1112basic_stringIcSt11char_traitsIcESaIcEEESD_RKiDpT_=so_stub_for_libtelux_tel
-Wl,--defsym=_ZN5telux6common3Log10logMessageIJPKcS4_bEEEvNS0_8LogLevelERKNSt7__cxx1112basic_stringIcSt11char_traitsIcESaIcEEESD_RKiDpT_=so_stub_for_libtelux_tel
-Wl,--defsym=_ZN5telux6common3Log10logMessageIJPKcS4_bS4_25RIL_RadioTechnologyFamilyEEEvNS0_8LogLevelERKNSt7__cxx1112basic_stringIcSt11char_traitsIcESaIcEEESE_RKiDpT_=so_stub_for_libtelux_tel
-Wl,--defsym=_ZN5telux6common3Log10logMessageIJPKcS4_bS4_bEEEvNS0_8LogLevelERKNSt7__cxx1112basic_stringIcSt11char_traitsIcESaIcEEESD_RKiDpT_=so_stub_for_libtelux_tel
-Wl,--defsym=_ZN5telux6common3Log10logMessageIJPKcS4_bS4_bS4_EEEvNS0_8LogLevelERKNSt7__cxx1112basic_stringIcSt11char_traitsIcESaIcEEESD_RKiDpT_=so_stub_for_libtelux_tel
-Wl,--defsym=_ZN5telux6common3Log10logMessageIJPKcS4_bS4_iEEEvNS0_8LogLevelERKNSt7__cxx1112basic_stringIcSt11char_traitsIcESaIcEEESD_RKiDpT_=so_stub_for_libtelux_tel
-Wl,--defsym=_ZN5telux6common3Log10logMessageIJPKcS4_dS4_dEEEvNS0_8LogLevelERKNSt7__cxx1112basic_stringIcSt11char_traitsIcESaIcEEESD_RKiDpT_=so_stub_for_libtelux_tel
-Wl,--defsym=_ZN5telux6common3Log10logMessageIJPKcS4_dS4_dS4_dS4_EEEvNS0_8LogLevelERKNSt7__cxx1112basic_stringIcSt11char_traitsIcESaIcEEESD_RKiDpT_=so_stub_for_libtelux_tel
-Wl,--defsym=_ZN5telux6common3Log10logMessageIJPKcS4_EEEvNS0_8LogLevelERKNSt7__cxx1112basic_stringIcSt11char_traitsIcESaIcEEESD_RKiDpT_=so_stub_for_libtelux_tel
-Wl,--defsym=_ZN5telux6common3Log10logMessageIJPKcS4_hEEEvNS0_8LogLevelERKNSt7__cxx1112basic_stringIcSt11char_traitsIcESaIcEEESD_RKiDpT_=so_stub_for_libtelux_tel
-Wl,--defsym=_ZN5telux6common3Log10logMessageIJPKcS4_hS4_jEEEvNS0_8LogLevelERKNSt7__cxx1112basic_stringIcSt11char_traitsIcESaIcEEESD_RKiDpT_=so_stub_for_libtelux_tel
-Wl,--defsym=_ZN5telux6common3Log10logMessageIJPKcS4_iEEEvNS0_8LogLevelERKNSt7__cxx1112basic_stringIcSt11char_traitsIcESaIcEEESD_RKiDpT_=so_stub_for_libtelux_tel
-Wl,--defsym=_ZN5telux6common3Log10logMessageIJPKcS4_iS4_bEEEvNS0_8LogLevelERKNSt7__cxx1112basic_stringIcSt11char_traitsIcESaIcEEESD_RKiDpT_=so_stub_for_libtelux_tel
-Wl,--defsym=_ZN5telux6common3Log10logMessageIJPKcS4_iS4_EEEvNS0_8LogLevelERKNSt7__cxx1112basic_stringIcSt11char_traitsIcESaIcEEESD_RKiDpT_=so_stub_for_libtelux_tel
-Wl,--defsym=_ZN5telux6common3Log10logMessageIJPKcS4_iS4_hEEEvNS0_8LogLevelERKNSt7__cxx1112basic_stringIcSt11char_traitsIcESaIcEEESD_RKiDpT_=so_stub_for_libtelux_tel
-Wl,--defsym=_ZN5telux6common3Log10logMessageIJPKcS4_iS4_iEEEvNS0_8LogLevelERKNSt7__cxx1112basic_stringIcSt11char_traitsIcESaIcEEESD_RKiDpT_=so_stub_for_libtelux_tel
-Wl,--defsym=_ZN5telux6common3Log10logMessageIJPKcS4_iS4_iS4_EEEvNS0_8LogLevelERKNSt7__cxx1112basic_stringIcSt11char_traitsIcESaIcEEESD_RKiDpT_=so_stub_for_libtelux_tel
-Wl,--defsym=_ZN5telux6common3Log10logMessageIJPKcS4_iS4_iS4_fS4_fEEEvNS0_8LogLevelERKNSt7__cxx1112basic_stringIcSt11char_traitsIcESaIcEEESD_RKiDpT_=so_stub_for_libtelux_tel
-Wl,--defsym=_ZN5telux6common3Log10logMessageIJPKcS4_iS4_iS4_iEEEvNS0_8LogLevelERKNSt7__cxx1112basic_stringIcSt11char_traitsIcESaIcEEESD_RKiDpT_=so_stub_for_libtelux_tel
-Wl,--defsym=_ZN5telux6common3Log10logMessageIJPKcS4_iS4_iS4_iS4_iEEEvNS0_8LogLevelERKNSt7__cxx1112basic_stringIcSt11char_traitsIcESaIcEEESD_RKiDpT_=so_stub_for_libtelux_tel
-Wl,--defsym=_ZN5telux6common3Log10logMessageIJPKcS4_iS4_iS4_iS4_iS4_iEEEvNS0_8LogLevelERKNSt7__cxx1112basic_stringIcSt11char_traitsIcESaIcEEESD_RKiDpT_=so_stub_for_libtelux_tel
-Wl,--defsym=_ZN5telux6common3Log10logMessageIJPKcS4_iS4_iS4_iS4_iS4_iS4_iEEEvNS0_8LogLevelERKNSt7__cxx1112basic_stringIcSt11char_traitsIcESaIcEEESD_RKiDpT_=so_stub_for_libtelux_tel
-Wl,--defsym=_ZN5telux6common3Log10logMessageIJPKcS4_iS4_iS4_iS4_iS4_iS4_iS4_St10shared_ptrINS_3tel20ICardCommandCallbackEEEEEvNS0_8LogLevelERKNSt7__cxx1112basic_stringIcSt11char_traitsIcESaIcEEESH_RKiDpT_=so_stub_for_libtelux_tel
-Wl,--defsym=_ZN5telux6common3Log10logMessageIJPKcS4_iS4_iS4_iS4_iS4_iS4_NSt7__cxx1112basic_stringIcSt11char_traitsIcESaIcEEES4_SA_EEEvNS0_8LogLevelERKSA_SD_RKiDpT_=so_stub_for_libtelux_tel
-Wl,--defsym=_ZN5telux6common3Log10logMessageIJPKcS4_iS4_iS4_iS4_iS4_NSt7__cxx1112basic_stringIcSt11char_traitsIcESaIcEEES4_iS4_iEEEvNS0_8LogLevelERKSA_SD_RKiDpT_=so_stub_for_libtelux_tel
-Wl,--defsym=_ZN5telux6common3Log10logMessageIJPKcS4_iS4_iS4_iS4_NSt7__cxx1112basic_stringIcSt11char_traitsIcESaIcEEEEEEvNS0_8LogLevelERKSA_SD_RKiDpT_=so_stub_for_libtelux_tel
-Wl,--defsym=_ZN5telux6common3Log10logMessageIJPKcS4_iS4_iS4_iS4_NSt7__cxx1112basic_stringIcSt11char_traitsIcESaIcEEES4_iEEEvNS0_8LogLevelERKSA_SD_RKiDpT_=so_stub_for_libtelux_tel
-Wl,--defsym=_ZN5telux6common3Log10logMessageIJPKcS4_iS4_iS4_iS4_NSt7__cxx1112basic_stringIcSt11char_traitsIcESaIcEEES4_SA_EEEvNS0_8LogLevelERKSA_SD_RKiDpT_=so_stub_for_libtelux_tel
-Wl,--defsym=_ZN5telux6common3Log10logMessageIJPKcS4_iS4_iS4_mEEEvNS0_8LogLevelERKNSt7__cxx1112basic_stringIcSt11char_traitsIcESaIcEEESD_RKiDpT_=so_stub_for_libtelux_tel
-Wl,--defsym=_ZN5telux6common3Log10logMessageIJPKcS4_iS4_iS4_NSt7__cxx1112basic_stringIcSt11char_traitsIcESaIcEEEEEEvNS0_8LogLevelERKSA_SD_RKiDpT_=so_stub_for_libtelux_tel
-Wl,--defsym=_ZN5telux6common3Log10logMessageIJPKcS4_iS4_iS4_NSt7__cxx1112basic_stringIcSt11char_traitsIcESaIcEEES4_iEEEvNS0_8LogLevelERKSA_SD_RKiDpT_=so_stub_for_libtelux_tel
-Wl,--defsym=_ZN5telux6common3Log10logMessageIJPKcS4_iS4_jEEEvNS0_8LogLevelERKNSt7__cxx1112basic_stringIcSt11char_traitsIcESaIcEEESD_RKiDpT_=so_stub_for_libtelux_tel
-Wl,--defsym=_ZN5telux6common3Log10logMessageIJPKcS4_iS4_jS4_iEEEvNS0_8LogLevelERKNSt7__cxx1112basic_stringIcSt11char_traitsIcESaIcEEESD_RKiDpT_=so_stub_for_libtelux_tel
-Wl,--defsym=_ZN5telux6common3Log10logMessageIJPKcS4_iS4_jS4_iS4_iEEEvNS0_8LogLevelERKNSt7__cxx1112basic_stringIcSt11char_traitsIcESaIcEEESD_RKiDpT_=so_stub_for_libtelux_tel
-Wl,--defsym=_ZN5telux6common3Log10logMessageIJPKcS4_iS4_jS4_jS4_jEEEvNS0_8LogLevelERKNSt7__cxx1112basic_stringIcSt11char_traitsIcESaIcEEESD_RKiDpT_=so_stub_for_libtelux_tel
-Wl,--defsym=_ZN5telux6common3Log10logMessageIJPKcS4_iS4_jS4_NSt7__cxx1112basic_stringIcSt11char_traitsIcESaIcEEES4_bS4_iEEEvNS0_8LogLevelERKSA_SD_RKiDpT_=so_stub_for_libtelux_tel
-Wl,--defsym=_ZN5telux6common3Log10logMessageIJPKcS4_iS4_mEEEvNS0_8LogLevelERKNSt7__cxx1112basic_stringIcSt11char_traitsIcESaIcEEESD_RKiDpT_=so_stub_for_libtelux_tel
-Wl,--defsym=_ZN5telux6common3Log10logMessageIJPKcS4_iS4_NSt7__cxx1112basic_stringIcSt11char_traitsIcESaIcEEEEEEvNS0_8LogLevelERKSA_SD_RKiDpT_=so_stub_for_libtelux_tel
-Wl,--defsym=_ZN5telux6common3Log10logMessageIJPKcS4_iS4_NSt7__cxx1112basic_stringIcSt11char_traitsIcESaIcEEES4_EEEvNS0_8LogLevelERKSA_SD_RKiDpT_=so_stub_for_libtelux_tel
-Wl,--defsym=_ZN5telux6common3Log10logMessageIJPKcS4_iS4_NSt7__cxx1112basic_stringIcSt11char_traitsIcESaIcEEES4_iEEEvNS0_8LogLevelERKSA_SD_RKiDpT_=so_stub_for_libtelux_tel
-Wl,--defsym=_ZN5telux6common3Log10logMessageIJPKcS4_iS4_NSt7__cxx1112basic_stringIcSt11char_traitsIcESaIcEEES4_iS4_bEEEvNS0_8LogLevelERKSA_SD_RKiDpT_=so_stub_for_libtelux_tel
-Wl,--defsym=_ZN5telux6common3Log10logMessageIJPKcS4_iS4_NSt7__cxx1112basic_stringIcSt11char_traitsIcESaIcEEES4_iS4_SA_EEEvNS0_8LogLevelERKSA_SD_RKiDpT_=so_stub_for_libtelux_tel
-Wl,--defsym=_ZN5telux6common3Log10logMessageIJPKcS4_iS4_NSt7__cxx1112basic_stringIcSt11char_traitsIcESaIcEEES4_iS4_tEEEvNS0_8LogLevelERKSA_SD_RKiDpT_=so_stub_for_libtelux_tel
-Wl,--defsym=_ZN5telux6common3Log10logMessageIJPKcS4_iS4_NSt7__cxx1112basic_stringIcSt11char_traitsIcESaIcEEES4_mS4_SA_S4_iEEEvNS0_8LogLevelERKSA_SD_RKiDpT_=so_stub_for_libtelux_tel
-Wl,--defsym=_ZN5telux6common3Log10logMessageIJPKcS4_iS4_PNS_3tel8CardImplES4_lEEEvNS0_8LogLevelERKNSt7__cxx1112basic_stringIcSt11char_traitsIcESaIcEEESG_RKiDpT_=so_stub_for_libtelux_tel
-Wl,--defsym=_ZN5telux6common3Log10logMessageIJPKcS4_iS4_PNSt7__cxx1112basic_stringIcSt11char_traitsIcESaIcEEEEEEvNS0_8LogLevelERKSA_SE_RKiDpT_=so_stub_for_libtelux_tel
-Wl,--defsym=_ZN5telux6common3Log10logMessageIJPKcS4_iS4_S4_iS4_iS4_hEEEvNS0_8LogLevelERKNSt7__cxx1112basic_stringIcSt11char_traitsIcESaIcEEESD_RKiDpT_=so_stub_for_libtelux_tel
-Wl,--defsym=_ZN5telux6common3Log10logMessageIJPKcS4_iS4_St6bitsetILm16EEEEEvNS0_8LogLevelERKNSt7__cxx1112basic_stringIcSt11char_traitsIcESaIcEEESF_RKiDpT_=so_stub_for_libtelux_tel
-Wl,--defsym=_ZN5telux6common3Log10logMessageIJPKcS4_iS4_tS4_iS4_EEEvNS0_8LogLevelERKNSt7__cxx1112basic_stringIcSt11char_traitsIcESaIcEEESD_RKiDpT_=so_stub_for_libtelux_tel
-Wl,--defsym=_ZN5telux6common3Log10logMessageIJPKcS4_jEEEvNS0_8LogLevelERKNSt7__cxx1112basic_stringIcSt11char_traitsIcESaIcEEESD_RKiDpT_=so_stub_for_libtelux_tel
-Wl,--defsym=_ZN5telux6common3Log10logMessageIJPKcS4_jS4_iEEEvNS0_8LogLevelERKNSt7__cxx1112basic_stringIcSt11char_traitsIcESaIcEEESD_RKiDpT_=so_stub_for_libtelux_tel
-Wl,--defsym=_ZN5telux6common3Log10logMessageIJPKcS4_jS4_iS4_jEEEvNS0_8LogLevelERKNSt7__cxx1112basic_stringIcSt11char_traitsIcESaIcEEESD_RKiDpT_=so_stub_for_libtelux_tel
-Wl,--defsym=_ZN5telux6common3Log10logMessageIJPKcS4_jS4_iS4_jS4_bEEEvNS0_8LogLevelERKNSt7__cxx1112basic_stringIcSt11char_traitsIcESaIcEEESD_RKiDpT_=so_stub_for_libtelux_tel
-Wl,--defsym=_ZN5telux6common3Log10logMessageIJPKcS4_jS4_jEEEvNS0_8LogLevelERKNSt7__cxx1112basic_stringIcSt11char_traitsIcESaIcEEESD_RKiDpT_=so_stub_for_libtelux_tel
-Wl,--defsym=_ZN5telux6common3Log10logMessageIJPKcS4_jS4_jS4_iEEEvNS0_8LogLevelERKNSt7__cxx1112basic_stringIcSt11char_traitsIcESaIcEEESD_RKiDpT_=so_stub_for_libtelux_tel
-Wl,--defsym=_ZN5telux6common3Log10logMessageIJPKcS4_jS4_jS4_jS4_iEEEvNS0_8LogLevelERKNSt7__cxx1112basic_stringIcSt11char_traitsIcESaIcEEESD_RKiDpT_=so_stub_for_libtelux_tel
-Wl,--defsym=_ZN5telux6common3Log10logMessageIJPKcS4_jS4_jS4_jS4_jS4_iEEEvNS0_8LogLevelERKNSt7__cxx1112basic_stringIcSt11char_traitsIcESaIcEEESD_RKiDpT_=so_stub_for_libtelux_tel
-Wl,--defsym=_ZN5telux6common3Log10logMessageIJPKcS4_jS4_jS4_jS4_jS4_jS4_iS4_jEEEvNS0_8LogLevelERKNSt7__cxx1112basic_stringIcSt11char_traitsIcESaIcEEESD_RKiDpT_=so_stub_for_libtelux_tel
-Wl,--defsym=_ZN5telux6common3Log10logMessageIJPKcS4_jS4_NSt7__cxx1112basic_stringIcSt11char_traitsIcESaIcEEEEEEvNS0_8LogLevelERKSA_SD_RKiDpT_=so_stub_for_libtelux_tel
-Wl,--defsym=_ZN5telux6common3Log10logMessageIJPKcS4_lS4_iEEEvNS0_8LogLevelERKNSt7__cxx1112basic_stringIcSt11char_traitsIcESaIcEEESD_RKiDpT_=so_stub_for_libtelux_tel
-Wl,--defsym=_ZN5telux6common3Log10logMessageIJPKcS4_lS4_PNS_3tel8CardImplEEEEvNS0_8LogLevelERKNSt7__cxx1112basic_stringIcSt11char_traitsIcESaIcEEESG_RKiDpT_=so_stub_for_libtelux_tel
-Wl,--defsym=_ZN5telux6common3Log10logMessageIJPKcS4_mEEEvNS0_8LogLevelERKNSt7__cxx1112basic_stringIcSt11char_traitsIcESaIcEEESD_RKiDpT_=so_stub_for_libtelux_tel
-Wl,--defsym=_ZN5telux6common3Log10logMessageIJPKcS4_mS4_bS4_iEEEvNS0_8LogLevelERKNSt7__cxx1112basic_stringIcSt11char_traitsIcESaIcEEESD_RKiDpT_=so_stub_for_libtelux_tel
-Wl,--defsym=_ZN5telux6common3Log10logMessageIJPKcS4_mS4_iEEEvNS0_8LogLevelERKNSt7__cxx1112basic_stringIcSt11char_traitsIcESaIcEEESD_RKiDpT_=so_stub_for_libtelux_tel
-Wl,--defsym=_ZN5telux6common3Log10logMessageIJPKcS4_mS4_iS4_EEEvNS0_8LogLevelERKNSt7__cxx1112basic_stringIcSt11char_traitsIcESaIcEEESD_RKiDpT_=so_stub_for_libtelux_tel
-Wl,--defsym=_ZN5telux6common3Log10logMessageIJPKcS4_mS4_mEEEvNS0_8LogLevelERKNSt7__cxx1112basic_stringIcSt11char_traitsIcESaIcEEESD_RKiDpT_=so_stub_for_libtelux_tel
-Wl,--defsym=_ZN5telux6common3Log10logMessageIJPKcS4_mS4_NSt7__cxx1112basic_stringIcSt11char_traitsIcESaIcEEEEEEvNS0_8LogLevelERKSA_SD_RKiDpT_=so_stub_for_libtelux_tel
-Wl,--defsym=_ZN5telux6common3Log10logMessageIJPKcS4_NS_3tel18IccRefreshResponse13RefreshResultEEEEvNS0_8LogLevelERKNSt7__cxx1112basic_stringIcSt11char_traitsIcESaIcEEESG_RKiDpT_=so_stub_for_libtelux_tel
-Wl,--defsym=_ZN5telux6common3Log10logMessageIJPKcS4_NSt7__cxx1112basic_stringIcSt11char_traitsIcESaIcEEEEEEvNS0_8LogLevelERKSA_SD_RKiDpT_=so_stub_for_libtelux_tel
-Wl,--defsym=_ZN5telux6common3Log10logMessageIJPKcS4_NSt7__cxx1112basic_stringIcSt11char_traitsIcESaIcEEES4_EEEvNS0_8LogLevelERKSA_SD_RKiDpT_=so_stub_for_libtelux_tel
-Wl,--defsym=_ZN5telux6common3Log10logMessageIJPKcS4_NSt7__cxx1112basic_stringIcSt11char_traitsIcESaIcEEES4_iEEEvNS0_8LogLevelERKSA_SD_RKiDpT_=so_stub_for_libtelux_tel
-Wl,--defsym=_ZN5telux6common3Log10logMessageIJPKcS4_NSt7__cxx1112basic_stringIcSt11char_traitsIcESaIcEEES4_iS4_bEEEvNS0_8LogLevelERKSA_SD_RKiDpT_=so_stub_for_libtelux_tel
-Wl,--defsym=_ZN5telux6common3Log10logMessageIJPKcS4_NSt7__cxx1112basic_stringIcSt11char_traitsIcESaIcEEES4_iS4_PSt6vectorISt8functionIFvNS0_13ServiceStatusEEESaISF_EEEEEvNS0_8LogLevelERKSA_SL_RKiDpT_=so_stub_for_libtelux_tel
-Wl,--defsym=_ZN5telux6common3Log10logMessageIJPKcS4_NSt7__cxx1112basic_stringIcSt11char_traitsIcESaIcEEES4_mEEEvNS0_8LogLevelERKSA_SD_RKiDpT_=so_stub_for_libtelux_tel
-Wl,--defsym=_ZN5telux6common3Log10logMessageIJPKcS4_NSt7__cxx1112basic_stringIcSt11char_traitsIcESaIcEEES4_PNS_3tel11ISmsManagerES4_jEEEvNS0_8LogLevelERKSA_SG_RKiDpT_=so_stub_for_libtelux_tel
-Wl,--defsym=_ZN5telux6common3Log10logMessageIJPKcS4_NSt7__cxx1112basic_stringIcSt11char_traitsIcESaIcEEES4_PNS_3tel12ICallManagerES4_jEEEvNS0_8LogLevelERKSA_SG_RKiDpT_=so_stub_for_libtelux_tel
-Wl,--defsym=_ZN5telux6common3Log10logMessageIJPKcS4_NSt7__cxx1112basic_stringIcSt11char_traitsIcESaIcEEES4_PNS_3tel12ICardManagerES4_jEEEvNS0_8LogLevelERKSA_SG_RKiDpT_=so_stub_for_libtelux_tel
-Wl,--defsym=_ZN5telux6common3Log10logMessageIJPKcS4_NSt7__cxx1112basic_stringIcSt11char_traitsIcESaIcEEES4_PNS_3tel13IEcallManagerEEEEvNS0_8LogLevelERKSA_SG_RKiDpT_=so_stub_for_libtelux_tel
-Wl,--defsym=_ZN5telux6common3Log10logMessageIJPKcS4_NSt7__cxx1112basic_stringIcSt11char_traitsIcESaIcEEES4_PNS_3tel13IPhoneManagerES4_jEEEvNS0_8LogLevelERKSA_SG_RKiDpT_=so_stub_for_libtelux_tel
-Wl,--defsym=_ZN5telux6common3Log10logMessageIJPKcS4_NSt7__cxx1112basic_stringIcSt11char_traitsIcESaIcEEES4_PNS_3tel15ISapCardManagerES4_jEEEvNS0_8LogLevelERKSA_SG_RKiDpT_=so_stub_for_libtelux_tel
-Wl,--defsym=_ZN5telux6common3Log10logMessageIJPKcS4_NSt7__cxx1112basic_stringIcSt11char_traitsIcESaIcEEES4_PNS_3tel16IMultiSimManagerES4_jEEEvNS0_8LogLevelERKSA_SG_RKiDpT_=so_stub_for_libtelux_tel
-Wl,--defsym=_ZN5telux6common3Log10logMessageIJPKcS4_NSt7__cxx1112basic_stringIcSt11char_traitsIcESaIcEEES4_PNS_3tel17IRemoteSimManagerES4_jEEEvNS0_8LogLevelERKSA_SG_RKiDpT_=so_stub_for_libtelux_tel
-Wl,--defsym=_ZN5telux6common3Log10logMessageIJPKcS4_NSt7__cxx1112basic_stringIcSt11char_traitsIcESaIcEEES4_PNS_3tel18ISimProfileManagerES4_jEEEvNS0_8LogLevelERKSA_SG_RKiDpT_=so_stub_for_libtelux_tel
-Wl,--defsym=_ZN5telux6common3Log10logMessageIJPKcS4_NSt7__cxx1112basic_stringIcSt11char_traitsIcESaIcEEES4_PNS_3tel19IImsSettingsManagerES4_jEEEvNS0_8LogLevelERKSA_SG_RKiDpT_=so_stub_for_libtelux_tel
-Wl,--defsym=_ZN5telux6common3Log10logMessageIJPKcS4_NSt7__cxx1112basic_stringIcSt11char_traitsIcESaIcEEES4_PNS_3tel20IApSimProfileManagerES4_jEEEvNS0_8LogLevelERKSA_SG_RKiDpT_=so_stub_for_libtelux_tel
-Wl,--defsym=_ZN5telux6common3Log10logMessageIJPKcS4_NSt7__cxx1112basic_stringIcSt11char_traitsIcESaIcEEES4_PNS_3tel20ISubscriptionManagerES4_jEEEvNS0_8LogLevelERKSA_SG_RKiDpT_=so_stub_for_libtelux_tel
-Wl,--defsym=_ZN5telux6common3Log10logMessageIJPKcS4_NSt7__cxx1112basic_stringIcSt11char_traitsIcESaIcEEES4_PNS_3tel20ISuppServicesManagerES4_jEEEvNS0_8LogLevelERKSA_SG_RKiDpT_=so_stub_for_libtelux_tel
-Wl,--defsym=_ZN5telux6common3Log10logMessageIJPKcS4_NSt7__cxx1112basic_stringIcSt11char_traitsIcESaIcEEES4_PNS_3tel21ICellBroadcastManagerES4_jEEEvNS0_8LogLevelERKSA_SG_RKiDpT_=so_stub_for_libtelux_tel
-Wl,--defsym=_ZN5telux6common3Log10logMessageIJPKcS4_NSt7__cxx1112basic_stringIcSt11char_traitsIcESaIcEEES4_PNS_3tel21IServingSystemManagerES4_jEEEvNS0_8LogLevelERKSA_SG_RKiDpT_=so_stub_for_libtelux_tel
-Wl,--defsym=_ZN5telux6common3Log10logMessageIJPKcS4_NSt7__cxx1112basic_stringIcSt11char_traitsIcESaIcEEES4_PNS_3tel23IHttpTransactionManagerES4_jEEEvNS0_8LogLevelERKSA_SG_RKiDpT_=so_stub_for_libtelux_tel
-Wl,--defsym=_ZN5telux6common3Log10logMessageIJPKcS4_NSt7__cxx1112basic_stringIcSt11char_traitsIcESaIcEEES4_PNS_3tel24IImsServingSystemManagerES4_jEEEvNS0_8LogLevelERKSA_SG_RKiDpT_=so_stub_for_libtelux_tel
-Wl,--defsym=_ZN5telux6common3Log10logMessageIJPKcS4_NSt7__cxx1112basic_stringIcSt11char_traitsIcESaIcEEES4_PNS_3tel24INetworkSelectionManagerES4_jEEEvNS0_8LogLevelERKSA_SG_RKiDpT_=so_stub_for_libtelux_tel
-Wl,--defsym=_ZN5telux6common3Log10logMessageIJPKcS4_NSt7__cxx1112basic_stringIcSt11char_traitsIcESaIcEEES4_S4_EEEvNS0_8LogLevelERKSA_SD_RKiDpT_=so_stub_for_libtelux_tel
-Wl,--defsym=_ZN5telux6common3Log10logMessageIJPKcS4_NSt7__cxx1112basic_stringIcSt11char_traitsIcESaIcEEES4_SA_EEEvNS0_8LogLevelERKSA_SD_RKiDpT_=so_stub_for_libtelux_tel
-Wl,--defsym=_ZN5telux6common3Log10logMessageIJPKcS4_NSt7__cxx1112basic_stringIcSt11char_traitsIcESaIcEEES4_SA_S4_SA_S4_iEEEvNS0_8LogLevelERKSA_SD_RKiDpT_=so_stub_for_libtelux_tel
-Wl,--defsym=_ZN5telux6common3Log10logMessageIJPKcS4_NSt7__cxx1112basic_stringIcSt11char_traitsIcESaIcEEES4_tS4_jEEEvNS0_8LogLevelERKSA_SD_RKiDpT_=so_stub_for_libtelux_tel
-Wl,--defsym=_ZN5telux6common3Log10logMessageIJPKcS4_PcS4_iEEEvNS0_8LogLevelERKNSt7__cxx1112basic_stringIcSt11char_traitsIcESaIcEEESE_RKiDpT_=so_stub_for_libtelux_tel
-Wl,--defsym=_ZN5telux6common3Log10logMessageIJPKcS4_PFRSt8ios_baseS6_ENSt7__cxx1112basic_stringIcSt11char_traitsIcESaIcEEEEEEvNS0_8LogLevelERKSE_SH_RKiDpT_=so_stub_for_libtelux_tel
-Wl,--defsym=_ZN5telux6common3Log10logMessageIJPKcS4_PFRSt8ios_baseS6_ES4_iEEEvNS0_8LogLevelERKNSt7__cxx1112basic_stringIcSt11char_traitsIcESaIcEEESH_RKiDpT_=so_stub_for_libtelux_tel
-Wl,--defsym=_ZN5telux6common3Log10logMessageIJPKcS4_PNS_3tel8CardImplES4_lEEEvNS0_8LogLevelERKNSt7__cxx1112basic_stringIcSt11char_traitsIcESaIcEEESG_RKiDpT_=so_stub_for_libtelux_tel
-Wl,--defsym=_ZN5telux6common3Log10logMessageIJPKcS4_PSt8functionIFvNS0_13ServiceStatusEEEEEEvNS0_8LogLevelERKNSt7__cxx1112basic_stringIcSt11char_traitsIcESaIcEEESI_RKiDpT_=so_stub_for_libtelux_tel
-Wl,--defsym=_ZN5telux6common3Log10logMessageIJPKcS4_S4_bS4_S4_NSt7__cxx1112basic_stringIcSt11char_traitsIcESaIcEEES4_S4_SA_S4_S4_iS4_S4_iS4_S4_iS4_S4_iEEEvNS0_8LogLevelERKSA_SD_RKiDpT_=so_stub_for_libtelux_tel
-Wl,--defsym=_ZN5telux6common3Log10logMessageIJPKcS4_S4_bS4_S4_NSt7__cxx1112basic_stringIcSt11char_traitsIcESaIcEEES4_S4_SA_S4_S4_iS4_S4_iS4_S4_iS4_S4_iS4_S4_iS4_S4_iS4_S4_iEEEvNS0_8LogLevelERKSA_SD_RKiDpT_=so_stub_for_libtelux_tel
-Wl,--defsym=_ZN5telux6common3Log10logMessageIJPKcS4_S4_bS4_S4_NSt7__cxx1112basic_stringIcSt11char_traitsIcESaIcEEES4_S4_SA_S4_S4_iS4_S4_iS4_S4_iS4_S4_iS4_S4_iS4_S4_iS4_S4_iS4_S4_iEEEvNS0_8LogLevelERKSA_SD_RKiDpT_=so_stub_for_libtelux_tel
-Wl,--defsym=_ZN5telux6common3Log10logMessageIJPKcS4_S4_EEEvNS0_8LogLevelERKNSt7__cxx1112basic_stringIcSt11char_traitsIcESaIcEEESD_RKiDpT_=so_stub_for_libtelux_tel
-Wl,--defsym=_ZN5telux6common3Log10logMessageIJPKcS4_S4_iEEEvNS0_8LogLevelERKNSt7__cxx1112basic_stringIcSt11char_traitsIcESaIcEEESD_RKiDpT_=so_stub_for_libtelux_tel
-Wl,--defsym=_ZN5telux6common3Log10logMessageIJPKcS4_S4_iS4_iS4_iS4_NSt7__cxx1112basic_stringIcSt11char_traitsIcESaIcEEEEEEvNS0_8LogLevelERKSA_SD_RKiDpT_=so_stub_for_libtelux_tel
-Wl,--defsym=_ZN5telux6common3Log10logMessageIJPKcS4_S4_iS4_NSt7__cxx1112basic_stringIcSt11char_traitsIcESaIcEEEEEEvNS0_8LogLevelERKSA_SD_RKiDpT_=so_stub_for_libtelux_tel
-Wl,--defsym=_ZN5telux6common3Log10logMessageIJPKcS4_S4_S4_bS4_S4_NSt7__cxx1112basic_stringIcSt11char_traitsIcESaIcEEES4_S4_SA_S4_S4_iS4_S4_iS4_S4_iS4_S4_iS4_S4_iS4_S4_iS4_S4_iEEEvNS0_8LogLevelERKSA_SD_RKiDpT_=so_stub_for_libtelux_tel
-Wl,--defsym=_ZN5telux6common3Log10logMessageIJPKcS4_S4_S4_bS4_S4_NSt7__cxx1112basic_stringIcSt11char_traitsIcESaIcEEES4_S4_SA_S4_S4_mS4_S4_jS4_S4_iS4_S4_iS4_S4_iS4_S4_iS4_S4_iEEEvNS0_8LogLevelERKSA_SD_RKiDpT_=so_stub_for_libtelux_tel
-Wl,--defsym=_ZN5telux6common3Log10logMessageIJPKcS4_S4_S4_PSt6vectorISt8functionIFvNS0_13ServiceStatusEEESaIS9_EEEEEvNS0_8LogLevelERKNSt7__cxx1112basic_stringIcSt11char_traitsIcESaIcEEESL_RKiDpT_=so_stub_for_libtelux_tel
-Wl,--defsym=_ZN5telux6common3Log10logMessageIJPKcS4_sEEEvNS0_8LogLevelERKNSt7__cxx1112basic_stringIcSt11char_traitsIcESaIcEEESD_RKiDpT_=so_stub_for_libtelux_tel
-Wl,--defsym=_ZN5telux6common3Log10logMessageIJPKcS4_St6bitsetILm16EEEEEvNS0_8LogLevelERKNSt7__cxx1112basic_stringIcSt11char_traitsIcESaIcEEESF_RKiDpT_=so_stub_for_libtelux_tel
-Wl,--defsym=_ZN5telux6common3Log10logMessageIJPKcS4_tEEEvNS0_8LogLevelERKNSt7__cxx1112basic_stringIcSt11char_traitsIcESaIcEEESD_RKiDpT_=so_stub_for_libtelux_tel
-Wl,--defsym=_ZN5telux6common3Log10logMessageIJPKcS4_tS4_iS4_EEEvNS0_8LogLevelERKNSt7__cxx1112basic_stringIcSt11char_traitsIcESaIcEEESD_RKiDpT_=so_stub_for_libtelux_tel
-Wl,--defsym=_ZN5telux6common3Log10logMessageIJPKcS4_tS4_NSt7__cxx1112basic_stringIcSt11char_traitsIcESaIcEEES4_EEEvNS0_8LogLevelERKSA_SD_RKiDpT_=so_stub_for_libtelux_tel
-Wl,--defsym=_ZN5telux6common3Log10logMessageIJPKcS4_tS4_tEEEvNS0_8LogLevelERKNSt7__cxx1112basic_stringIcSt11char_traitsIcESaIcEEESD_RKiDpT_=so_stub_for_libtelux_tel
-Wl,--defsym=_ZN5telux6common3Log10logMessageIJPKcS4_tS4_tS4_NSt7__cxx1112basic_stringIcSt11char_traitsIcESaIcEEEEEEvNS0_8LogLevelERKSA_SD_RKiDpT_=so_stub_for_libtelux_tel
-Wl,--defsym=_ZN5telux6common3Log10logMessageIJPKcS4_yEEEvNS0_8LogLevelERKNSt7__cxx1112basic_stringIcSt11char_traitsIcESaIcEEESD_RKiDpT_=so_stub_for_libtelux_tel
-Wl,--defsym=_ZN5telux6common3Log10logMessageIJPKcsEEEvNS0_8LogLevelERKNSt7__cxx1112basic_stringIcSt11char_traitsIcESaIcEEESD_RKiDpT_=so_stub_for_libtelux_tel
-Wl,--defsym=_ZN5telux6common3Log10logMessageIJPKcsS4_sEEEvNS0_8LogLevelERKNSt7__cxx1112basic_stringIcSt11char_traitsIcESaIcEEESD_RKiDpT_=so_stub_for_libtelux_tel
-Wl,--defsym=_ZN5telux6common3Log10logMessageIJPKcSt10shared_ptrINS0_16ICommandCallbackEEEEEvNS0_8LogLevelERKNSt7__cxx1112basic_stringIcSt11char_traitsIcESaIcEEESG_RKiDpT_=so_stub_for_libtelux_tel
-Wl,--defsym=_ZN5telux6common3Log10logMessageIJPKcSt10shared_ptrINS_3tel11CardAppImplEEEEEvNS0_8LogLevelERKNSt7__cxx1112basic_stringIcSt11char_traitsIcESaIcEEESH_RKiDpT_=so_stub_for_libtelux_tel
-Wl,--defsym=_ZN5telux6common3Log10logMessageIJPKcSt10shared_ptrINS_3tel13ICallListenerEEEEEvNS0_8LogLevelERKNSt7__cxx1112basic_stringIcSt11char_traitsIcESaIcEEESH_RKiDpT_=so_stub_for_libtelux_tel
-Wl,--defsym=_ZN5telux6common3Log10logMessageIJPKcSt10shared_ptrINS_3tel4CallEEEEEvNS0_8LogLevelERKNSt7__cxx1112basic_stringIcSt11char_traitsIcESaIcEEESH_RKiDpT_=so_stub_for_libtelux_tel
-Wl,--defsym=_ZN5telux6common3Log10logMessageIJPKcSt10shared_ptrINS_3tel4CallEES4_EEEvNS0_8LogLevelERKNSt7__cxx1112basic_stringIcSt11char_traitsIcESaIcEEESH_RKiDpT_=so_stub_for_libtelux_tel
-Wl,--defsym=_ZN5telux6common3Log10logMessageIJPKcSt6bitsetILm16EEEEEvNS0_8LogLevelERKNSt7__cxx1112basic_stringIcSt11char_traitsIcESaIcEEESF_RKiDpT_=so_stub_for_libtelux_tel
-Wl,--defsym=_ZN5telux6common3Log10logMessageIJPKcSt6bitsetILm8EEEEEvNS0_8LogLevelERKNSt7__cxx1112basic_stringIcSt11char_traitsIcESaIcEEESF_RKiDpT_=so_stub_for_libtelux_tel
-Wl,--defsym=_ZN5telux6common3Log10logMessageIJPKctEEEvNS0_8LogLevelERKNSt7__cxx1112basic_stringIcSt11char_traitsIcESaIcEEESD_RKiDpT_=so_stub_for_libtelux_tel
-Wl,--defsym=_ZN5telux6common3Log16constructMessageINSt7__cxx1119basic_ostringstreamIcSt11char_traitsIcESaIcEEE6SlotIdJPKcNS3_12basic_stringIcS6_S7_EEEEEvRT_T0_DpT1_=so_stub_for_libtelux_tel
-Wl,--defsym=_ZN5telux6common3Log16constructMessageINSt7__cxx1119basic_ostringstreamIcSt11char_traitsIcESaIcEEEbJPKcSA_NS3_12basic_stringIcS6_S7_EESA_SA_SC_SA_SA_iSA_SA_iSA_SA_iSA_SA_iSA_SA_iSA_SA_iSA_SA_iEEEvRT_T0_DpT1_=so_stub_for_libtelux_tel
-Wl,--defsym=_ZN5telux6common3Log16constructMessageINSt7__cxx1119basic_ostringstreamIcSt11char_traitsIcESaIcEEEbJPKcSA_NS3_12basic_stringIcS6_S7_EESA_SA_SC_SA_SA_iSA_SA_iSA_SA_iSA_SA_iSA_SA_iSA_SA_iSA_SA_iSA_SA_iEEEvRT_T0_DpT1_=so_stub_for_libtelux_tel
-Wl,--defsym=_ZN5telux6common3Log16constructMessageINSt7__cxx1119basic_ostringstreamIcSt11char_traitsIcESaIcEEEbJPKcSA_NS3_12basic_stringIcS6_S7_EESA_SA_SC_SA_SA_mSA_SA_jSA_SA_iSA_SA_iSA_SA_iSA_SA_iSA_SA_iEEEvRT_T0_DpT1_=so_stub_for_libtelux_tel
-Wl,--defsym=_ZN5telux6common3Log16constructMessageINSt7__cxx1119basic_ostringstreamIcSt11char_traitsIcESaIcEEEiJPKcfSA_fEEEvRT_T0_DpT1_=so_stub_for_libtelux_tel
-Wl,--defsym=_ZN5telux6common3Log16constructMessageINSt7__cxx1119basic_ostringstreamIcSt11char_traitsIcESaIcEEEiJPKciSA_iEEEvRT_T0_DpT1_=so_stub_for_libtelux_tel
-Wl,--defsym=_ZN5telux6common3Log16constructMessageINSt7__cxx1119basic_ostringstreamIcSt11char_traitsIcESaIcEEEiJPKciSA_iSA_iEEEvRT_T0_DpT1_=so_stub_for_libtelux_tel
-Wl,--defsym=_ZN5telux6common3Log16constructMessageINSt7__cxx1119basic_ostringstreamIcSt11char_traitsIcESaIcEEEiJPKciSA_iSA_iSA_iEEEvRT_T0_DpT1_=so_stub_for_libtelux_tel
-Wl,--defsym=_ZN5telux6common3Log16constructMessageINSt7__cxx1119basic_ostringstreamIcSt11char_traitsIcESaIcEEEiJPKciSA_iSA_iSA_iSA_iEEEvRT_T0_DpT1_=so_stub_for_libtelux_tel
-Wl,--defsym=_ZN5telux6common3Log16constructMessageINSt7__cxx1119basic_ostringstreamIcSt11char_traitsIcESaIcEEEiJPKciSA_iSA_iSA_iSA_iSA_iSA_iEEEvRT_T0_DpT1_=so_stub_for_libtelux_tel
-Wl,--defsym=_ZN5telux6common3Log16constructMessageINSt7__cxx1119basic_ostringstreamIcSt11char_traitsIcESaIcEEEiJPKciSA_iSA_iSA_iSA_NS3_12basic_stringIcS6_S7_EESA_SC_EEEvRT_T0_DpT1_=so_stub_for_libtelux_tel
-Wl,--defsym=_ZN5telux6common3Log16constructMessageINSt7__cxx1119basic_ostringstreamIcSt11char_traitsIcESaIcEEEiJPKciSA_iSA_iSA_NS3_12basic_stringIcS6_S7_EESA_SC_EEEvRT_T0_DpT1_=so_stub_for_libtelux_tel
-Wl,--defsym=_ZN5telux6common3Log16constructMessageINSt7__cxx1119basic_ostringstreamIcSt11char_traitsIcESaIcEEEiJPKciSA_iSA_iSA_St10shared_ptrINS_3tel20ICardCommandCallbackEEEEEvRT_T0_DpT1_=so_stub_for_libtelux_tel
-Wl,--defsym=_ZN5telux6common3Log16constructMessageINSt7__cxx1119basic_ostringstreamIcSt11char_traitsIcESaIcEEEiJPKciSA_iSA_NS3_12basic_stringIcS6_S7_EESA_SC_EEEvRT_T0_DpT1_=so_stub_for_libtelux_tel
-Wl,--defsym=_ZN5telux6common3Log16constructMessageINSt7__cxx1119basic_ostringstreamIcSt11char_traitsIcESaIcEEEiJPKciSA_iSA_St10shared_ptrINS_3tel20ICardCommandCallbackEEEEEvRT_T0_DpT1_=so_stub_for_libtelux_tel
-Wl,--defsym=_ZN5telux6common3Log16constructMessageINSt7__cxx1119basic_ostringstreamIcSt11char_traitsIcESaIcEEEiJPKciSA_NS3_12basic_stringIcS6_S7_EEEEEvRT_T0_DpT1_=so_stub_for_libtelux_tel
-Wl,--defsym=_ZN5telux6common3Log16constructMessageINSt7__cxx1119basic_ostringstreamIcSt11char_traitsIcESaIcEEEiJPKciSA_NS3_12basic_stringIcS6_S7_EESA_iSA_iSA_iSA_iSA_SC_EEEvRT_T0_DpT1_=so_stub_for_libtelux_tel
-Wl,--defsym=_ZN5telux6common3Log16constructMessageINSt7__cxx1119basic_ostringstreamIcSt11char_traitsIcESaIcEEEiJPKciSA_NS3_12basic_stringIcS6_S7_EESA_iSA_SC_EEEvRT_T0_DpT1_=so_stub_for_libtelux_tel
-Wl,--defsym=_ZN5telux6common3Log16constructMessageINSt7__cxx1119basic_ostringstreamIcSt11char_traitsIcESaIcEEEiJPKciSA_NS3_12basic_stringIcS6_S7_EESA_SC_EEEvRT_T0_DpT1_=so_stub_for_libtelux_tel
-Wl,--defsym=_ZN5telux6common3Log16constructMessageINSt7__cxx1119basic_ostringstreamIcSt11char_traitsIcESaIcEEEiJPKciSA_St10shared_ptrINS_3tel20ICardCommandCallbackEEEEEvRT_T0_DpT1_=so_stub_for_libtelux_tel
-Wl,--defsym=_ZN5telux6common3Log16constructMessageINSt7__cxx1119basic_ostringstreamIcSt11char_traitsIcESaIcEEEiJPKcjSA_bEEEvRT_T0_DpT1_=so_stub_for_libtelux_tel
-Wl,--defsym=_ZN5telux6common3Log16constructMessageINSt7__cxx1119basic_ostringstreamIcSt11char_traitsIcESaIcEEEiJPKcmSA_NS3_12basic_stringIcS6_S7_EEEEEvRT_T0_DpT1_=so_stub_for_libtelux_tel
-Wl,--defsym=_ZN5telux6common3Log16constructMessageINSt7__cxx1119basic_ostringstreamIcSt11char_traitsIcESaIcEEEiJPKcNS3_12basic_stringIcS6_S7_EEEEEvRT_T0_DpT1_=so_stub_for_libtelux_tel
-Wl,--defsym=_ZN5telux6common3Log16constructMessageINSt7__cxx1119basic_ostringstreamIcSt11char_traitsIcESaIcEEEiJPKcNS3_12basic_stringIcS6_S7_EESA_EEEvRT_T0_DpT1_=so_stub_for_libtelux_tel
-Wl,--defsym=_ZN5telux6common3Log16constructMessageINSt7__cxx1119basic_ostringstreamIcSt11char_traitsIcESaIcEEEiJPKcNS3_12basic_stringIcS6_S7_EESA_iEEEvRT_T0_DpT1_=so_stub_for_libtelux_tel
-Wl,--defsym=_ZN5telux6common3Log16constructMessageINSt7__cxx1119basic_ostringstreamIcSt11char_traitsIcESaIcEEEiJPKcNS3_12basic_stringIcS6_S7_EESA_iSA_iSA_iSA_iSA_iSA_iSA_iSA_iEEEvRT_T0_DpT1_=so_stub_for_libtelux_tel
-Wl,--defsym=_ZN5telux6common3Log16constructMessageINSt7__cxx1119basic_ostringstreamIcSt11char_traitsIcESaIcEEEiJPKcNS3_12basic_stringIcS6_S7_EESA_iSA_iSA_iSA_iSA_SC_EEEvRT_T0_DpT1_=so_stub_for_libtelux_tel
-Wl,--defsym=_ZN5telux6common3Log16constructMessageINSt7__cxx1119basic_ostringstreamIcSt11char_traitsIcESaIcEEEiJPKcNS3_12basic_stringIcS6_S7_EESA_iSA_SC_EEEvRT_T0_DpT1_=so_stub_for_libtelux_tel
-Wl,--defsym=_ZN5telux6common3Log16constructMessageINSt7__cxx1119basic_ostringstreamIcSt11char_traitsIcESaIcEEEiJPKcNS3_12basic_stringIcS6_S7_EESA_mSA_SC_SA_iEEEvRT_T0_DpT1_=so_stub_for_libtelux_tel
-Wl,--defsym=_ZN5telux6common3Log16constructMessageINSt7__cxx1119basic_ostringstreamIcSt11char_traitsIcESaIcEEEiJPKcNS3_12basic_stringIcS6_S7_EESA_SC_EEEvRT_T0_DpT1_=so_stub_for_libtelux_tel
-Wl,--defsym=_ZN5telux6common3Log16constructMessageINSt7__cxx1119basic_ostringstreamIcSt11char_traitsIcESaIcEEEiJPKcSA_iSA_SA_iEEEvRT_T0_DpT1_=so_stub_for_libtelux_tel
-Wl,--defsym=_ZN5telux6common3Log16constructMessageINSt7__cxx1119basic_ostringstreamIcSt11char_traitsIcESaIcEEEiJPKcSA_iSA_SA_iSA_SA_iSA_SA_iSA_SA_iSA_SA_iEEEvRT_T0_DpT1_=so_stub_for_libtelux_tel
-Wl,--defsym=_ZN5telux6common3Log16constructMessageINSt7__cxx1119basic_ostringstreamIcSt11char_traitsIcESaIcEEEiJPKcSA_iSA_SA_iSA_SA_iSA_SA_iSA_SA_iSA_SA_iSA_SA_iSA_SA_iEEEvRT_T0_DpT1_=so_stub_for_libtelux_tel
-Wl,--defsym=_ZN5telux6common3Log16constructMessageINSt7__cxx1119basic_ostringstreamIcSt11char_traitsIcESaIcEEEiJPKcSt10shared_ptrINS_3tel20ICardCommandCallbackEEEEEvRT_T0_DpT1_=so_stub_for_libtelux_tel
-Wl,--defsym=_ZN5telux6common3Log16constructMessageINSt7__cxx1119basic_ostringstreamIcSt11char_traitsIcESaIcEEEiJPKctSA_NS3_12basic_stringIcS6_S7_EEEEEvRT_T0_DpT1_=so_stub_for_libtelux_tel
-Wl,--defsym=_ZN5telux6common3Log16constructMessageINSt7__cxx1119basic_ostringstreamIcSt11char_traitsIcESaIcEEEiJPKctSA_NS3_12basic_stringIcS6_S7_EESA_SC_SA_mEEEvRT_T0_DpT1_=so_stub_for_libtelux_tel
-Wl,--defsym=_ZN5telux6common3Log16constructMessageINSt7__cxx1119basic_ostringstreamIcSt11char_traitsIcESaIcEEEiJPKctSA_tSA_tEEEvRT_T0_DpT1_=so_stub_for_libtelux_tel
-Wl,--defsym=_ZN5telux6common3Log16constructMessageINSt7__cxx1119basic_ostringstreamIcSt11char_traitsIcESaIcEEEjJPKcjSA_iEEEvRT_T0_DpT1_=so_stub_for_libtelux_tel
-Wl,--defsym=_ZN5telux6common3Log16constructMessageINSt7__cxx1119basic_ostringstreamIcSt11char_traitsIcESaIcEEEjJPKcjSA_iSA_jEEEvRT_T0_DpT1_=so_stub_for_libtelux_tel
-Wl,--defsym=_ZN5telux6common3Log16constructMessageINSt7__cxx1119basic_ostringstreamIcSt11char_traitsIcESaIcEEEjJPKcjSA_jEEEvRT_T0_DpT1_=so_stub_for_libtelux_tel
-Wl,--defsym=_ZN5telux6common3Log16constructMessageINSt7__cxx1119basic_ostringstreamIcSt11char_traitsIcESaIcEEEjJPKcjSA_jSA_iEEEvRT_T0_DpT1_=so_stub_for_libtelux_tel
-Wl,--defsym=_ZN5telux6common3Log16constructMessageINSt7__cxx1119basic_ostringstreamIcSt11char_traitsIcESaIcEEEjJPKcjSA_jSA_jEEEvRT_T0_DpT1_=so_stub_for_libtelux_tel
-Wl,--defsym=_ZN5telux6common3Log16constructMessageINSt7__cxx1119basic_ostringstreamIcSt11char_traitsIcESaIcEEEjJPKcNS3_12basic_stringIcS6_S7_EEEEEvRT_T0_DpT1_=so_stub_for_libtelux_tel
-Wl,--defsym=_ZN5telux6common3Log16constructMessageINSt7__cxx1119basic_ostringstreamIcSt11char_traitsIcESaIcEEEjJPKcNS3_12basic_stringIcS6_S7_EESA_bEEEvRT_T0_DpT1_=so_stub_for_libtelux_tel
-Wl,--defsym=_ZN5telux6common3Log16constructMessageINSt7__cxx1119basic_ostringstreamIcSt11char_traitsIcESaIcEEEmJPKc25uim_profile_icon_type_v01SA_iEEEvRT_T0_DpT1_=so_stub_for_libtelux_tel
-Wl,--defsym=_ZN5telux6common3Log16constructMessageINSt7__cxx1119basic_ostringstreamIcSt11char_traitsIcESaIcEEEmJPKcmSA_mSA_mEEEvRT_T0_DpT1_=so_stub_for_libtelux_tel
-Wl,--defsym=_ZN5telux6common3Log16constructMessageINSt7__cxx1119basic_ostringstreamIcSt11char_traitsIcESaIcEEEmJPKcmSA_mSA_mSA_mSA_mSA_mSA_mEEEvRT_T0_DpT1_=so_stub_for_libtelux_tel
-Wl,--defsym=_ZN5telux6common3Log16constructMessageINSt7__cxx1119basic_ostringstreamIcSt11char_traitsIcESaIcEEEmJPKcNS3_12basic_stringIcS6_S7_EEEEEvRT_T0_DpT1_=so_stub_for_libtelux_tel
-Wl,--defsym=_ZN5telux6common3Log16constructMessageINSt7__cxx1119basic_ostringstreamIcSt11char_traitsIcESaIcEEEmJPKcNS3_12basic_stringIcS6_S7_EESA_iEEEvRT_T0_DpT1_=so_stub_for_libtelux_tel
-Wl,--defsym=_ZN5telux6common3Log16constructMessageINSt7__cxx1119basic_ostringstreamIcSt11char_traitsIcESaIcEEEmJPKcPNS_3tel11ISmsManagerESA_jSA_iEEEvRT_T0_DpT1_=so_stub_for_libtelux_tel
-Wl,--defsym=_ZN5telux6common3Log16constructMessageINSt7__cxx1119basic_ostringstreamIcSt11char_traitsIcESaIcEEEmJPKcPNS_3tel12ICallManagerESA_jSA_iEEEvRT_T0_DpT1_=so_stub_for_libtelux_tel
-Wl,--defsym=_ZN5telux6common3Log16constructMessageINSt7__cxx1119basic_ostringstreamIcSt11char_traitsIcESaIcEEEmJPKcPNS_3tel12ICardManagerESA_jSA_iEEEvRT_T0_DpT1_=so_stub_for_libtelux_tel
-Wl,--defsym=_ZN5telux6common3Log16constructMessageINSt7__cxx1119basic_ostringstreamIcSt11char_traitsIcESaIcEEEmJPKcPNS_3tel13IPhoneManagerESA_jSA_iEEEvRT_T0_DpT1_=so_stub_for_libtelux_tel
-Wl,--defsym=_ZN5telux6common3Log16constructMessageINSt7__cxx1119basic_ostringstreamIcSt11char_traitsIcESaIcEEEmJPKcPNS_3tel15ISapCardManagerESA_jSA_iEEEvRT_T0_DpT1_=so_stub_for_libtelux_tel
-Wl,--defsym=_ZN5telux6common3Log16constructMessageINSt7__cxx1119basic_ostringstreamIcSt11char_traitsIcESaIcEEEmJPKcPNS_3tel16IMultiSimManagerESA_jSA_iEEEvRT_T0_DpT1_=so_stub_for_libtelux_tel
-Wl,--defsym=_ZN5telux6common3Log16constructMessageINSt7__cxx1119basic_ostringstreamIcSt11char_traitsIcESaIcEEEmJPKcPNS_3tel17IRemoteSimManagerESA_jSA_iEEEvRT_T0_DpT1_=so_stub_for_libtelux_tel
-Wl,--defsym=_ZN5telux6common3Log16constructMessageINSt7__cxx1119basic_ostringstreamIcSt11char_traitsIcESaIcEEEmJPKcPNS_3tel18ISimProfileManagerESA_jSA_iEEEvRT_T0_DpT1_=so_stub_for_libtelux_tel
-Wl,--defsym=_ZN5telux6common3Log16constructMessageINSt7__cxx1119basic_ostringstreamIcSt11char_traitsIcESaIcEEEmJPKcPNS_3tel19IImsSettingsManagerESA_jSA_iEEEvRT_T0_DpT1_=so_stub_for_libtelux_tel
-Wl,--defsym=_ZN5telux6common3Log16constructMessageINSt7__cxx1119basic_ostringstreamIcSt11char_traitsIcESaIcEEEmJPKcPNS_3tel20IApSimProfileManagerESA_jSA_iEEEvRT_T0_DpT1_=so_stub_for_libtelux_tel
-Wl,--defsym=_ZN5telux6common3Log16constructMessageINSt7__cxx1119basic_ostringstreamIcSt11char_traitsIcESaIcEEEmJPKcPNS_3tel20ISubscriptionManagerESA_jSA_iEEEvRT_T0_DpT1_=so_stub_for_libtelux_tel
-Wl,--defsym=_ZN5telux6common3Log16constructMessageINSt7__cxx1119basic_ostringstreamIcSt11char_traitsIcESaIcEEEmJPKcPNS_3tel20ISuppServicesManagerESA_jSA_iEEEvRT_T0_DpT1_=so_stub_for_libtelux_tel
-Wl,--defsym=_ZN5telux6common3Log16constructMessageINSt7__cxx1119basic_ostringstreamIcSt11char_traitsIcESaIcEEEmJPKcPNS_3tel21ICellBroadcastManagerESA_jSA_iEEEvRT_T0_DpT1_=so_stub_for_libtelux_tel
-Wl,--defsym=_ZN5telux6common3Log16constructMessageINSt7__cxx1119basic_ostringstreamIcSt11char_traitsIcESaIcEEEmJPKcPNS_3tel21IServingSystemManagerESA_jSA_iEEEvRT_T0_DpT1_=so_stub_for_libtelux_tel
-Wl,--defsym=_ZN5telux6common3Log16constructMessageINSt7__cxx1119basic_ostringstreamIcSt11char_traitsIcESaIcEEEmJPKcPNS_3tel23IHttpTransactionManagerESA_jSA_iEEEvRT_T0_DpT1_=so_stub_for_libtelux_tel
-Wl,--defsym=_ZN5telux6common3Log16constructMessageINSt7__cxx1119basic_ostringstreamIcSt11char_traitsIcESaIcEEEmJPKcPNS_3tel24IImsServingSystemManagerESA_jSA_iEEEvRT_T0_DpT1_=so_stub_for_libtelux_tel
-Wl,--defsym=_ZN5telux6common3Log16constructMessageINSt7__cxx1119basic_ostringstreamIcSt11char_traitsIcESaIcEEEmJPKcPNS_3tel24INetworkSelectionManagerESA_jSA_iEEEvRT_T0_DpT1_=so_stub_for_libtelux_tel
-Wl,--defsym=_ZN5telux6common3Log16constructMessageINSt7__cxx1119basic_ostringstreamIcSt11char_traitsIcESaIcEEENS3_12basic_stringIcS6_S7_EEJPKcbSC_bSC_bEEEvRT_T0_DpT1_=so_stub_for_libtelux_tel
-Wl,--defsym=_ZN5telux6common3Log16constructMessageINSt7__cxx1119basic_ostringstreamIcSt11char_traitsIcESaIcEEENS3_12basic_stringIcS6_S7_EEJPKciSC_bEEEvRT_T0_DpT1_=so_stub_for_libtelux_tel
-Wl,--defsym=_ZN5telux6common3Log16constructMessageINSt7__cxx1119basic_ostringstreamIcSt11char_traitsIcESaIcEEENS3_12basic_stringIcS6_S7_EEJPKciSC_iSC_iEEEvRT_T0_DpT1_=so_stub_for_libtelux_tel
-Wl,--defsym=_ZN5telux6common3Log16constructMessageINSt7__cxx1119basic_ostringstreamIcSt11char_traitsIcESaIcEEENS3_12basic_stringIcS6_S7_EEJPKciSC_PSt6vectorISt8functionIFvNS0_13ServiceStatusEEESaISH_EEEEEvRT_T0_DpT1_=so_stub_for_libtelux_tel
-Wl,--defsym=_ZN5telux6common3Log16constructMessageINSt7__cxx1119basic_ostringstreamIcSt11char_traitsIcESaIcEEENS3_12basic_stringIcS6_S7_EEJPKciSC_SA_EEEvRT_T0_DpT1_=so_stub_for_libtelux_tel
-Wl,--defsym=_ZN5telux6common3Log16constructMessageINSt7__cxx1119basic_ostringstreamIcSt11char_traitsIcESaIcEEENS3_12basic_stringIcS6_S7_EEJPKciSC_tEEEvRT_T0_DpT1_=so_stub_for_libtelux_tel
-Wl,--defsym=_ZN5telux6common3Log16constructMessageINSt7__cxx1119basic_ostringstreamIcSt11char_traitsIcESaIcEEENS3_12basic_stringIcS6_S7_EEJPKciSC_tSC_SA_SC_SA_SC_mEEEvRT_T0_DpT1_=so_stub_for_libtelux_tel
-Wl,--defsym=_ZN5telux6common3Log16constructMessageINSt7__cxx1119basic_ostringstreamIcSt11char_traitsIcESaIcEEENS3_12basic_stringIcS6_S7_EEJPKcmSC_PNS_3tel13IEcallManagerESC_iEEEvRT_T0_DpT1_=so_stub_for_libtelux_tel
-Wl,--defsym=_ZN5telux6common3Log16constructMessageINSt7__cxx1119basic_ostringstreamIcSt11char_traitsIcESaIcEEENS3_12basic_stringIcS6_S7_EEJPKcPNS_3tel11ISmsManagerESC_jEEEvRT_T0_DpT1_=so_stub_for_libtelux_tel
-Wl,--defsym=_ZN5telux6common3Log16constructMessageINSt7__cxx1119basic_ostringstreamIcSt11char_traitsIcESaIcEEENS3_12basic_stringIcS6_S7_EEJPKcPNS_3tel12ICallManagerESC_jEEEvRT_T0_DpT1_=so_stub_for_libtelux_tel
-Wl,--defsym=_ZN5telux6common3Log16constructMessageINSt7__cxx1119basic_ostringstreamIcSt11char_traitsIcESaIcEEENS3_12basic_stringIcS6_S7_EEJPKcPNS_3tel12ICardManagerESC_jEEEvRT_T0_DpT1_=so_stub_for_libtelux_tel
-Wl,--defsym=_ZN5telux6common3Log16constructMessageINSt7__cxx1119basic_ostringstreamIcSt11char_traitsIcESaIcEEENS3_12basic_stringIcS6_S7_EEJPKcPNS_3tel13IPhoneManagerESC_jEEEvRT_T0_DpT1_=so_stub_for_libtelux_tel
-Wl,--defsym=_ZN5telux6common3Log16constructMessageINSt7__cxx1119basic_ostringstreamIcSt11char_traitsIcESaIcEEENS3_12basic_stringIcS6_S7_EEJPKcPNS_3tel15ISapCardManagerESC_jEEEvRT_T0_DpT1_=so_stub_for_libtelux_tel
-Wl,--defsym=_ZN5telux6common3Log16constructMessageINSt7__cxx1119basic_ostringstreamIcSt11char_traitsIcESaIcEEENS3_12basic_stringIcS6_S7_EEJPKcPNS_3tel16IMultiSimManagerESC_jEEEvRT_T0_DpT1_=so_stub_for_libtelux_tel
-Wl,--defsym=_ZN5telux6common3Log16constructMessageINSt7__cxx1119basic_ostringstreamIcSt11char_traitsIcESaIcEEENS3_12basic_stringIcS6_S7_EEJPKcPNS_3tel17IRemoteSimManagerESC_jEEEvRT_T0_DpT1_=so_stub_for_libtelux_tel
-Wl,--defsym=_ZN5telux6common3Log16constructMessageINSt7__cxx1119basic_ostringstreamIcSt11char_traitsIcESaIcEEENS3_12basic_stringIcS6_S7_EEJPKcPNS_3tel18ISimProfileManagerESC_jEEEvRT_T0_DpT1_=so_stub_for_libtelux_tel
-Wl,--defsym=_ZN5telux6common3Log16constructMessageINSt7__cxx1119basic_ostringstreamIcSt11char_traitsIcESaIcEEENS3_12basic_stringIcS6_S7_EEJPKcPNS_3tel19IImsSettingsManagerESC_jEEEvRT_T0_DpT1_=so_stub_for_libtelux_tel
-Wl,--defsym=_ZN5telux6common3Log16constructMessageINSt7__cxx1119basic_ostringstreamIcSt11char_traitsIcESaIcEEENS3_12basic_stringIcS6_S7_EEJPKcPNS_3tel20IApSimProfileManagerESC_jEEEvRT_T0_DpT1_=so_stub_for_libtelux_tel
-Wl,--defsym=_ZN5telux6common3Log16constructMessageINSt7__cxx1119basic_ostringstreamIcSt11char_traitsIcESaIcEEENS3_12basic_stringIcS6_S7_EEJPKcPNS_3tel20ISubscriptionManagerESC_jEEEvRT_T0_DpT1_=so_stub_for_libtelux_tel
-Wl,--defsym=_ZN5telux6common3Log16constructMessageINSt7__cxx1119basic_ostringstreamIcSt11char_traitsIcESaIcEEENS3_12basic_stringIcS6_S7_EEJPKcPNS_3tel20ISuppServicesManagerESC_jEEEvRT_T0_DpT1_=so_stub_for_libtelux_tel
-Wl,--defsym=_ZN5telux6common3Log16constructMessageINSt7__cxx1119basic_ostringstreamIcSt11char_traitsIcESaIcEEENS3_12basic_stringIcS6_S7_EEJPKcPNS_3tel21ICellBroadcastManagerESC_jEEEvRT_T0_DpT1_=so_stub_for_libtelux_tel
-Wl,--defsym=_ZN5telux6common3Log16constructMessageINSt7__cxx1119basic_ostringstreamIcSt11char_traitsIcESaIcEEENS3_12basic_stringIcS6_S7_EEJPKcPNS_3tel21IServingSystemManagerESC_jEEEvRT_T0_DpT1_=so_stub_for_libtelux_tel
-Wl,--defsym=_ZN5telux6common3Log16constructMessageINSt7__cxx1119basic_ostringstreamIcSt11char_traitsIcESaIcEEENS3_12basic_stringIcS6_S7_EEJPKcPNS_3tel23IHttpTransactionManagerESC_jEEEvRT_T0_DpT1_=so_stub_for_libtelux_tel
-Wl,--defsym=_ZN5telux6common3Log16constructMessageINSt7__cxx1119basic_ostringstreamIcSt11char_traitsIcESaIcEEENS3_12basic_stringIcS6_S7_EEJPKcPNS_3tel24IImsServingSystemManagerESC_jEEEvRT_T0_DpT1_=so_stub_for_libtelux_tel
-Wl,--defsym=_ZN5telux6common3Log16constructMessageINSt7__cxx1119basic_ostringstreamIcSt11char_traitsIcESaIcEEENS3_12basic_stringIcS6_S7_EEJPKcPNS_3tel24INetworkSelectionManagerESC_jEEEvRT_T0_DpT1_=so_stub_for_libtelux_tel
-Wl,--defsym=_ZN5telux6common3Log16constructMessageINSt7__cxx1119basic_ostringstreamIcSt11char_traitsIcESaIcEEENS3_12basic_stringIcS6_S7_EEJPKcSA_EEEvRT_T0_DpT1_=so_stub_for_libtelux_tel
-Wl,--defsym=_ZN5telux6common3Log16constructMessageINSt7__cxx1119basic_ostringstreamIcSt11char_traitsIcESaIcEEENS3_12basic_stringIcS6_S7_EEJPKcSA_SC_iEEEvRT_T0_DpT1_=so_stub_for_libtelux_tel
-Wl,--defsym=_ZN5telux6common3Log16constructMessageINSt7__cxx1119basic_ostringstreamIcSt11char_traitsIcESaIcEEENS3_12basic_stringIcS6_S7_EEJPKcSA_SC_mEEEvRT_T0_DpT1_=so_stub_for_libtelux_tel
-Wl,--defsym=_ZN5telux6common3Log16constructMessageINSt7__cxx1119basic_ostringstreamIcSt11char_traitsIcESaIcEEENS3_12basic_stringIcS6_S7_EEJPKcSA_SC_SA_SC_iEEEvRT_T0_DpT1_=so_stub_for_libtelux_tel
-Wl,--defsym=_ZN5telux6common3Log16constructMessageINSt7__cxx1119basic_ostringstreamIcSt11char_traitsIcESaIcEEENS3_12basic_stringIcS6_S7_EEJPKcSC_iSC_EEEvRT_T0_DpT1_=so_stub_for_libtelux_tel
-Wl,--defsym=_ZN5telux6common3Log16constructMessageINSt7__cxx1119basic_ostringstreamIcSt11char_traitsIcESaIcEEENS3_12basic_stringIcS6_S7_EEJPKcSC_iSC_iSC_iEEEvRT_T0_DpT1_=so_stub_for_libtelux_tel
-Wl,--defsym=_ZN5telux6common3Log16constructMessageINSt7__cxx1119basic_ostringstreamIcSt11char_traitsIcESaIcEEENS3_12basic_stringIcS6_S7_EEJPKcSC_iSC_iSC_iSC_iSC_iSC_mSC_SA_EEEvRT_T0_DpT1_=so_stub_for_libtelux_tel
-Wl,--defsym=_ZN5telux6common3Log16constructMessageINSt7__cxx1119basic_ostringstreamIcSt11char_traitsIcESaIcEEENS3_12basic_stringIcS6_S7_EEJPKcSC_iSC_iSC_SA_SC_iSC_SA_EEEvRT_T0_DpT1_=so_stub_for_libtelux_tel
-Wl,--defsym=_ZN5telux6common3Log16constructMessageINSt7__cxx1119basic_ostringstreamIcSt11char_traitsIcESaIcEEENS3_12basic_stringIcS6_S7_EEJPKcSC_iSC_tEEEvRT_T0_DpT1_=so_stub_for_libtelux_tel
-Wl,--defsym=_ZN5telux6common3Log16constructMessageINSt7__cxx1119basic_ostringstreamIcSt11char_traitsIcESaIcEEENS3_12basic_stringIcS6_S7_EEJPKcSC_SA_EEEvRT_T0_DpT1_=so_stub_for_libtelux_tel
-Wl,--defsym=_ZN5telux6common3Log16constructMessageINSt7__cxx1119basic_ostringstreamIcSt11char_traitsIcESaIcEEENS3_12basic_stringIcS6_S7_EEJPKcSC_SA_SC_iSC_tSC_SA_EEEvRT_T0_DpT1_=so_stub_for_libtelux_tel
-Wl,--defsym=_ZN5telux6common3Log16constructMessageINSt7__cxx1119basic_ostringstreamIcSt11char_traitsIcESaIcEEENS3_12basic_stringIcS6_S7_EEJPKcSC_SA_SC_iSC_tSC_SA_SC_SA_SC_mEEEvRT_T0_DpT1_=so_stub_for_libtelux_tel
-Wl,--defsym=_ZN5telux6common3Log16constructMessageINSt7__cxx1119basic_ostringstreamIcSt11char_traitsIcESaIcEEENS3_12basic_stringIcS6_S7_EEJPKcSC_SA_SC_SC_iSC_SC_iSC_SC_iSC_SC_iEEEvRT_T0_DpT1_=so_stub_for_libtelux_tel
-Wl,--defsym=_ZN5telux6common3Log16constructMessageINSt7__cxx1119basic_ostringstreamIcSt11char_traitsIcESaIcEEENS3_12basic_stringIcS6_S7_EEJPKcSC_SA_SC_tSC_iSC_SA_EEEvRT_T0_DpT1_=so_stub_for_libtelux_tel
-Wl,--defsym=_ZN5telux6common3Log16constructMessageINSt7__cxx1119basic_ostringstreamIcSt11char_traitsIcESaIcEEENS3_12basic_stringIcS6_S7_EEJPKcSC_SA_SC_tSC_mSC_SA_EEEvRT_T0_DpT1_=so_stub_for_libtelux_tel
-Wl,--defsym=_ZN5telux6common3Log16constructMessageINSt7__cxx1119basic_ostringstreamIcSt11char_traitsIcESaIcEEENS3_12basic_stringIcS6_S7_EEJPKcSC_SA_SC_tSC_SA_EEEvRT_T0_DpT1_=so_stub_for_libtelux_tel
-Wl,--defsym=_ZN5telux6common3Log16constructMessageINSt7__cxx1119basic_ostringstreamIcSt11char_traitsIcESaIcEEENS3_12basic_stringIcS6_S7_EEJPKctSC_jEEEvRT_T0_DpT1_=so_stub_for_libtelux_tel
-Wl,--defsym=_ZN5telux6common3Log16constructMessageINSt7__cxx1119basic_ostringstreamIcSt11char_traitsIcESaIcEEENS3_12basic_stringIcS6_S7_EEJPKctSC_SA_EEEvRT_T0_DpT1_=so_stub_for_libtelux_tel
-Wl,--defsym=_ZN5telux6common3Log16constructMessageINSt7__cxx1119basic_ostringstreamIcSt11char_traitsIcESaIcEEENS3_12basic_stringIcS6_S7_EEJSA_EEEvRT_T0_DpT1_=so_stub_for_libtelux_tel
-Wl,--defsym=_ZN5telux6common3Log16constructMessageINSt7__cxx1119basic_ostringstreamIcSt11char_traitsIcESaIcEEEPcJPKc26uim_profile_class_type_v01SB_mSB_25uim_profile_icon_type_v01SB_iEEEvRT_T0_DpT1_=so_stub_for_libtelux_tel
-Wl,--defsym=_ZN5telux6common3Log16constructMessageINSt7__cxx1119basic_ostringstreamIcSt11char_traitsIcESaIcEEEPFRSt8ios_baseSA_EJNS3_12basic_stringIcS6_S7_EEEEEvRT_T0_DpT1_=so_stub_for_libtelux_tel
-Wl,--defsym=_ZN5telux6common3Log16constructMessageINSt7__cxx1119basic_ostringstreamIcSt11char_traitsIcESaIcEEEPKcJ6SlotIdSA_NS3_12basic_stringIcS6_S7_EEEEEvRT_T0_DpT1_=so_stub_for_libtelux_tel
-Wl,--defsym=_ZN5telux6common3Log16constructMessageINSt7__cxx1119basic_ostringstreamIcSt11char_traitsIcESaIcEEEPKcJbSA_bSA_EEEvRT_T0_DpT1_=so_stub_for_libtelux_tel
-Wl,--defsym=_ZN5telux6common3Log16constructMessageINSt7__cxx1119basic_ostringstreamIcSt11char_traitsIcESaIcEEEPKcJbSA_SA_NS3_12basic_stringIcS6_S7_EESA_SA_SC_SA_SA_iSA_SA_iSA_SA_iSA_SA_iEEEvRT_T0_DpT1_=so_stub_for_libtelux_tel
-Wl,--defsym=_ZN5telux6common3Log16constructMessageINSt7__cxx1119basic_ostringstreamIcSt11char_traitsIcESaIcEEEPKcJbSA_SA_NS3_12basic_stringIcS6_S7_EESA_SA_SC_SA_SA_iSA_SA_iSA_SA_iSA_SA_iSA_SA_iSA_SA_iSA_SA_iSA_SA_iSA_SA_iSA_SA_iEEEvRT_T0_DpT1_=so_stub_for_libtelux_tel
-Wl,--defsym=_ZN5telux6common3Log16constructMessageINSt7__cxx1119basic_ostringstreamIcSt11char_traitsIcESaIcEEEPKcJdSA_dSA_dSA_EEEvRT_T0_DpT1_=so_stub_for_libtelux_tel
-Wl,--defsym=_ZN5telux6common3Log16constructMessageINSt7__cxx1119basic_ostringstreamIcSt11char_traitsIcESaIcEEEPKcJiSA_iSA_EEEvRT_T0_DpT1_=so_stub_for_libtelux_tel
-Wl,--defsym=_ZN5telux6common3Log16constructMessageINSt7__cxx1119basic_ostringstreamIcSt11char_traitsIcESaIcEEEPKcJiSA_iSA_iSA_iSA_iSA_iSA_St10shared_ptrINS_3tel20ICardCommandCallbackEEEEEvRT_T0_DpT1_=so_stub_for_libtelux_tel
-Wl,--defsym=_ZN5telux6common3Log16constructMessageINSt7__cxx1119basic_ostringstreamIcSt11char_traitsIcESaIcEEEPKcJiSA_iSA_iSA_iSA_iSA_mSA_NS3_12basic_stringIcS6_S7_EEEEEvRT_T0_DpT1_=so_stub_for_libtelux_tel
-Wl,--defsym=_ZN5telux6common3Log16constructMessageINSt7__cxx1119basic_ostringstreamIcSt11char_traitsIcESaIcEEEPKcJiSA_iSA_iSA_iSA_iSA_NS3_12basic_stringIcS6_S7_EESA_SC_EEEvRT_T0_DpT1_=so_stub_for_libtelux_tel
-Wl,--defsym=_ZN5telux6common3Log16constructMessageINSt7__cxx1119basic_ostringstreamIcSt11char_traitsIcESaIcEEEPKcJiSA_iSA_iSA_iSA_iSA_St10shared_ptrINS_3tel20ICardCommandCallbackEEEEEvRT_T0_DpT1_=so_stub_for_libtelux_tel
-Wl,--defsym=_ZN5telux6common3Log16constructMessageINSt7__cxx1119basic_ostringstreamIcSt11char_traitsIcESaIcEEEPKcJiSA_iSA_iSA_iSA_mSA_NS3_12basic_stringIcS6_S7_EEEEEvRT_T0_DpT1_=so_stub_for_libtelux_tel
-Wl,--defsym=_ZN5telux6common3Log16constructMessageINSt7__cxx1119basic_ostringstreamIcSt11char_traitsIcESaIcEEEPKcJiSA_iSA_iSA_iSA_NS3_12basic_stringIcS6_S7_EEEEEvRT_T0_DpT1_=so_stub_for_libtelux_tel
-Wl,--defsym=_ZN5telux6common3Log16constructMessageINSt7__cxx1119basic_ostringstreamIcSt11char_traitsIcESaIcEEEPKcJiSA_iSA_iSA_iSA_NS3_12basic_stringIcS6_S7_EESA_iSA_iEEEvRT_T0_DpT1_=so_stub_for_libtelux_tel
-Wl,--defsym=_ZN5telux6common3Log16constructMessageINSt7__cxx1119basic_ostringstreamIcSt11char_traitsIcESaIcEEEPKcJiSA_iSA_iSA_iSA_NS3_12basic_stringIcS6_S7_EESA_SC_EEEvRT_T0_DpT1_=so_stub_for_libtelux_tel
-Wl,--defsym=_ZN5telux6common3Log16constructMessageINSt7__cxx1119basic_ostringstreamIcSt11char_traitsIcESaIcEEEPKcJiSA_iSA_iSA_iSA_St10shared_ptrINS_3tel20ICardCommandCallbackEEEEEvRT_T0_DpT1_=so_stub_for_libtelux_tel
-Wl,--defsym=_ZN5telux6common3Log16constructMessageINSt7__cxx1119basic_ostringstreamIcSt11char_traitsIcESaIcEEEPKcJiSA_iSA_iSA_mSA_NS3_12basic_stringIcS6_S7_EEEEEvRT_T0_DpT1_=so_stub_for_libtelux_tel
-Wl,--defsym=_ZN5telux6common3Log16constructMessageINSt7__cxx1119basic_ostringstreamIcSt11char_traitsIcESaIcEEEPKcJiSA_iSA_iSA_NS3_12basic_stringIcS6_S7_EEEEEvRT_T0_DpT1_=so_stub_for_libtelux_tel
-Wl,--defsym=_ZN5telux6common3Log16constructMessageINSt7__cxx1119basic_ostringstreamIcSt11char_traitsIcESaIcEEEPKcJiSA_iSA_iSA_NS3_12basic_stringIcS6_S7_EESA_iEEEvRT_T0_DpT1_=so_stub_for_libtelux_tel
-Wl,--defsym=_ZN5telux6common3Log16constructMessageINSt7__cxx1119basic_ostringstreamIcSt11char_traitsIcESaIcEEEPKcJiSA_iSA_iSA_NS3_12basic_stringIcS6_S7_EESA_iSA_iEEEvRT_T0_DpT1_=so_stub_for_libtelux_tel
-Wl,--defsym=_ZN5telux6common3Log16constructMessageINSt7__cxx1119basic_ostringstreamIcSt11char_traitsIcESaIcEEEPKcJiSA_iSA_iSA_NS3_12basic_stringIcS6_S7_EESA_iSA_iSA_iEEEvRT_T0_DpT1_=so_stub_for_libtelux_tel
-Wl,--defsym=_ZN5telux6common3Log16constructMessageINSt7__cxx1119basic_ostringstreamIcSt11char_traitsIcESaIcEEEPKcJiSA_iSA_iSA_NS3_12basic_stringIcS6_S7_EESA_SC_EEEvRT_T0_DpT1_=so_stub_for_libtelux_tel
-Wl,--defsym=_ZN5telux6common3Log16constructMessageINSt7__cxx1119basic_ostringstreamIcSt11char_traitsIcESaIcEEEPKcJiSA_iSA_iSA_St10shared_ptrINS_3tel20ICardCommandCallbackEEEEEvRT_T0_DpT1_=so_stub_for_libtelux_tel
-Wl,--defsym=_ZN5telux6common3Log16constructMessageINSt7__cxx1119basic_ostringstreamIcSt11char_traitsIcESaIcEEEPKcJiSA_iSA_mSA_NS3_12basic_stringIcS6_S7_EEEEEvRT_T0_DpT1_=so_stub_for_libtelux_tel
-Wl,--defsym=_ZN5telux6common3Log16constructMessageINSt7__cxx1119basic_ostringstreamIcSt11char_traitsIcESaIcEEEPKcJiSA_iSA_NS3_12basic_stringIcS6_S7_EEEEEvRT_T0_DpT1_=so_stub_for_libtelux_tel
-Wl,--defsym=_ZN5telux6common3Log16constructMessageINSt7__cxx1119basic_ostringstreamIcSt11char_traitsIcESaIcEEEPKcJiSA_iSA_NS3_12basic_stringIcS6_S7_EESA_iEEEvRT_T0_DpT1_=so_stub_for_libtelux_tel
-Wl,--defsym=_ZN5telux6common3Log16constructMessageINSt7__cxx1119basic_ostringstreamIcSt11char_traitsIcESaIcEEEPKcJiSA_iSA_NS3_12basic_stringIcS6_S7_EESA_iSA_iEEEvRT_T0_DpT1_=so_stub_for_libtelux_tel
-Wl,--defsym=_ZN5telux6common3Log16constructMessageINSt7__cxx1119basic_ostringstreamIcSt11char_traitsIcESaIcEEEPKcJiSA_iSA_NS3_12basic_stringIcS6_S7_EESA_iSA_iSA_iEEEvRT_T0_DpT1_=so_stub_for_libtelux_tel
-Wl,--defsym=_ZN5telux6common3Log16constructMessageINSt7__cxx1119basic_ostringstreamIcSt11char_traitsIcESaIcEEEPKcJiSA_iSA_NS3_12basic_stringIcS6_S7_EESA_iSA_iSA_iSA_iSA_SC_EEEvRT_T0_DpT1_=so_stub_for_libtelux_tel
-Wl,--defsym=_ZN5telux6common3Log16constructMessageINSt7__cxx1119basic_ostringstreamIcSt11char_traitsIcESaIcEEEPKcJiSA_iSA_NS3_12basic_stringIcS6_S7_EESA_iSA_SC_EEEvRT_T0_DpT1_=so_stub_for_libtelux_tel
-Wl,--defsym=_ZN5telux6common3Log16constructMessageINSt7__cxx1119basic_ostringstreamIcSt11char_traitsIcESaIcEEEPKcJiSA_iSA_NS3_12basic_stringIcS6_S7_EESA_SC_EEEvRT_T0_DpT1_=so_stub_for_libtelux_tel
-Wl,--defsym=_ZN5telux6common3Log16constructMessageINSt7__cxx1119basic_ostringstreamIcSt11char_traitsIcESaIcEEEPKcJiSA_iSA_St10shared_ptrINS_3tel20ICardCommandCallbackEEEEEvRT_T0_DpT1_=so_stub_for_libtelux_tel
-Wl,--defsym=_ZN5telux6common3Log16constructMessageINSt7__cxx1119basic_ostringstreamIcSt11char_traitsIcESaIcEEEPKcJiSA_jSA_NS3_12basic_stringIcS6_S7_EESA_bSA_iEEEvRT_T0_DpT1_=so_stub_for_libtelux_tel
-Wl,--defsym=_ZN5telux6common3Log16constructMessageINSt7__cxx1119basic_ostringstreamIcSt11char_traitsIcESaIcEEEPKcJiSA_mSA_NS3_12basic_stringIcS6_S7_EEEEEvRT_T0_DpT1_=so_stub_for_libtelux_tel
-Wl,--defsym=_ZN5telux6common3Log16constructMessageINSt7__cxx1119basic_ostringstreamIcSt11char_traitsIcESaIcEEEPKcJiSA_NS3_12basic_stringIcS6_S7_EEEEEvRT_T0_DpT1_=so_stub_for_libtelux_tel
-Wl,--defsym=_ZN5telux6common3Log16constructMessageINSt7__cxx1119basic_ostringstreamIcSt11char_traitsIcESaIcEEEPKcJiSA_NS3_12basic_stringIcS6_S7_EESA_EEEvRT_T0_DpT1_=so_stub_for_libtelux_tel
-Wl,--defsym=_ZN5telux6common3Log16constructMessageINSt7__cxx1119basic_ostringstreamIcSt11char_traitsIcESaIcEEEPKcJiSA_NS3_12basic_stringIcS6_S7_EESA_iEEEvRT_T0_DpT1_=so_stub_for_libtelux_tel
-Wl,--defsym=_ZN5telux6common3Log16constructMessageINSt7__cxx1119basic_ostringstreamIcSt11char_traitsIcESaIcEEEPKcJiSA_NS3_12basic_stringIcS6_S7_EESA_iSA_bEEEvRT_T0_DpT1_=so_stub_for_libtelux_tel
-Wl,--defsym=_ZN5telux6common3Log16constructMessageINSt7__cxx1119basic_ostringstreamIcSt11char_traitsIcESaIcEEEPKcJiSA_NS3_12basic_stringIcS6_S7_EESA_iSA_iEEEvRT_T0_DpT1_=so_stub_for_libtelux_tel
-Wl,--defsym=_ZN5telux6common3Log16constructMessageINSt7__cxx1119basic_ostringstreamIcSt11char_traitsIcESaIcEEEPKcJiSA_NS3_12basic_stringIcS6_S7_EESA_iSA_iSA_iEEEvRT_T0_DpT1_=so_stub_for_libtelux_tel
-Wl,--defsym=_ZN5telux6common3Log16constructMessageINSt7__cxx1119basic_ostringstreamIcSt11char_traitsIcESaIcEEEPKcJiSA_NS3_12basic_stringIcS6_S7_EESA_iSA_iSA_iSA_iSA_SC_EEEvRT_T0_DpT1_=so_stub_for_libtelux_tel
-Wl,--defsym=_ZN5telux6common3Log16constructMessageINSt7__cxx1119basic_ostringstreamIcSt11char_traitsIcESaIcEEEPKcJiSA_NS3_12basic_stringIcS6_S7_EESA_iSA_SC_EEEvRT_T0_DpT1_=so_stub_for_libtelux_tel
-Wl,--defsym=_ZN5telux6common3Log16constructMessageINSt7__cxx1119basic_ostringstreamIcSt11char_traitsIcESaIcEEEPKcJiSA_NS3_12basic_stringIcS6_S7_EESA_iSA_tEEEvRT_T0_DpT1_=so_stub_for_libtelux_tel
-Wl,--defsym=_ZN5telux6common3Log16constructMessageINSt7__cxx1119basic_ostringstreamIcSt11char_traitsIcESaIcEEEPKcJiSA_NS3_12basic_stringIcS6_S7_EESA_mSA_SC_SA_iEEEvRT_T0_DpT1_=so_stub_for_libtelux_tel
-Wl,--defsym=_ZN5telux6common3Log16constructMessageINSt7__cxx1119basic_ostringstreamIcSt11char_traitsIcESaIcEEEPKcJiSA_NS3_12basic_stringIcS6_S7_EESA_SC_EEEvRT_T0_DpT1_=so_stub_for_libtelux_tel
-Wl,--defsym=_ZN5telux6common3Log16constructMessageINSt7__cxx1119basic_ostringstreamIcSt11char_traitsIcESaIcEEEPKcJiSA_SA_iSA_SA_iSA_SA_iEEEvRT_T0_DpT1_=so_stub_for_libtelux_tel
-Wl,--defsym=_ZN5telux6common3Log16constructMessageINSt7__cxx1119basic_ostringstreamIcSt11char_traitsIcESaIcEEEPKcJiSA_SA_iSA_SA_iSA_SA_iSA_SA_iSA_SA_iSA_SA_iSA_SA_iSA_SA_iSA_SA_iEEEvRT_T0_DpT1_=so_stub_for_libtelux_tel
-Wl,--defsym=_ZN5telux6common3Log16constructMessageINSt7__cxx1119basic_ostringstreamIcSt11char_traitsIcESaIcEEEPKcJiSA_St10shared_ptrINS_3tel20ICardCommandCallbackEEEEEvRT_T0_DpT1_=so_stub_for_libtelux_tel
-Wl,--defsym=_ZN5telux6common3Log16constructMessageINSt7__cxx1119basic_ostringstreamIcSt11char_traitsIcESaIcEEEPKcJiSA_tSA_iSA_EEEvRT_T0_DpT1_=so_stub_for_libtelux_tel
-Wl,--defsym=_ZN5telux6common3Log16constructMessageINSt7__cxx1119basic_ostringstreamIcSt11char_traitsIcESaIcEEEPKcJiSA_tSA_NS3_12basic_stringIcS6_S7_EEEEEvRT_T0_DpT1_=so_stub_for_libtelux_tel
-Wl,--defsym=_ZN5telux6common3Log16constructMessageINSt7__cxx1119basic_ostringstreamIcSt11char_traitsIcESaIcEEEPKcJiSA_tSA_NS3_12basic_stringIcS6_S7_EESA_SC_SA_mEEEvRT_T0_DpT1_=so_stub_for_libtelux_tel
-Wl,--defsym=_ZN5telux6common3Log16constructMessageINSt7__cxx1119basic_ostringstreamIcSt11char_traitsIcESaIcEEEPKcJjSA_NS3_12basic_stringIcS6_S7_EEEEEvRT_T0_DpT1_=so_stub_for_libtelux_tel
-Wl,--defsym=_ZN5telux6common3Log16constructMessageINSt7__cxx1119basic_ostringstreamIcSt11char_traitsIcESaIcEEEPKcJjSA_NS3_12basic_stringIcS6_S7_EESA_bEEEvRT_T0_DpT1_=so_stub_for_libtelux_tel
-Wl,--defsym=_ZN5telux6common3Log16constructMessageINSt7__cxx1119basic_ostringstreamIcSt11char_traitsIcESaIcEEEPKcJjSA_NS3_12basic_stringIcS6_S7_EESA_bSA_iEEEvRT_T0_DpT1_=so_stub_for_libtelux_tel
-Wl,--defsym=_ZN5telux6common3Log16constructMessageINSt7__cxx1119basic_ostringstreamIcSt11char_traitsIcESaIcEEEPKcJmSA_iSA_EEEvRT_T0_DpT1_=so_stub_for_libtelux_tel
-Wl,--defsym=_ZN5telux6common3Log16constructMessageINSt7__cxx1119basic_ostringstreamIcSt11char_traitsIcESaIcEEEPKcJmSA_NS3_12basic_stringIcS6_S7_EEEEEvRT_T0_DpT1_=so_stub_for_libtelux_tel
-Wl,--defsym=_ZN5telux6common3Log16constructMessageINSt7__cxx1119basic_ostringstreamIcSt11char_traitsIcESaIcEEEPKcJmSA_NS3_12basic_stringIcS6_S7_EESA_iEEEvRT_T0_DpT1_=so_stub_for_libtelux_tel
-Wl,--defsym=_ZN5telux6common3Log16constructMessageINSt7__cxx1119basic_ostringstreamIcSt11char_traitsIcESaIcEEEPKcJNS3_12basic_stringIcS6_S7_EEEEEvRT_T0_DpT1_=so_stub_for_libtelux_tel
-Wl,--defsym=_ZN5telux6common3Log16constructMessageINSt7__cxx1119basic_ostringstreamIcSt11char_traitsIcESaIcEEEPKcJNS3_12basic_stringIcS6_S7_EESA_bEEEvRT_T0_DpT1_=so_stub_for_libtelux_tel
-Wl,--defsym=_ZN5telux6common3Log16constructMessageINSt7__cxx1119basic_ostringstreamIcSt11char_traitsIcESaIcEEEPKcJNS3_12basic_stringIcS6_S7_EESA_bSA_iEEEvRT_T0_DpT1_=so_stub_for_libtelux_tel
-Wl,--defsym=_ZN5telux6common3Log16constructMessageINSt7__cxx1119basic_ostringstreamIcSt11char_traitsIcESaIcEEEPKcJNS3_12basic_stringIcS6_S7_EESA_EEEvRT_T0_DpT1_=so_stub_for_libtelux_tel
-Wl,--defsym=_ZN5telux6common3Log16constructMessageINSt7__cxx1119basic_ostringstreamIcSt11char_traitsIcESaIcEEEPKcJNS3_12basic_stringIcS6_S7_EESA_iEEEvRT_T0_DpT1_=so_stub_for_libtelux_tel
-Wl,--defsym=_ZN5telux6common3Log16constructMessageINSt7__cxx1119basic_ostringstreamIcSt11char_traitsIcESaIcEEEPKcJNS3_12basic_stringIcS6_S7_EESA_iSA_bEEEvRT_T0_DpT1_=so_stub_for_libtelux_tel
-Wl,--defsym=_ZN5telux6common3Log16constructMessageINSt7__cxx1119basic_ostringstreamIcSt11char_traitsIcESaIcEEEPKcJNS3_12basic_stringIcS6_S7_EESA_iSA_iEEEvRT_T0_DpT1_=so_stub_for_libtelux_tel
-Wl,--defsym=_ZN5telux6common3Log16constructMessageINSt7__cxx1119basic_ostringstreamIcSt11char_traitsIcESaIcEEEPKcJNS3_12basic_stringIcS6_S7_EESA_iSA_iSA_iEEEvRT_T0_DpT1_=so_stub_for_libtelux_tel
-Wl,--defsym=_ZN5telux6common3Log16constructMessageINSt7__cxx1119basic_ostringstreamIcSt11char_traitsIcESaIcEEEPKcJNS3_12basic_stringIcS6_S7_EESA_iSA_iSA_iSA_iSA_SC_EEEvRT_T0_DpT1_=so_stub_for_libtelux_tel
-Wl,--defsym=_ZN5telux6common3Log16constructMessageINSt7__cxx1119basic_ostringstreamIcSt11char_traitsIcESaIcEEEPKcJNS3_12basic_stringIcS6_S7_EESA_iSA_PSt6vectorISt8functionIFvNS0_13ServiceStatusEEESaISH_EEEEEvRT_T0_DpT1_=so_stub_for_libtelux_tel
-Wl,--defsym=_ZN5telux6common3Log16constructMessageINSt7__cxx1119basic_ostringstreamIcSt11char_traitsIcESaIcEEEPKcJNS3_12basic_stringIcS6_S7_EESA_iSA_SC_EEEvRT_T0_DpT1_=so_stub_for_libtelux_tel
-Wl,--defsym=_ZN5telux6common3Log16constructMessageINSt7__cxx1119basic_ostringstreamIcSt11char_traitsIcESaIcEEEPKcJNS3_12basic_stringIcS6_S7_EESA_iSA_tEEEvRT_T0_DpT1_=so_stub_for_libtelux_tel
-Wl,--defsym=_ZN5telux6common3Log16constructMessageINSt7__cxx1119basic_ostringstreamIcSt11char_traitsIcESaIcEEEPKcJNS3_12basic_stringIcS6_S7_EESA_iSA_tSA_SC_EEEvRT_T0_DpT1_=so_stub_for_libtelux_tel
-Wl,--defsym=_ZN5telux6common3Log16constructMessageINSt7__cxx1119basic_ostringstreamIcSt11char_traitsIcESaIcEEEPKcJNS3_12basic_stringIcS6_S7_EESA_iSA_tSA_SC_SA_SC_SA_mEEEvRT_T0_DpT1_=so_stub_for_libtelux_tel
-Wl,--defsym=_ZN5telux6common3Log16constructMessageINSt7__cxx1119basic_ostringstreamIcSt11char_traitsIcESaIcEEEPKcJNS3_12basic_stringIcS6_S7_EESA_jSA_iEEEvRT_T0_DpT1_=so_stub_for_libtelux_tel
-Wl,--defsym=_ZN5telux6common3Log16constructMessageINSt7__cxx1119basic_ostringstreamIcSt11char_traitsIcESaIcEEEPKcJNS3_12basic_stringIcS6_S7_EESA_mEEEvRT_T0_DpT1_=so_stub_for_libtelux_tel
-Wl,--defsym=_ZN5telux6common3Log16constructMessageINSt7__cxx1119basic_ostringstreamIcSt11char_traitsIcESaIcEEEPKcJNS3_12basic_stringIcS6_S7_EESA_mSA_SC_SA_iEEEvRT_T0_DpT1_=so_stub_for_libtelux_tel
-Wl,--defsym=_ZN5telux6common3Log16constructMessageINSt7__cxx1119basic_ostringstreamIcSt11char_traitsIcESaIcEEEPKcJNS3_12basic_stringIcS6_S7_EESA_PNS_3tel11ISmsManagerESA_jEEEvRT_T0_DpT1_=so_stub_for_libtelux_tel
-Wl,--defsym=_ZN5telux6common3Log16constructMessageINSt7__cxx1119basic_ostringstreamIcSt11char_traitsIcESaIcEEEPKcJNS3_12basic_stringIcS6_S7_EESA_PNS_3tel12ICallManagerESA_jEEEvRT_T0_DpT1_=so_stub_for_libtelux_tel
-Wl,--defsym=_ZN5telux6common3Log16constructMessageINSt7__cxx1119basic_ostringstreamIcSt11char_traitsIcESaIcEEEPKcJNS3_12basic_stringIcS6_S7_EESA_PNS_3tel12ICardManagerESA_jEEEvRT_T0_DpT1_=so_stub_for_libtelux_tel
-Wl,--defsym=_ZN5telux6common3Log16constructMessageINSt7__cxx1119basic_ostringstreamIcSt11char_traitsIcESaIcEEEPKcJNS3_12basic_stringIcS6_S7_EESA_PNS_3tel13IEcallManagerEEEEvRT_T0_DpT1_=so_stub_for_libtelux_tel
-Wl,--defsym=_ZN5telux6common3Log16constructMessageINSt7__cxx1119basic_ostringstreamIcSt11char_traitsIcESaIcEEEPKcJNS3_12basic_stringIcS6_S7_EESA_PNS_3tel13IPhoneManagerESA_jEEEvRT_T0_DpT1_=so_stub_for_libtelux_tel
-Wl,--defsym=_ZN5telux6common3Log16constructMessageINSt7__cxx1119basic_ostringstreamIcSt11char_traitsIcESaIcEEEPKcJNS3_12basic_stringIcS6_S7_EESA_PNS_3tel15ISapCardManagerESA_jEEEvRT_T0_DpT1_=so_stub_for_libtelux_tel
-Wl,--defsym=_ZN5telux6common3Log16constructMessageINSt7__cxx1119basic_ostringstreamIcSt11char_traitsIcESaIcEEEPKcJNS3_12basic_stringIcS6_S7_EESA_PNS_3tel16IMultiSimManagerESA_jEEEvRT_T0_DpT1_=so_stub_for_libtelux_tel
-Wl,--defsym=_ZN5telux6common3Log16constructMessageINSt7__cxx1119basic_ostringstreamIcSt11char_traitsIcESaIcEEEPKcJNS3_12basic_stringIcS6_S7_EESA_PNS_3tel17IRemoteSimManagerESA_jEEEvRT_T0_DpT1_=so_stub_for_libtelux_tel
-Wl,--defsym=_ZN5telux6common3Log16constructMessageINSt7__cxx1119basic_ostringstreamIcSt11char_traitsIcESaIcEEEPKcJNS3_12basic_stringIcS6_S7_EESA_PNS_3tel18ISimProfileManagerESA_jEEEvRT_T0_DpT1_=so_stub_for_libtelux_tel
-Wl,--defsym=_ZN5telux6common3Log16constructMessageINSt7__cxx1119basic_ostringstreamIcSt11char_traitsIcESaIcEEEPKcJNS3_12basic_stringIcS6_S7_EESA_PNS_3tel19IImsSettingsManagerESA_jEEEvRT_T0_DpT1_=so_stub_for_libtelux_tel
-Wl,--defsym=_ZN5telux6common3Log16constructMessageINSt7__cxx1119basic_ostringstreamIcSt11char_traitsIcESaIcEEEPKcJNS3_12basic_stringIcS6_S7_EESA_PNS_3tel20IApSimProfileManagerESA_jEEEvRT_T0_DpT1_=so_stub_for_libtelux_tel
-Wl,--defsym=_ZN5telux6common3Log16constructMessageINSt7__cxx1119basic_ostringstreamIcSt11char_traitsIcESaIcEEEPKcJNS3_12basic_stringIcS6_S7_EESA_PNS_3tel20ISubscriptionManagerESA_jEEEvRT_T0_DpT1_=so_stub_for_libtelux_tel
-Wl,--defsym=_ZN5telux6common3Log16constructMessageINSt7__cxx1119basic_ostringstreamIcSt11char_traitsIcESaIcEEEPKcJNS3_12basic_stringIcS6_S7_EESA_PNS_3tel20ISuppServicesManagerESA_jEEEvRT_T0_DpT1_=so_stub_for_libtelux_tel
-Wl,--defsym=_ZN5telux6common3Log16constructMessageINSt7__cxx1119basic_ostringstreamIcSt11char_traitsIcESaIcEEEPKcJNS3_12basic_stringIcS6_S7_EESA_PNS_3tel21ICellBroadcastManagerESA_jEEEvRT_T0_DpT1_=so_stub_for_libtelux_tel
-Wl,--defsym=_ZN5telux6common3Log16constructMessageINSt7__cxx1119basic_ostringstreamIcSt11char_traitsIcESaIcEEEPKcJNS3_12basic_stringIcS6_S7_EESA_PNS_3tel21IServingSystemManagerESA_jEEEvRT_T0_DpT1_=so_stub_for_libtelux_tel
-Wl,--defsym=_ZN5telux6common3Log16constructMessageINSt7__cxx1119basic_ostringstreamIcSt11char_traitsIcESaIcEEEPKcJNS3_12basic_stringIcS6_S7_EESA_PNS_3tel23IHttpTransactionManagerESA_jEEEvRT_T0_DpT1_=so_stub_for_libtelux_tel
-Wl,--defsym=_ZN5telux6common3Log16constructMessageINSt7__cxx1119basic_ostringstreamIcSt11char_traitsIcESaIcEEEPKcJNS3_12basic_stringIcS6_S7_EESA_PNS_3tel24IImsServingSystemManagerESA_jEEEvRT_T0_DpT1_=so_stub_for_libtelux_tel
-Wl,--defsym=_ZN5telux6common3Log16constructMessageINSt7__cxx1119basic_ostringstreamIcSt11char_traitsIcESaIcEEEPKcJNS3_12basic_stringIcS6_S7_EESA_PNS_3tel24INetworkSelectionManagerESA_jEEEvRT_T0_DpT1_=so_stub_for_libtelux_tel
-Wl,--defsym=_ZN5telux6common3Log16constructMessageINSt7__cxx1119basic_ostringstreamIcSt11char_traitsIcESaIcEEEPKcJNS3_12basic_stringIcS6_S7_EESA_SA_EEEvRT_T0_DpT1_=so_stub_for_libtelux_tel
-Wl,--defsym=_ZN5telux6common3Log16constructMessageINSt7__cxx1119basic_ostringstreamIcSt11char_traitsIcESaIcEEEPKcJNS3_12basic_stringIcS6_S7_EESA_SA_iSA_SA_iSA_SA_iSA_SA_iEEEvRT_T0_DpT1_=so_stub_for_libtelux_tel
-Wl,--defsym=_ZN5telux6common3Log16constructMessageINSt7__cxx1119basic_ostringstreamIcSt11char_traitsIcESaIcEEEPKcJNS3_12basic_stringIcS6_S7_EESA_SA_iSA_SA_iSA_SA_iSA_SA_iSA_SA_iSA_SA_iSA_SA_iEEEvRT_T0_DpT1_=so_stub_for_libtelux_tel
-Wl,--defsym=_ZN5telux6common3Log16constructMessageINSt7__cxx1119basic_ostringstreamIcSt11char_traitsIcESaIcEEEPKcJNS3_12basic_stringIcS6_S7_EESA_SA_iSA_SA_iSA_SA_iSA_SA_iSA_SA_iSA_SA_iSA_SA_iSA_SA_iEEEvRT_T0_DpT1_=so_stub_for_libtelux_tel
-Wl,--defsym=_ZN5telux6common3Log16constructMessageINSt7__cxx1119basic_ostringstreamIcSt11char_traitsIcESaIcEEEPKcJNS3_12basic_stringIcS6_S7_EESA_SA_mSA_SA_jSA_SA_iSA_SA_iSA_SA_iSA_SA_iSA_SA_iEEEvRT_T0_DpT1_=so_stub_for_libtelux_tel
-Wl,--defsym=_ZN5telux6common3Log16constructMessageINSt7__cxx1119basic_ostringstreamIcSt11char_traitsIcESaIcEEEPKcJNS3_12basic_stringIcS6_S7_EESA_SA_SC_SA_SA_iSA_SA_iSA_SA_iSA_SA_iEEEvRT_T0_DpT1_=so_stub_for_libtelux_tel
-Wl,--defsym=_ZN5telux6common3Log16constructMessageINSt7__cxx1119basic_ostringstreamIcSt11char_traitsIcESaIcEEEPKcJNS3_12basic_stringIcS6_S7_EESA_SA_SC_SA_SA_iSA_SA_iSA_SA_iSA_SA_iSA_SA_iSA_SA_iSA_SA_iEEEvRT_T0_DpT1_=so_stub_for_libtelux_tel
-Wl,--defsym=_ZN5telux6common3Log16constructMessageINSt7__cxx1119basic_ostringstreamIcSt11char_traitsIcESaIcEEEPKcJNS3_12basic_stringIcS6_S7_EESA_SA_SC_SA_SA_iSA_SA_iSA_SA_iSA_SA_iSA_SA_iSA_SA_iSA_SA_iSA_SA_iEEEvRT_T0_DpT1_=so_stub_for_libtelux_tel
-Wl,--defsym=_ZN5telux6common3Log16constructMessageINSt7__cxx1119basic_ostringstreamIcSt11char_traitsIcESaIcEEEPKcJNS3_12basic_stringIcS6_S7_EESA_SA_SC_SA_SA_mSA_SA_jSA_SA_iSA_SA_iSA_SA_iSA_SA_iSA_SA_iEEEvRT_T0_DpT1_=so_stub_for_libtelux_tel
-Wl,--defsym=_ZN5telux6common3Log16constructMessageINSt7__cxx1119basic_ostringstreamIcSt11char_traitsIcESaIcEEEPKcJNS3_12basic_stringIcS6_S7_EESA_SC_EEEvRT_T0_DpT1_=so_stub_for_libtelux_tel
-Wl,--defsym=_ZN5telux6common3Log16constructMessageINSt7__cxx1119basic_ostringstreamIcSt11char_traitsIcESaIcEEEPKcJNS3_12basic_stringIcS6_S7_EESA_SC_SA_iEEEvRT_T0_DpT1_=so_stub_for_libtelux_tel
-Wl,--defsym=_ZN5telux6common3Log16constructMessageINSt7__cxx1119basic_ostringstreamIcSt11char_traitsIcESaIcEEEPKcJNS3_12basic_stringIcS6_S7_EESA_SC_SA_iSA_bEEEvRT_T0_DpT1_=so_stub_for_libtelux_tel
-Wl,--defsym=_ZN5telux6common3Log16constructMessageINSt7__cxx1119basic_ostringstreamIcSt11char_traitsIcESaIcEEEPKcJNS3_12basic_stringIcS6_S7_EESA_SC_SA_mEEEvRT_T0_DpT1_=so_stub_for_libtelux_tel
-Wl,--defsym=_ZN5telux6common3Log16constructMessageINSt7__cxx1119basic_ostringstreamIcSt11char_traitsIcESaIcEEEPKcJNS3_12basic_stringIcS6_S7_EESA_SC_SA_SC_SA_iEEEvRT_T0_DpT1_=so_stub_for_libtelux_tel
-Wl,--defsym=_ZN5telux6common3Log16constructMessageINSt7__cxx1119basic_ostringstreamIcSt11char_traitsIcESaIcEEEPKcJNS3_12basic_stringIcS6_S7_EESA_tSA_iSA_SC_EEEvRT_T0_DpT1_=so_stub_for_libtelux_tel
-Wl,--defsym=_ZN5telux6common3Log16constructMessageINSt7__cxx1119basic_ostringstreamIcSt11char_traitsIcESaIcEEEPKcJNS3_12basic_stringIcS6_S7_EESA_tSA_jEEEvRT_T0_DpT1_=so_stub_for_libtelux_tel
-Wl,--defsym=_ZN5telux6common3Log16constructMessageINSt7__cxx1119basic_ostringstreamIcSt11char_traitsIcESaIcEEEPKcJNS3_12basic_stringIcS6_S7_EESA_tSA_mSA_SC_EEEvRT_T0_DpT1_=so_stub_for_libtelux_tel
-Wl,--defsym=_ZN5telux6common3Log16constructMessageINSt7__cxx1119basic_ostringstreamIcSt11char_traitsIcESaIcEEEPKcJNS3_12basic_stringIcS6_S7_EESA_tSA_SC_EEEvRT_T0_DpT1_=so_stub_for_libtelux_tel
-Wl,--defsym=_ZN5telux6common3Log16constructMessageINSt7__cxx1119basic_ostringstreamIcSt11char_traitsIcESaIcEEEPKcJPFRSt8ios_baseSC_ENS3_12basic_stringIcS6_S7_EEEEEvRT_T0_DpT1_=so_stub_for_libtelux_tel
-Wl,--defsym=_ZN5telux6common3Log16constructMessageINSt7__cxx1119basic_ostringstreamIcSt11char_traitsIcESaIcEEEPKcJSA_41uim_profile_download_status_enum_type_v01SA_28uim_download_error_cause_v01SA_iEEEvRT_T0_DpT1_=so_stub_for_libtelux_tel
-Wl,--defsym=_ZN5telux6common3Log16constructMessageINSt7__cxx1119basic_ostringstreamIcSt11char_traitsIcESaIcEEEPKcJSA_6SlotIdSA_iEEEvRT_T0_DpT1_=so_stub_for_libtelux_tel
-Wl,--defsym=_ZN5telux6common3Log16constructMessageINSt7__cxx1119basic_ostringstreamIcSt11char_traitsIcESaIcEEEPKcJSA_6SlotIdSA_iSA_jEEEvRT_T0_DpT1_=so_stub_for_libtelux_tel
-Wl,--defsym=_ZN5telux6common3Log16constructMessageINSt7__cxx1119basic_ostringstreamIcSt11char_traitsIcESaIcEEEPKcJSA_6SlotIdSA_mEEEvRT_T0_DpT1_=so_stub_for_libtelux_tel
-Wl,--defsym=_ZN5telux6common3Log16constructMessageINSt7__cxx1119basic_ostringstreamIcSt11char_traitsIcESaIcEEEPKcJSA_6SlotIdSA_NS3_12basic_stringIcS6_S7_EEEEEvRT_T0_DpT1_=so_stub_for_libtelux_tel
-Wl,--defsym=_ZN5telux6common3Log16constructMessageINSt7__cxx1119basic_ostringstreamIcSt11char_traitsIcESaIcEEEPKcJSA_bSA_25RIL_RadioTechnologyFamilyEEEvRT_T0_DpT1_=so_stub_for_libtelux_tel
-Wl,--defsym=_ZN5telux6common3Log16constructMessageINSt7__cxx1119basic_ostringstreamIcSt11char_traitsIcESaIcEEEPKcJSA_bSA_bEEEvRT_T0_DpT1_=so_stub_for_libtelux_tel
-Wl,--defsym=_ZN5telux6common3Log16constructMessageINSt7__cxx1119basic_ostringstreamIcSt11char_traitsIcESaIcEEEPKcJSA_bSA_iEEEvRT_T0_DpT1_=so_stub_for_libtelux_tel
-Wl,--defsym=_ZN5telux6common3Log16constructMessageINSt7__cxx1119basic_ostringstreamIcSt11char_traitsIcESaIcEEEPKcJSA_bSA_SA_NS3_12basic_stringIcS6_S7_EESA_SA_SC_SA_SA_iSA_SA_iSA_SA_iSA_SA_iSA_SA_iSA_SA_iSA_SA_iEEEvRT_T0_DpT1_=so_stub_for_libtelux_tel
-Wl,--defsym=_ZN5telux6common3Log16constructMessageINSt7__cxx1119basic_ostringstreamIcSt11char_traitsIcESaIcEEEPKcJSA_bSA_SA_NS3_12basic_stringIcS6_S7_EESA_SA_SC_SA_SA_iSA_SA_iSA_SA_iSA_SA_iSA_SA_iSA_SA_iSA_SA_iSA_SA_iEEEvRT_T0_DpT1_=so_stub_for_libtelux_tel
-Wl,--defsym=_ZN5telux6common3Log16constructMessageINSt7__cxx1119basic_ostringstreamIcSt11char_traitsIcESaIcEEEPKcJSA_bSA_SA_NS3_12basic_stringIcS6_S7_EESA_SA_SC_SA_SA_mSA_SA_jSA_SA_iSA_SA_iSA_SA_iSA_SA_iSA_SA_iEEEvRT_T0_DpT1_=so_stub_for_libtelux_tel
-Wl,--defsym=_ZN5telux6common3Log16constructMessageINSt7__cxx1119basic_ostringstreamIcSt11char_traitsIcESaIcEEEPKcJSA_dSA_dEEEvRT_T0_DpT1_=so_stub_for_libtelux_tel
-Wl,--defsym=_ZN5telux6common3Log16constructMessageINSt7__cxx1119basic_ostringstreamIcSt11char_traitsIcESaIcEEEPKcJSA_hSA_jEEEvRT_T0_DpT1_=so_stub_for_libtelux_tel
-Wl,--defsym=_ZN5telux6common3Log16constructMessageINSt7__cxx1119basic_ostringstreamIcSt11char_traitsIcESaIcEEEPKcJSA_iSA_bEEEvRT_T0_DpT1_=so_stub_for_libtelux_tel
-Wl,--defsym=_ZN5telux6common3Log16constructMessageINSt7__cxx1119basic_ostringstreamIcSt11char_traitsIcESaIcEEEPKcJSA_iSA_iEEEvRT_T0_DpT1_=so_stub_for_libtelux_tel
-Wl,--defsym=_ZN5telux6common3Log16constructMessageINSt7__cxx1119basic_ostringstreamIcSt11char_traitsIcESaIcEEEPKcJSA_iSA_iSA_fSA_fEEEvRT_T0_DpT1_=so_stub_for_libtelux_tel
-Wl,--defsym=_ZN5telux6common3Log16constructMessageINSt7__cxx1119basic_ostringstreamIcSt11char_traitsIcESaIcEEEPKcJSA_iSA_iSA_iEEEvRT_T0_DpT1_=so_stub_for_libtelux_tel
-Wl,--defsym=_ZN5telux6common3Log16constructMessageINSt7__cxx1119basic_ostringstreamIcSt11char_traitsIcESaIcEEEPKcJSA_iSA_iSA_iSA_iEEEvRT_T0_DpT1_=so_stub_for_libtelux_tel
-Wl,--defsym=_ZN5telux6common3Log16constructMessageINSt7__cxx1119basic_ostringstreamIcSt11char_traitsIcESaIcEEEPKcJSA_iSA_iSA_iSA_iSA_iEEEvRT_T0_DpT1_=so_stub_for_libtelux_tel
-Wl,--defsym=_ZN5telux6common3Log16constructMessageINSt7__cxx1119basic_ostringstreamIcSt11char_traitsIcESaIcEEEPKcJSA_iSA_iSA_iSA_iSA_iSA_iEEEvRT_T0_DpT1_=so_stub_for_libtelux_tel
-Wl,--defsym=_ZN5telux6common3Log16constructMessageINSt7__cxx1119basic_ostringstreamIcSt11char_traitsIcESaIcEEEPKcJSA_iSA_iSA_iSA_iSA_iSA_NS3_12basic_stringIcS6_S7_EESA_SC_EEEvRT_T0_DpT1_=so_stub_for_libtelux_tel
-Wl,--defsym=_ZN5telux6common3Log16constructMessageINSt7__cxx1119basic_ostringstreamIcSt11char_traitsIcESaIcEEEPKcJSA_iSA_iSA_iSA_NS3_12basic_stringIcS6_S7_EEEEEvRT_T0_DpT1_=so_stub_for_libtelux_tel
-Wl,--defsym=_ZN5telux6common3Log16constructMessageINSt7__cxx1119basic_ostringstreamIcSt11char_traitsIcESaIcEEEPKcJSA_iSA_iSA_iSA_NS3_12basic_stringIcS6_S7_EESA_SC_EEEvRT_T0_DpT1_=so_stub_for_libtelux_tel
-Wl,--defsym=_ZN5telux6common3Log16constructMessageINSt7__cxx1119basic_ostringstreamIcSt11char_traitsIcESaIcEEEPKcJSA_iSA_iSA_mEEEvRT_T0_DpT1_=so_stub_for_libtelux_tel
-Wl,--defsym=_ZN5telux6common3Log16constructMessageINSt7__cxx1119basic_ostringstreamIcSt11char_traitsIcESaIcEEEPKcJSA_iSA_iSA_NS3_12basic_stringIcS6_S7_EEEEEvRT_T0_DpT1_=so_stub_for_libtelux_tel
-Wl,--defsym=_ZN5telux6common3Log16constructMessageINSt7__cxx1119basic_ostringstreamIcSt11char_traitsIcESaIcEEEPKcJSA_iSA_iSA_NS3_12basic_stringIcS6_S7_EESA_iEEEvRT_T0_DpT1_=so_stub_for_libtelux_tel
-Wl,--defsym=_ZN5telux6common3Log16constructMessageINSt7__cxx1119basic_ostringstreamIcSt11char_traitsIcESaIcEEEPKcJSA_iSA_iSA_NS3_12basic_stringIcS6_S7_EESA_iSA_SC_EEEvRT_T0_DpT1_=so_stub_for_libtelux_tel
-Wl,--defsym=_ZN5telux6common3Log16constructMessageINSt7__cxx1119basic_ostringstreamIcSt11char_traitsIcESaIcEEEPKcJSA_iSA_jEEEvRT_T0_DpT1_=so_stub_for_libtelux_tel
-Wl,--defsym=_ZN5telux6common3Log16constructMessageINSt7__cxx1119basic_ostringstreamIcSt11char_traitsIcESaIcEEEPKcJSA_iSA_jSA_iEEEvRT_T0_DpT1_=so_stub_for_libtelux_tel
-Wl,--defsym=_ZN5telux6common3Log16constructMessageINSt7__cxx1119basic_ostringstreamIcSt11char_traitsIcESaIcEEEPKcJSA_iSA_jSA_iSA_iEEEvRT_T0_DpT1_=so_stub_for_libtelux_tel
-Wl,--defsym=_ZN5telux6common3Log16constructMessageINSt7__cxx1119basic_ostringstreamIcSt11char_traitsIcESaIcEEEPKcJSA_iSA_jSA_jSA_jEEEvRT_T0_DpT1_=so_stub_for_libtelux_tel
-Wl,--defsym=_ZN5telux6common3Log16constructMessageINSt7__cxx1119basic_ostringstreamIcSt11char_traitsIcESaIcEEEPKcJSA_iSA_mEEEvRT_T0_DpT1_=so_stub_for_libtelux_tel
-Wl,--defsym=_ZN5telux6common3Log16constructMessageINSt7__cxx1119basic_ostringstreamIcSt11char_traitsIcESaIcEEEPKcJSA_iSA_NS3_12basic_stringIcS6_S7_EEEEEvRT_T0_DpT1_=so_stub_for_libtelux_tel
-Wl,--defsym=_ZN5telux6common3Log16constructMessageINSt7__cxx1119basic_ostringstreamIcSt11char_traitsIcESaIcEEEPKcJSA_iSA_NS3_12basic_stringIcS6_S7_EESA_EEEvRT_T0_DpT1_=so_stub_for_libtelux_tel
-Wl,--defsym=_ZN5telux6common3Log16constructMessageINSt7__cxx1119basic_ostringstreamIcSt11char_traitsIcESaIcEEEPKcJSA_iSA_NS3_12basic_stringIcS6_S7_EESA_iEEEvRT_T0_DpT1_=so_stub_for_libtelux_tel
-Wl,--defsym=_ZN5telux6common3Log16constructMessageINSt7__cxx1119basic_ostringstreamIcSt11char_traitsIcESaIcEEEPKcJSA_iSA_NS3_12basic_stringIcS6_S7_EESA_iSA_bEEEvRT_T0_DpT1_=so_stub_for_libtelux_tel
-Wl,--defsym=_ZN5telux6common3Log16constructMessageINSt7__cxx1119basic_ostringstreamIcSt11char_traitsIcESaIcEEEPKcJSA_iSA_NS3_12basic_stringIcS6_S7_EESA_iSA_SC_EEEvRT_T0_DpT1_=so_stub_for_libtelux_tel
-Wl,--defsym=_ZN5telux6common3Log16constructMessageINSt7__cxx1119basic_ostringstreamIcSt11char_traitsIcESaIcEEEPKcJSA_iSA_NS3_12basic_stringIcS6_S7_EESA_iSA_tEEEvRT_T0_DpT1_=so_stub_for_libtelux_tel
-Wl,--defsym=_ZN5telux6common3Log16constructMessageINSt7__cxx1119basic_ostringstreamIcSt11char_traitsIcESaIcEEEPKcJSA_iSA_NS3_12basic_stringIcS6_S7_EESA_mSA_SC_SA_iEEEvRT_T0_DpT1_=so_stub_for_libtelux_tel
-Wl,--defsym=_ZN5telux6common3Log16constructMessageINSt7__cxx1119basic_ostringstreamIcSt11char_traitsIcESaIcEEEPKcJSA_iSA_PNS3_12basic_stringIcS6_S7_EEEEEvRT_T0_DpT1_=so_stub_for_libtelux_tel
-Wl,--defsym=_ZN5telux6common3Log16constructMessageINSt7__cxx1119basic_ostringstreamIcSt11char_traitsIcESaIcEEEPKcJSA_iSA_PNS_3tel8CardImplESA_lEEEvRT_T0_DpT1_=so_stub_for_libtelux_tel
-Wl,--defsym=_ZN5telux6common3Log16constructMessageINSt7__cxx1119basic_ostringstreamIcSt11char_traitsIcESaIcEEEPKcJSA_iSA_SA_iSA_iSA_hEEEvRT_T0_DpT1_=so_stub_for_libtelux_tel
-Wl,--defsym=_ZN5telux6common3Log16constructMessageINSt7__cxx1119basic_ostringstreamIcSt11char_traitsIcESaIcEEEPKcJSA_iSA_SA_iSA_SA_iSA_SA_iSA_SA_iEEEvRT_T0_DpT1_=so_stub_for_libtelux_tel
-Wl,--defsym=_ZN5telux6common3Log16constructMessageINSt7__cxx1119basic_ostringstreamIcSt11char_traitsIcESaIcEEEPKcJSA_jSA_iEEEvRT_T0_DpT1_=so_stub_for_libtelux_tel
-Wl,--defsym=_ZN5telux6common3Log16constructMessageINSt7__cxx1119basic_ostringstreamIcSt11char_traitsIcESaIcEEEPKcJSA_jSA_iSA_jEEEvRT_T0_DpT1_=so_stub_for_libtelux_tel
-Wl,--defsym=_ZN5telux6common3Log16constructMessageINSt7__cxx1119basic_ostringstreamIcSt11char_traitsIcESaIcEEEPKcJSA_jSA_iSA_jSA_bEEEvRT_T0_DpT1_=so_stub_for_libtelux_tel
-Wl,--defsym=_ZN5telux6common3Log16constructMessageINSt7__cxx1119basic_ostringstreamIcSt11char_traitsIcESaIcEEEPKcJSA_jSA_jEEEvRT_T0_DpT1_=so_stub_for_libtelux_tel
-Wl,--defsym=_ZN5telux6common3Log16constructMessageINSt7__cxx1119basic_ostringstreamIcSt11char_traitsIcESaIcEEEPKcJSA_jSA_jSA_jSA_iEEEvRT_T0_DpT1_=so_stub_for_libtelux_tel
-Wl,--defsym=_ZN5telux6common3Log16constructMessageINSt7__cxx1119basic_ostringstreamIcSt11char_traitsIcESaIcEEEPKcJSA_jSA_jSA_jSA_jSA_iEEEvRT_T0_DpT1_=so_stub_for_libtelux_tel
-Wl,--defsym=_ZN5telux6common3Log16constructMessageINSt7__cxx1119basic_ostringstreamIcSt11char_traitsIcESaIcEEEPKcJSA_jSA_jSA_jSA_jSA_jSA_iSA_jEEEvRT_T0_DpT1_=so_stub_for_libtelux_tel
-Wl,--defsym=_ZN5telux6common3Log16constructMessageINSt7__cxx1119basic_ostringstreamIcSt11char_traitsIcESaIcEEEPKcJSA_jSA_NS3_12basic_stringIcS6_S7_EEEEEvRT_T0_DpT1_=so_stub_for_libtelux_tel
-Wl,--defsym=_ZN5telux6common3Log16constructMessageINSt7__cxx1119basic_ostringstreamIcSt11char_traitsIcESaIcEEEPKcJSA_lSA_iEEEvRT_T0_DpT1_=so_stub_for_libtelux_tel
-Wl,--defsym=_ZN5telux6common3Log16constructMessageINSt7__cxx1119basic_ostringstreamIcSt11char_traitsIcESaIcEEEPKcJSA_lSA_PNS_3tel8CardImplEEEEvRT_T0_DpT1_=so_stub_for_libtelux_tel
-Wl,--defsym=_ZN5telux6common3Log16constructMessageINSt7__cxx1119basic_ostringstreamIcSt11char_traitsIcESaIcEEEPKcJSA_mSA_bSA_iEEEvRT_T0_DpT1_=so_stub_for_libtelux_tel
-Wl,--defsym=_ZN5telux6common3Log16constructMessageINSt7__cxx1119basic_ostringstreamIcSt11char_traitsIcESaIcEEEPKcJSA_mSA_iEEEvRT_T0_DpT1_=so_stub_for_libtelux_tel
-Wl,--defsym=_ZN5telux6common3Log16constructMessageINSt7__cxx1119basic_ostringstreamIcSt11char_traitsIcESaIcEEEPKcJSA_mSA_mEEEvRT_T0_DpT1_=so_stub_for_libtelux_tel
-Wl,--defsym=_ZN5telux6common3Log16constructMessageINSt7__cxx1119basic_ostringstreamIcSt11char_traitsIcESaIcEEEPKcJSA_mSA_NS3_12basic_stringIcS6_S7_EEEEEvRT_T0_DpT1_=so_stub_for_libtelux_tel
-Wl,--defsym=_ZN5telux6common3Log16constructMessageINSt7__cxx1119basic_ostringstreamIcSt11char_traitsIcESaIcEEEPKcJSA_NS3_12basic_stringIcS6_S7_EEEEEvRT_T0_DpT1_=so_stub_for_libtelux_tel
-Wl,--defsym=_ZN5telux6common3Log16constructMessageINSt7__cxx1119basic_ostringstreamIcSt11char_traitsIcESaIcEEEPKcJSA_NS3_12basic_stringIcS6_S7_EESA_EEEvRT_T0_DpT1_=so_stub_for_libtelux_tel
-Wl,--defsym=_ZN5telux6common3Log16constructMessageINSt7__cxx1119basic_ostringstreamIcSt11char_traitsIcESaIcEEEPKcJSA_NS3_12basic_stringIcS6_S7_EESA_iEEEvRT_T0_DpT1_=so_stub_for_libtelux_tel
-Wl,--defsym=_ZN5telux6common3Log16constructMessageINSt7__cxx1119basic_ostringstreamIcSt11char_traitsIcESaIcEEEPKcJSA_NS3_12basic_stringIcS6_S7_EESA_iSA_bEEEvRT_T0_DpT1_=so_stub_for_libtelux_tel
-Wl,--defsym=_ZN5telux6common3Log16constructMessageINSt7__cxx1119basic_ostringstreamIcSt11char_traitsIcESaIcEEEPKcJSA_NS3_12basic_stringIcS6_S7_EESA_iSA_PSt6vectorISt8functionIFvNS0_13ServiceStatusEEESaISH_EEEEEvRT_T0_DpT1_=so_stub_for_libtelux_tel
-Wl,--defsym=_ZN5telux6common3Log16constructMessageINSt7__cxx1119basic_ostringstreamIcSt11char_traitsIcESaIcEEEPKcJSA_NS3_12basic_stringIcS6_S7_EESA_iSA_tSA_SC_EEEvRT_T0_DpT1_=so_stub_for_libtelux_tel
-Wl,--defsym=_ZN5telux6common3Log16constructMessageINSt7__cxx1119basic_ostringstreamIcSt11char_traitsIcESaIcEEEPKcJSA_NS3_12basic_stringIcS6_S7_EESA_iSA_tSA_SC_SA_SC_SA_mEEEvRT_T0_DpT1_=so_stub_for_libtelux_tel
-Wl,--defsym=_ZN5telux6common3Log16constructMessageINSt7__cxx1119basic_ostringstreamIcSt11char_traitsIcESaIcEEEPKcJSA_NS3_12basic_stringIcS6_S7_EESA_mEEEvRT_T0_DpT1_=so_stub_for_libtelux_tel
-Wl,--defsym=_ZN5telux6common3Log16constructMessageINSt7__cxx1119basic_ostringstreamIcSt11char_traitsIcESaIcEEEPKcJSA_NS3_12basic_stringIcS6_S7_EESA_PNS_3tel11ISmsManagerESA_jEEEvRT_T0_DpT1_=so_stub_for_libtelux_tel
-Wl,--defsym=_ZN5telux6common3Log16constructMessageINSt7__cxx1119basic_ostringstreamIcSt11char_traitsIcESaIcEEEPKcJSA_NS3_12basic_stringIcS6_S7_EESA_PNS_3tel12ICallManagerESA_jEEEvRT_T0_DpT1_=so_stub_for_libtelux_tel
-Wl,--defsym=_ZN5telux6common3Log16constructMessageINSt7__cxx1119basic_ostringstreamIcSt11char_traitsIcESaIcEEEPKcJSA_NS3_12basic_stringIcS6_S7_EESA_PNS_3tel12ICardManagerESA_jEEEvRT_T0_DpT1_=so_stub_for_libtelux_tel
-Wl,--defsym=_ZN5telux6common3Log16constructMessageINSt7__cxx1119basic_ostringstreamIcSt11char_traitsIcESaIcEEEPKcJSA_NS3_12basic_stringIcS6_S7_EESA_PNS_3tel13IEcallManagerEEEEvRT_T0_DpT1_=so_stub_for_libtelux_tel
-Wl,--defsym=_ZN5telux6common3Log16constructMessageINSt7__cxx1119basic_ostringstreamIcSt11char_traitsIcESaIcEEEPKcJSA_NS3_12basic_stringIcS6_S7_EESA_PNS_3tel13IPhoneManagerESA_jEEEvRT_T0_DpT1_=so_stub_for_libtelux_tel
-Wl,--defsym=_ZN5telux6common3Log16constructMessageINSt7__cxx1119basic_ostringstreamIcSt11char_traitsIcESaIcEEEPKcJSA_NS3_12basic_stringIcS6_S7_EESA_PNS_3tel15ISapCardManagerESA_jEEEvRT_T0_DpT1_=so_stub_for_libtelux_tel
-Wl,--defsym=_ZN5telux6common3Log16constructMessageINSt7__cxx1119basic_ostringstreamIcSt11char_traitsIcESaIcEEEPKcJSA_NS3_12basic_stringIcS6_S7_EESA_PNS_3tel16IMultiSimManagerESA_jEEEvRT_T0_DpT1_=so_stub_for_libtelux_tel
-Wl,--defsym=_ZN5telux6common3Log16constructMessageINSt7__cxx1119basic_ostringstreamIcSt11char_traitsIcESaIcEEEPKcJSA_NS3_12basic_stringIcS6_S7_EESA_PNS_3tel17IRemoteSimManagerESA_jEEEvRT_T0_DpT1_=so_stub_for_libtelux_tel
-Wl,--defsym=_ZN5telux6common3Log16constructMessageINSt7__cxx1119basic_ostringstreamIcSt11char_traitsIcESaIcEEEPKcJSA_NS3_12basic_stringIcS6_S7_EESA_PNS_3tel18ISimProfileManagerESA_jEEEvRT_T0_DpT1_=so_stub_for_libtelux_tel
-Wl,--defsym=_ZN5telux6common3Log16constructMessageINSt7__cxx1119basic_ostringstreamIcSt11char_traitsIcESaIcEEEPKcJSA_NS3_12basic_stringIcS6_S7_EESA_PNS_3tel19IImsSettingsManagerESA_jEEEvRT_T0_DpT1_=so_stub_for_libtelux_tel
-Wl,--defsym=_ZN5telux6common3Log16constructMessageINSt7__cxx1119basic_ostringstreamIcSt11char_traitsIcESaIcEEEPKcJSA_NS3_12basic_stringIcS6_S7_EESA_PNS_3tel20IApSimProfileManagerESA_jEEEvRT_T0_DpT1_=so_stub_for_libtelux_tel
-Wl,--defsym=_ZN5telux6common3Log16constructMessageINSt7__cxx1119basic_ostringstreamIcSt11char_traitsIcESaIcEEEPKcJSA_NS3_12basic_stringIcS6_S7_EESA_PNS_3tel20ISubscriptionManagerESA_jEEEvRT_T0_DpT1_=so_stub_for_libtelux_tel
-Wl,--defsym=_ZN5telux6common3Log16constructMessageINSt7__cxx1119basic_ostringstreamIcSt11char_traitsIcESaIcEEEPKcJSA_NS3_12basic_stringIcS6_S7_EESA_PNS_3tel20ISuppServicesManagerESA_jEEEvRT_T0_DpT1_=so_stub_for_libtelux_tel
-Wl,--defsym=_ZN5telux6common3Log16constructMessageINSt7__cxx1119basic_ostringstreamIcSt11char_traitsIcESaIcEEEPKcJSA_NS3_12basic_stringIcS6_S7_EESA_PNS_3tel21ICellBroadcastManagerESA_jEEEvRT_T0_DpT1_=so_stub_for_libtelux_tel
-Wl,--defsym=_ZN5telux6common3Log16constructMessageINSt7__cxx1119basic_ostringstreamIcSt11char_traitsIcESaIcEEEPKcJSA_NS3_12basic_stringIcS6_S7_EESA_PNS_3tel21IServingSystemManagerESA_jEEEvRT_T0_DpT1_=so_stub_for_libtelux_tel
-Wl,--defsym=_ZN5telux6common3Log16constructMessageINSt7__cxx1119basic_ostringstreamIcSt11char_traitsIcESaIcEEEPKcJSA_NS3_12basic_stringIcS6_S7_EESA_PNS_3tel23IHttpTransactionManagerESA_jEEEvRT_T0_DpT1_=so_stub_for_libtelux_tel
-Wl,--defsym=_ZN5telux6common3Log16constructMessageINSt7__cxx1119basic_ostringstreamIcSt11char_traitsIcESaIcEEEPKcJSA_NS3_12basic_stringIcS6_S7_EESA_PNS_3tel24IImsServingSystemManagerESA_jEEEvRT_T0_DpT1_=so_stub_for_libtelux_tel
-Wl,--defsym=_ZN5telux6common3Log16constructMessageINSt7__cxx1119basic_ostringstreamIcSt11char_traitsIcESaIcEEEPKcJSA_NS3_12basic_stringIcS6_S7_EESA_PNS_3tel24INetworkSelectionManagerESA_jEEEvRT_T0_DpT1_=so_stub_for_libtelux_tel
-Wl,--defsym=_ZN5telux6common3Log16constructMessageINSt7__cxx1119basic_ostringstreamIcSt11char_traitsIcESaIcEEEPKcJSA_NS3_12basic_stringIcS6_S7_EESA_SA_EEEvRT_T0_DpT1_=so_stub_for_libtelux_tel
-Wl,--defsym=_ZN5telux6common3Log16constructMessageINSt7__cxx1119basic_ostringstreamIcSt11char_traitsIcESaIcEEEPKcJSA_NS3_12basic_stringIcS6_S7_EESA_SA_iSA_SA_iSA_SA_iSA_SA_iSA_SA_iSA_SA_iSA_SA_iSA_SA_iSA_SA_iSA_SA_iEEEvRT_T0_DpT1_=so_stub_for_libtelux_tel
-Wl,--defsym=_ZN5telux6common3Log16constructMessageINSt7__cxx1119basic_ostringstreamIcSt11char_traitsIcESaIcEEEPKcJSA_NS3_12basic_stringIcS6_S7_EESA_SA_SC_SA_SA_iSA_SA_iSA_SA_iSA_SA_iEEEvRT_T0_DpT1_=so_stub_for_libtelux_tel
-Wl,--defsym=_ZN5telux6common3Log16constructMessageINSt7__cxx1119basic_ostringstreamIcSt11char_traitsIcESaIcEEEPKcJSA_NS3_12basic_stringIcS6_S7_EESA_SA_SC_SA_SA_iSA_SA_iSA_SA_iSA_SA_iSA_SA_iSA_SA_iSA_SA_iSA_SA_iSA_SA_iSA_SA_iEEEvRT_T0_DpT1_=so_stub_for_libtelux_tel
-Wl,--defsym=_ZN5telux6common3Log16constructMessageINSt7__cxx1119basic_ostringstreamIcSt11char_traitsIcESaIcEEEPKcJSA_NS3_12basic_stringIcS6_S7_EESA_SC_EEEvRT_T0_DpT1_=so_stub_for_libtelux_tel
-Wl,--defsym=_ZN5telux6common3Log16constructMessageINSt7__cxx1119basic_ostringstreamIcSt11char_traitsIcESaIcEEEPKcJSA_NS3_12basic_stringIcS6_S7_EESA_SC_SA_SC_SA_iEEEvRT_T0_DpT1_=so_stub_for_libtelux_tel
-Wl,--defsym=_ZN5telux6common3Log16constructMessageINSt7__cxx1119basic_ostringstreamIcSt11char_traitsIcESaIcEEEPKcJSA_NS3_12basic_stringIcS6_S7_EESA_tSA_iSA_SC_EEEvRT_T0_DpT1_=so_stub_for_libtelux_tel
-Wl,--defsym=_ZN5telux6common3Log16constructMessageINSt7__cxx1119basic_ostringstreamIcSt11char_traitsIcESaIcEEEPKcJSA_NS3_12basic_stringIcS6_S7_EESA_tSA_jEEEvRT_T0_DpT1_=so_stub_for_libtelux_tel
-Wl,--defsym=_ZN5telux6common3Log16constructMessageINSt7__cxx1119basic_ostringstreamIcSt11char_traitsIcESaIcEEEPKcJSA_NS3_12basic_stringIcS6_S7_EESA_tSA_mSA_SC_EEEvRT_T0_DpT1_=so_stub_for_libtelux_tel
-Wl,--defsym=_ZN5telux6common3Log16constructMessageINSt7__cxx1119basic_ostringstreamIcSt11char_traitsIcESaIcEEEPKcJSA_NS3_12basic_stringIcS6_S7_EESA_tSA_SC_EEEvRT_T0_DpT1_=so_stub_for_libtelux_tel
-Wl,--defsym=_ZN5telux6common3Log16constructMessageINSt7__cxx1119basic_ostringstreamIcSt11char_traitsIcESaIcEEEPKcJSA_PcSA_iEEEvRT_T0_DpT1_=so_stub_for_libtelux_tel
-Wl,--defsym=_ZN5telux6common3Log16constructMessageINSt7__cxx1119basic_ostringstreamIcSt11char_traitsIcESaIcEEEPKcJSA_PFRSt8ios_baseSC_ENS3_12basic_stringIcS6_S7_EEEEEvRT_T0_DpT1_=so_stub_for_libtelux_tel
-Wl,--defsym=_ZN5telux6common3Log16constructMessageINSt7__cxx1119basic_ostringstreamIcSt11char_traitsIcESaIcEEEPKcJSA_SA_bSA_SA_NS3_12basic_stringIcS6_S7_EESA_SA_SC_SA_SA_iSA_SA_iSA_SA_iSA_SA_iEEEvRT_T0_DpT1_=so_stub_for_libtelux_tel
-Wl,--defsym=_ZN5telux6common3Log16constructMessageINSt7__cxx1119basic_ostringstreamIcSt11char_traitsIcESaIcEEEPKcJSA_SA_bSA_SA_NS3_12basic_stringIcS6_S7_EESA_SA_SC_SA_SA_iSA_SA_iSA_SA_iSA_SA_iSA_SA_iSA_SA_iSA_SA_iEEEvRT_T0_DpT1_=so_stub_for_libtelux_tel
-Wl,--defsym=_ZN5telux6common3Log16constructMessageINSt7__cxx1119basic_ostringstreamIcSt11char_traitsIcESaIcEEEPKcJSA_SA_iSA_NS3_12basic_stringIcS6_S7_EEEEEvRT_T0_DpT1_=so_stub_for_libtelux_tel
-Wl,--defsym=_ZN5telux6common3Log16constructMessageINSt7__cxx1119basic_ostringstreamIcSt11char_traitsIcESaIcEEEPKcJSA_SA_SA_bSA_SA_NS3_12basic_stringIcS6_S7_EESA_SA_SC_SA_SA_mSA_SA_jSA_SA_iSA_SA_iSA_SA_iSA_SA_iSA_SA_iEEEvRT_T0_DpT1_=so_stub_for_libtelux_tel
-Wl,--defsym=_ZN5telux6common3Log16constructMessageINSt7__cxx1119basic_ostringstreamIcSt11char_traitsIcESaIcEEEPKcJSA_SA_SA_PSt6vectorISt8functionIFvNS0_13ServiceStatusEEESaISF_EEEEEvRT_T0_DpT1_=so_stub_for_libtelux_tel
-Wl,--defsym=_ZN5telux6common3Log16constructMessageINSt7__cxx1119basic_ostringstreamIcSt11char_traitsIcESaIcEEEPKcJSA_tSA_iSA_NS3_12basic_stringIcS6_S7_EEEEEvRT_T0_DpT1_=so_stub_for_libtelux_tel
-Wl,--defsym=_ZN5telux6common3Log16constructMessageINSt7__cxx1119basic_ostringstreamIcSt11char_traitsIcESaIcEEEPKcJSA_tSA_NS3_12basic_stringIcS6_S7_EESA_EEEvRT_T0_DpT1_=so_stub_for_libtelux_tel
-Wl,--defsym=_ZN5telux6common3Log16constructMessageINSt7__cxx1119basic_ostringstreamIcSt11char_traitsIcESaIcEEEPKcJSA_tSA_tEEEvRT_T0_DpT1_=so_stub_for_libtelux_tel
-Wl,--defsym=_ZN5telux6common3Log16constructMessageINSt7__cxx1119basic_ostringstreamIcSt11char_traitsIcESaIcEEEPKcJSA_tSA_tSA_NS3_12basic_stringIcS6_S7_EEEEEvRT_T0_DpT1_=so_stub_for_libtelux_tel
-Wl,--defsym=_ZN5telux6common3Log16constructMessageINSt7__cxx1119basic_ostringstreamIcSt11char_traitsIcESaIcEEEPKcJSt10shared_ptrINS0_16ICommandCallbackEEEEEvRT_T0_DpT1_=so_stub_for_libtelux_tel
-Wl,--defsym=_ZN5telux6common3Log16constructMessageINSt7__cxx1119basic_ostringstreamIcSt11char_traitsIcESaIcEEEPKcJSt10shared_ptrINS_3tel11CardAppImplEEEEEvRT_T0_DpT1_=so_stub_for_libtelux_tel
-Wl,--defsym=_ZN5telux6common3Log16constructMessageINSt7__cxx1119basic_ostringstreamIcSt11char_traitsIcESaIcEEEPKcJSt10shared_ptrINS_3tel13ICallListenerEEEEEvRT_T0_DpT1_=so_stub_for_libtelux_tel
-Wl,--defsym=_ZN5telux6common3Log16constructMessageINSt7__cxx1119basic_ostringstreamIcSt11char_traitsIcESaIcEEEPKcJSt10shared_ptrINS_3tel20ICardCommandCallbackEEEEEvRT_T0_DpT1_=so_stub_for_libtelux_tel
-Wl,--defsym=_ZN5telux6common3Log16constructMessageINSt7__cxx1119basic_ostringstreamIcSt11char_traitsIcESaIcEEEPKcJSt10shared_ptrINS_3tel4CallEEEEEvRT_T0_DpT1_=so_stub_for_libtelux_tel
-Wl,--defsym=_ZN5telux6common3Log16constructMessageINSt7__cxx1119basic_ostringstreamIcSt11char_traitsIcESaIcEEEPKcJSt10shared_ptrINS_3tel4CallEESA_EEEvRT_T0_DpT1_=so_stub_for_libtelux_tel
-Wl,--defsym=_ZN5telux6common3Log16constructMessageINSt7__cxx1119basic_ostringstreamIcSt11char_traitsIcESaIcEEEPKcJtSA_iSA_EEEvRT_T0_DpT1_=so_stub_for_libtelux_tel
-Wl,--defsym=_ZN5telux6common3Log16constructMessageINSt7__cxx1119basic_ostringstreamIcSt11char_traitsIcESaIcEEEPKcJtSA_iSA_NS3_12basic_stringIcS6_S7_EEEEEvRT_T0_DpT1_=so_stub_for_libtelux_tel
-Wl,--defsym=_ZN5telux6common3Log16constructMessageINSt7__cxx1119basic_ostringstreamIcSt11char_traitsIcESaIcEEEPKcJtSA_mSA_NS3_12basic_stringIcS6_S7_EEEEEvRT_T0_DpT1_=so_stub_for_libtelux_tel
-Wl,--defsym=_ZN5telux6common3Log16constructMessageINSt7__cxx1119basic_ostringstreamIcSt11char_traitsIcESaIcEEEPKcJtSA_NS3_12basic_stringIcS6_S7_EEEEEvRT_T0_DpT1_=so_stub_for_libtelux_tel
-Wl,--defsym=_ZN5telux6common3Log16constructMessageINSt7__cxx1119basic_ostringstreamIcSt11char_traitsIcESaIcEEEPKcJtSA_NS3_12basic_stringIcS6_S7_EESA_EEEvRT_T0_DpT1_=so_stub_for_libtelux_tel
-Wl,--defsym=_ZN5telux6common3Log16constructMessageINSt7__cxx1119basic_ostringstreamIcSt11char_traitsIcESaIcEEEPKcJtSA_NS3_12basic_stringIcS6_S7_EESA_SC_SA_mEEEvRT_T0_DpT1_=so_stub_for_libtelux_tel
-Wl,--defsym=_ZN5telux6common3Log16constructMessageINSt7__cxx1119basic_ostringstreamIcSt11char_traitsIcESaIcEEEPKcJtSA_tSA_NS3_12basic_stringIcS6_S7_EEEEEvRT_T0_DpT1_=so_stub_for_libtelux_tel
-Wl,--defsym=_ZN5telux6common3Log16constructMessageINSt7__cxx1119basic_ostringstreamIcSt11char_traitsIcESaIcEEEtJPKciSA_NS3_12basic_stringIcS6_S7_EEEEEvRT_T0_DpT1_=so_stub_for_libtelux_tel
-Wl,--defsym=_ZN5telux6common3Log16constructMessageINSt7__cxx1119basic_ostringstreamIcSt11char_traitsIcESaIcEEEtJPKcmSA_NS3_12basic_stringIcS6_S7_EEEEEvRT_T0_DpT1_=so_stub_for_libtelux_tel
-Wl,--defsym=_ZN5telux6common3Log16constructMessageINSt7__cxx1119basic_ostringstreamIcSt11char_traitsIcESaIcEEEtJPKcNS3_12basic_stringIcS6_S7_EEEEEvRT_T0_DpT1_=so_stub_for_libtelux_tel
-Wl,--defsym=_ZN5telux6common3Log16constructMessageINSt7__cxx1119basic_ostringstreamIcSt11char_traitsIcESaIcEEEtJPKcNS3_12basic_stringIcS6_S7_EESA_EEEvRT_T0_DpT1_=so_stub_for_libtelux_tel
-Wl,--defsym=_ZN5telux6common3Log16constructMessageINSt7__cxx1119basic_ostringstreamIcSt11char_traitsIcESaIcEEEtJPKcNS3_12basic_stringIcS6_S7_EESA_SC_SA_mEEEvRT_T0_DpT1_=so_stub_for_libtelux_tel
-Wl,--defsym=_ZN5telux6common3Log16constructMessageINSt7__cxx1119basic_ostringstreamIcSt11char_traitsIcESaIcEEEtJPKctSA_NS3_12basic_stringIcS6_S7_EEEEEvRT_T0_DpT1_=so_stub_for_libtelux_tel
-Wl,--defsym=_ZN5telux6common6Result6createEiPvmiSt10shared_ptrINS0_16ICommandCallbackEEi=so_stub_for_libtelux_tel
-Wl,--defsym=_ZN9__gnu_cxx13new_allocatorIN5telux3tel11LteCellInfoEE9constructIS3_JRiRNS2_15LteCellIdentityERNS2_21LteSignalStrengthInfoEEEEvPT_DpOT0_=so_stub_for_libtelux_tel
-Wl,--defsym=_ZN9__gnu_cxx13new_allocatorIN5telux3tel14SignalStrengthEE9constructIS3_JDnDnDnDnDnDnDnEEEvPT_DpOT0_=so_stub_for_libtelux_tel
-Wl,--defsym=_ZN9__gnu_cxx13new_allocatorIN5telux3tel14SignalStrengthEE9constructIS3_JDnDnDnDnRSt10shared_ptrINS2_25TdscdmaSignalStrengthInfoEEDnDnEEEvPT_DpOT0_=so_stub_for_libtelux_tel
-Wl,--defsym=_ZN9__gnu_cxx13new_allocatorIN5telux3tel14SignalStrengthEE9constructIS3_JDnDnDnRSt10shared_ptrINS2_23WcdmaSignalStrengthInfoEEDnDnDnEEEvPT_DpOT0_=so_stub_for_libtelux_tel
-Wl,--defsym=_ZN9__gnu_cxx13new_allocatorIN5telux3tel14SignalStrengthEE9constructIS3_JDnDnRSt10shared_ptrINS2_22CdmaSignalStrengthInfoEEDnDnDnDnEEEvPT_DpOT0_=so_stub_for_libtelux_tel
-Wl,--defsym=_ZN9__gnu_cxx13new_allocatorIN5telux3tel14SignalStrengthEE9constructIS3_JDnRSt10shared_ptrINS2_21GsmSignalStrengthInfoEEDnDnDnDnDnEEEvPT_DpOT0_=so_stub_for_libtelux_tel
-Wl,--defsym=_ZN9__gnu_cxx13new_allocatorIN5telux3tel14SignalStrengthEE9constructIS3_JRSt10shared_ptrINS2_21LteSignalStrengthInfoEEDnDnDnDnDnDnEEEvPT_DpOT0_=so_stub_for_libtelux_tel
-Wl,--defsym=_ZN9__gnu_cxx13new_allocatorIN5telux3tel14SignalStrengthEE9constructIS3_JRSt10shared_ptrINS2_21LteSignalStrengthInfoEERS6_INS2_21GsmSignalStrengthInfoEERS6_INS2_22CdmaSignalStrengthInfoEERS6_INS2_23WcdmaSignalStrengthInfoEERS6_INS2_25TdscdmaSignalStrengthInfoEERS6_INS2_22Nr5gSignalStrengthInfoEERS6_INS2_24Nb1NtnSignalStrengthInfoEEEEEvPT_DpOT0_=so_stub_for_libtelux_tel
-Wl,--defsym=_ZN9__gnu_cxx13new_allocatorIN5telux3tel20CellBroadcastMessageEE9constructIS3_JRSt10shared_ptrINS2_8CmasInfoEEEEEvPT_DpOT0_=so_stub_for_libtelux_tel
-Wl,--defsym=_ZN9__gnu_cxx13new_allocatorIN5telux3tel20CellBroadcastMessageEE9constructIS3_JRSt10shared_ptrINS2_8EtwsInfoEEEEEvPT_DpOT0_=so_stub_for_libtelux_tel
-Wl,--defsym=_ZN9__gnu_cxx13new_allocatorIN5telux3tel3ril6SocketEE9constructIS4_JRA5_KcSt10shared_ptrINS3_3Ril14SocketListenerEEEEEvPT_DpOT0_=so_stub_for_libtelux_tel
-Wl,--defsym=_ZN9__gnu_cxx13new_allocatorIN5telux3tel3ril6SocketEE9constructIS4_JRA6_KcSt10shared_ptrINS3_3Ril14SocketListenerEEEEEvPT_DpOT0_=so_stub_for_libtelux_tel
-Wl,--defsym=_ZN9__gnu_cxx13new_allocatorIN5telux3tel3ril7RequestEE9constructIS4_JiRSt10shared_ptrINS1_6common15ResponseHandlerEEEEEvPT_DpOT0_=so_stub_for_libtelux_tel
-Wl,--defsym=_ZN9__gnu_cxx13new_allocatorIN5telux3tel3ril7RequestEE9constructIS4_JiRSt10shared_ptrINS1_6common15ResponseHandlerEEiDnDnRiEEEvPT_DpOT0_=so_stub_for_libtelux_tel
-Wl,--defsym=_ZN9__gnu_cxx13new_allocatorIN5telux3tel3ril7RequestEE9constructIS4_JiRSt10shared_ptrINS1_6common15ResponseHandlerEERiDnDnSC_bEEEvPT_DpOT0_=so_stub_for_libtelux_tel
-Wl,--defsym=_ZN9__gnu_cxx13new_allocatorIN5telux3tel3ril7RequestEE9constructIS4_JiRSt10shared_ptrINS1_6common15ResponseHandlerEERiDnDnSC_EEEvPT_DpOT0_=so_stub_for_libtelux_tel
-Wl,--defsym=_ZN9__gnu_cxx13new_allocatorIN5telux3tel3ril7RequestEE9constructIS4_JiRSt10shared_ptrINS1_6common15ResponseHandlerEERiRS7_INS8_16ICommandCallbackEEDnSC_bEEEvPT_DpOT0_=so_stub_for_libtelux_tel
-Wl,--defsym=_ZN9__gnu_cxx13new_allocatorIN5telux3tel3ril7RequestEE9constructIS4_JiRSt10shared_ptrINS1_6common15ResponseHandlerEERiRS7_INS8_16ICommandCallbackEEDnSC_EEEvPT_DpOT0_=so_stub_for_libtelux_tel
-Wl,--defsym=_ZN9__gnu_cxx13new_allocatorIN5telux3tel3ril7RequestEE9constructIS4_JiRSt10shared_ptrINS1_6common15ResponseHandlerEERiRS7_INS8_16ICommandCallbackEEEEEvPT_DpOT0_=so_stub_for_libtelux_tel
-Wl,--defsym=_ZN9__gnu_cxx13new_allocatorIN5telux3tel3ril7RequestEE9constructIS4_JiRSt10shared_ptrINS1_6common15ResponseHandlerEERiRS7_INS8_16ICommandCallbackEERPvSC_EEEvPT_DpOT0_=so_stub_for_libtelux_tel
-Wl,--defsym=_ZN9__gnu_cxx13new_allocatorIN5telux3tel3ril8ResponseEE9constructIS4_JRiRSt10shared_ptrI6ParcelEEEEvPT_DpOT0_=so_stub_for_libtelux_tel
-Wl,--defsym=_ZN9__gnu_cxx13new_allocatorIN5telux3tel7PolygonEE9constructIS3_JRSt6vectorINS2_5PointESaIS7_EEEEEvPT_DpOT0_=so_stub_for_libtelux_tel
-Wl,--defsym=_ZN9__gnu_cxx13new_allocatorIN5telux3tel8CmasInfoEE9constructIS3_JNS2_17GeographicalScopeERjS7_RNSt7__cxx1112basic_stringIcSt11char_traitsIcESaIcEEESE_RNS2_15MessagePriorityENS2_16CmasMessageClassENS2_12CmasSeverityENS2_11CmasUrgencyENS2_13CmasCertaintyERSt10shared_ptrINS2_15WarningAreaInfoEEEEEvPT_DpOT0_=so_stub_for_libtelux_tel
-Wl,--defsym=_ZN9__gnu_cxx13new_allocatorIN5telux3tel8EtwsInfoEE9constructIS3_JNS2_17GeographicalScopeERjS7_RNSt7__cxx1112basic_stringIcSt11char_traitsIcESaIcEEESE_RNS2_15MessagePriorityENS2_15EtwsWarningTypeEbbbRSt6vectorIhSaIhEEEEEvPT_DpOT0_=so_stub_for_libtelux_tel
-Wl,--defsym=_ZN9__gnu_cxx13new_allocatorIN5telux3tel8EtwsInfoEE9constructIS3_JRNS2_17GeographicalScopeERjS8_RA1_KcNSt7__cxx1112basic_stringIcSt11char_traitsIcESaIcEEENS2_15MessagePriorityERNS2_15EtwsWarningTypeERbSL_bRSt6vectorIhSaIhEEEEEvPT_DpOT0_=so_stub_for_libtelux_tel
-Wl,--defsym=_ZN9__gnu_cxx5__ops10_Iter_predIZN5telux6common15ListenerManager16registerListenerESt8weak_ptrINS3_12ISDKListenerEEEUlS7_E_EclINS_17__normal_iteratorIPS7_St6vectorIS7_SaIS7_EEEEEEbT_=so_stub_for_libtelux_tel
-Wl,--defsym=_ZN9__gnu_cxx6__stoaIlicJiEEET0_PFT_PKT1_PPS3_DpT2_EPKcS5_PmS9_=so_stub_for_libtelux_tel
-Wl,--defsym=_ZN9__gnu_cxx6__stoaImmcJiEEET0_PFT_PKT1_PPS3_DpT2_EPKcS5_PmS9_=so_stub_for_libtelux_tel
-Wl,--defsym=_ZNK17CmasCellbroadcast4dumpB5cxx11Ev=so_stub_for_libtelux_tel
-Wl,--defsym=_ZNK20GsmCmasCellbroadcast12getPageCountEv=so_stub_for_libtelux_tel
-Wl,--defsym=_ZNK20GsmCmasCellbroadcast12getPageIndexEv=so_stub_for_libtelux_tel
-Wl,--defsym=_ZNK20GsmCmasCellbroadcast12getRawBufferEv=so_stub_for_libtelux_tel
-Wl,--defsym=_ZNK20GsmCmasCellbroadcast15getSerialNumberEv=so_stub_for_libtelux_tel
-Wl,--defsym=_ZNK20GsmCmasCellbroadcast20getGeographicalScopeEv=so_stub_for_libtelux_tel
-Wl,--defsym=_ZNK20GsmCmasCellbroadcast20getMessageIdentifierEv=so_stub_for_libtelux_tel
-Wl,--defsym=_ZNK20GsmCmasCellbroadcast24getWarningAreaCoordinateEv=so_stub_for_libtelux_tel
-Wl,--defsym=_ZNK20GsmCmasCellbroadcast4dumpB5cxx11Ev=so_stub_for_libtelux_tel
-Wl,--defsym=_ZNK20GsmCmasCellbroadcast6getDcsEv=so_stub_for_libtelux_tel
-Wl,--defsym=_ZNK20GsmCmasCellbroadcast9getCbdataEv=so_stub_for_libtelux_tel
-Wl,--defsym=_ZNK21UmtsCmasCellbroadcast12getPageCountEv=so_stub_for_libtelux_tel
-Wl,--defsym=_ZNK21UmtsCmasCellbroadcast12getPageIndexEv=so_stub_for_libtelux_tel
-Wl,--defsym=_ZNK21UmtsCmasCellbroadcast12getRawBufferEv=so_stub_for_libtelux_tel
-Wl,--defsym=_ZNK21UmtsCmasCellbroadcast15getSerialNumberEv=so_stub_for_libtelux_tel
-Wl,--defsym=_ZNK21UmtsCmasCellbroadcast20getGeographicalScopeEv=so_stub_for_libtelux_tel
-Wl,--defsym=_ZNK21UmtsCmasCellbroadcast20getMessageIdentifierEv=so_stub_for_libtelux_tel
-Wl,--defsym=_ZNK21UmtsCmasCellbroadcast24getWarningAreaCoordinateEv=so_stub_for_libtelux_tel
-Wl,--defsym=_ZNK21UmtsCmasCellbroadcast4dumpB5cxx11Ev=so_stub_for_libtelux_tel
-Wl,--defsym=_ZNK21UmtsCmasCellbroadcast6getDcsEv=so_stub_for_libtelux_tel
-Wl,--defsym=_ZNK21UmtsCmasCellbroadcast9getCbdataEv=so_stub_for_libtelux_tel
-Wl,--defsym=_ZNK36MultipartGsmCmasCellbroadcastHandler20translateToGsmFormatERKSt8functionIFb9RadioTechRK17CmasCellbroadcastEESt10shared_ptrI25MultipartCellBroadcastMsgE=so_stub_for_libtelux_tel
-Wl,--defsym=_ZNK36MultipartGsmCmasCellbroadcastHandler22translateToWcdmaFormatERKSt8functionIFb9RadioTechRK17CmasCellbroadcastEESt10shared_ptrI25MultipartCellBroadcastMsgE=so_stub_for_libtelux_tel
-Wl,--defsym=_ZNK36MultipartGsmCmasCellbroadcastHandler4dumpEv=so_stub_for_libtelux_tel
-Wl,--defsym=_ZNK36MultipartGsmCmasCellbroadcastHandler7processERKSt8functionIFb9RadioTechRK17CmasCellbroadcastEESt10shared_ptrI25MultipartCellBroadcastMsgE=so_stub_for_libtelux_tel
-Wl,--defsym=_ZNK5telux3tel10SmsMessage11getEncodingEv=so_stub_for_libtelux_tel
-Wl,--defsym=_ZNK5telux3tel10SmsMessage11getReceiverB5cxx11Ev=so_stub_for_libtelux_tel
-Wl,--defsym=_ZNK5telux3tel10SmsMessage6getPduB5cxx11Ev=so_stub_for_libtelux_tel
-Wl,--defsym=_ZNK5telux3tel10SmsMessage7getTextB5cxx11Ev=so_stub_for_libtelux_tel
-Wl,--defsym=_ZNK5telux3tel10SmsMessage8toStringB5cxx11Ev=so_stub_for_libtelux_tel
-Wl,--defsym=_ZNK5telux3tel10SmsMessage9getRawPduEv=so_stub_for_libtelux_tel
-Wl,--defsym=_ZNK5telux3tel10SmsMessage9getSenderB5cxx11Ev=so_stub_for_libtelux_tel
-Wl,--defsym=_ZNK5telux3tel18IncomingSmsHandler17MessagePartDetailltERKS2_=so_stub_for_libtelux_tel
-Wl,--defsym=_ZNK5telux3tel20CellBroadcastMessage11getCmasInfoEv=so_stub_for_libtelux_tel
-Wl,--defsym=_ZNK5telux3tel20CellBroadcastMessage11getEtwsInfoEv=so_stub_for_libtelux_tel
-Wl,--defsym=_ZNK5telux3tel20CellBroadcastMessage14getMessageTypeEv=so_stub_for_libtelux_tel
-Wl,--defsym=_ZNK5telux3tel21GsmSignalStrengthInfo18getGsmBitErrorRateEv=so_stub_for_libtelux_tel
-Wl,--defsym=_ZNK5telux3tel21GsmSignalStrengthInfo20getGsmSignalStrengthEv=so_stub_for_libtelux_tel
-Wl,--defsym=_ZNK5telux3tel21GsmSignalStrengthInfo6getDbmEv=so_stub_for_libtelux_tel
-Wl,--defsym=_ZNK5telux3tel21GsmSignalStrengthInfo8getLevelEv=so_stub_for_libtelux_tel
-Wl,--defsym=_ZNK5telux3tel21LteSignalStrengthInfo16getTimingAdvanceEv=so_stub_for_libtelux_tel
-Wl,--defsym=_ZNK5telux3tel21LteSignalStrengthInfo20getLteSignalStrengthEv=so_stub_for_libtelux_tel
-Wl,--defsym=_ZNK5telux3tel21LteSignalStrengthInfo24getLteReferenceSignalSnrEv=so_stub_for_libtelux_tel
-Wl,--defsym=_ZNK5telux3tel21LteSignalStrengthInfo29getLteChannelQualityIndicatorEv=so_stub_for_libtelux_tel
-Wl,--defsym=_ZNK5telux3tel21LteSignalStrengthInfo35getLteReferenceSignalReceiveQualityEv=so_stub_for_libtelux_tel
-Wl,--defsym=_ZNK5telux3tel21LteSignalStrengthInfo6getDbmEv=so_stub_for_libtelux_tel
-Wl,--defsym=_ZNK5telux3tel21LteSignalStrengthInfo8getLevelEv=so_stub_for_libtelux_tel
-Wl,--defsym=_ZNK5telux3tel22CdmaSignalStrengthInfo10getCdmaDbmEv=so_stub_for_libtelux_tel
-Wl,--defsym=_ZNK5telux3tel22CdmaSignalStrengthInfo10getEvdoDbmEv=so_stub_for_libtelux_tel
-Wl,--defsym=_ZNK5telux3tel22CdmaSignalStrengthInfo11getCdmaEcioEv=so_stub_for_libtelux_tel
-Wl,--defsym=_ZNK5telux3tel22CdmaSignalStrengthInfo11getEvdoEcioEv=so_stub_for_libtelux_tel
-Wl,--defsym=_ZNK5telux3tel22CdmaSignalStrengthInfo12getCdmaLevelEv=so_stub_for_libtelux_tel
-Wl,--defsym=_ZNK5telux3tel22CdmaSignalStrengthInfo12getEvdoLevelEv=so_stub_for_libtelux_tel
-Wl,--defsym=_ZNK5telux3tel22CdmaSignalStrengthInfo23getEvdoSignalNoiseRatioEv=so_stub_for_libtelux_tel
-Wl,--defsym=_ZNK5telux3tel22CdmaSignalStrengthInfo6getDbmEv=so_stub_for_libtelux_tel
-Wl,--defsym=_ZNK5telux3tel22CdmaSignalStrengthInfo8getLevelEv=so_stub_for_libtelux_tel
-Wl,--defsym=_ZNK5telux3tel22Nr5gSignalStrengthInfo21getReferenceSignalSnrEv=so_stub_for_libtelux_tel
-Wl,--defsym=_ZNK5telux3tel22Nr5gSignalStrengthInfo32getReferenceSignalReceiveQualityEv=so_stub_for_libtelux_tel
-Wl,--defsym=_ZNK5telux3tel22Nr5gSignalStrengthInfo6getDbmEv=so_stub_for_libtelux_tel
-Wl,--defsym=_ZNK5telux3tel22Nr5gSignalStrengthInfo8getLevelEv=so_stub_for_libtelux_tel
-Wl,--defsym=_ZNK5telux3tel23WcdmaSignalStrengthInfo15getBitErrorRateEv=so_stub_for_libtelux_tel
-Wl,--defsym=_ZNK5telux3tel23WcdmaSignalStrengthInfo17getSignalStrengthEv=so_stub_for_libtelux_tel
-Wl,--defsym=_ZNK5telux3tel23WcdmaSignalStrengthInfo6getDbmEv=so_stub_for_libtelux_tel
-Wl,--defsym=_ZNK5telux3tel23WcdmaSignalStrengthInfo7getEcioEv=so_stub_for_libtelux_tel
-Wl,--defsym=_ZNK5telux3tel23WcdmaSignalStrengthInfo7getRscpEv=so_stub_for_libtelux_tel
-Wl,--defsym=_ZNK5telux3tel23WcdmaSignalStrengthInfo8getLevelEv=so_stub_for_libtelux_tel
-Wl,--defsym=_ZNK5telux3tel24Nb1NtnSignalStrengthInfo17getSignalStrengthEv=so_stub_for_libtelux_tel
-Wl,--defsym=_ZNK5telux3tel24Nb1NtnSignalStrengthInfo6getDbmEv=so_stub_for_libtelux_tel
-Wl,--defsym=_ZNK5telux3tel24Nb1NtnSignalStrengthInfo7getRsrqEv=so_stub_for_libtelux_tel
-Wl,--defsym=_ZNK5telux3tel24Nb1NtnSignalStrengthInfo8getLevelEv=so_stub_for_libtelux_tel
-Wl,--defsym=_ZNK5telux3tel24Nb1NtnSignalStrengthInfo8getRssnrEv=so_stub_for_libtelux_tel
-Wl,--defsym=_ZNK5telux3tel25TdscdmaSignalStrengthInfo7getRscpEv=so_stub_for_libtelux_tel
-Wl,--defsym=_ZNK5telux3tel3ril6Socket7getNameB5cxx11Ev=so_stub_for_libtelux_tel
-Wl,--defsym=_ZNK5telux3tel3ril7Request12getRequestIdEv=so_stub_for_libtelux_tel
-Wl,--defsym=_ZNK5telux3tel3ril7Request9getSerialEv=so_stub_for_libtelux_tel
-Wl,--defsym=_ZNK5telux3tel5Utils19ParcelReadException4whatEv=so_stub_for_libtelux_tel
-Wl,--defsym=_ZNK5telux3tel8CmasInfo11getPriorityEv=so_stub_for_libtelux_tel
-Wl,--defsym=_ZNK5telux3tel8CmasInfo12getMessageIdEv=so_stub_for_libtelux_tel
-Wl,--defsym=_ZNK5telux3tel8CmasInfo14getMessageBodyB5cxx11Ev=so_stub_for_libtelux_tel
-Wl,--defsym=_ZNK5telux3tel8CmasInfo14getMessageCodeEv=so_stub_for_libtelux_tel
-Wl,--defsym=_ZNK5telux3tel8CmasInfo15getLanguageCodeB5cxx11Ev=so_stub_for_libtelux_tel
-Wl,--defsym=_ZNK5telux3tel8CmasInfo15getSerialNumberEv=so_stub_for_libtelux_tel
-Wl,--defsym=_ZNK5telux3tel8CmasInfo15getUpdateNumberEv=so_stub_for_libtelux_tel
-Wl,--defsym=_ZNK5telux3tel8CmasInfo20getGeographicalScopeEv=so_stub_for_libtelux_tel
-Wl,--defsym=_ZNK5telux3tel8EtwsInfo11getPriorityEv=so_stub_for_libtelux_tel
-Wl,--defsym=_ZNK5telux3tel8EtwsInfo12getMessageIdEv=so_stub_for_libtelux_tel
-Wl,--defsym=_ZNK5telux3tel8EtwsInfo14getMessageBodyB5cxx11Ev=so_stub_for_libtelux_tel
-Wl,--defsym=_ZNK5telux3tel8EtwsInfo14getMessageCodeEv=so_stub_for_libtelux_tel
-Wl,--defsym=_ZNK5telux3tel8EtwsInfo15getLanguageCodeB5cxx11Ev=so_stub_for_libtelux_tel
-Wl,--defsym=_ZNK5telux3tel8EtwsInfo15getSerialNumberEv=so_stub_for_libtelux_tel
-Wl,--defsym=_ZNK5telux3tel8EtwsInfo15getUpdateNumberEv=so_stub_for_libtelux_tel
-Wl,--defsym=_ZNK5telux3tel8EtwsInfo20getGeographicalScopeEv=so_stub_for_libtelux_tel
-Wl,--defsym=_ZNK5telux3tel8Geometry10getPolygonEv=so_stub_for_libtelux_tel
-Wl,--defsym=_ZNK5telux3tel8Geometry7getTypeEv=so_stub_for_libtelux_tel
-Wl,--defsym=_ZNK5telux3tel8Geometry9getCircleEv=so_stub_for_libtelux_tel
-Wl,--defsym=_ZNK5telux3tel9IccResult8toStringB5cxx11Ev=so_stub_for_libtelux_tel
-Wl,--defsym=_ZNK5telux6common15ListenerManager12SetPredicateclERKSt8weak_ptrINS0_12ISDKListenerEES7_=so_stub_for_libtelux_tel
-Wl,--defsym=_ZNKSt13__future_base13_State_baseV221_M_is_deferred_futureEv=so_stub_for_libtelux_tel
-Wl,--defsym=_ZNKSt14__basic_futureIbE13_M_get_resultEv=so_stub_for_libtelux_tel
-Wl,--defsym=_ZNKSt14__basic_futureIN5telux6common13ServiceStatusEE13_M_get_resultEv=so_stub_for_libtelux_tel
-Wl,--defsym=_ZNKSt14__basic_futureIN5telux6common9ErrorCodeEE13_M_get_resultEv=so_stub_for_libtelux_tel
-Wl,--defsym=_ZNKSt14__basic_futureIvE13_M_get_resultEv=so_stub_for_libtelux_tel
-Wl,--defsym=_ZNKSt23__codecvt_abstract_baseIDsc11__mbstate_tE2inERS0_PKcS4_RS4_PDsS6_RS6_=so_stub_for_libtelux_tel
-Wl,--defsym=_ZNKSt23__codecvt_abstract_baseIDsc11__mbstate_tE3outERS0_PKDsS4_RS4_PcS6_RS6_=so_stub_for_libtelux_tel
-Wl,--defsym=_ZNKSt6bitsetILm16EE17_M_copy_to_stringIcSt11char_traitsIcESaIcEEEvRNSt7__cxx1112basic_stringIT_T0_T1_EES7_S7_=so_stub_for_libtelux_tel
-Wl,--defsym=_ZNKSt6bitsetILm32EE17_M_copy_to_stringIcSt11char_traitsIcESaIcEEEvRNSt7__cxx1112basic_stringIT_T0_T1_EES7_S7_=so_stub_for_libtelux_tel
-Wl,--defsym=_ZNKSt7__cxx1112basic_stringIDsSt11char_traitsIDsESaIDsEE4findEDsm=so_stub_for_libtelux_tel
-Wl,--defsym=_ZNKSt7__cxx1112basic_stringIDsSt11char_traitsIDsESaIDsEE6substrEmm=so_stub_for_libtelux_tel
-Wl,--defsym=_ZNKSt7__cxx1112regex_traitsIcE16lookup_classnameIPKcEENS1_10_RegexMaskET_S6_b=so_stub_for_libtelux_tel
-Wl,--defsym=_ZNKSt7__cxx1112regex_traitsIcE17transform_primaryIPKcEENS_12basic_stringIcSt11char_traitsIcESaIcEEET_SA_=so_stub_for_libtelux_tel
-Wl,--defsym=_ZNKSt7__cxx1112regex_traitsIcE18lookup_collatenameIPKcEENS_12basic_stringIcSt11char_traitsIcESaIcEEET_SA_=so_stub_for_libtelux_tel
-Wl,--defsym=_ZNKSt7__cxx1112regex_traitsIcE5valueEci=so_stub_for_libtelux_tel
-Wl,--defsym=_ZNKSt7__cxx1112regex_traitsIcE7isctypeEcNS1_10_RegexMaskE=so_stub_for_libtelux_tel
-Wl,--defsym=_ZNKSt7__cxx1112regex_traitsIcE9transformIN9__gnu_cxx17__normal_iteratorIPcNS_12basic_stringIcSt11char_traitsIcESaIcEEEEEEESA_T_SC_=so_stub_for_libtelux_tel
-Wl,--defsym=_ZNKSt7__cxx1112regex_traitsIcE9transformIPcEENS_12basic_stringIcSt11char_traitsIcESaIcEEET_S9_=so_stub_for_libtelux_tel
-Wl,--defsym=_ZNKSt7__cxx1113match_resultsIN9__gnu_cxx17__normal_iteratorIPKcNS_12basic_stringIcSt11char_traitsIcESaIcEEEEESaINS_9sub_matchISA_EEEE6formatISt20back_insert_iteratorIS9_EEET_SI_S4_S4_NSt15regex_constants15match_flag_typeE=so_stub_for_libtelux_tel
-Wl,--defsym=_ZNKSt7__cxx1114regex_iteratorIN9__gnu_cxx17__normal_iteratorIPKcNS_12basic_stringIcSt11char_traitsIcESaIcEEEEEcNS_12regex_traitsIcEEEeqERKSD_=so_stub_for_libtelux_tel
-Wl,--defsym=_ZNKSt8__detail11_AnyMatcherINSt7__cxx1112regex_traitsIcEELb0ELb1ELb0EEclEc=so_stub_for_libtelux_tel
-Wl,--defsym=_ZNKSt8__detail11_AnyMatcherINSt7__cxx1112regex_traitsIcEELb0ELb1ELb1EEclEc=so_stub_for_libtelux_tel
-Wl,--defsym=_ZNKSt8__detail20_RegexTranslatorBaseINSt7__cxx1112regex_traitsIcEELb0ELb1EE12_M_transformEc=so_stub_for_libtelux_tel
-Wl,--defsym=_ZNKSt8__detail20_RegexTranslatorBaseINSt7__cxx1112regex_traitsIcEELb1ELb0EE17_M_in_range_icaseEccc=so_stub_for_libtelux_tel
-Wl,--defsym=_ZNKSt8__detail20_RegexTranslatorBaseINSt7__cxx1112regex_traitsIcEELb1ELb1EE12_M_transformEc=so_stub_for_libtelux_tel
-Wl,--defsym=_ZNKSt8__detail20_RegexTranslatorBaseINSt7__cxx1112regex_traitsIcEELb1ELb1EE17_M_in_range_icaseEccc=so_stub_for_libtelux_tel
-Wl,--defsym=_ZNKSt8__detail9_ExecutorIN9__gnu_cxx17__normal_iteratorIPKcNSt7__cxx1112basic_stringIcSt11char_traitsIcESaIcEEEEESaINS5_9sub_matchISB_EEENS5_12regex_traitsIcEELb0EE11_M_at_beginEv=so_stub_for_libtelux_tel
-Wl,--defsym=_ZNKSt8__detail9_ExecutorIN9__gnu_cxx17__normal_iteratorIPKcNSt7__cxx1112basic_stringIcSt11char_traitsIcESaIcEEEEESaINS5_9sub_matchISB_EEENS5_12regex_traitsIcEELb0EE16_M_word_boundaryEv=so_stub_for_libtelux_tel
-Wl,--defsym=_ZNKSt8__detail9_ExecutorIN9__gnu_cxx17__normal_iteratorIPKcNSt7__cxx1112basic_stringIcSt11char_traitsIcESaIcEEEEESaINS5_9sub_matchISB_EEENS5_12regex_traitsIcEELb0EE21_M_is_line_terminatorEc=so_stub_for_libtelux_tel
-Wl,--defsym=_ZNKSt8__detail9_ExecutorIN9__gnu_cxx17__normal_iteratorIPKcNSt7__cxx1112basic_stringIcSt11char_traitsIcESaIcEEEEESaINS5_9sub_matchISB_EEENS5_12regex_traitsIcEELb1EE11_M_at_beginEv=so_stub_for_libtelux_tel
-Wl,--defsym=_ZNKSt8__detail9_ExecutorIN9__gnu_cxx17__normal_iteratorIPKcNSt7__cxx1112basic_stringIcSt11char_traitsIcESaIcEEEEESaINS5_9sub_matchISB_EEENS5_12regex_traitsIcEELb1EE16_M_word_boundaryEv=so_stub_for_libtelux_tel
-Wl,--defsym=_ZNKSt8__detail9_ExecutorIN9__gnu_cxx17__normal_iteratorIPKcNSt7__cxx1112basic_stringIcSt11char_traitsIcESaIcEEEEESaINS5_9sub_matchISB_EEENS5_12regex_traitsIcEELb1EE21_M_is_line_terminatorEc=so_stub_for_libtelux_tel
-Wl,--defsym=_ZNKSt8_Rb_treeIlSt4pairIKllESt10_Select1stIS2_ESt4lessIlESaIS2_EE4findERS1_=so_stub_for_libtelux_tel
-Wl,--defsym=_ZNSt10_HashtableIiSt4pairIKiSt10shared_ptrIN5telux6common16ICommandCallbackEEESaIS7_ENSt8__detail10_Select1stESt8equal_toIiESt4hashIiENS9_18_Mod_range_hashingENS9_20_Default_ranged_hashENS9_20_Prime_rehash_policyENS9_17_Hashtable_traitsILb0ELb0ELb1EEEE13_M_rehash_auxEmSt17integral_constantIbLb1EE=so_stub_for_libtelux_tel
-Wl,--defsym=_ZNSt10_HashtableIiSt4pairIKiSt10shared_ptrIN5telux6common16ICommandCallbackEEESaIS7_ENSt8__detail10_Select1stESt8equal_toIiESt4hashIiENS9_18_Mod_range_hashingENS9_20_Default_ranged_hashENS9_20_Prime_rehash_policyENS9_17_Hashtable_traitsILb0ELb0ELb1EEEE21_M_insert_unique_nodeEmmPNS9_10_Hash_nodeIS7_Lb0EEEm=so_stub_for_libtelux_tel
-Wl,--defsym=_ZNSt10_HashtableIiSt4pairIKiSt10shared_ptrIN5telux6common16ICommandCallbackEEESaIS7_ENSt8__detail10_Select1stESt8equal_toIiESt4hashIiENS9_18_Mod_range_hashingENS9_20_Default_ranged_hashENS9_20_Prime_rehash_policyENS9_17_Hashtable_traitsILb0ELb0ELb1EEEE9_M_rehashEmRKm=so_stub_for_libtelux_tel
-Wl,--defsym=_ZNSt10shared_ptrIN5telux3tel10SimProfileEEC1ISaIS2_EJRiRNS1_11ProfileTypeERNSt7__cxx1112basic_stringIcSt11char_traitsIcESaIcEEER26uim_profile_state_type_v01SF_SF_SF_NS1_8IconTypeERSt6vectorIhSaIhEENS1_12ProfileClassESt6bitsetILm16EES6_EEESt20_Sp_alloc_shared_tagIT_EDpOT0_=so_stub_for_libtelux_tel
-Wl,--defsym=_ZNSt10shared_ptrIN5telux3tel10SimProfileEEC2ISaIS2_EJRiRNS1_11ProfileTypeERNSt7__cxx1112basic_stringIcSt11char_traitsIcESaIcEEER26uim_profile_state_type_v01SF_SF_SF_NS1_8IconTypeERSt6vectorIhSaIhEENS1_12ProfileClassESt6bitsetILm16EES6_EEESt20_Sp_alloc_shared_tagIT_EDpOT0_=so_stub_for_libtelux_tel
-Wl,--defsym=_ZNSt10shared_ptrIN5telux3tel10SmsMessageEEC1ISaIS2_EJRS2_EEESt20_Sp_alloc_shared_tagIT_EDpOT0_=so_stub_for_libtelux_tel
-Wl,--defsym=_ZNSt10shared_ptrIN5telux3tel10SmsMessageEEC2ISaIS2_EJRS2_EEESt20_Sp_alloc_shared_tagIT_EDpOT0_=so_stub_for_libtelux_tel
-Wl,--defsym=_ZNSt10shared_ptrIN5telux3tel17RFBandListBuilderEEC1ISaIS2_EJEEESt20_Sp_alloc_shared_tagIT_EDpOT0_=so_stub_for_libtelux_tel
-Wl,--defsym=_ZNSt10shared_ptrIN5telux3tel17RFBandListBuilderEEC2ISaIS2_EJEEESt20_Sp_alloc_shared_tagIT_EDpOT0_=so_stub_for_libtelux_tel
-Wl,--defsym=_ZNSt10shared_ptrIN5telux6common15ListenerManagerEEC1ISaIS2_EJEEESt20_Sp_alloc_shared_tagIT_EDpOT0_=so_stub_for_libtelux_tel
-Wl,--defsym=_ZNSt10shared_ptrIN5telux6common15ListenerManagerEEC2ISaIS2_EJEEESt20_Sp_alloc_shared_tagIT_EDpOT0_=so_stub_for_libtelux_tel
-Wl,--defsym=_ZNSt10shared_ptrISt6threadEC1ISaIS0_EJMN5telux6common14AsyncTaskQueueIvEEFvvEPS7_EEESt20_Sp_alloc_shared_tagIT_EDpOT0_=so_stub_for_libtelux_tel
-Wl,--defsym=_ZNSt10shared_ptrISt6threadEC2ISaIS0_EJMN5telux6common14AsyncTaskQueueIvEEFvvEPS7_EEESt20_Sp_alloc_shared_tagIT_EDpOT0_=so_stub_for_libtelux_tel
-Wl,--defsym=_ZNSt10shared_ptrISt6vectorIN5telux3tel10SmsMessageESaIS3_EEEC1ISaIS5_EJRS5_EEESt20_Sp_alloc_shared_tagIT_EDpOT0_=so_stub_for_libtelux_tel
-Wl,--defsym=_ZNSt10shared_ptrISt6vectorIN5telux3tel10SmsMessageESaIS3_EEEC2ISaIS5_EJRS5_EEESt20_Sp_alloc_shared_tagIT_EDpOT0_=so_stub_for_libtelux_tel
-Wl,--defsym=_ZNSt10unique_ptrINSt13__future_base12_Result_baseENS1_8_DeleterEED1Ev=so_stub_for_libtelux_tel
-Wl,--defsym=_ZNSt10unique_ptrINSt13__future_base12_Result_baseENS1_8_DeleterEED2Ev=so_stub_for_libtelux_tel
-Wl,--defsym=_ZNSt10unique_ptrINSt13__future_base7_ResultIvEENS0_12_Result_base8_DeleterEED1Ev=so_stub_for_libtelux_tel
-Wl,--defsym=_ZNSt10unique_ptrINSt13__future_base7_ResultIvEENS0_12_Result_base8_DeleterEED2Ev=so_stub_for_libtelux_tel
-Wl,--defsym=_ZNSt10unique_ptrINSt6thread6_StateESt14default_deleteIS1_EED1Ev=so_stub_for_libtelux_tel
-Wl,--defsym=_ZNSt10unique_ptrINSt6thread6_StateESt14default_deleteIS1_EED2Ev=so_stub_for_libtelux_tel
-Wl,--defsym=_ZNSt10__weak_ptrIN5telux3qmi12IQmiListenerELN9__gnu_cxx12_Lock_policyE2EEC1INS0_3tel18IncomingSmsHandlerEvEERKSt12__shared_ptrIT_LS4_2EE=so_stub_for_libtelux_tel
-Wl,--defsym=_ZNSt10__weak_ptrIN5telux3qmi12IQmiListenerELN9__gnu_cxx12_Lock_policyE2EEC1INS0_3tel20ServingSystemManagerEvEERKSt12__shared_ptrIT_LS4_2EE=so_stub_for_libtelux_tel
-Wl,--defsym=_ZNSt10__weak_ptrIN5telux3qmi12IQmiListenerELN9__gnu_cxx12_Lock_policyE2EEC1INS0_3tel23NetworkSelectionManagerEvEERKSt12__shared_ptrIT_LS4_2EE=so_stub_for_libtelux_tel
-Wl,--defsym=_ZNSt10__weak_ptrIN5telux3qmi12IQmiListenerELN9__gnu_cxx12_Lock_policyE2EEC1INS0_3tel8CardImplEvEERKSt12__shared_ptrIT_LS4_2EE=so_stub_for_libtelux_tel
-Wl,--defsym=_ZNSt10__weak_ptrIN5telux3qmi12IQmiListenerELN9__gnu_cxx12_Lock_policyE2EEC1INS1_15IQmiUimListenerEvEERKSt12__shared_ptrIT_LS4_2EE=so_stub_for_libtelux_tel
-Wl,--defsym=_ZNSt10__weak_ptrIN5telux3qmi12IQmiListenerELN9__gnu_cxx12_Lock_policyE2EEC2INS0_3tel18IncomingSmsHandlerEvEERKSt12__shared_ptrIT_LS4_2EE=so_stub_for_libtelux_tel
-Wl,--defsym=_ZNSt10__weak_ptrIN5telux3qmi12IQmiListenerELN9__gnu_cxx12_Lock_policyE2EEC2INS0_3tel20ServingSystemManagerEvEERKSt12__shared_ptrIT_LS4_2EE=so_stub_for_libtelux_tel
-Wl,--defsym=_ZNSt10__weak_ptrIN5telux3qmi12IQmiListenerELN9__gnu_cxx12_Lock_policyE2EEC2INS0_3tel23NetworkSelectionManagerEvEERKSt12__shared_ptrIT_LS4_2EE=so_stub_for_libtelux_tel
-Wl,--defsym=_ZNSt10__weak_ptrIN5telux3qmi12IQmiListenerELN9__gnu_cxx12_Lock_policyE2EEC2INS0_3tel8CardImplEvEERKSt12__shared_ptrIT_LS4_2EE=so_stub_for_libtelux_tel
-Wl,--defsym=_ZNSt10__weak_ptrIN5telux3qmi12IQmiListenerELN9__gnu_cxx12_Lock_policyE2EEC2INS1_15IQmiUimListenerEvEERKSt12__shared_ptrIT_LS4_2EE=so_stub_for_libtelux_tel
-Wl,--defsym=_ZNSt10__weak_ptrIN5telux3tel10SmsManagerELN9__gnu_cxx12_Lock_policyE2EE9_M_assignEPS2_RKSt14__shared_countILS4_2EE=so_stub_for_libtelux_tel
-Wl,--defsym=_ZNSt10__weak_ptrIN5telux3tel12PhoneManagerELN9__gnu_cxx12_Lock_policyE2EE9_M_assignEPS2_RKSt14__shared_countILS4_2EE=so_stub_for_libtelux_tel
-Wl,--defsym=_ZNSt10__weak_ptrIN5telux3tel15MultiSimManagerELN9__gnu_cxx12_Lock_policyE2EE9_M_assignEPS2_RKSt14__shared_countILS4_2EE=so_stub_for_libtelux_tel
-Wl,--defsym=_ZNSt10__weak_ptrIN5telux3tel16RemoteSimManagerELN9__gnu_cxx12_Lock_policyE2EE9_M_assignEPS2_RKSt14__shared_countILS4_2EE=so_stub_for_libtelux_tel
-Wl,--defsym=_ZNSt10__weak_ptrIN5telux3tel16SubscriptionImplELN9__gnu_cxx12_Lock_policyE2EE9_M_assignEPS2_RKSt14__shared_countILS4_2EE=so_stub_for_libtelux_tel
-Wl,--defsym=_ZNSt10__weak_ptrIN5telux3tel19SubscriptionManagerELN9__gnu_cxx12_Lock_policyE2EE9_M_assignEPS2_RKSt14__shared_countILS4_2EE=so_stub_for_libtelux_tel
-Wl,--defsym=_ZNSt10__weak_ptrIN5telux3tel20ServingSystemManagerELN9__gnu_cxx12_Lock_policyE2EE9_M_assignEPS2_RKSt14__shared_countILS4_2EE=so_stub_for_libtelux_tel
-Wl,--defsym=_ZNSt10__weak_ptrIN5telux3tel21SimProfileManagerImplELN9__gnu_cxx12_Lock_policyE2EE9_M_assignEPS2_RKSt14__shared_countILS4_2EE=so_stub_for_libtelux_tel
-Wl,--defsym=_ZNSt10__weak_ptrIN5telux3tel22ImsSettingsManagerImplELN9__gnu_cxx12_Lock_policyE2EE9_M_assignEPS2_RKSt14__shared_countILS4_2EE=so_stub_for_libtelux_tel
-Wl,--defsym=_ZNSt10__weak_ptrIN5telux3tel23ApSimProfileManagerImplELN9__gnu_cxx12_Lock_policyE2EE9_M_assignEPS2_RKSt14__shared_countILS4_2EE=so_stub_for_libtelux_tel
-Wl,--defsym=_ZNSt10__weak_ptrIN5telux3tel23NetworkSelectionManagerELN9__gnu_cxx12_Lock_policyE2EE9_M_assignEPS2_RKSt14__shared_countILS4_2EE=so_stub_for_libtelux_tel
-Wl,--defsym=_ZNSt10__weak_ptrIN5telux3tel23SuppServicesManagerImplELN9__gnu_cxx12_Lock_policyE2EE9_M_assignEPS2_RKSt14__shared_countILS4_2EE=so_stub_for_libtelux_tel
-Wl,--defsym=_ZNSt10__weak_ptrIN5telux3tel24CellBroadcastManagerImplELN9__gnu_cxx12_Lock_policyE2EE9_M_assignEPS2_RKSt14__shared_countILS4_2EE=so_stub_for_libtelux_tel
-Wl,--defsym=_ZNSt10__weak_ptrIN5telux3tel26HttpTransactionManagerImplELN9__gnu_cxx12_Lock_policyE2EE9_M_assignEPS2_RKSt14__shared_countILS4_2EE=so_stub_for_libtelux_tel
-Wl,--defsym=_ZNSt10__weak_ptrIN5telux3tel27ImsServingSystemManagerImplELN9__gnu_cxx12_Lock_policyE2EE9_M_assignEPS2_RKSt14__shared_countILS4_2EE=so_stub_for_libtelux_tel
-Wl,--defsym=_ZNSt10__weak_ptrIN5telux3tel4CallELN9__gnu_cxx12_Lock_policyE2EE9_M_assignEPS2_RKSt14__shared_countILS4_2EE=so_stub_for_libtelux_tel
-Wl,--defsym=_ZNSt10__weak_ptrIN5telux3tel5PhoneELN9__gnu_cxx12_Lock_policyE2EE9_M_assignEPS2_RKSt14__shared_countILS4_2EE=so_stub_for_libtelux_tel
-Wl,--defsym=_ZNSt10__weak_ptrIN5telux3tel8CardImplELN9__gnu_cxx12_Lock_policyE2EE9_M_assignEPS2_RKSt14__shared_countILS4_2EE=so_stub_for_libtelux_tel
-Wl,--defsym=_ZNSt10__weak_ptrIN5telux6common12ISDKListenerELN9__gnu_cxx12_Lock_policyE2EEC1INS0_3tel12ISmsListenerEvEERKS_IT_LS4_2EE=so_stub_for_libtelux_tel
-Wl,--defsym=_ZNSt10__weak_ptrIN5telux6common12ISDKListenerELN9__gnu_cxx12_Lock_policyE2EEC1INS0_3tel14IEcallListenerEvEERKS_IT_LS4_2EE=so_stub_for_libtelux_tel
-Wl,--defsym=_ZNSt10__weak_ptrIN5telux6common12ISDKListenerELN9__gnu_cxx12_Lock_policyE2EEC1INS0_3tel14IPhoneListenerEvEERKS_IT_LS4_2EE=so_stub_for_libtelux_tel
-Wl,--defsym=_ZNSt10__weak_ptrIN5telux6common12ISDKListenerELN9__gnu_cxx12_Lock_policyE2EEC1INS0_3tel17IMultiSimListenerEvEERKS_IT_LS4_2EE=so_stub_for_libtelux_tel
-Wl,--defsym=_ZNSt10__weak_ptrIN5telux6common12ISDKListenerELN9__gnu_cxx12_Lock_policyE2EEC1INS0_3tel18IRemoteSimListenerEvEERKS_IT_LS4_2EE=so_stub_for_libtelux_tel
-Wl,--defsym=_ZNSt10__weak_ptrIN5telux6common12ISDKListenerELN9__gnu_cxx12_Lock_policyE2EEC1INS0_3tel19ICallUpdateListenerEvEERKS_IT_LS4_2EE=so_stub_for_libtelux_tel
-Wl,--defsym=_ZNSt10__weak_ptrIN5telux6common12ISDKListenerELN9__gnu_cxx12_Lock_policyE2EEC1INS0_3tel19ISimProfileListenerEvEERKS_IT_LS4_2EE=so_stub_for_libtelux_tel
-Wl,--defsym=_ZNSt10__weak_ptrIN5telux6common12ISDKListenerELN9__gnu_cxx12_Lock_policyE2EEC1INS0_3tel20IImsSettingsListenerEvEERKS_IT_LS4_2EE=so_stub_for_libtelux_tel
-Wl,--defsym=_ZNSt10__weak_ptrIN5telux6common12ISDKListenerELN9__gnu_cxx12_Lock_policyE2EEC1INS0_3tel21IApSimProfileListenerEvEERKS_IT_LS4_2EE=so_stub_for_libtelux_tel
-Wl,--defsym=_ZNSt10__weak_ptrIN5telux6common12ISDKListenerELN9__gnu_cxx12_Lock_policyE2EEC1INS0_3tel21ISubscriptionListenerEvEERKS_IT_LS4_2EE=so_stub_for_libtelux_tel
-Wl,--defsym=_ZNSt10__weak_ptrIN5telux6common12ISDKListenerELN9__gnu_cxx12_Lock_policyE2EEC1INS0_3tel21ISuppServicesListenerEvEERKS_IT_LS4_2EE=so_stub_for_libtelux_tel
-Wl,--defsym=_ZNSt10__weak_ptrIN5telux6common12ISDKListenerELN9__gnu_cxx12_Lock_policyE2EEC1INS0_3tel22ICellBroadcastListenerEvEERKS_IT_LS4_2EE=so_stub_for_libtelux_tel
-Wl,--defsym=_ZNSt10__weak_ptrIN5telux6common12ISDKListenerELN9__gnu_cxx12_Lock_policyE2EEC1INS0_3tel22IServingSystemListenerEvEERKS_IT_LS4_2EE=so_stub_for_libtelux_tel
-Wl,--defsym=_ZNSt10__weak_ptrIN5telux6common12ISDKListenerELN9__gnu_cxx12_Lock_policyE2EEC1INS0_3tel24IHttpTransactionListenerEvEERKS_IT_LS4_2EE=so_stub_for_libtelux_tel
-Wl,--defsym=_ZNSt10__weak_ptrIN5telux6common12ISDKListenerELN9__gnu_cxx12_Lock_policyE2EEC1INS0_3tel25IImsServingSystemListenerEvEERKS_IT_LS4_2EE=so_stub_for_libtelux_tel
-Wl,--defsym=_ZNSt10__weak_ptrIN5telux6common12ISDKListenerELN9__gnu_cxx12_Lock_policyE2EEC1INS0_3tel25INetworkSelectionListenerEvEERKS_IT_LS4_2EE=so_stub_for_libtelux_tel
-Wl,--defsym=_ZNSt10__weak_ptrIN5telux6common12ISDKListenerELN9__gnu_cxx12_Lock_policyE2EEC1INS0_3tel3ril12IRilListenerEvEERKS_IT_LS4_2EE=so_stub_for_libtelux_tel
-Wl,--defsym=_ZNSt10__weak_ptrIN5telux6common12ISDKListenerELN9__gnu_cxx12_Lock_policyE2EEC2INS0_3tel12ISmsListenerEvEERKS_IT_LS4_2EE=so_stub_for_libtelux_tel
-Wl,--defsym=_ZNSt10__weak_ptrIN5telux6common12ISDKListenerELN9__gnu_cxx12_Lock_policyE2EEC2INS0_3tel14IEcallListenerEvEERKS_IT_LS4_2EE=so_stub_for_libtelux_tel
-Wl,--defsym=_ZNSt10__weak_ptrIN5telux6common12ISDKListenerELN9__gnu_cxx12_Lock_policyE2EEC2INS0_3tel14IPhoneListenerEvEERKS_IT_LS4_2EE=so_stub_for_libtelux_tel
-Wl,--defsym=_ZNSt10__weak_ptrIN5telux6common12ISDKListenerELN9__gnu_cxx12_Lock_policyE2EEC2INS0_3tel17IMultiSimListenerEvEERKS_IT_LS4_2EE=so_stub_for_libtelux_tel
-Wl,--defsym=_ZNSt10__weak_ptrIN5telux6common12ISDKListenerELN9__gnu_cxx12_Lock_policyE2EEC2INS0_3tel18IRemoteSimListenerEvEERKS_IT_LS4_2EE=so_stub_for_libtelux_tel
-Wl,--defsym=_ZNSt10__weak_ptrIN5telux6common12ISDKListenerELN9__gnu_cxx12_Lock_policyE2EEC2INS0_3tel19ICallUpdateListenerEvEERKS_IT_LS4_2EE=so_stub_for_libtelux_tel
-Wl,--defsym=_ZNSt10__weak_ptrIN5telux6common12ISDKListenerELN9__gnu_cxx12_Lock_policyE2EEC2INS0_3tel19ISimProfileListenerEvEERKS_IT_LS4_2EE=so_stub_for_libtelux_tel
-Wl,--defsym=_ZNSt10__weak_ptrIN5telux6common12ISDKListenerELN9__gnu_cxx12_Lock_policyE2EEC2INS0_3tel20IImsSettingsListenerEvEERKS_IT_LS4_2EE=so_stub_for_libtelux_tel
-Wl,--defsym=_ZNSt10__weak_ptrIN5telux6common12ISDKListenerELN9__gnu_cxx12_Lock_policyE2EEC2INS0_3tel21IApSimProfileListenerEvEERKS_IT_LS4_2EE=so_stub_for_libtelux_tel
-Wl,--defsym=_ZNSt10__weak_ptrIN5telux6common12ISDKListenerELN9__gnu_cxx12_Lock_policyE2EEC2INS0_3tel21ISubscriptionListenerEvEERKS_IT_LS4_2EE=so_stub_for_libtelux_tel
-Wl,--defsym=_ZNSt10__weak_ptrIN5telux6common12ISDKListenerELN9__gnu_cxx12_Lock_policyE2EEC2INS0_3tel21ISuppServicesListenerEvEERKS_IT_LS4_2EE=so_stub_for_libtelux_tel
-Wl,--defsym=_ZNSt10__weak_ptrIN5telux6common12ISDKListenerELN9__gnu_cxx12_Lock_policyE2EEC2INS0_3tel22ICellBroadcastListenerEvEERKS_IT_LS4_2EE=so_stub_for_libtelux_tel
-Wl,--defsym=_ZNSt10__weak_ptrIN5telux6common12ISDKListenerELN9__gnu_cxx12_Lock_policyE2EEC2INS0_3tel22IServingSystemListenerEvEERKS_IT_LS4_2EE=so_stub_for_libtelux_tel
-Wl,--defsym=_ZNSt10__weak_ptrIN5telux6common12ISDKListenerELN9__gnu_cxx12_Lock_policyE2EEC2INS0_3tel24IHttpTransactionListenerEvEERKS_IT_LS4_2EE=so_stub_for_libtelux_tel
-Wl,--defsym=_ZNSt10__weak_ptrIN5telux6common12ISDKListenerELN9__gnu_cxx12_Lock_policyE2EEC2INS0_3tel25IImsServingSystemListenerEvEERKS_IT_LS4_2EE=so_stub_for_libtelux_tel
-Wl,--defsym=_ZNSt10__weak_ptrIN5telux6common12ISDKListenerELN9__gnu_cxx12_Lock_policyE2EEC2INS0_3tel25INetworkSelectionListenerEvEERKS_IT_LS4_2EE=so_stub_for_libtelux_tel
-Wl,--defsym=_ZNSt10__weak_ptrIN5telux6common12ISDKListenerELN9__gnu_cxx12_Lock_policyE2EEC2INS0_3tel3ril12IRilListenerEvEERKS_IT_LS4_2EE=so_stub_for_libtelux_tel
-Wl,--defsym=_ZNSt11__copy_moveILb1ELb0ESt26random_access_iterator_tagE8__copy_mIPN5telux3tel13CardAppStatusES6_EET0_T_S8_S7_=so_stub_for_libtelux_tel
-Wl,--defsym=_ZNSt11__copy_moveILb1ELb0ESt26random_access_iterator_tagE8__copy_mIPNSt7__cxx1112basic_stringIDsSt11char_traitsIDsESaIDsEEES9_EET0_T_SB_SA_=so_stub_for_libtelux_tel
-Wl,--defsym=_ZNSt11_Deque_baseIlSaIlEE15_M_create_nodesEPPlS3_=so_stub_for_libtelux_tel
-Wl,--defsym=_ZNSt11_Deque_baseIlSaIlEE16_M_destroy_nodesEPPlS3_=so_stub_for_libtelux_tel
-Wl,--defsym=_ZNSt11_Deque_baseIlSaIlEE17_M_initialize_mapEm=so_stub_for_libtelux_tel
-Wl,--defsym=_ZNSt11_Deque_baseIlSaIlEED1Ev=so_stub_for_libtelux_tel
-Wl,--defsym=_ZNSt11_Deque_baseIlSaIlEED2Ev=so_stub_for_libtelux_tel
-Wl,--defsym=_ZNSt11_Deque_baseINSt8__detail9_StateSeqINSt7__cxx1112regex_traitsIcEEEESaIS5_EE15_M_create_nodesEPPS5_S9_=so_stub_for_libtelux_tel
-Wl,--defsym=_ZNSt11_Deque_baseINSt8__detail9_StateSeqINSt7__cxx1112regex_traitsIcEEEESaIS5_EE16_M_destroy_nodesEPPS5_S9_=so_stub_for_libtelux_tel
-Wl,--defsym=_ZNSt11_Deque_baseINSt8__detail9_StateSeqINSt7__cxx1112regex_traitsIcEEEESaIS5_EED1Ev=so_stub_for_libtelux_tel
-Wl,--defsym=_ZNSt11_Deque_baseINSt8__detail9_StateSeqINSt7__cxx1112regex_traitsIcEEEESaIS5_EED2Ev=so_stub_for_libtelux_tel
-Wl,--defsym=_ZNSt11_Deque_baseISt13shared_futureIvESaIS1_EE15_M_create_nodesEPPS1_S5_=so_stub_for_libtelux_tel
-Wl,--defsym=_ZNSt11_Deque_baseISt13shared_futureIvESaIS1_EE16_M_destroy_nodesEPPS1_S5_=so_stub_for_libtelux_tel
-Wl,--defsym=_ZNSt11_Deque_baseISt13shared_futureIvESaIS1_EE17_M_initialize_mapEm=so_stub_for_libtelux_tel
-Wl,--defsym=_ZNSt11unique_lockISt5mutexE6unlockEv=so_stub_for_libtelux_tel
-Wl,--defsym=_ZNSt12_Destroy_auxILb0EE9__destroyIPN5telux3tel7IccFileEEEvT_S6_=so_stub_for_libtelux_tel
-Wl,--defsym=_ZNSt12_Destroy_auxILb0EE9__destroyIPNSt7__cxx1112basic_stringIcSt11char_traitsIcESaIcEEEEEvT_S9_=so_stub_for_libtelux_tel
-Wl,--defsym=_ZNSt12_Destroy_auxILb0EE9__destroyIPNSt7__cxx1112basic_stringIDsSt11char_traitsIDsESaIDsEEEEEvT_S9_=so_stub_for_libtelux_tel
-Wl,--defsym=_ZNSt12_Destroy_auxILb0EE9__destroyIPSt6vectorIhSaIhEEEEvT_S6_=so_stub_for_libtelux_tel
-Wl,--defsym=_ZNSt12future_errorC1ESt10error_code=so_stub_for_libtelux_tel
-Wl,--defsym=_ZNSt12future_errorC2ESt10error_code=so_stub_for_libtelux_tel
-Wl,--defsym=_ZNSt12__shared_ptrIN5telux3tel11CallManagerELN9__gnu_cxx12_Lock_policyE2EEC1ISaIS2_EJEEESt20_Sp_alloc_shared_tagIT_EDpOT0_=so_stub_for_libtelux_tel
-Wl,--defsym=_ZNSt12__shared_ptrIN5telux3tel11CallManagerELN9__gnu_cxx12_Lock_policyE2EEC2ISaIS2_EJEEESt20_Sp_alloc_shared_tagIT_EDpOT0_=so_stub_for_libtelux_tel
-Wl,--defsym=_ZNSt12__shared_ptrIN5telux3tel11CardAppImplELN9__gnu_cxx12_Lock_policyE2EEC1ISaIS2_EJRiRNS1_13CardAppStatusEEEESt20_Sp_alloc_shared_tagIT_EDpOT0_=so_stub_for_libtelux_tel
-Wl,--defsym=_ZNSt12__shared_ptrIN5telux3tel11CardAppImplELN9__gnu_cxx12_Lock_policyE2EEC2ISaIS2_EJRiRNS1_13CardAppStatusEEEESt20_Sp_alloc_shared_tagIT_EDpOT0_=so_stub_for_libtelux_tel
-Wl,--defsym=_ZNSt12__shared_ptrIN5telux3tel12PhoneManagerELN9__gnu_cxx12_Lock_policyE2EEC1ISaIS2_EJEEESt20_Sp_alloc_shared_tagIT_EDpOT0_=so_stub_for_libtelux_tel
-Wl,--defsym=_ZNSt12__shared_ptrIN5telux3tel12PhoneManagerELN9__gnu_cxx12_Lock_policyE2EEC2ISaIS2_EJEEESt20_Sp_alloc_shared_tagIT_EDpOT0_=so_stub_for_libtelux_tel
-Wl,--defsym=_ZNSt12__shared_ptrIN5telux3tel15CardManagerImplELN9__gnu_cxx12_Lock_policyE2EEC1ISaIS2_EJEEESt20_Sp_alloc_shared_tagIT_EDpOT0_=so_stub_for_libtelux_tel
-Wl,--defsym=_ZNSt12__shared_ptrIN5telux3tel15CardManagerImplELN9__gnu_cxx12_Lock_policyE2EEC2ISaIS2_EJEEESt20_Sp_alloc_shared_tagIT_EDpOT0_=so_stub_for_libtelux_tel
-Wl,--defsym=_ZNSt12__shared_ptrIN5telux3tel15MultiSimManagerELN9__gnu_cxx12_Lock_policyE2EEC1ISaIS2_EJEEESt20_Sp_alloc_shared_tagIT_EDpOT0_=so_stub_for_libtelux_tel
-Wl,--defsym=_ZNSt12__shared_ptrIN5telux3tel15MultiSimManagerELN9__gnu_cxx12_Lock_policyE2EEC2ISaIS2_EJEEESt20_Sp_alloc_shared_tagIT_EDpOT0_=so_stub_for_libtelux_tel
-Wl,--defsym=_ZNSt12__shared_ptrIN5telux3tel16EcallManagerImplELN9__gnu_cxx12_Lock_policyE2EEC1ISaIS2_EJEEESt20_Sp_alloc_shared_tagIT_EDpOT0_=so_stub_for_libtelux_tel
-Wl,--defsym=_ZNSt12__shared_ptrIN5telux3tel16EcallManagerImplELN9__gnu_cxx12_Lock_policyE2EEC2ISaIS2_EJEEESt20_Sp_alloc_shared_tagIT_EDpOT0_=so_stub_for_libtelux_tel
-Wl,--defsym=_ZNSt12__shared_ptrIN5telux3tel18IncomingSmsHandlerELN9__gnu_cxx12_Lock_policyE2EEC1ISaIS2_EJRiSt10shared_ptrINS1_10SmsManagerEEEEESt20_Sp_alloc_shared_tagIT_EDpOT0_=so_stub_for_libtelux_tel
-Wl,--defsym=_ZNSt12__shared_ptrIN5telux3tel18IncomingSmsHandlerELN9__gnu_cxx12_Lock_policyE2EEC2ISaIS2_EJRiSt10shared_ptrINS1_10SmsManagerEEEEESt20_Sp_alloc_shared_tagIT_EDpOT0_=so_stub_for_libtelux_tel
-Wl,--defsym=_ZNSt12__shared_ptrIN5telux3tel18OutgoingSmsHandlerELN9__gnu_cxx12_Lock_policyE2EEC1ISaIS2_EJRiSt10shared_ptrINS1_10SmsManagerEEEEESt20_Sp_alloc_shared_tagIT_EDpOT0_=so_stub_for_libtelux_tel
-Wl,--defsym=_ZNSt12__shared_ptrIN5telux3tel18OutgoingSmsHandlerELN9__gnu_cxx12_Lock_policyE2EEC2ISaIS2_EJRiSt10shared_ptrINS1_10SmsManagerEEEEESt20_Sp_alloc_shared_tagIT_EDpOT0_=so_stub_for_libtelux_tel
-Wl,--defsym=_ZNSt12__shared_ptrIN5telux3tel18SapCardManagerImplELN9__gnu_cxx12_Lock_policyE2EEC1ISaIS2_EJRiEEESt20_Sp_alloc_shared_tagIT_EDpOT0_=so_stub_for_libtelux_tel
-Wl,--defsym=_ZNSt12__shared_ptrIN5telux3tel18SapCardManagerImplELN9__gnu_cxx12_Lock_policyE2EEC2ISaIS2_EJRiEEESt20_Sp_alloc_shared_tagIT_EDpOT0_=so_stub_for_libtelux_tel
-Wl,--defsym=_ZNSt12__shared_ptrIN5telux3tel19CardFileHandlerImplELN9__gnu_cxx12_Lock_policyE2EEC1ISaIS2_EJ6SlotIdEEESt20_Sp_alloc_shared_tagIT_EDpOT0_=so_stub_for_libtelux_tel
-Wl,--defsym=_ZNSt12__shared_ptrIN5telux3tel19CardFileHandlerImplELN9__gnu_cxx12_Lock_policyE2EEC2ISaIS2_EJ6SlotIdEEESt20_Sp_alloc_shared_tagIT_EDpOT0_=so_stub_for_libtelux_tel
-Wl,--defsym=_ZNSt12__shared_ptrIN5telux3tel19SubscriptionManagerELN9__gnu_cxx12_Lock_policyE2EEC1ISaIS2_EJEEESt20_Sp_alloc_shared_tagIT_EDpOT0_=so_stub_for_libtelux_tel
-Wl,--defsym=_ZNSt12__shared_ptrIN5telux3tel19SubscriptionManagerELN9__gnu_cxx12_Lock_policyE2EEC2ISaIS2_EJEEESt20_Sp_alloc_shared_tagIT_EDpOT0_=so_stub_for_libtelux_tel
-Wl,--defsym=_ZNSt12__shared_ptrIN5telux3tel21SimProfileManagerImplELN9__gnu_cxx12_Lock_policyE2EEC1ISaIS2_EJEEESt20_Sp_alloc_shared_tagIT_EDpOT0_=so_stub_for_libtelux_tel
-Wl,--defsym=_ZNSt12__shared_ptrIN5telux3tel21SimProfileManagerImplELN9__gnu_cxx12_Lock_policyE2EEC2ISaIS2_EJEEESt20_Sp_alloc_shared_tagIT_EDpOT0_=so_stub_for_libtelux_tel
-Wl,--defsym=_ZNSt12__shared_ptrIN5telux3tel22ImsSettingsManagerImplELN9__gnu_cxx12_Lock_policyE2EEC1ISaIS2_EJEEESt20_Sp_alloc_shared_tagIT_EDpOT0_=so_stub_for_libtelux_tel
-Wl,--defsym=_ZNSt12__shared_ptrIN5telux3tel22ImsSettingsManagerImplELN9__gnu_cxx12_Lock_policyE2EEC2ISaIS2_EJEEESt20_Sp_alloc_shared_tagIT_EDpOT0_=so_stub_for_libtelux_tel
-Wl,--defsym=_ZNSt12__shared_ptrIN5telux3tel23ApSimProfileManagerImplELN9__gnu_cxx12_Lock_policyE2EEC1ISaIS2_EJEEESt20_Sp_alloc_shared_tagIT_EDpOT0_=so_stub_for_libtelux_tel
-Wl,--defsym=_ZNSt12__shared_ptrIN5telux3tel23ApSimProfileManagerImplELN9__gnu_cxx12_Lock_policyE2EEC2ISaIS2_EJEEESt20_Sp_alloc_shared_tagIT_EDpOT0_=so_stub_for_libtelux_tel
-Wl,--defsym=_ZNSt12__shared_ptrIN5telux3tel26HttpTransactionManagerImplELN9__gnu_cxx12_Lock_policyE2EEC1ISaIS2_EJEEESt20_Sp_alloc_shared_tagIT_EDpOT0_=so_stub_for_libtelux_tel
-Wl,--defsym=_ZNSt12__shared_ptrIN5telux3tel26HttpTransactionManagerImplELN9__gnu_cxx12_Lock_policyE2EEC2ISaIS2_EJEEESt20_Sp_alloc_shared_tagIT_EDpOT0_=so_stub_for_libtelux_tel
-Wl,--defsym=_ZNSt12__shared_ptrIN5telux6common12ISDKListenerELN9__gnu_cxx12_Lock_policyE2EEC1ERKSt10__weak_ptrIS2_LS4_2EESt9nothrow_t=so_stub_for_libtelux_tel
-Wl,--defsym=_ZNSt12__shared_ptrIN5telux6common12ISDKListenerELN9__gnu_cxx12_Lock_policyE2EEC2ERKSt10__weak_ptrIS2_LS4_2EESt9nothrow_t=so_stub_for_libtelux_tel
-Wl,--defsym=_ZNSt12__shared_ptrIN5telux6common24ICommandResponseCallbackELN9__gnu_cxx12_Lock_policyE2EEC1ERKSt10__weak_ptrIS2_LS4_2EESt9nothrow_t=so_stub_for_libtelux_tel
-Wl,--defsym=_ZNSt12__shared_ptrIN5telux6common24ICommandResponseCallbackELN9__gnu_cxx12_Lock_policyE2EEC2ERKSt10__weak_ptrIS2_LS4_2EESt9nothrow_t=so_stub_for_libtelux_tel
-Wl,--defsym=_ZNSt12__shared_ptrINSt13__future_base13_State_baseV2ELN9__gnu_cxx12_Lock_policyE2EE5resetEv=so_stub_for_libtelux_tel
-Wl,--defsym=_ZNSt12_Vector_baseINSt7__cxx119sub_matchIN9__gnu_cxx17__normal_iteratorIPKcNS0_12basic_stringIcSt11char_traitsIcESaIcEEEEEEESaISC_EE17_M_create_storageEm=so_stub_for_libtelux_tel
-Wl,--defsym=_ZNSt12__weak_countILN9__gnu_cxx12_Lock_policyE2EEaSERKSt14__shared_countILS1_2EE=so_stub_for_libtelux_tel
-Wl,--defsym=_ZNSt13__future_base13_State_baseV210wait_untilINSt6chrono3_V212system_clockENS2_8durationIlSt5ratioILl1ELl1000000000EEEEEESt13future_statusRKNS2_10time_pointIT_T0_EE=so_stub_for_libtelux_tel
-Wl,--defsym=_ZNSt13__future_base13_State_baseV213_M_set_resultESt8functionIFSt10unique_ptrINS_12_Result_baseENS3_8_DeleterEEvEEb=so_stub_for_libtelux_tel
-Wl,--defsym=_ZNSt13__future_base13_State_baseV216_M_break_promiseESt10unique_ptrINS_12_Result_baseENS2_8_DeleterEE=so_stub_for_libtelux_tel
-Wl,--defsym=_ZNSt13__future_base13_State_baseV217_M_complete_asyncEv=so_stub_for_libtelux_tel
-Wl,--defsym=_ZNSt13__future_base13_State_baseV24waitEv=so_stub_for_libtelux_tel
-Wl,--defsym=_ZNSt13__future_base13_State_baseV29_M_do_setEPSt8functionIFSt10unique_ptrINS_12_Result_baseENS3_8_DeleterEEvEEPb=so_stub_for_libtelux_tel
-Wl,--defsym=_ZNSt13__future_base13_State_baseV2D0Ev=so_stub_for_libtelux_tel
-Wl,--defsym=_ZNSt13__future_base13_State_baseV2D1Ev=so_stub_for_libtelux_tel
-Wl,--defsym=_ZNSt13__future_base13_State_baseV2D2Ev=so_stub_for_libtelux_tel
-Wl,--defsym=_ZNSt13__future_base21_Async_state_commonV217_M_complete_asyncEv=so_stub_for_libtelux_tel
-Wl,--defsym=_ZNSt13__future_base21_Async_state_commonV2D0Ev=so_stub_for_libtelux_tel
-Wl,--defsym=_ZNSt13__future_base21_Async_state_commonV2D1Ev=so_stub_for_libtelux_tel
-Wl,--defsym=_ZNSt13__future_base21_Async_state_commonV2D2Ev=so_stub_for_libtelux_tel
-Wl,--defsym=_ZNSt13__future_base7_ResultIbE10_M_destroyEv=so_stub_for_libtelux_tel
-Wl,--defsym=_ZNSt13__future_base7_ResultIbED0Ev=so_stub_for_libtelux_tel
-Wl,--defsym=_ZNSt13__future_base7_ResultIbED1Ev=so_stub_for_libtelux_tel
-Wl,--defsym=_ZNSt13__future_base7_ResultIbED2Ev=so_stub_for_libtelux_tel
-Wl,--defsym=_ZNSt13__future_base7_ResultIN5telux6common13ServiceStatusEE10_M_destroyEv=so_stub_for_libtelux_tel
-Wl,--defsym=_ZNSt13__future_base7_ResultIN5telux6common13ServiceStatusEED0Ev=so_stub_for_libtelux_tel
-Wl,--defsym=_ZNSt13__future_base7_ResultIN5telux6common13ServiceStatusEED1Ev=so_stub_for_libtelux_tel
-Wl,--defsym=_ZNSt13__future_base7_ResultIN5telux6common13ServiceStatusEED2Ev=so_stub_for_libtelux_tel
-Wl,--defsym=_ZNSt13__future_base7_ResultIN5telux6common9ErrorCodeEE10_M_destroyEv=so_stub_for_libtelux_tel
-Wl,--defsym=_ZNSt13__future_base7_ResultIN5telux6common9ErrorCodeEED0Ev=so_stub_for_libtelux_tel
-Wl,--defsym=_ZNSt13__future_base7_ResultIN5telux6common9ErrorCodeEED1Ev=so_stub_for_libtelux_tel
-Wl,--defsym=_ZNSt13__future_base7_ResultIN5telux6common9ErrorCodeEED2Ev=so_stub_for_libtelux_tel
-Wl,--defsym=_ZNSt13__future_base7_ResultIvE10_M_destroyEv=so_stub_for_libtelux_tel
-Wl,--defsym=_ZNSt13__future_base7_ResultIvED0Ev=so_stub_for_libtelux_tel
-Wl,--defsym=_ZNSt13__future_base7_ResultIvED1Ev=so_stub_for_libtelux_tel
-Wl,--defsym=_ZNSt13__future_base7_ResultIvED2Ev=so_stub_for_libtelux_tel
-Wl,--defsym=_ZNSt14__basic_futureIbEC1ERKSt10shared_ptrINSt13__future_base13_State_baseV2EE=so_stub_for_libtelux_tel
-Wl,--defsym=_ZNSt14__basic_futureIbEC2ERKSt10shared_ptrINSt13__future_base13_State_baseV2EE=so_stub_for_libtelux_tel
-Wl,--defsym=_ZNSt14__basic_futureIN5telux6common13ServiceStatusEEC1ERKSt10shared_ptrINSt13__future_base13_State_baseV2EE=so_stub_for_libtelux_tel
-Wl,--defsym=_ZNSt14__basic_futureIN5telux6common13ServiceStatusEEC2ERKSt10shared_ptrINSt13__future_base13_State_baseV2EE=so_stub_for_libtelux_tel
-Wl,--defsym=_ZNSt14__basic_futureIN5telux6common9ErrorCodeEEC1ERKSt10shared_ptrINSt13__future_base13_State_baseV2EE=so_stub_for_libtelux_tel
-Wl,--defsym=_ZNSt14__basic_futureIN5telux6common9ErrorCodeEEC2ERKSt10shared_ptrINSt13__future_base13_State_baseV2EE=so_stub_for_libtelux_tel
-Wl,--defsym=_ZNSt14__basic_futureIvEC1ERKSt10shared_ptrINSt13__future_base13_State_baseV2EE=so_stub_for_libtelux_tel
-Wl,--defsym=_ZNSt14__basic_futureIvEC2ERKSt10shared_ptrINSt13__future_base13_State_baseV2EE=so_stub_for_libtelux_tel
-Wl,--defsym=_ZNSt14_Function_base13_Base_managerINSt8__detail15_BracketMatcherINSt7__cxx1112regex_traitsIcEELb0ELb0EEEE10_M_managerERSt9_Any_dataRKS8_St18_Manager_operation=so_stub_for_libtelux_tel
-Wl,--defsym=_ZNSt14_Function_base13_Base_managerINSt8__detail15_BracketMatcherINSt7__cxx1112regex_traitsIcEELb0ELb0EEEE9_M_createIS6_EEvRSt9_Any_dataOT_St17integral_constantIbLb0EE=so_stub_for_libtelux_tel
-Wl,--defsym=_ZNSt14_Function_base13_Base_managerINSt8__detail15_BracketMatcherINSt7__cxx1112regex_traitsIcEELb0ELb1EEEE10_M_managerERSt9_Any_dataRKS8_St18_Manager_operation=so_stub_for_libtelux_tel
-Wl,--defsym=_ZNSt14_Function_base13_Base_managerINSt8__detail15_BracketMatcherINSt7__cxx1112regex_traitsIcEELb0ELb1EEEE9_M_createIS6_EEvRSt9_Any_dataOT_St17integral_constantIbLb0EE=so_stub_for_libtelux_tel
-Wl,--defsym=_ZNSt14_Function_base13_Base_managerINSt8__detail15_BracketMatcherINSt7__cxx1112regex_traitsIcEELb1ELb0EEEE10_M_managerERSt9_Any_dataRKS8_St18_Manager_operation=so_stub_for_libtelux_tel
-Wl,--defsym=_ZNSt14_Function_base13_Base_managerINSt8__detail15_BracketMatcherINSt7__cxx1112regex_traitsIcEELb1ELb0EEEE9_M_createIS6_EEvRSt9_Any_dataOT_St17integral_constantIbLb0EE=so_stub_for_libtelux_tel
-Wl,--defsym=_ZNSt14_Function_base13_Base_managerINSt8__detail15_BracketMatcherINSt7__cxx1112regex_traitsIcEELb1ELb1EEEE10_M_managerERSt9_Any_dataRKS8_St18_Manager_operation=so_stub_for_libtelux_tel
-Wl,--defsym=_ZNSt14_Function_base13_Base_managerINSt8__detail15_BracketMatcherINSt7__cxx1112regex_traitsIcEELb1ELb1EEEE9_M_createIS6_EEvRSt9_Any_dataOT_St17integral_constantIbLb0EE=so_stub_for_libtelux_tel
-Wl,--defsym=_ZNSt14_Function_base13_Base_managerIZN5telux6common13FactoryHelper10getManagerINS1_3tel11ISmsManagerEEESt10shared_ptrIT_ENSt7__cxx1112basic_stringIcSt11char_traitsIcESaIcEEERSt8weak_ptrIS8_ERSt3mapIjSt6vectorISt8functionIFvNS2_13ServiceStatusEEESaISO_EESt4lessIjESaISt4pairIKjSQ_EEERjSO_SL_IFS9_SO_jEEEUlSM_E0_E10_M_managerERSt9_Any_dataRKS14_St18_Manager_operation=so_stub_for_libtelux_tel
-Wl,--defsym=_ZNSt14_Function_base13_Base_managerIZN5telux6common13FactoryHelper10getManagerINS1_3tel12ICallManagerEEESt10shared_ptrIT_ENSt7__cxx1112basic_stringIcSt11char_traitsIcESaIcEEERSt8weak_ptrIS8_ERSt3mapIjSt6vectorISt8functionIFvNS2_13ServiceStatusEEESaISO_EESt4lessIjESaISt4pairIKjSQ_EEERjSO_SL_IFS9_SO_jEEEUlSM_E0_E10_M_managerERSt9_Any_dataRKS14_St18_Manager_operation=so_stub_for_libtelux_tel
-Wl,--defsym=_ZNSt14_Function_base13_Base_managerIZN5telux6common13FactoryHelper10getManagerINS1_3tel12ICardManagerEEESt10shared_ptrIT_ENSt7__cxx1112basic_stringIcSt11char_traitsIcESaIcEEERSt8weak_ptrIS8_ERSt3mapIjSt6vectorISt8functionIFvNS2_13ServiceStatusEEESaISO_EESt4lessIjESaISt4pairIKjSQ_EEERjSO_SL_IFS9_SO_jEEEUlSM_E0_E10_M_managerERSt9_Any_dataRKS14_St18_Manager_operation=so_stub_for_libtelux_tel
-Wl,--defsym=_ZNSt14_Function_base13_Base_managerIZN5telux6common13FactoryHelper10getManagerINS1_3tel13IEcallManagerEEESt10shared_ptrIT_ENSt7__cxx1112basic_stringIcSt11char_traitsIcESaIcEEERSt8weak_ptrIS8_ERSt6vectorISt8functionIFvNS2_13ServiceStatusEEESaISN_EESN_SK_IFS9_SN_EEEUlSL_E0_E10_M_managerERSt9_Any_dataRKSV_St18_Manager_operation=so_stub_for_libtelux_tel
-Wl,--defsym=_ZNSt14_Function_base13_Base_managerIZN5telux6common13FactoryHelper10getManagerINS1_3tel13IPhoneManagerEEESt10shared_ptrIT_ENSt7__cxx1112basic_stringIcSt11char_traitsIcESaIcEEERSt8weak_ptrIS8_ERSt3mapIjSt6vectorISt8functionIFvNS2_13ServiceStatusEEESaISO_EESt4lessIjESaISt4pairIKjSQ_EEERjSO_SL_IFS9_SO_jEEEUlSM_E0_E10_M_managerERSt9_Any_dataRKS14_St18_Manager_operation=so_stub_for_libtelux_tel
-Wl,--defsym=_ZNSt14_Function_base13_Base_managerIZN5telux6common13FactoryHelper10getManagerINS1_3tel15ISapCardManagerEEESt10shared_ptrIT_ENSt7__cxx1112basic_stringIcSt11char_traitsIcESaIcEEERSt8weak_ptrIS8_ERSt3mapIjSt6vectorISt8functionIFvNS2_13ServiceStatusEEESaISO_EESt4lessIjESaISt4pairIKjSQ_EEERjSO_SL_IFS9_SO_jEEEUlSM_E0_E10_M_managerERSt9_Any_dataRKS14_St18_Manager_operation=so_stub_for_libtelux_tel
-Wl,--defsym=_ZNSt14_Function_base13_Base_managerIZN5telux6common13FactoryHelper10getManagerINS1_3tel16IMultiSimManagerEEESt10shared_ptrIT_ENSt7__cxx1112basic_stringIcSt11char_traitsIcESaIcEEERSt8weak_ptrIS8_ERSt3mapIjSt6vectorISt8functionIFvNS2_13ServiceStatusEEESaISO_EESt4lessIjESaISt4pairIKjSQ_EEERjSO_SL_IFS9_SO_jEEEUlSM_E0_E10_M_managerERSt9_Any_dataRKS14_St18_Manager_operation=so_stub_for_libtelux_tel
-Wl,--defsym=_ZNSt14_Function_base13_Base_managerIZN5telux6common13FactoryHelper10getManagerINS1_3tel17IRemoteSimManagerEEESt10shared_ptrIT_ENSt7__cxx1112basic_stringIcSt11char_traitsIcESaIcEEERSt8weak_ptrIS8_ERSt3mapIjSt6vectorISt8functionIFvNS2_13ServiceStatusEEESaISO_EESt4lessIjESaISt4pairIKjSQ_EEERjSO_SL_IFS9_SO_jEEEUlSM_E0_E10_M_managerERSt9_Any_dataRKS14_St18_Manager_operation=so_stub_for_libtelux_tel
-Wl,--defsym=_ZNSt14_Function_base13_Base_managerIZN5telux6common13FactoryHelper10getManagerINS1_3tel18ISimProfileManagerEEESt10shared_ptrIT_ENSt7__cxx1112basic_stringIcSt11char_traitsIcESaIcEEERSt8weak_ptrIS8_ERSt3mapIjSt6vectorISt8functionIFvNS2_13ServiceStatusEEESaISO_EESt4lessIjESaISt4pairIKjSQ_EEERjSO_SL_IFS9_SO_jEEEUlSM_E0_E10_M_managerERSt9_Any_dataRKS14_St18_Manager_operation=so_stub_for_libtelux_tel
-Wl,--defsym=_ZNSt14_Function_base13_Base_managerIZN5telux6common13FactoryHelper10getManagerINS1_3tel19IImsSettingsManagerEEESt10shared_ptrIT_ENSt7__cxx1112basic_stringIcSt11char_traitsIcESaIcEEERSt8weak_ptrIS8_ERSt3mapIjSt6vectorISt8functionIFvNS2_13ServiceStatusEEESaISO_EESt4lessIjESaISt4pairIKjSQ_EEERjSO_SL_IFS9_SO_jEEEUlSM_E0_E10_M_managerERSt9_Any_dataRKS14_St18_Manager_operation=so_stub_for_libtelux_tel
-Wl,--defsym=_ZNSt14_Function_base13_Base_managerIZN5telux6common13FactoryHelper10getManagerINS1_3tel20IApSimProfileManagerEEESt10shared_ptrIT_ENSt7__cxx1112basic_stringIcSt11char_traitsIcESaIcEEERSt8weak_ptrIS8_ERSt3mapIjSt6vectorISt8functionIFvNS2_13ServiceStatusEEESaISO_EESt4lessIjESaISt4pairIKjSQ_EEERjSO_SL_IFS9_SO_jEEEUlSM_E0_E10_M_managerERSt9_Any_dataRKS14_St18_Manager_operation=so_stub_for_libtelux_tel
-Wl,--defsym=_ZNSt14_Function_base13_Base_managerIZN5telux6common13FactoryHelper10getManagerINS1_3tel20ISubscriptionManagerEEESt10shared_ptrIT_ENSt7__cxx1112basic_stringIcSt11char_traitsIcESaIcEEERSt8weak_ptrIS8_ERSt3mapIjSt6vectorISt8functionIFvNS2_13ServiceStatusEEESaISO_EESt4lessIjESaISt4pairIKjSQ_EEERjSO_SL_IFS9_SO_jEEEUlSM_E0_E10_M_managerERSt9_Any_dataRKS14_St18_Manager_operation=so_stub_for_libtelux_tel
-Wl,--defsym=_ZNSt14_Function_base13_Base_managerIZN5telux6common13FactoryHelper10getManagerINS1_3tel20ISuppServicesManagerEEESt10shared_ptrIT_ENSt7__cxx1112basic_stringIcSt11char_traitsIcESaIcEEERSt8weak_ptrIS8_ERSt3mapIjSt6vectorISt8functionIFvNS2_13ServiceStatusEEESaISO_EESt4lessIjESaISt4pairIKjSQ_EEERjSO_SL_IFS9_SO_jEEEUlSM_E0_E10_M_managerERSt9_Any_dataRKS14_St18_Manager_operation=so_stub_for_libtelux_tel
-Wl,--defsym=_ZNSt14_Function_base13_Base_managerIZN5telux6common13FactoryHelper10getManagerINS1_3tel21ICellBroadcastManagerEEESt10shared_ptrIT_ENSt7__cxx1112basic_stringIcSt11char_traitsIcESaIcEEERSt8weak_ptrIS8_ERSt3mapIjSt6vectorISt8functionIFvNS2_13ServiceStatusEEESaISO_EESt4lessIjESaISt4pairIKjSQ_EEERjSO_SL_IFS9_SO_jEEEUlSM_E0_E10_M_managerERSt9_Any_dataRKS14_St18_Manager_operation=so_stub_for_libtelux_tel
-Wl,--defsym=_ZNSt14_Function_base13_Base_managerIZN5telux6common13FactoryHelper10getManagerINS1_3tel21IServingSystemManagerEEESt10shared_ptrIT_ENSt7__cxx1112basic_stringIcSt11char_traitsIcESaIcEEERSt8weak_ptrIS8_ERSt3mapIjSt6vectorISt8functionIFvNS2_13ServiceStatusEEESaISO_EESt4lessIjESaISt4pairIKjSQ_EEERjSO_SL_IFS9_SO_jEEEUlSM_E0_E10_M_managerERSt9_Any_dataRKS14_St18_Manager_operation=so_stub_for_libtelux_tel
-Wl,--defsym=_ZNSt14_Function_base13_Base_managerIZN5telux6common13FactoryHelper10getManagerINS1_3tel23IHttpTransactionManagerEEESt10shared_ptrIT_ENSt7__cxx1112basic_stringIcSt11char_traitsIcESaIcEEERSt8weak_ptrIS8_ERSt3mapIjSt6vectorISt8functionIFvNS2_13ServiceStatusEEESaISO_EESt4lessIjESaISt4pairIKjSQ_EEERjSO_SL_IFS9_SO_jEEEUlSM_E0_E10_M_managerERSt9_Any_dataRKS14_St18_Manager_operation=so_stub_for_libtelux_tel
-Wl,--defsym=_ZNSt14_Function_base13_Base_managerIZN5telux6common13FactoryHelper10getManagerINS1_3tel24IImsServingSystemManagerEEESt10shared_ptrIT_ENSt7__cxx1112basic_stringIcSt11char_traitsIcESaIcEEERSt8weak_ptrIS8_ERSt3mapIjSt6vectorISt8functionIFvNS2_13ServiceStatusEEESaISO_EESt4lessIjESaISt4pairIKjSQ_EEERjSO_SL_IFS9_SO_jEEEUlSM_E0_E10_M_managerERSt9_Any_dataRKS14_St18_Manager_operation=so_stub_for_libtelux_tel
-Wl,--defsym=_ZNSt14_Function_base13_Base_managerIZN5telux6common13FactoryHelper10getManagerINS1_3tel24INetworkSelectionManagerEEESt10shared_ptrIT_ENSt7__cxx1112basic_stringIcSt11char_traitsIcESaIcEEERSt8weak_ptrIS8_ERSt3mapIjSt6vectorISt8functionIFvNS2_13ServiceStatusEEESaISO_EESt4lessIjESaISt4pairIKjSQ_EEERjSO_SL_IFS9_SO_jEEEUlSM_E0_E10_M_managerERSt9_Any_dataRKS14_St18_Manager_operation=so_stub_for_libtelux_tel
-Wl,--defsym=_ZNSt14_Function_baseD1Ev=so_stub_for_libtelux_tel
-Wl,--defsym=_ZNSt14_Function_baseD2Ev=so_stub_for_libtelux_tel
-Wl,--defsym=_ZNSt14__shared_countILN9__gnu_cxx12_Lock_policyE2EEaSERKS2_=so_stub_for_libtelux_tel
-Wl,--defsym=_ZNSt14__shared_countILN9__gnu_cxx12_Lock_policyE2EEC1ERKSt12__weak_countILS1_2EE=so_stub_for_libtelux_tel
-Wl,--defsym=_ZNSt14__shared_countILN9__gnu_cxx12_Lock_policyE2EEC1ERKSt12__weak_countILS1_2EESt9nothrow_t=so_stub_for_libtelux_tel
-Wl,--defsym=_ZNSt14__shared_countILN9__gnu_cxx12_Lock_policyE2EEC1I20GsmCmasCellbroadcastSaIS4_EJRKS4_EEERPT_St20_Sp_alloc_shared_tagIT0_EDpOT1_=so_stub_for_libtelux_tel
-Wl,--defsym=_ZNSt14__shared_countILN9__gnu_cxx12_Lock_policyE2EEC1IN5telux3tel10SmsManagerESaIS6_EJRiEEERPT_St20_Sp_alloc_shared_tagIT0_EDpOT1_=so_stub_for_libtelux_tel
-Wl,--defsym=_ZNSt14__shared_countILN9__gnu_cxx12_Lock_policyE2EEC1IN5telux3tel11CardAppImplESaIS6_EJRiRNS5_13CardAppStatusEEEERPT_St20_Sp_alloc_shared_tagIT0_EDpOT1_=so_stub_for_libtelux_tel
-Wl,--defsym=_ZNSt14__shared_countILN9__gnu_cxx12_Lock_policyE2EEC1IN5telux3tel11GsmCellInfoESaIS6_EJRiRNS5_15GsmCellIdentityERNS5_21GsmSignalStrengthInfoEEEERPT_St20_Sp_alloc_shared_tagIT0_EDpOT1_=so_stub_for_libtelux_tel
-Wl,--defsym=_ZNSt14__shared_countILN9__gnu_cxx12_Lock_policyE2EEC1IN5telux3tel11LteCellInfoESaIS6_EJRiRNS5_15LteCellIdentityERNS5_21LteSignalStrengthInfoEEEERPT_St20_Sp_alloc_shared_tagIT0_EDpOT1_=so_stub_for_libtelux_tel
-Wl,--defsym=_ZNSt14__shared_countILN9__gnu_cxx12_Lock_policyE2EEC1IN5telux3tel12CdmaCellInfoESaIS6_EJRiRNS5_16CdmaCellIdentityERNS5_22CdmaSignalStrengthInfoEEEERPT_St20_Sp_alloc_shared_tagIT0_EDpOT1_=so_stub_for_libtelux_tel
-Wl,--defsym=_ZNSt14__shared_countILN9__gnu_cxx12_Lock_policyE2EEC1IN5telux3tel12Nr5gCellInfoESaIS6_EJRiRNS5_16Nr5gCellIdentityERNS5_22Nr5gSignalStrengthInfoEEEERPT_St20_Sp_alloc_shared_tagIT0_EDpOT1_=so_stub_for_libtelux_tel
-Wl,--defsym=_ZNSt14__shared_countILN9__gnu_cxx12_Lock_policyE2EEC1IN5telux3tel13WcdmaCellInfoESaIS6_EJRiRNS5_17WcdmaCellIdentityERNS5_23WcdmaSignalStrengthInfoEEEERPT_St20_Sp_alloc_shared_tagIT0_EDpOT1_=so_stub_for_libtelux_tel
-Wl,--defsym=_ZNSt14__shared_countILN9__gnu_cxx12_Lock_policyE2EEC1IN5telux3tel14Nb1NtnCellInfoESaIS6_EJRiRNS5_18Nb1NtnCellIdentityERNS5_24Nb1NtnSignalStrengthInfoEEEERPT_St20_Sp_alloc_shared_tagIT0_EDpOT1_=so_stub_for_libtelux_tel
-Wl,--defsym=_ZNSt14__shared_countILN9__gnu_cxx12_Lock_policyE2EEC1IN5telux3tel14SignalStrengthESaIS6_EJDnDnDnDnDnDnDnEEERPT_St20_Sp_alloc_shared_tagIT0_EDpOT1_=so_stub_for_libtelux_tel
-Wl,--defsym=_ZNSt14__shared_countILN9__gnu_cxx12_Lock_policyE2EEC1IN5telux3tel15TdscdmaCellInfoESaIS6_EJRiRNS5_19TdscdmaCellIdentityERNS5_25TdscdmaSignalStrengthInfoEEEERPT_St20_Sp_alloc_shared_tagIT0_EDpOT1_=so_stub_for_libtelux_tel
-Wl,--defsym=_ZNSt14__shared_countILN9__gnu_cxx12_Lock_policyE2EEC1IN5telux3tel15WarningAreaInfoESaIS6_EJRiRSt6vectorINS5_8GeometryESaISA_EEEEERPT_St20_Sp_alloc_shared_tagIT0_EDpOT1_=so_stub_for_libtelux_tel
-Wl,--defsym=_ZNSt14__shared_countILN9__gnu_cxx12_Lock_policyE2EEC1IN5telux3tel16RemoteSimManagerESaIS6_EJRiEEERPT_St20_Sp_alloc_shared_tagIT0_EDpOT1_=so_stub_for_libtelux_tel
-Wl,--defsym=_ZNSt14__shared_countILN9__gnu_cxx12_Lock_policyE2EEC1IN5telux3tel16RilCommandRespCbESaIS6_EJEEERPT_St20_Sp_alloc_shared_tagIT0_EDpOT1_=so_stub_for_libtelux_tel
-Wl,--defsym=_ZNSt14__shared_countILN9__gnu_cxx12_Lock_policyE2EEC1IN5telux3tel16SubscriptionImplESaIS6_EJRiEEERPT_St20_Sp_alloc_shared_tagIT0_EDpOT1_=so_stub_for_libtelux_tel
-Wl,--defsym=_ZNSt14__shared_countILN9__gnu_cxx12_Lock_policyE2EEC1IN5telux3tel18IncomingSmsHandlerESaIS6_EJRiSt10shared_ptrINS5_10SmsManagerEEEEERPT_St20_Sp_alloc_shared_tagIT0_EDpOT1_=so_stub_for_libtelux_tel
-Wl,--defsym=_ZNSt14__shared_countILN9__gnu_cxx12_Lock_policyE2EEC1IN5telux3tel18OutgoingSmsHandlerESaIS6_EJRiSt10shared_ptrINS5_10SmsManagerEEEEERPT_St20_Sp_alloc_shared_tagIT0_EDpOT1_=so_stub_for_libtelux_tel
-Wl,--defsym=_ZNSt14__shared_countILN9__gnu_cxx12_Lock_policyE2EEC1IN5telux3tel18SapCardManagerImplESaIS6_EJRiEEERPT_St20_Sp_alloc_shared_tagIT0_EDpOT1_=so_stub_for_libtelux_tel
-Wl,--defsym=_ZNSt14__shared_countILN9__gnu_cxx12_Lock_policyE2EEC1IN5telux3tel19CardFileHandlerImplESaIS6_EJ6SlotIdEEERPT_St20_Sp_alloc_shared_tagIT0_EDpOT1_=so_stub_for_libtelux_tel
-Wl,--defsym=_ZNSt14__shared_countILN9__gnu_cxx12_Lock_policyE2EEC1IN5telux3tel20CellBroadcastMessageESaIS6_EJRSt10shared_ptrINS5_8EtwsInfoEEEEERPT_St20_Sp_alloc_shared_tagIT0_EDpOT1_=so_stub_for_libtelux_tel
-Wl,--defsym=_ZNSt14__shared_countILN9__gnu_cxx12_Lock_policyE2EEC1IN5telux3tel20ServingSystemManagerESaIS6_EJRiEEERPT_St20_Sp_alloc_shared_tagIT0_EDpOT1_=so_stub_for_libtelux_tel
-Wl,--defsym=_ZNSt14__shared_countILN9__gnu_cxx12_Lock_policyE2EEC1IN5telux3tel23NetworkSelectionManagerESaIS6_EJRiEEERPT_St20_Sp_alloc_shared_tagIT0_EDpOT1_=so_stub_for_libtelux_tel
-Wl,--defsym=_ZNSt14__shared_countILN9__gnu_cxx12_Lock_policyE2EEC1IN5telux3tel23SuppServicesManagerImplESaIS6_EJR6SlotIdEEERPT_St20_Sp_alloc_shared_tagIT0_EDpOT1_=so_stub_for_libtelux_tel
-Wl,--defsym=_ZNSt14__shared_countILN9__gnu_cxx12_Lock_policyE2EEC1IN5telux3tel24CellBroadcastManagerImplESaIS6_EJR6SlotIdEEERPT_St20_Sp_alloc_shared_tagIT0_EDpOT1_=so_stub_for_libtelux_tel
-Wl,--defsym=_ZNSt14__shared_countILN9__gnu_cxx12_Lock_policyE2EEC1IN5telux3tel27ImsServingSystemManagerImplESaIS6_EJR6SlotIdEEERPT_St20_Sp_alloc_shared_tagIT0_EDpOT1_=so_stub_for_libtelux_tel
-Wl,--defsym=_ZNSt14__shared_countILN9__gnu_cxx12_Lock_policyE2EEC1IN5telux3tel3ril7RequestESaIS7_EJiRSt10shared_ptrINS4_6common15ResponseHandlerEEEEERPT_St20_Sp_alloc_shared_tagIT0_EDpOT1_=so_stub_for_libtelux_tel
-Wl,--defsym=_ZNSt14__shared_countILN9__gnu_cxx12_Lock_policyE2EEC1IN5telux3tel3ril7RequestESaIS7_EJiRSt10shared_ptrINS4_6common15ResponseHandlerEEiDnDnRiEEERPT_St20_Sp_alloc_shared_tagIT0_EDpOT1_=so_stub_for_libtelux_tel
-Wl,--defsym=_ZNSt14__shared_countILN9__gnu_cxx12_Lock_policyE2EEC1IN5telux3tel3ril7RequestESaIS7_EJiRSt10shared_ptrINS4_6common15ResponseHandlerEERiDnDnSE_EEERPT_St20_Sp_alloc_shared_tagIT0_EDpOT1_=so_stub_for_libtelux_tel
-Wl,--defsym=_ZNSt14__shared_countILN9__gnu_cxx12_Lock_policyE2EEC1IN5telux3tel3ril7RequestESaIS7_EJiRSt10shared_ptrINS4_6common15ResponseHandlerEERiRS9_INSA_16ICommandCallbackEEDnSE_EEERPT_St20_Sp_alloc_shared_tagIT0_EDpOT1_=so_stub_for_libtelux_tel
-Wl,--defsym=_ZNSt14__shared_countILN9__gnu_cxx12_Lock_policyE2EEC1IN5telux3tel3ril7RequestESaIS7_EJiRSt10shared_ptrINS4_6common15ResponseHandlerEERiRS9_INSA_16ICommandCallbackEEEEERPT_St20_Sp_alloc_shared_tagIT0_EDpOT1_=so_stub_for_libtelux_tel
-Wl,--defsym=_ZNSt14__shared_countILN9__gnu_cxx12_Lock_policyE2EEC1IN5telux3tel3ril7RequestESaIS7_EJiRSt10shared_ptrINS4_6common15ResponseHandlerEERiRS9_INSA_16ICommandCallbackEERPvSE_EEERPT_St20_Sp_alloc_shared_tagIT0_EDpOT1_=so_stub_for_libtelux_tel
-Wl,--defsym=_ZNSt14__shared_countILN9__gnu_cxx12_Lock_policyE2EEC1IN5telux3tel3ril8ResponseESaIS7_EJRiRSt10shared_ptrI6ParcelEEEERPT_St20_Sp_alloc_shared_tagIT0_EDpOT1_=so_stub_for_libtelux_tel
-Wl,--defsym=_ZNSt14__shared_countILN9__gnu_cxx12_Lock_policyE2EEC1IN5telux3tel4CallESaIS6_EJRiRNS5_8CallInfoEEEERPT_St20_Sp_alloc_shared_tagIT0_EDpOT1_=so_stub_for_libtelux_tel
-Wl,--defsym=_ZNSt14__shared_countILN9__gnu_cxx12_Lock_policyE2EEC1IN5telux3tel5PhoneESaIS6_EJRiEEERPT_St20_Sp_alloc_shared_tagIT0_EDpOT1_=so_stub_for_libtelux_tel
-Wl,--defsym=_ZNSt14__shared_countILN9__gnu_cxx12_Lock_policyE2EEC1IN5telux3tel6CircleESaIS6_EJRNS5_5PointERdEEERPT_St20_Sp_alloc_shared_tagIT0_EDpOT1_=so_stub_for_libtelux_tel
-Wl,--defsym=_ZNSt14__shared_countILN9__gnu_cxx12_Lock_policyE2EEC1IN5telux3tel7PolygonESaIS6_EJRSt6vectorINS5_5PointESaIS9_EEEEERPT_St20_Sp_alloc_shared_tagIT0_EDpOT1_=so_stub_for_libtelux_tel
-Wl,--defsym=_ZNSt14__shared_countILN9__gnu_cxx12_Lock_policyE2EEC1IN5telux3tel7SmsInfoESaIS6_EJEEERPT_St20_Sp_alloc_shared_tagIT0_EDpOT1_=so_stub_for_libtelux_tel
-Wl,--defsym=_ZNSt14__shared_countILN9__gnu_cxx12_Lock_policyE2EEC1IN5telux3tel8CardImplESaIS6_EJRiEEERPT_St20_Sp_alloc_shared_tagIT0_EDpOT1_=so_stub_for_libtelux_tel
-Wl,--defsym=_ZNSt14__shared_countILN9__gnu_cxx12_Lock_policyE2EEC1IN5telux6common18FunctionalCallbackIJ6SlotIdbNS5_9ErrorCodeEEEESaIS9_EJRSt8functionIFvS7_bS8_EEEEERPT_St20_Sp_alloc_shared_tagIT0_EDpOT1_=so_stub_for_libtelux_tel
-Wl,--defsym=_ZNSt14__shared_countILN9__gnu_cxx12_Lock_policyE2EEC1IN5telux6common18FunctionalCallbackIJ6SlotIdNS4_3tel16ImsServiceConfigENS5_9ErrorCodeEEEESaISB_EJRSt8functionIFvS7_S9_SA_EEEEERPT_St20_Sp_alloc_shared_tagIT0_EDpOT1_=so_stub_for_libtelux_tel
-Wl,--defsym=_ZNSt14__shared_countILN9__gnu_cxx12_Lock_policyE2EEC1IN5telux6common18FunctionalCallbackIJ6SlotIdNSt7__cxx1112basic_stringIcSt11char_traitsIcESaIcEEENS5_9ErrorCodeEEEESaISF_EJRSt8functionIFvS7_SD_SE_EEEEERPT_St20_Sp_alloc_shared_tagIT0_EDpOT1_=so_stub_for_libtelux_tel
-Wl,--defsym=_ZNSt14__shared_countILN9__gnu_cxx12_Lock_policyE2EEC1IN5telux6common18FunctionalCallbackIJbbNS5_9ErrorCodeEEEESaIS8_EJRSt8functionIFvbbS7_EEEEERPT_St20_Sp_alloc_shared_tagIT0_EDpOT1_=so_stub_for_libtelux_tel
-Wl,--defsym=_ZNSt14__shared_countILN9__gnu_cxx12_Lock_policyE2EEC1IN5telux6common18FunctionalCallbackIJbNS5_9ErrorCodeEEEESaIS8_EJRSt8functionIFvbS7_EEEEERPT_St20_Sp_alloc_shared_tagIT0_EDpOT1_=so_stub_for_libtelux_tel
-Wl,--defsym=_ZNSt14__shared_countILN9__gnu_cxx12_Lock_policyE2EEC1IN5telux6common18FunctionalCallbackIJiNS5_9ErrorCodeEEEESaIS8_EJRSt8functionIFviS7_EEEEERPT_St20_Sp_alloc_shared_tagIT0_EDpOT1_=so_stub_for_libtelux_tel
-Wl,--defsym=_ZNSt14__shared_countILN9__gnu_cxx12_Lock_policyE2EEC1IN5telux6common18FunctionalCallbackIJjjNS5_9ErrorCodeEEEESaIS8_EJRSt8functionIFvjjS7_EEEEERPT_St20_Sp_alloc_shared_tagIT0_EDpOT1_=so_stub_for_libtelux_tel
-Wl,--defsym=_ZNSt14__shared_countILN9__gnu_cxx12_Lock_policyE2EEC1IN5telux6common18FunctionalCallbackIJNS4_3tel10RFBandInfoENS5_9ErrorCodeEEEESaISA_EJRSt8functionIFvS8_S9_EEEEERPT_St20_Sp_alloc_shared_tagIT0_EDpOT1_=so_stub_for_libtelux_tel
-Wl,--defsym=_ZNSt14__shared_countILN9__gnu_cxx12_Lock_policyE2EEC1IN5telux6common18FunctionalCallbackIJNS4_3tel10SmsMessageENS5_9ErrorCodeEEEESaISA_EJRSt8functionIFvS8_S9_EEEEERPT_St20_Sp_alloc_shared_tagIT0_EDpOT1_=so_stub_for_libtelux_tel
-Wl,--defsym=_ZNSt14__shared_countILN9__gnu_cxx12_Lock_policyE2EEC1IN5telux6common18FunctionalCallbackIJNS4_3tel11StorageTypeENS5_9ErrorCodeEEEESaISA_EJRSt8functionIFvS8_S9_EEEEERPT_St20_Sp_alloc_shared_tagIT0_EDpOT1_=so_stub_for_libtelux_tel
-Wl,--defsym=_ZNSt14__shared_countILN9__gnu_cxx12_Lock_policyE2EEC1IN5telux6common18FunctionalCallbackIJNS4_3tel12RefreshStageENS7_11RefreshModeESt6vectorINS7_7IccFileESaISB_EENS7_13RefreshParamsENS5_9ErrorCodeEEEESaISG_EJRSt8functionIFvS8_S9_SD_SE_SF_EEEEERPT_St20_Sp_alloc_shared_tagIT0_EDpOT1_=so_stub_for_libtelux_tel
-Wl,--defsym=_ZNSt14__shared_countILN9__gnu_cxx12_Lock_policyE2EEC1IN5telux6common18FunctionalCallbackIJNS4_3tel14ImsServiceInfoENS5_9ErrorCodeEEEESaISA_EJRSt8functionIFvS8_S9_EEEEERPT_St20_Sp_alloc_shared_tagIT0_EDpOT1_=so_stub_for_libtelux_tel
-Wl,--defsym=_ZNSt14__shared_countILN9__gnu_cxx12_Lock_policyE2EEC1IN5telux6common18FunctionalCallbackIJNS4_3tel15NetworkModeInfoENS5_9ErrorCodeEEEESaISA_EJRSt8functionIFvS8_S9_EEEEERPT_St20_Sp_alloc_shared_tagIT0_EDpOT1_=so_stub_for_libtelux_tel
-Wl,--defsym=_ZNSt14__shared_countILN9__gnu_cxx12_Lock_policyE2EEC1IN5telux6common18FunctionalCallbackIJNS4_3tel15NetworkTimeInfoENS5_9ErrorCodeEEEESaISA_EJRSt8functionIFvS8_S9_EEEEERPT_St20_Sp_alloc_shared_tagIT0_EDpOT1_=so_stub_for_libtelux_tel
-Wl,--defsym=_ZNSt14__shared_countILN9__gnu_cxx12_Lock_policyE2EEC1IN5telux6common18FunctionalCallbackIJNS4_3tel15RadioTechnologyENS5_9ErrorCodeEEEESaISA_EJRSt8functionIFvS8_S9_EEEEERPT_St20_Sp_alloc_shared_tagIT0_EDpOT1_=so_stub_for_libtelux_tel
-Wl,--defsym=_ZNSt14__shared_countILN9__gnu_cxx12_Lock_policyE2EEC1IN5telux6common18FunctionalCallbackIJNS4_3tel16ImsPdpStatusInfoENS5_9ErrorCodeEEEESaISA_EJRSt8functionIFvS8_S9_EEEEERPT_St20_Sp_alloc_shared_tagIT0_EDpOT1_=so_stub_for_libtelux_tel
-Wl,--defsym=_ZNSt14__shared_countILN9__gnu_cxx12_Lock_policyE2EEC1IN5telux6common18FunctionalCallbackIJNS4_3tel18SuppServicesStatusENS7_12FailureCauseENS5_9ErrorCodeEEEESaISB_EJRSt8functionIFvS8_S9_SA_EEEEERPT_St20_Sp_alloc_shared_tagIT0_EDpOT1_=so_stub_for_libtelux_tel
-Wl,--defsym=_ZNSt14__shared_countILN9__gnu_cxx12_Lock_policyE2EEC1IN5telux6common18FunctionalCallbackIJNS4_3tel18SuppServicesStatusENS7_22SuppSvcProvisionStatusENS7_12FailureCauseENS5_9ErrorCodeEEEESaISC_EJRSt8functionIFvS8_S9_SA_SB_EEEEERPT_St20_Sp_alloc_shared_tagIT0_EDpOT1_=so_stub_for_libtelux_tel
-Wl,--defsym=_ZNSt14__shared_countILN9__gnu_cxx12_Lock_policyE2EEC1IN5telux6common18FunctionalCallbackIJNS4_3tel19ImsRegistrationInfoENS5_9ErrorCodeEEEESaISA_EJRSt8functionIFvS8_S9_EEEEERPT_St20_Sp_alloc_shared_tagIT0_EDpOT1_=so_stub_for_libtelux_tel
-Wl,--defsym=_ZNSt14__shared_countILN9__gnu_cxx12_Lock_policyE2EEC1IN5telux6common18FunctionalCallbackIJNS4_3tel20NetworkSelectionModeENS5_9ErrorCodeEEEESaISA_EJRSt8functionIFvS8_S9_EEEEERPT_St20_Sp_alloc_shared_tagIT0_EDpOT1_=so_stub_for_libtelux_tel
-Wl,--defsym=_ZNSt14__shared_countILN9__gnu_cxx12_Lock_policyE2EEC1IN5telux6common18FunctionalCallbackIJNS4_3tel23ServiceDomainPreferenceENS5_9ErrorCodeEEEESaISA_EJRSt8functionIFvS8_S9_EEEEERPT_St20_Sp_alloc_shared_tagIT0_EDpOT1_=so_stub_for_libtelux_tel
-Wl,--defsym=_ZNSt14__shared_countILN9__gnu_cxx12_Lock_policyE2EEC1IN5telux6common18FunctionalCallbackIJNS4_3tel7EcbModeENS5_9ErrorCodeEEEESaISA_EJRSt8functionIFvS8_S9_EEEEERPT_St20_Sp_alloc_shared_tagIT0_EDpOT1_=so_stub_for_libtelux_tel
-Wl,--defsym=_ZNSt14__shared_countILN9__gnu_cxx12_Lock_policyE2EEC1IN5telux6common18FunctionalCallbackIJNS4_3tel8PlmnInfoENS5_9ErrorCodeEEEESaISA_EJRSt8functionIFvS8_S9_EEEEERPT_St20_Sp_alloc_shared_tagIT0_EDpOT1_=so_stub_for_libtelux_tel
-Wl,--defsym=_ZNSt14__shared_countILN9__gnu_cxx12_Lock_policyE2EEC1IN5telux6common18FunctionalCallbackIJNS4_3tel8SapStateENS5_9ErrorCodeEEEESaISA_EJRSt8functionIFvS8_S9_EEEEERPT_St20_Sp_alloc_shared_tagIT0_EDpOT1_=so_stub_for_libtelux_tel
-Wl,--defsym=_ZNSt14__shared_countILN9__gnu_cxx12_Lock_policyE2EEC1IN5telux6common18FunctionalCallbackIJNS4_3tel9ECallModeENS5_9ErrorCodeEEEESaISA_EJRSt8functionIFvS8_S9_EEEEERPT_St20_Sp_alloc_shared_tagIT0_EDpOT1_=so_stub_for_libtelux_tel
-Wl,--defsym=_ZNSt14__shared_countILN9__gnu_cxx12_Lock_policyE2EEC1IN5telux6common18FunctionalCallbackIJNS5_9ErrorCodeEEEESaIS8_EJRSt8functionIFvS7_EEEEERPT_St20_Sp_alloc_shared_tagIT0_EDpOT1_=so_stub_for_libtelux_tel
-Wl,--defsym=_ZNSt14__shared_countILN9__gnu_cxx12_Lock_policyE2EEC1IN5telux6common18FunctionalCallbackIJNS5_9ErrorCodeEiNS4_3tel20ECallHlapTimerStatusEEEESaISA_EJRSt8functionIFvS7_iS9_EEEEERPT_St20_Sp_alloc_shared_tagIT0_EDpOT1_=so_stub_for_libtelux_tel
-Wl,--defsym=_ZNSt14__shared_countILN9__gnu_cxx12_Lock_policyE2EEC1IN5telux6common18FunctionalCallbackIJNS5_9ErrorCodeEjEEESaIS8_EJRSt8functionIFvS7_jEEEEERPT_St20_Sp_alloc_shared_tagIT0_EDpOT1_=so_stub_for_libtelux_tel
-Wl,--defsym=_ZNSt14__shared_countILN9__gnu_cxx12_Lock_policyE2EEC1IN5telux6common18FunctionalCallbackIJNS5_9ErrorCodeENS4_3tel12FailureCauseEEEESaISA_EJRSt8functionIFvS7_S9_EEEEERPT_St20_Sp_alloc_shared_tagIT0_EDpOT1_=so_stub_for_libtelux_tel
-Wl,--defsym=_ZNSt14__shared_countILN9__gnu_cxx12_Lock_policyE2EEC1IN5telux6common18FunctionalCallbackIJNS5_9ErrorCodeENS4_3tel9IccResultEEEESaISA_EJRSt8functionIFvS7_S9_EEEEERPT_St20_Sp_alloc_shared_tagIT0_EDpOT1_=so_stub_for_libtelux_tel
-Wl,--defsym=_ZNSt14__shared_countILN9__gnu_cxx12_Lock_policyE2EEC1IN5telux6common18FunctionalCallbackIJNS5_9ErrorCodeENS4_3tel9IccResultENS8_14FileAttributesEEEESaISB_EJRSt8functionIFvS7_S9_SA_EEEEERPT_St20_Sp_alloc_shared_tagIT0_EDpOT1_=so_stub_for_libtelux_tel
-Wl,--defsym=_ZNSt14__shared_countILN9__gnu_cxx12_Lock_policyE2EEC1IN5telux6common18FunctionalCallbackIJNS5_9ErrorCodeESt10shared_ptrINS4_3tel5ICallEEEEESaISC_EJRSt8functionIFvS7_SB_EEEEERPT_St20_Sp_alloc_shared_tagIT0_EDpOT1_=so_stub_for_libtelux_tel
-Wl,--defsym=_ZNSt14__shared_countILN9__gnu_cxx12_Lock_policyE2EEC1IN5telux6common18FunctionalCallbackIJNS5_9ErrorCodeESt6vectorINS4_3tel9IccResultESaISA_EEEEESaISD_EJRSt8functionIFvS7_SC_EEEEERPT_St20_Sp_alloc_shared_tagIT0_EDpOT1_=so_stub_for_libtelux_tel
-Wl,--defsym=_ZNSt14__shared_countILN9__gnu_cxx12_Lock_policyE2EEC1IN5telux6common18FunctionalCallbackIJNSt7__cxx1112basic_stringIcSt11char_traitsIcESaIcEEENS5_9ErrorCodeEEEESaISE_EJRSt8functionIFvSC_SD_EEEEERPT_St20_Sp_alloc_shared_tagIT0_EDpOT1_=so_stub_for_libtelux_tel
-Wl,--defsym=_ZNSt14__shared_countILN9__gnu_cxx12_Lock_policyE2EEC1IN5telux6common18FunctionalCallbackIJNSt7__cxx1112basic_stringIcSt11char_traitsIcESaIcEEESC_NS5_9ErrorCodeEEEESaISE_EJRSt8functionIFvSC_SC_SD_EEEEERPT_St20_Sp_alloc_shared_tagIT0_EDpOT1_=so_stub_for_libtelux_tel
-Wl,--defsym=_ZNSt14__shared_countILN9__gnu_cxx12_Lock_policyE2EEC1IN5telux6common18FunctionalCallbackIJRKNSt7__cxx1112basic_stringIcSt11char_traitsIcESaIcEEENS5_9ErrorCodeEEEESaISG_EJRSt8functionIFvSE_SF_EEEEERPT_St20_Sp_alloc_shared_tagIT0_EDpOT1_=so_stub_for_libtelux_tel
-Wl,--defsym=_ZNSt14__shared_countILN9__gnu_cxx12_Lock_policyE2EEC1IN5telux6common18FunctionalCallbackIJRKSt6vectorISt10shared_ptrINS4_3tel10SimProfileEESaISB_EENS5_9ErrorCodeEEEESaISH_EJRSt8functionIFvSF_SG_EEEEERPT_St20_Sp_alloc_shared_tagIT0_EDpOT1_=so_stub_for_libtelux_tel
-Wl,--defsym=_ZNSt14__shared_countILN9__gnu_cxx12_Lock_policyE2EEC1IN5telux6common18FunctionalCallbackIJSt10shared_ptrINS4_3tel11IRFBandListEENS5_9ErrorCodeEEEESaISC_EJRSt8functionIFvSA_SB_EEEEERPT_St20_Sp_alloc_shared_tagIT0_EDpOT1_=so_stub_for_libtelux_tel
-Wl,--defsym=_ZNSt14__shared_countILN9__gnu_cxx12_Lock_policyE2EEC1IN5telux6common18FunctionalCallbackIJSt3mapI6SlotIdNS4_3tel10SlotStatusESt4lessIS8_ESaISt4pairIKS8_SA_EEENS5_9ErrorCodeEEEESaISJ_EJRSt8functionIFvSH_SI_EEEEERPT_St20_Sp_alloc_shared_tagIT0_EDpOT1_=so_stub_for_libtelux_tel
-Wl,--defsym=_ZNSt14__shared_countILN9__gnu_cxx12_Lock_policyE2EEC1IN5telux6common18FunctionalCallbackIJSt6bitsetILm16EENS5_9ErrorCodeEEEESaISA_EJRSt8functionIFvS8_S9_EEEEERPT_St20_Sp_alloc_shared_tagIT0_EDpOT1_=so_stub_for_libtelux_tel
-Wl,--defsym=_ZNSt14__shared_countILN9__gnu_cxx12_Lock_policyE2EEC1IN5telux6common18FunctionalCallbackIJSt6vectorIiSaIiEENS5_9ErrorCodeEEEESaISB_EJRSt8functionIFvS9_SA_EEEEERPT_St20_Sp_alloc_shared_tagIT0_EDpOT1_=so_stub_for_libtelux_tel
-Wl,--defsym=_ZNSt14__shared_countILN9__gnu_cxx12_Lock_policyE2EEC1IN5telux6common18FunctionalCallbackIJSt6vectorINS4_3tel11ForwardInfoESaIS9_EENS8_12FailureCauseENS5_9ErrorCodeEEEESaISE_EJRSt8functionIFvSB_SC_SD_EEEEERPT_St20_Sp_alloc_shared_tagIT0_EDpOT1_=so_stub_for_libtelux_tel
-Wl,--defsym=_ZNSt14__shared_countILN9__gnu_cxx12_Lock_policyE2EEC1IN5telux6common18FunctionalCallbackIJSt6vectorINS4_3tel11ForwardInfoESaIS9_EENS8_22SuppSvcProvisionStatusENS8_12FailureCauseENS5_9ErrorCodeEEEESaISF_EJRSt8functionIFvSB_SC_SD_SE_EEEEERPT_St20_Sp_alloc_shared_tagIT0_EDpOT1_=so_stub_for_libtelux_tel
-Wl,--defsym=_ZNSt14__shared_countILN9__gnu_cxx12_Lock_policyE2EEC1IN5telux6common18FunctionalCallbackIJSt6vectorINS4_3tel11SmsMetaInfoESaIS9_EENS5_9ErrorCodeEEEESaISD_EJRSt8functionIFvSB_SC_EEEEERPT_St20_Sp_alloc_shared_tagIT0_EDpOT1_=so_stub_for_libtelux_tel
-Wl,--defsym=_ZNSt14__shared_countILN9__gnu_cxx12_Lock_policyE2EEC1IN5telux6common18FunctionalCallbackIJSt6vectorINS4_3tel12OperatorInfoESaIS9_EENS5_9ErrorCodeEEEESaISD_EJRSt8functionIFvSB_SC_EEEEERPT_St20_Sp_alloc_shared_tagIT0_EDpOT1_=so_stub_for_libtelux_tel
-Wl,--defsym=_ZNSt14__shared_countILN9__gnu_cxx12_Lock_policyE2EEC1IN5telux6common18FunctionalCallbackIJSt6vectorINS4_3tel19CellBroadcastFilterESaIS9_EENS5_9ErrorCodeEEEESaISD_EJRSt8functionIFvSB_SC_EEEEERPT_St20_Sp_alloc_shared_tagIT0_EDpOT1_=so_stub_for_libtelux_tel
-Wl,--defsym=_ZNSt14__shared_countILN9__gnu_cxx12_Lock_policyE2EEC1IN5telux6common18FunctionalCallbackIJSt6vectorINS4_3tel20PreferredNetworkInfoESaIS9_EESB_NS5_9ErrorCodeEEEESaISD_EJRSt8functionIFvSB_SB_SC_EEEEERPT_St20_Sp_alloc_shared_tagIT0_EDpOT1_=so_stub_for_libtelux_tel
-Wl,--defsym=_ZNSt14__shared_countILN9__gnu_cxx12_Lock_policyE2EEC1IN5telux6common18FunctionalCallbackIJSt6vectorISt10shared_ptrINS4_3tel8CellInfoEESaISB_EENS5_9ErrorCodeEEEESaISF_EJRSt8functionIFvSD_SE_EEEEERPT_St20_Sp_alloc_shared_tagIT0_EDpOT1_=so_stub_for_libtelux_tel
-Wl,--defsym=_ZNSt14__shared_countILN9__gnu_cxx12_Lock_policyE2EEC2ERKSt12__weak_countILS1_2EE=so_stub_for_libtelux_tel
-Wl,--defsym=_ZNSt14__shared_countILN9__gnu_cxx12_Lock_policyE2EEC2ERKSt12__weak_countILS1_2EESt9nothrow_t=so_stub_for_libtelux_tel
-Wl,--defsym=_ZNSt14__shared_countILN9__gnu_cxx12_Lock_policyE2EEC2I20GsmCmasCellbroadcastSaIS4_EJRKS4_EEERPT_St20_Sp_alloc_shared_tagIT0_EDpOT1_=so_stub_for_libtelux_tel
-Wl,--defsym=_ZNSt14__shared_countILN9__gnu_cxx12_Lock_policyE2EEC2IN5telux3tel10SmsManagerESaIS6_EJRiEEERPT_St20_Sp_alloc_shared_tagIT0_EDpOT1_=so_stub_for_libtelux_tel
-Wl,--defsym=_ZNSt14__shared_countILN9__gnu_cxx12_Lock_policyE2EEC2IN5telux3tel11CardAppImplESaIS6_EJRiRNS5_13CardAppStatusEEEERPT_St20_Sp_alloc_shared_tagIT0_EDpOT1_=so_stub_for_libtelux_tel
-Wl,--defsym=_ZNSt14__shared_countILN9__gnu_cxx12_Lock_policyE2EEC2IN5telux3tel11GsmCellInfoESaIS6_EJRiRNS5_15GsmCellIdentityERNS5_21GsmSignalStrengthInfoEEEERPT_St20_Sp_alloc_shared_tagIT0_EDpOT1_=so_stub_for_libtelux_tel
-Wl,--defsym=_ZNSt14__shared_countILN9__gnu_cxx12_Lock_policyE2EEC2IN5telux3tel11LteCellInfoESaIS6_EJRiRNS5_15LteCellIdentityERNS5_21LteSignalStrengthInfoEEEERPT_St20_Sp_alloc_shared_tagIT0_EDpOT1_=so_stub_for_libtelux_tel
-Wl,--defsym=_ZNSt14__shared_countILN9__gnu_cxx12_Lock_policyE2EEC2IN5telux3tel12CdmaCellInfoESaIS6_EJRiRNS5_16CdmaCellIdentityERNS5_22CdmaSignalStrengthInfoEEEERPT_St20_Sp_alloc_shared_tagIT0_EDpOT1_=so_stub_for_libtelux_tel
-Wl,--defsym=_ZNSt14__shared_countILN9__gnu_cxx12_Lock_policyE2EEC2IN5telux3tel12Nr5gCellInfoESaIS6_EJRiRNS5_16Nr5gCellIdentityERNS5_22Nr5gSignalStrengthInfoEEEERPT_St20_Sp_alloc_shared_tagIT0_EDpOT1_=so_stub_for_libtelux_tel
-Wl,--defsym=_ZNSt14__shared_countILN9__gnu_cxx12_Lock_policyE2EEC2IN5telux3tel13WcdmaCellInfoESaIS6_EJRiRNS5_17WcdmaCellIdentityERNS5_23WcdmaSignalStrengthInfoEEEERPT_St20_Sp_alloc_shared_tagIT0_EDpOT1_=so_stub_for_libtelux_tel
-Wl,--defsym=_ZNSt14__shared_countILN9__gnu_cxx12_Lock_policyE2EEC2IN5telux3tel14Nb1NtnCellInfoESaIS6_EJRiRNS5_18Nb1NtnCellIdentityERNS5_24Nb1NtnSignalStrengthInfoEEEERPT_St20_Sp_alloc_shared_tagIT0_EDpOT1_=so_stub_for_libtelux_tel
-Wl,--defsym=_ZNSt14__shared_countILN9__gnu_cxx12_Lock_policyE2EEC2IN5telux3tel14SignalStrengthESaIS6_EJDnDnDnDnDnDnDnEEERPT_St20_Sp_alloc_shared_tagIT0_EDpOT1_=so_stub_for_libtelux_tel
-Wl,--defsym=_ZNSt14__shared_countILN9__gnu_cxx12_Lock_policyE2EEC2IN5telux3tel15TdscdmaCellInfoESaIS6_EJRiRNS5_19TdscdmaCellIdentityERNS5_25TdscdmaSignalStrengthInfoEEEERPT_St20_Sp_alloc_shared_tagIT0_EDpOT1_=so_stub_for_libtelux_tel
-Wl,--defsym=_ZNSt14__shared_countILN9__gnu_cxx12_Lock_policyE2EEC2IN5telux3tel15WarningAreaInfoESaIS6_EJRiRSt6vectorINS5_8GeometryESaISA_EEEEERPT_St20_Sp_alloc_shared_tagIT0_EDpOT1_=so_stub_for_libtelux_tel
-Wl,--defsym=_ZNSt14__shared_countILN9__gnu_cxx12_Lock_policyE2EEC2IN5telux3tel16RemoteSimManagerESaIS6_EJRiEEERPT_St20_Sp_alloc_shared_tagIT0_EDpOT1_=so_stub_for_libtelux_tel
-Wl,--defsym=_ZNSt14__shared_countILN9__gnu_cxx12_Lock_policyE2EEC2IN5telux3tel16RilCommandRespCbESaIS6_EJEEERPT_St20_Sp_alloc_shared_tagIT0_EDpOT1_=so_stub_for_libtelux_tel
-Wl,--defsym=_ZNSt14__shared_countILN9__gnu_cxx12_Lock_policyE2EEC2IN5telux3tel16SubscriptionImplESaIS6_EJRiEEERPT_St20_Sp_alloc_shared_tagIT0_EDpOT1_=so_stub_for_libtelux_tel
-Wl,--defsym=_ZNSt14__shared_countILN9__gnu_cxx12_Lock_policyE2EEC2IN5telux3tel18IncomingSmsHandlerESaIS6_EJRiSt10shared_ptrINS5_10SmsManagerEEEEERPT_St20_Sp_alloc_shared_tagIT0_EDpOT1_=so_stub_for_libtelux_tel
-Wl,--defsym=_ZNSt14__shared_countILN9__gnu_cxx12_Lock_policyE2EEC2IN5telux3tel18OutgoingSmsHandlerESaIS6_EJRiSt10shared_ptrINS5_10SmsManagerEEEEERPT_St20_Sp_alloc_shared_tagIT0_EDpOT1_=so_stub_for_libtelux_tel
-Wl,--defsym=_ZNSt14__shared_countILN9__gnu_cxx12_Lock_policyE2EEC2IN5telux3tel18SapCardManagerImplESaIS6_EJRiEEERPT_St20_Sp_alloc_shared_tagIT0_EDpOT1_=so_stub_for_libtelux_tel
-Wl,--defsym=_ZNSt14__shared_countILN9__gnu_cxx12_Lock_policyE2EEC2IN5telux3tel19CardFileHandlerImplESaIS6_EJ6SlotIdEEERPT_St20_Sp_alloc_shared_tagIT0_EDpOT1_=so_stub_for_libtelux_tel
-Wl,--defsym=_ZNSt14__shared_countILN9__gnu_cxx12_Lock_policyE2EEC2IN5telux3tel20CellBroadcastMessageESaIS6_EJRSt10shared_ptrINS5_8EtwsInfoEEEEERPT_St20_Sp_alloc_shared_tagIT0_EDpOT1_=so_stub_for_libtelux_tel
-Wl,--defsym=_ZNSt14__shared_countILN9__gnu_cxx12_Lock_policyE2EEC2IN5telux3tel20ServingSystemManagerESaIS6_EJRiEEERPT_St20_Sp_alloc_shared_tagIT0_EDpOT1_=so_stub_for_libtelux_tel
-Wl,--defsym=_ZNSt14__shared_countILN9__gnu_cxx12_Lock_policyE2EEC2IN5telux3tel23NetworkSelectionManagerESaIS6_EJRiEEERPT_St20_Sp_alloc_shared_tagIT0_EDpOT1_=so_stub_for_libtelux_tel
-Wl,--defsym=_ZNSt14__shared_countILN9__gnu_cxx12_Lock_policyE2EEC2IN5telux3tel23SuppServicesManagerImplESaIS6_EJR6SlotIdEEERPT_St20_Sp_alloc_shared_tagIT0_EDpOT1_=so_stub_for_libtelux_tel
-Wl,--defsym=_ZNSt14__shared_countILN9__gnu_cxx12_Lock_policyE2EEC2IN5telux3tel24CellBroadcastManagerImplESaIS6_EJR6SlotIdEEERPT_St20_Sp_alloc_shared_tagIT0_EDpOT1_=so_stub_for_libtelux_tel
-Wl,--defsym=_ZNSt14__shared_countILN9__gnu_cxx12_Lock_policyE2EEC2IN5telux3tel27ImsServingSystemManagerImplESaIS6_EJR6SlotIdEEERPT_St20_Sp_alloc_shared_tagIT0_EDpOT1_=so_stub_for_libtelux_tel
-Wl,--defsym=_ZNSt14__shared_countILN9__gnu_cxx12_Lock_policyE2EEC2IN5telux3tel3ril7RequestESaIS7_EJiRSt10shared_ptrINS4_6common15ResponseHandlerEEEEERPT_St20_Sp_alloc_shared_tagIT0_EDpOT1_=so_stub_for_libtelux_tel
-Wl,--defsym=_ZNSt14__shared_countILN9__gnu_cxx12_Lock_policyE2EEC2IN5telux3tel3ril7RequestESaIS7_EJiRSt10shared_ptrINS4_6common15ResponseHandlerEEiDnDnRiEEERPT_St20_Sp_alloc_shared_tagIT0_EDpOT1_=so_stub_for_libtelux_tel
-Wl,--defsym=_ZNSt14__shared_countILN9__gnu_cxx12_Lock_policyE2EEC2IN5telux3tel3ril7RequestESaIS7_EJiRSt10shared_ptrINS4_6common15ResponseHandlerEERiDnDnSE_EEERPT_St20_Sp_alloc_shared_tagIT0_EDpOT1_=so_stub_for_libtelux_tel
-Wl,--defsym=_ZNSt14__shared_countILN9__gnu_cxx12_Lock_policyE2EEC2IN5telux3tel3ril7RequestESaIS7_EJiRSt10shared_ptrINS4_6common15ResponseHandlerEERiRS9_INSA_16ICommandCallbackEEDnSE_EEERPT_St20_Sp_alloc_shared_tagIT0_EDpOT1_=so_stub_for_libtelux_tel
-Wl,--defsym=_ZNSt14__shared_countILN9__gnu_cxx12_Lock_policyE2EEC2IN5telux3tel3ril7RequestESaIS7_EJiRSt10shared_ptrINS4_6common15ResponseHandlerEERiRS9_INSA_16ICommandCallbackEEEEERPT_St20_Sp_alloc_shared_tagIT0_EDpOT1_=so_stub_for_libtelux_tel
-Wl,--defsym=_ZNSt14__shared_countILN9__gnu_cxx12_Lock_policyE2EEC2IN5telux3tel3ril7RequestESaIS7_EJiRSt10shared_ptrINS4_6common15ResponseHandlerEERiRS9_INSA_16ICommandCallbackEERPvSE_EEERPT_St20_Sp_alloc_shared_tagIT0_EDpOT1_=so_stub_for_libtelux_tel
-Wl,--defsym=_ZNSt14__shared_countILN9__gnu_cxx12_Lock_policyE2EEC2IN5telux3tel3ril8ResponseESaIS7_EJRiRSt10shared_ptrI6ParcelEEEERPT_St20_Sp_alloc_shared_tagIT0_EDpOT1_=so_stub_for_libtelux_tel
-Wl,--defsym=_ZNSt14__shared_countILN9__gnu_cxx12_Lock_policyE2EEC2IN5telux3tel4CallESaIS6_EJRiRNS5_8CallInfoEEEERPT_St20_Sp_alloc_shared_tagIT0_EDpOT1_=so_stub_for_libtelux_tel
-Wl,--defsym=_ZNSt14__shared_countILN9__gnu_cxx12_Lock_policyE2EEC2IN5telux3tel5PhoneESaIS6_EJRiEEERPT_St20_Sp_alloc_shared_tagIT0_EDpOT1_=so_stub_for_libtelux_tel
-Wl,--defsym=_ZNSt14__shared_countILN9__gnu_cxx12_Lock_policyE2EEC2IN5telux3tel6CircleESaIS6_EJRNS5_5PointERdEEERPT_St20_Sp_alloc_shared_tagIT0_EDpOT1_=so_stub_for_libtelux_tel
-Wl,--defsym=_ZNSt14__shared_countILN9__gnu_cxx12_Lock_policyE2EEC2IN5telux3tel7PolygonESaIS6_EJRSt6vectorINS5_5PointESaIS9_EEEEERPT_St20_Sp_alloc_shared_tagIT0_EDpOT1_=so_stub_for_libtelux_tel
-Wl,--defsym=_ZNSt14__shared_countILN9__gnu_cxx12_Lock_policyE2EEC2IN5telux3tel7SmsInfoESaIS6_EJEEERPT_St20_Sp_alloc_shared_tagIT0_EDpOT1_=so_stub_for_libtelux_tel
-Wl,--defsym=_ZNSt14__shared_countILN9__gnu_cxx12_Lock_policyE2EEC2IN5telux3tel8CardImplESaIS6_EJRiEEERPT_St20_Sp_alloc_shared_tagIT0_EDpOT1_=so_stub_for_libtelux_tel
-Wl,--defsym=_ZNSt14__shared_countILN9__gnu_cxx12_Lock_policyE2EEC2IN5telux6common18FunctionalCallbackIJ6SlotIdbNS5_9ErrorCodeEEEESaIS9_EJRSt8functionIFvS7_bS8_EEEEERPT_St20_Sp_alloc_shared_tagIT0_EDpOT1_=so_stub_for_libtelux_tel
-Wl,--defsym=_ZNSt14__shared_countILN9__gnu_cxx12_Lock_policyE2EEC2IN5telux6common18FunctionalCallbackIJ6SlotIdNS4_3tel16ImsServiceConfigENS5_9ErrorCodeEEEESaISB_EJRSt8functionIFvS7_S9_SA_EEEEERPT_St20_Sp_alloc_shared_tagIT0_EDpOT1_=so_stub_for_libtelux_tel
-Wl,--defsym=_ZNSt14__shared_countILN9__gnu_cxx12_Lock_policyE2EEC2IN5telux6common18FunctionalCallbackIJ6SlotIdNSt7__cxx1112basic_stringIcSt11char_traitsIcESaIcEEENS5_9ErrorCodeEEEESaISF_EJRSt8functionIFvS7_SD_SE_EEEEERPT_St20_Sp_alloc_shared_tagIT0_EDpOT1_=so_stub_for_libtelux_tel
-Wl,--defsym=_ZNSt14__shared_countILN9__gnu_cxx12_Lock_policyE2EEC2IN5telux6common18FunctionalCallbackIJbbNS5_9ErrorCodeEEEESaIS8_EJRSt8functionIFvbbS7_EEEEERPT_St20_Sp_alloc_shared_tagIT0_EDpOT1_=so_stub_for_libtelux_tel
-Wl,--defsym=_ZNSt14__shared_countILN9__gnu_cxx12_Lock_policyE2EEC2IN5telux6common18FunctionalCallbackIJbNS5_9ErrorCodeEEEESaIS8_EJRSt8functionIFvbS7_EEEEERPT_St20_Sp_alloc_shared_tagIT0_EDpOT1_=so_stub_for_libtelux_tel
-Wl,--defsym=_ZNSt14__shared_countILN9__gnu_cxx12_Lock_policyE2EEC2IN5telux6common18FunctionalCallbackIJiNS5_9ErrorCodeEEEESaIS8_EJRSt8functionIFviS7_EEEEERPT_St20_Sp_alloc_shared_tagIT0_EDpOT1_=so_stub_for_libtelux_tel
-Wl,--defsym=_ZNSt14__shared_countILN9__gnu_cxx12_Lock_policyE2EEC2IN5telux6common18FunctionalCallbackIJjjNS5_9ErrorCodeEEEESaIS8_EJRSt8functionIFvjjS7_EEEEERPT_St20_Sp_alloc_shared_tagIT0_EDpOT1_=so_stub_for_libtelux_tel
-Wl,--defsym=_ZNSt14__shared_countILN9__gnu_cxx12_Lock_policyE2EEC2IN5telux6common18FunctionalCallbackIJNS4_3tel10RFBandInfoENS5_9ErrorCodeEEEESaISA_EJRSt8functionIFvS8_S9_EEEEERPT_St20_Sp_alloc_shared_tagIT0_EDpOT1_=so_stub_for_libtelux_tel
-Wl,--defsym=_ZNSt14__shared_countILN9__gnu_cxx12_Lock_policyE2EEC2IN5telux6common18FunctionalCallbackIJNS4_3tel10SmsMessageENS5_9ErrorCodeEEEESaISA_EJRSt8functionIFvS8_S9_EEEEERPT_St20_Sp_alloc_shared_tagIT0_EDpOT1_=so_stub_for_libtelux_tel
-Wl,--defsym=_ZNSt14__shared_countILN9__gnu_cxx12_Lock_policyE2EEC2IN5telux6common18FunctionalCallbackIJNS4_3tel11StorageTypeENS5_9ErrorCodeEEEESaISA_EJRSt8functionIFvS8_S9_EEEEERPT_St20_Sp_alloc_shared_tagIT0_EDpOT1_=so_stub_for_libtelux_tel
