-Wl,--defsym=__gcov_error_file=so_stub_for_libtelux_audio
-Wl,--defsym=__gcov_kvp_dynamic_pool=so_stub_for_libtelux_audio
-Wl,--defsym=__gcov_kvp_dynamic_pool_index=so_stub_for_libtelux_audio
-Wl,--defsym=__gcov_kvp_dynamic_pool_size=so_stub_for_libtelux_audio
-Wl,--defsym=__gcov_master=so_stub_for_libtelux_audio
-Wl,--defsym=__gcov_var=so_stub_for_libtelux_audio
-Wl,--defsym=mangle_path=so_stub_for_libtelux_audio
-Wl,--defsym=_ZN5telux5audio12AudioFactory11getInstanceEv=so_stub_for_libtelux_audio
-Wl,--defsym=_ZN5telux5audio12AudioFactoryC1Ev=so_stub_for_libtelux_audio
-Wl,--defsym=_ZN5telux5audio12AudioFactoryC2Ev=so_stub_for_libtelux_audio
-Wl,--defsym=_ZN5telux5audio12AudioFactoryD0Ev=so_stub_for_libtelux_audio
-Wl,--defsym=_ZN5telux5audio12AudioFactoryD1Ev=so_stub_for_libtelux_audio
-Wl,--defsym=_ZN5telux5audio12AudioFactoryD2Ev=so_stub_for_libtelux_audio
-Wl,--defsym=_ZN5telux5audio12StreamConfigC1ERKS1_=so_stub_for_libtelux_audio
-Wl,--defsym=_ZN5telux5audio12StreamConfigC2ERKS1_=so_stub_for_libtelux_audio
-Wl,--defsym=_ZN5telux5audio12StreamConfigD1Ev=so_stub_for_libtelux_audio
-Wl,--defsym=_ZN5telux5audio12StreamConfigD2Ev=so_stub_for_libtelux_audio
-Wl,--defsym=_ZN5telux5audio13IPlayListener13onPlayStoppedEv=so_stub_for_libtelux_audio
-Wl,--defsym=_ZN5telux5audio13IPlayListener15onReadyForWriteEv=so_stub_for_libtelux_audio
-Wl,--defsym=_ZN5telux5audio13IPlayListenerD0Ev=so_stub_for_libtelux_audio
-Wl,--defsym=_ZN5telux5audio13IPlayListenerD1Ev=so_stub_for_libtelux_audio
-Wl,--defsym=_ZN5telux5audio13IPlayListenerD2Ev=so_stub_for_libtelux_audio
-Wl,--defsym=_ZN5telux5audio14PlaybackConfigaSERKS1_=so_stub_for_libtelux_audio
-Wl,--defsym=_ZN5telux5audio14PlaybackConfigD1Ev=so_stub_for_libtelux_audio
-Wl,--defsym=_ZN5telux5audio14PlaybackConfigD2Ev=so_stub_for_libtelux_audio
-Wl,--defsym=_ZN5telux5audio14PlayStreamImpl11onDrainDoneEj=so_stub_for_libtelux_audio
-Wl,--defsym=_ZN5telux5audio14PlayStreamImpl12onWriteReadyEj=so_stub_for_libtelux_audio
-Wl,--defsym=_ZN5telux5audio14PlayStreamImpl13onDrainResultENS_6common9ErrorCodeEjPv=so_stub_for_libtelux_audio
-Wl,--defsym=_ZN5telux5audio14PlayStreamImpl13onFlushResultENS_6common9ErrorCodeEjPv=so_stub_for_libtelux_audio
-Wl,--defsym=_ZN5telux5audio14PlayStreamImpl13onWriteResultENS_6common9ErrorCodeEjjPNS0_13AudioUserDataE=so_stub_for_libtelux_audio
-Wl,--defsym=_ZN5telux5audio14PlayStreamImpl15getStreamBufferEv=so_stub_for_libtelux_audio
-Wl,--defsym=_ZN5telux5audio14PlayStreamImpl16registerListenerESt8weak_ptrINS0_13IPlayListenerEE=so_stub_for_libtelux_audio
-Wl,--defsym=_ZN5telux5audio14PlayStreamImpl18deRegisterListenerESt8weak_ptrINS0_13IPlayListenerEE=so_stub_for_libtelux_audio
-Wl,--defsym=_ZN5telux5audio14PlayStreamImpl4initEv=so_stub_for_libtelux_audio
-Wl,--defsym=_ZN5telux5audio14PlayStreamImpl5writeESt10shared_ptrINS0_13IStreamBufferEESt8functionIFvS4_jNS_6common9ErrorCodeEEE=so_stub_for_libtelux_audio
-Wl,--defsym=_ZN5telux5audio14PlayStreamImpl9stopAudioENS0_8StopTypeESt8functionIFvNS_6common9ErrorCodeEEE=so_stub_for_libtelux_audio
-Wl,--defsym=_ZN5telux5audio14PlayStreamImplC1EjjjSt10shared_ptrINS_3qmi14AudioQmiClientEE=so_stub_for_libtelux_audio
-Wl,--defsym=_ZN5telux5audio14PlayStreamImplC2EjjjSt10shared_ptrINS_3qmi14AudioQmiClientEE=so_stub_for_libtelux_audio
-Wl,--defsym=_ZN5telux5audio14PlayStreamImplD0Ev=so_stub_for_libtelux_audio
-Wl,--defsym=_ZN5telux5audio14PlayStreamImplD1Ev=so_stub_for_libtelux_audio
-Wl,--defsym=_ZN5telux5audio14PlayStreamImplD2Ev=so_stub_for_libtelux_audio
-Wl,--defsym=_ZN5telux5audio14TranscoderImpl11onDrainDoneEj=so_stub_for_libtelux_audio
-Wl,--defsym=_ZN5telux5audio14TranscoderImpl12onReadResultENS_6common9ErrorCodeEjjPNS0_13AudioUserDataE=so_stub_for_libtelux_audio
-Wl,--defsym=_ZN5telux5audio14TranscoderImpl12onWriteReadyEj=so_stub_for_libtelux_audio
-Wl,--defsym=_ZN5telux5audio14TranscoderImpl13getReadBufferEv=so_stub_for_libtelux_audio
-Wl,--defsym=_ZN5telux5audio14TranscoderImpl13onWriteResultENS_6common9ErrorCodeEjjPNS0_13AudioUserDataE=so_stub_for_libtelux_audio
-Wl,--defsym=_ZN5telux5audio14TranscoderImpl14getWriteBufferEv=so_stub_for_libtelux_audio
-Wl,--defsym=_ZN5telux5audio14TranscoderImpl16registerListenerESt8weak_ptrINS0_18ITranscodeListenerEE=so_stub_for_libtelux_audio
-Wl,--defsym=_ZN5telux5audio14TranscoderImpl18deRegisterListenerESt8weak_ptrINS0_18ITranscodeListenerEE=so_stub_for_libtelux_audio
-Wl,--defsym=_ZN5telux5audio14TranscoderImpl21onServiceStatusChangeEv=so_stub_for_libtelux_audio
-Wl,--defsym=_ZN5telux5audio14TranscoderImpl24onDeleteTranscoderResultENS_6common9ErrorCodeEjjPv=so_stub_for_libtelux_audio
-Wl,--defsym=_ZN5telux5audio14TranscoderImpl4initEv=so_stub_for_libtelux_audio
-Wl,--defsym=_ZN5telux5audio14TranscoderImpl4readESt10shared_ptrINS0_12IAudioBufferEEjSt8functionIFvS4_jNS_6common9ErrorCodeEEE=so_stub_for_libtelux_audio
-Wl,--defsym=_ZN5telux5audio14TranscoderImpl5writeESt10shared_ptrINS0_12IAudioBufferEEjSt8functionIFvS4_jNS_6common9ErrorCodeEEE=so_stub_for_libtelux_audio
-Wl,--defsym=_ZN5telux5audio14TranscoderImpl8tearDownESt8functionIFvNS_6common9ErrorCodeEEE=so_stub_for_libtelux_audio
-Wl,--defsym=_ZN5telux5audio14TranscoderImplC1ENS0_21CreatedTranscoderInfoESt10shared_ptrINS_3qmi14AudioQmiClientEE=so_stub_for_libtelux_audio
-Wl,--defsym=_ZN5telux5audio14TranscoderImplC2ENS0_21CreatedTranscoderInfoESt10shared_ptrINS_3qmi14AudioQmiClientEE=so_stub_for_libtelux_audio
-Wl,--defsym=_ZN5telux5audio14TranscoderImplD0Ev=so_stub_for_libtelux_audio
-Wl,--defsym=_ZN5telux5audio14TranscoderImplD1Ev=so_stub_for_libtelux_audio
-Wl,--defsym=_ZN5telux5audio14TranscoderImplD2Ev=so_stub_for_libtelux_audio
-Wl,--defsym=_ZN5telux5audio15AudioBufferImpl10getMaxSizeEv=so_stub_for_libtelux_audio
-Wl,--defsym=_ZN5telux5audio15AudioBufferImpl10getMinSizeEv=so_stub_for_libtelux_audio
-Wl,--defsym=_ZN5telux5audio15AudioBufferImpl11getDataSizeEv=so_stub_for_libtelux_audio
-Wl,--defsym=_ZN5telux5audio15AudioBufferImpl11setDataSizeEj=so_stub_for_libtelux_audio
-Wl,--defsym=_ZN5telux5audio15AudioBufferImpl12getRawBufferEv=so_stub_for_libtelux_audio
-Wl,--defsym=_ZN5telux5audio15AudioBufferImpl18getTransportBufferEv=so_stub_for_libtelux_audio
-Wl,--defsym=_ZN5telux5audio15AudioBufferImpl5resetEv=so_stub_for_libtelux_audio
-Wl,--defsym=_ZN5telux5audio15AudioBufferImplC1Ejjjj=so_stub_for_libtelux_audio
-Wl,--defsym=_ZN5telux5audio15AudioBufferImplC2Ejjjj=so_stub_for_libtelux_audio
-Wl,--defsym=_ZN5telux5audio15AudioBufferImplD0Ev=so_stub_for_libtelux_audio
-Wl,--defsym=_ZN5telux5audio15AudioBufferImplD1Ev=so_stub_for_libtelux_audio
-Wl,--defsym=_ZN5telux5audio15AudioBufferImplD2Ev=so_stub_for_libtelux_audio
-Wl,--defsym=_ZN5telux5audio15AudioDeviceImpl12getDirectionEv=so_stub_for_libtelux_audio
-Wl,--defsym=_ZN5telux5audio15AudioDeviceImpl7getTypeEv=so_stub_for_libtelux_audio
-Wl,--defsym=_ZN5telux5audio15AudioDeviceImplC1ENS0_10DeviceTypeENS0_15DeviceDirectionE=so_stub_for_libtelux_audio
-Wl,--defsym=_ZN5telux5audio15AudioDeviceImplC2ENS0_10DeviceTypeENS0_15DeviceDirectionE=so_stub_for_libtelux_audio
-Wl,--defsym=_ZN5telux5audio15AudioDeviceImplD0Ev=so_stub_for_libtelux_audio
-Wl,--defsym=_ZN5telux5audio15AudioDeviceImplD1Ev=so_stub_for_libtelux_audio
-Wl,--defsym=_ZN5telux5audio15AudioDeviceImplD2Ev=so_stub_for_libtelux_audio
-Wl,--defsym=_ZN5telux5audio15AudioPlayerImpl10resetStateEv=so_stub_for_libtelux_audio
-Wl,--defsym=_ZN5telux5audio15AudioPlayerImpl10updateMuteEbRSt11unique_lockISt5mutexE=so_stub_for_libtelux_audio
-Wl,--defsym=_ZN5telux5audio15AudioPlayerImpl11reportErrorENS_6common9ErrorCodeENSt7__cxx1112basic_stringIcSt11char_traitsIcESaIcEEE=so_stub_for_libtelux_audio
-Wl,--defsym=_ZN5telux5audio15AudioPlayerImpl12reportPlayedEv=so_stub_for_libtelux_audio
-Wl,--defsym=_ZN5telux5audio15AudioPlayerImpl12stopPlaybackEv=so_stub_for_libtelux_audio
-Wl,--defsym=_ZN5telux5audio15AudioPlayerImpl12updateDeviceESt6vectorINS0_10DeviceTypeESaIS3_EERSt11unique_lockISt5mutexE=so_stub_for_libtelux_audio
-Wl,--defsym=_ZN5telux5audio15AudioPlayerImpl12updateVolumeEfRSt11unique_lockISt5mutexE=so_stub_for_libtelux_audio
-Wl,--defsym=_ZN5telux5audio15AudioPlayerImpl13onPlayStoppedEv=so_stub_for_libtelux_audio
-Wl,--defsym=_ZN5telux5audio15AudioPlayerImpl13startPlaybackERSt6vectorINS0_14PlaybackConfigESaIS3_EESt8weak_ptrINS0_17IPlayListListenerEE=so_stub_for_libtelux_audio
-Wl,--defsym=_ZN5telux5audio15AudioPlayerImpl13writeCompleteESt10shared_ptrINS0_13IStreamBufferEEjNS_6common9ErrorCodeE=so_stub_for_libtelux_audio
-Wl,--defsym=_ZN5telux5audio15AudioPlayerImpl14initFileToPlayEv=so_stub_for_libtelux_audio
-Wl,--defsym=_ZN5telux5audio15AudioPlayerImpl14prepareBuffersEv=so_stub_for_libtelux_audio
-Wl,--defsym=_ZN5telux5audio15AudioPlayerImpl15executePlaybackEv=so_stub_for_libtelux_audio
-Wl,--defsym=_ZN5telux5audio15AudioPlayerImpl15initAudioStreamENS0_12StreamConfigE=so_stub_for_libtelux_audio
-Wl,--defsym=_ZN5telux5audio15AudioPlayerImpl15onReadyForWriteEv=so_stub_for_libtelux_audio
-Wl,--defsym=_ZN5telux5audio15AudioPlayerImpl16deinitFileToPlayEv=so_stub_for_libtelux_audio
-Wl,--defsym=_ZN5telux5audio15AudioPlayerImpl16finalizePlaybackEv=so_stub_for_libtelux_audio
-Wl,--defsym=_ZN5telux5audio15AudioPlayerImpl16playAudioSamplesEv=so_stub_for_libtelux_audio
-Wl,--defsym=_ZN5telux5audio15AudioPlayerImpl17deinitAudioStreamEv=so_stub_for_libtelux_audio
-Wl,--defsym=_ZN5telux5audio15AudioPlayerImpl17reinitAudioStreamEj=so_stub_for_libtelux_audio
-Wl,--defsym=_ZN5telux5audio15AudioPlayerImpl17stopAudioCompleteENS_6common9ErrorCodeE=so_stub_for_libtelux_audio
-Wl,--defsym=_ZN5telux5audio15AudioPlayerImpl17terminatePlaybackEv=so_stub_for_libtelux_audio
-Wl,--defsym=_ZN5telux5audio15AudioPlayerImpl18adjustFileAndStateEv=so_stub_for_libtelux_audio
-Wl,--defsym=_ZN5telux5audio15AudioPlayerImpl18setFormatAndOffsetENS0_11AudioFormatE=so_stub_for_libtelux_audio
-Wl,--defsym=_ZN5telux5audio15AudioPlayerImpl19registerForSSREventEv=so_stub_for_libtelux_audio
-Wl,--defsym=_ZN5telux5audio15AudioPlayerImpl19unblockPlayerThreadEb=so_stub_for_libtelux_audio
-Wl,--defsym=_ZN5telux5audio15AudioPlayerImpl20createStreamCompleteERSt10shared_ptrINS0_12IAudioStreamEENS_6common9ErrorCodeE=so_stub_for_libtelux_audio
-Wl,--defsym=_ZN5telux5audio15AudioPlayerImpl20deleteStreamCompleteENS_6common9ErrorCodeE=so_stub_for_libtelux_audio
-Wl,--defsym=_ZN5telux5audio15AudioPlayerImpl20waitAllWriteResponseEv=so_stub_for_libtelux_audio
-Wl,--defsym=_ZN5telux5audio15AudioPlayerImpl21deregisterForSSREventEv=so_stub_for_libtelux_audio
-Wl,--defsym=_ZN5telux5audio15AudioPlayerImpl21onServiceStatusChangeENS_6common13ServiceStatusE=so_stub_for_libtelux_audio
-Wl,--defsym=_ZN5telux5audio15AudioPlayerImpl21reportPlaybackStartedEv=so_stub_for_libtelux_audio
-Wl,--defsym=_ZN5telux5audio15AudioPlayerImpl21reportPlaybackStoppedEv=so_stub_for_libtelux_audio
-Wl,--defsym=_ZN5telux5audio15AudioPlayerImpl22reportPlaybackFinishedEv=so_stub_for_libtelux_audio
-Wl,--defsym=_ZN5telux5audio15AudioPlayerImpl25isStreamConfigurationSameEj=so_stub_for_libtelux_audio
-Wl,--defsym=_ZN5telux5audio15AudioPlayerImpl26finalizeCompressedPlaybackEv=so_stub_for_libtelux_audio
-Wl,--defsym=_ZN5telux5audio15AudioPlayerImpl7getMuteERb=so_stub_for_libtelux_audio
-Wl,--defsym=_ZN5telux5audio15AudioPlayerImpl7setMuteEb=so_stub_for_libtelux_audio
-Wl,--defsym=_ZN5telux5audio15AudioPlayerImpl9getDeviceERSt6vectorINS0_10DeviceTypeESaIS3_EE=so_stub_for_libtelux_audio
-Wl,--defsym=_ZN5telux5audio15AudioPlayerImpl9getVolumeERf=so_stub_for_libtelux_audio
-Wl,--defsym=_ZN5telux5audio15AudioPlayerImpl9setDeviceESt6vectorINS0_10DeviceTypeESaIS3_EE=so_stub_for_libtelux_audio
-Wl,--defsym=_ZN5telux5audio15AudioPlayerImpl9setVolumeEf=so_stub_for_libtelux_audio
-Wl,--defsym=_ZN5telux5audio15AudioPlayerImplC1ESt10shared_ptrINS0_13IAudioManagerEE=so_stub_for_libtelux_audio
-Wl,--defsym=_ZN5telux5audio15AudioPlayerImplC2ESt10shared_ptrINS0_13IAudioManagerEE=so_stub_for_libtelux_audio
-Wl,--defsym=_ZN5telux5audio15AudioPlayerImplD0Ev=so_stub_for_libtelux_audio
-Wl,--defsym=_ZN5telux5audio15AudioPlayerImplD1Ev=so_stub_for_libtelux_audio
-Wl,--defsym=_ZN5telux5audio15AudioPlayerImplD2Ev=so_stub_for_libtelux_audio
-Wl,--defsym=_ZN5telux5audio15AudioStreamImpl11getStreamIdEv=so_stub_for_libtelux_audio
-Wl,--defsym=_ZN5telux5audio15AudioStreamImpl15onGetMuteResultENS_6common9ErrorCodeEjNS0_10StreamMuteEPv=so_stub_for_libtelux_audio
-Wl,--defsym=_ZN5telux5audio15AudioStreamImpl15onSetMuteResultENS_6common9ErrorCodeEjPv=so_stub_for_libtelux_audio
-Wl,--defsym=_ZN5telux5audio15AudioStreamImpl17onGetDeviceResultENS_6common9ErrorCodeEjSt6vectorINS0_10DeviceTypeESaIS5_EEPv=so_stub_for_libtelux_audio
-Wl,--defsym=_ZN5telux5audio15AudioStreamImpl17onGetVolumeResultENS_6common9ErrorCodeEjNS0_12StreamVolumeEPv=so_stub_for_libtelux_audio
-Wl,--defsym=_ZN5telux5audio15AudioStreamImpl17onSetDeviceResultENS_6common9ErrorCodeEjPv=so_stub_for_libtelux_audio
-Wl,--defsym=_ZN5telux5audio15AudioStreamImpl17onSetVolumeResultENS_6common9ErrorCodeEjPv=so_stub_for_libtelux_audio
-Wl,--defsym=_ZN5telux5audio15AudioStreamImpl21onServiceStatusChangeEv=so_stub_for_libtelux_audio
-Wl,--defsym=_ZN5telux5audio15AudioStreamImpl7getMuteENS0_15StreamDirectionESt8functionIFvNS0_10StreamMuteENS_6common9ErrorCodeEEE=so_stub_for_libtelux_audio
-Wl,--defsym=_ZN5telux5audio15AudioStreamImpl7getTypeEv=so_stub_for_libtelux_audio
-Wl,--defsym=_ZN5telux5audio15AudioStreamImpl7setMuteENS0_10StreamMuteESt8functionIFvNS_6common9ErrorCodeEEE=so_stub_for_libtelux_audio
-Wl,--defsym=_ZN5telux5audio15AudioStreamImpl9getDeviceESt8functionIFvSt6vectorINS0_10DeviceTypeESaIS4_EENS_6common9ErrorCodeEEE=so_stub_for_libtelux_audio
-Wl,--defsym=_ZN5telux5audio15AudioStreamImpl9getVolumeENS0_15StreamDirectionESt8functionIFvNS0_12StreamVolumeENS_6common9ErrorCodeEEE=so_stub_for_libtelux_audio
-Wl,--defsym=_ZN5telux5audio15AudioStreamImpl9setDeviceESt6vectorINS0_10DeviceTypeESaIS3_EESt8functionIFvNS_6common9ErrorCodeEEE=so_stub_for_libtelux_audio
-Wl,--defsym=_ZN5telux5audio15AudioStreamImpl9setVolumeENS0_12StreamVolumeESt8functionIFvNS_6common9ErrorCodeEEE=so_stub_for_libtelux_audio
-Wl,--defsym=_ZN5telux5audio15AudioStreamImplC1EjNS0_10StreamTypeESt10shared_ptrINS_3qmi14AudioQmiClientEE=so_stub_for_libtelux_audio
-Wl,--defsym=_ZN5telux5audio15AudioStreamImplC2EjNS0_10StreamTypeESt10shared_ptrINS_3qmi14AudioQmiClientEE=so_stub_for_libtelux_audio
-Wl,--defsym=_ZN5telux5audio15AudioStreamImplD0Ev=so_stub_for_libtelux_audio
-Wl,--defsym=_ZN5telux5audio15AudioStreamImplD1Ev=so_stub_for_libtelux_audio
-Wl,--defsym=_ZN5telux5audio15AudioStreamImplD2Ev=so_stub_for_libtelux_audio
-Wl,--defsym=_ZN5telux5audio15VoiceStreamImpl10startAudioESt8functionIFvNS_6common9ErrorCodeEEE=so_stub_for_libtelux_audio
-Wl,--defsym=_ZN5telux5audio15VoiceStreamImpl12playDtmfToneENS0_8DtmfToneEttSt8functionIFvNS_6common9ErrorCodeEEE=so_stub_for_libtelux_audio
-Wl,--defsym=_ZN5telux5audio15VoiceStreamImpl12stopDtmfToneENS0_15StreamDirectionESt8functionIFvNS_6common9ErrorCodeEEE=so_stub_for_libtelux_audio
-Wl,--defsym=_ZN5telux5audio15VoiceStreamImpl16onPlayDtmfResultENS_6common9ErrorCodeEjPv=so_stub_for_libtelux_audio
-Wl,--defsym=_ZN5telux5audio15VoiceStreamImpl16onStopDtmfResultENS_6common9ErrorCodeEjPv=so_stub_for_libtelux_audio
-Wl,--defsym=_ZN5telux5audio15VoiceStreamImpl16registerListenerESt8weak_ptrINS0_14IVoiceListenerEESt8functionIFvNS_6common9ErrorCodeEEE=so_stub_for_libtelux_audio
-Wl,--defsym=_ZN5telux5audio15VoiceStreamImpl18deRegisterListenerESt8weak_ptrINS0_14IVoiceListenerEE=so_stub_for_libtelux_audio
-Wl,--defsym=_ZN5telux5audio15VoiceStreamImpl18onDtmfToneDetectedEjNS0_8DtmfToneE=so_stub_for_libtelux_audio
-Wl,--defsym=_ZN5telux5audio15VoiceStreamImpl18onStreamStopResultENS_6common9ErrorCodeEjPv=so_stub_for_libtelux_audio
-Wl,--defsym=_ZN5telux5audio15VoiceStreamImpl19onStreamStartResultENS_6common9ErrorCodeEjPv=so_stub_for_libtelux_audio
-Wl,--defsym=_ZN5telux5audio15VoiceStreamImpl26onIndicationRegisterResultENS_6common9ErrorCodeEjPv=so_stub_for_libtelux_audio
-Wl,--defsym=_ZN5telux5audio15VoiceStreamImpl28onIndicationDeRegisterResultENS_6common9ErrorCodeEjPv=so_stub_for_libtelux_audio
-Wl,--defsym=_ZN5telux5audio15VoiceStreamImpl4initEv=so_stub_for_libtelux_audio
-Wl,--defsym=_ZN5telux5audio15VoiceStreamImpl9stopAudioESt8functionIFvNS_6common9ErrorCodeEEE=so_stub_for_libtelux_audio
-Wl,--defsym=_ZN5telux5audio15VoiceStreamImplC1EjSt10shared_ptrINS_3qmi14AudioQmiClientEE=so_stub_for_libtelux_audio
-Wl,--defsym=_ZN5telux5audio15VoiceStreamImplC2EjSt10shared_ptrINS_3qmi14AudioQmiClientEE=so_stub_for_libtelux_audio
-Wl,--defsym=_ZN5telux5audio15VoiceStreamImplD0Ev=so_stub_for_libtelux_audio
-Wl,--defsym=_ZN5telux5audio15VoiceStreamImplD1Ev=so_stub_for_libtelux_audio
-Wl,--defsym=_ZN5telux5audio15VoiceStreamImplD2Ev=so_stub_for_libtelux_audio
-Wl,--defsym=_ZN5telux5audio16AudioFactoryImpl11getInstanceEv=so_stub_for_libtelux_audio
-Wl,--defsym=_ZN5telux5audio16AudioFactoryImpl14getAudioPlayerERSt10shared_ptrINS0_12IAudioPlayerEE=so_stub_for_libtelux_audio
-Wl,--defsym=_ZN5telux5audio16AudioFactoryImpl15getAudioManagerESt8functionIFvNS_6common13ServiceStatusEEE=so_stub_for_libtelux_audio
-Wl,--defsym=_ZN5telux5audio16AudioFactoryImpl17managerInitResultENS_6common13ServiceStatusE=so_stub_for_libtelux_audio
-Wl,--defsym=_ZN5telux5audio16AudioFactoryImplC1Ev=so_stub_for_libtelux_audio
-Wl,--defsym=_ZN5telux5audio16AudioFactoryImplC2Ev=so_stub_for_libtelux_audio
-Wl,--defsym=_ZN5telux5audio16AudioFactoryImplD0Ev=so_stub_for_libtelux_audio
-Wl,--defsym=_ZN5telux5audio16AudioFactoryImplD1Ev=so_stub_for_libtelux_audio
-Wl,--defsym=_ZN5telux5audio16AudioFactoryImplD2Ev=so_stub_for_libtelux_audio
-Wl,--defsym=_ZN5telux5audio16AudioManagerImpl10getDevicesESt8functionIFvSt6vectorISt10shared_ptrINS0_12IAudioDeviceEESaIS6_EENS_6common9ErrorCodeEEE=so_stub_for_libtelux_audio
-Wl,--defsym=_ZN5telux5audio16AudioManagerImpl12createStreamENS0_12StreamConfigESt8functionIFvRSt10shared_ptrINS0_12IAudioStreamEENS_6common9ErrorCodeEEE=so_stub_for_libtelux_audio
-Wl,--defsym=_ZN5telux5audio16AudioManagerImpl12deleteStreamESt10shared_ptrINS0_12IAudioStreamEESt8functionIFvNS_6common9ErrorCodeEEE=so_stub_for_libtelux_audio
-Wl,--defsym=_ZN5telux5audio16AudioManagerImpl13onQ6SSRUpdateENS_6common13ServiceStatusE=so_stub_for_libtelux_audio
-Wl,--defsym=_ZN5telux5audio16AudioManagerImpl14getStreamTypesESt8functionIFvSt6vectorINS0_10StreamTypeESaIS4_EENS_6common9ErrorCodeEEE=so_stub_for_libtelux_audio
-Wl,--defsym=_ZN5telux5audio16AudioManagerImpl16createTranscoderENS0_10FormatInfoES2_St8functionIFvRSt10shared_ptrINS0_11ITranscoderEENS_6common9ErrorCodeEEE=so_stub_for_libtelux_audio
-Wl,--defsym=_ZN5telux5audio16AudioManagerImpl16getServiceStatusEv=so_stub_for_libtelux_audio
-Wl,--defsym=_ZN5telux5audio16AudioManagerImpl16isSubsystemReadyEv=so_stub_for_libtelux_audio
-Wl,--defsym=_ZN5telux5audio16AudioManagerImpl16onSubsystemReadyEv=so_stub_for_libtelux_audio
-Wl,--defsym=_ZN5telux5audio16AudioManagerImpl16registerListenerESt8weak_ptrINS0_14IAudioListenerEE=so_stub_for_libtelux_audio
-Wl,--defsym=_ZN5telux5audio16AudioManagerImpl18deRegisterListenerESt8weak_ptrINS0_14IAudioListenerEE=so_stub_for_libtelux_audio
-Wl,--defsym=_ZN5telux5audio16AudioManagerImpl18onGetDevicesResultENS_6common9ErrorCodeESt6vectorINS0_10DeviceTypeESaIS5_EES4_INS0_15DeviceDirectionESaIS8_EEPv=so_stub_for_libtelux_audio
-Wl,--defsym=_ZN5telux5audio16AudioManagerImpl18onGetStreamsResultENS_6common9ErrorCodeESt6vectorINS0_10StreamTypeESaIS5_EEPv=so_stub_for_libtelux_audio
-Wl,--defsym=_ZN5telux5audio16AudioManagerImpl19serviceStatusGuard_E=so_stub_for_libtelux_audio
-Wl,--defsym=_ZN5telux5audio16AudioManagerImpl20onCreateStreamResultENS_6common9ErrorCodeENS0_17CreatedStreamInfoEPv=so_stub_for_libtelux_audio
-Wl,--defsym=_ZN5telux5audio16AudioManagerImpl20onDeleteStreamResultENS_6common9ErrorCodeEjPv=so_stub_for_libtelux_audio
-Wl,--defsym=_ZN5telux5audio16AudioManagerImpl21waitForInitializationEv=so_stub_for_libtelux_audio
-Wl,--defsym=_ZN5telux5audio16AudioManagerImpl22sendNewStatusToClientsENS_6common13ServiceStatusE=so_stub_for_libtelux_audio
-Wl,--defsym=_ZN5telux5audio16AudioManagerImpl23onTransportStatusUpdateENS_6common13ServiceStatusE=so_stub_for_libtelux_audio
-Wl,--defsym=_ZN5telux5audio16AudioManagerImpl24getCalibrationInitStatusESt8functionIFvNS0_21CalibrationInitStatusENS_6common9ErrorCodeEEE=so_stub_for_libtelux_audio
-Wl,--defsym=_ZN5telux5audio16AudioManagerImpl24onCreateTranscoderResultENS_6common9ErrorCodeENS0_21CreatedTranscoderInfoEPv=so_stub_for_libtelux_audio
-Wl,--defsym=_ZN5telux5audio16AudioManagerImpl24onGetCalInitStatusResultENS_6common9ErrorCodeENS0_21CalibrationInitStatusEPv=so_stub_for_libtelux_audio
-Wl,--defsym=_ZN5telux5audio16AudioManagerImpl4initESt8functionIFvNS_6common13ServiceStatusEEE=so_stub_for_libtelux_audio
-Wl,--defsym=_ZN5telux5audio16AudioManagerImpl8exitNow_E=so_stub_for_libtelux_audio
-Wl,--defsym=_ZN5telux5audio16AudioManagerImpl8initSyncEv=so_stub_for_libtelux_audio
-Wl,--defsym=_ZN5telux5audio16AudioManagerImplC1Ev=so_stub_for_libtelux_audio
-Wl,--defsym=_ZN5telux5audio16AudioManagerImplC2Ev=so_stub_for_libtelux_audio
-Wl,--defsym=_ZN5telux5audio16AudioManagerImplD0Ev=so_stub_for_libtelux_audio
-Wl,--defsym=_ZN5telux5audio16AudioManagerImplD1Ev=so_stub_for_libtelux_audio
-Wl,--defsym=_ZN5telux5audio16AudioManagerImplD2Ev=so_stub_for_libtelux_audio
-Wl,--defsym=_ZN5telux5audio16StreamBufferImplC1Ejjjj=so_stub_for_libtelux_audio
-Wl,--defsym=_ZN5telux5audio16StreamBufferImplC2Ejjjj=so_stub_for_libtelux_audio
-Wl,--defsym=_ZN5telux5audio16StreamBufferImplD0Ev=so_stub_for_libtelux_audio
-Wl,--defsym=_ZN5telux5audio16StreamBufferImplD1Ev=so_stub_for_libtelux_audio
-Wl,--defsym=_ZN5telux5audio16StreamBufferImplD2Ev=so_stub_for_libtelux_audio
-Wl,--defsym=_ZN5telux5audio17CaptureStreamImpl12onReadResultENS_6common9ErrorCodeEjjPNS0_13AudioUserDataE=so_stub_for_libtelux_audio
-Wl,--defsym=_ZN5telux5audio17CaptureStreamImpl15getStreamBufferEv=so_stub_for_libtelux_audio
-Wl,--defsym=_ZN5telux5audio17CaptureStreamImpl4readESt10shared_ptrINS0_13IStreamBufferEEjSt8functionIFvS4_NS_6common9ErrorCodeEEE=so_stub_for_libtelux_audio
-Wl,--defsym=_ZN5telux5audio17CaptureStreamImplC1EjjjSt10shared_ptrINS_3qmi14AudioQmiClientEE=so_stub_for_libtelux_audio
-Wl,--defsym=_ZN5telux5audio17CaptureStreamImplC2EjjjSt10shared_ptrINS_3qmi14AudioQmiClientEE=so_stub_for_libtelux_audio
-Wl,--defsym=_ZN5telux5audio17CaptureStreamImplD0Ev=so_stub_for_libtelux_audio
-Wl,--defsym=_ZN5telux5audio17CaptureStreamImplD1Ev=so_stub_for_libtelux_audio
-Wl,--defsym=_ZN5telux5audio17CaptureStreamImplD2Ev=so_stub_for_libtelux_audio
-Wl,--defsym=_ZN5telux5audio18LoopbackStreamImpl12stopLoopbackESt8functionIFvNS_6common9ErrorCodeEEE=so_stub_for_libtelux_audio
-Wl,--defsym=_ZN5telux5audio18LoopbackStreamImpl13startLoopbackESt8functionIFvNS_6common9ErrorCodeEEE=so_stub_for_libtelux_audio
-Wl,--defsym=_ZN5telux5audio18LoopbackStreamImpl18onStreamStopResultENS_6common9ErrorCodeEjPv=so_stub_for_libtelux_audio
-Wl,--defsym=_ZN5telux5audio18LoopbackStreamImpl19onStreamStartResultENS_6common9ErrorCodeEjPv=so_stub_for_libtelux_audio
-Wl,--defsym=_ZN5telux5audio18LoopbackStreamImplC1EjSt10shared_ptrINS_3qmi14AudioQmiClientEE=so_stub_for_libtelux_audio
-Wl,--defsym=_ZN5telux5audio18LoopbackStreamImplC2EjSt10shared_ptrINS_3qmi14AudioQmiClientEE=so_stub_for_libtelux_audio
-Wl,--defsym=_ZN5telux5audio18LoopbackStreamImplD0Ev=so_stub_for_libtelux_audio
-Wl,--defsym=_ZN5telux5audio18LoopbackStreamImplD1Ev=so_stub_for_libtelux_audio
-Wl,--defsym=_ZN5telux5audio18LoopbackStreamImplD2Ev=so_stub_for_libtelux_audio
-Wl,--defsym=_ZN5telux5audio23SetMuteResponseListener15setMuteCompleteENS_6common9ErrorCodeE=so_stub_for_libtelux_audio
-Wl,--defsym=_ZN5telux5audio23SetMuteResponseListenerC1ERSt5mutex=so_stub_for_libtelux_audio
-Wl,--defsym=_ZN5telux5audio23SetMuteResponseListenerC2ERSt5mutex=so_stub_for_libtelux_audio
-Wl,--defsym=_ZN5telux5audio23ToneGeneratorStreamImpl16onToneStopResultENS_6common9ErrorCodeEjPv=so_stub_for_libtelux_audio
-Wl,--defsym=_ZN5telux5audio23ToneGeneratorStreamImpl17onToneStartResultENS_6common9ErrorCodeEjPv=so_stub_for_libtelux_audio
-Wl,--defsym=_ZN5telux5audio23ToneGeneratorStreamImpl8playToneESt6vectorItSaItEEttSt8functionIFvNS_6common9ErrorCodeEEE=so_stub_for_libtelux_audio
-Wl,--defsym=_ZN5telux5audio23ToneGeneratorStreamImpl8stopToneESt8functionIFvNS_6common9ErrorCodeEEE=so_stub_for_libtelux_audio
-Wl,--defsym=_ZN5telux5audio23ToneGeneratorStreamImplC1EjSt10shared_ptrINS_3qmi14AudioQmiClientEE=so_stub_for_libtelux_audio
-Wl,--defsym=_ZN5telux5audio23ToneGeneratorStreamImplC2EjSt10shared_ptrINS_3qmi14AudioQmiClientEE=so_stub_for_libtelux_audio
-Wl,--defsym=_ZN5telux5audio23ToneGeneratorStreamImplD0Ev=so_stub_for_libtelux_audio
-Wl,--defsym=_ZN5telux5audio23ToneGeneratorStreamImplD1Ev=so_stub_for_libtelux_audio
-Wl,--defsym=_ZN5telux5audio23ToneGeneratorStreamImplD2Ev=so_stub_for_libtelux_audio
-Wl,--defsym=_ZN5telux5audio25GetDeviceResponseListener17getDeviceCompleteESt6vectorINS0_10DeviceTypeESaIS3_EENS_6common9ErrorCodeE=so_stub_for_libtelux_audio
-Wl,--defsym=_ZN5telux5audio25GetDeviceResponseListenerC1ERSt5mutex=so_stub_for_libtelux_audio
-Wl,--defsym=_ZN5telux5audio25GetDeviceResponseListenerC2ERSt5mutex=so_stub_for_libtelux_audio
-Wl,--defsym=_ZN5telux5audio25GetVolumeResponseListener17getVolumeCompleteENS0_12StreamVolumeENS_6common9ErrorCodeE=so_stub_for_libtelux_audio
-Wl,--defsym=_ZN5telux5audio25GetVolumeResponseListenerC1ERSt5mutex=so_stub_for_libtelux_audio
-Wl,--defsym=_ZN5telux5audio25GetVolumeResponseListenerC2ERSt5mutex=so_stub_for_libtelux_audio
-Wl,--defsym=_ZN5telux5audio25SetDeviceResponseListener17setDeviceCompleteENS_6common9ErrorCodeE=so_stub_for_libtelux_audio
-Wl,--defsym=_ZN5telux5audio25SetDeviceResponseListenerC1ERSt5mutex=so_stub_for_libtelux_audio
-Wl,--defsym=_ZN5telux5audio25SetDeviceResponseListenerC2ERSt5mutex=so_stub_for_libtelux_audio
-Wl,--defsym=_ZN5telux5audio25SetVolumeResponseListener17setVolumeCompleteENS_6common9ErrorCodeE=so_stub_for_libtelux_audio
-Wl,--defsym=_ZN5telux5audio25SetVolumeResponseListenerC1ERSt5mutex=so_stub_for_libtelux_audio
-Wl,--defsym=_ZN5telux5audio25SetVolumeResponseListenerC2ERSt5mutex=so_stub_for_libtelux_audio
-Wl,--defsym=_ZN5telux6common13FactoryHelper10getManagerINS_5audio13IAudioManagerEEESt10shared_ptrIT_ENSt7__cxx1112basic_stringIcSt11char_traitsIcESaIcEEERSt8weak_ptrIS6_ERSt6vectorISt8functionIFvNS0_13ServiceStatusEEESaISL_EESL_SI_IFS7_SL_EE=so_stub_for_libtelux_audio
-Wl,--defsym=_ZN5telux6common13FactoryHelper20initCompleteNotifierENSt7__cxx1112basic_stringIcSt11char_traitsIcESaIcEEERSt6vectorISt8functionIFvNS0_13ServiceStatusEEESaISC_EESA_=so_stub_for_libtelux_audio
-Wl,--defsym=_ZN5telux6common14AsyncTaskQueueIvE11executeTaskEv=so_stub_for_libtelux_audio
-Wl,--defsym=_ZN5telux6common14AsyncTaskQueueIvE14purgeCompletedEv=so_stub_for_libtelux_audio
-Wl,--defsym=_ZN5telux6common14AsyncTaskQueueIvE3addERSt13shared_futureIvE=so_stub_for_libtelux_audio
-Wl,--defsym=_ZN5telux6common14AsyncTaskQueueIvE8shutdownEb=so_stub_for_libtelux_audio
-Wl,--defsym=_ZN5telux6common14AsyncTaskQueueIvEC1Ev=so_stub_for_libtelux_audio
-Wl,--defsym=_ZN5telux6common14AsyncTaskQueueIvEC2Ev=so_stub_for_libtelux_audio
-Wl,--defsym=_ZN5telux6common14AsyncTaskQueueIvED1Ev=so_stub_for_libtelux_audio
-Wl,--defsym=_ZN5telux6common14AsyncTaskQueueIvED2Ev=so_stub_for_libtelux_audio
-Wl,--defsym=_ZN5telux6common14SharedFromThisD0Ev=so_stub_for_libtelux_audio
-Wl,--defsym=_ZN5telux6common14SharedFromThisD1Ev=so_stub_for_libtelux_audio
-Wl,--defsym=_ZN5telux6common14SharedFromThisD2Ev=so_stub_for_libtelux_audio
-Wl,--defsym=_ZN5telux6common15ListenerManager16registerListenerESt8weak_ptrINS0_12ISDKListenerEE=so_stub_for_libtelux_audio
-Wl,--defsym=_ZN5telux6common15ListenerManager18deRegisterListenerESt8weak_ptrINS0_12ISDKListenerEE=so_stub_for_libtelux_audio
-Wl,--defsym=_ZN5telux6common15ListenerManager21getAvailableListenersERSt6vectorISt8weak_ptrINS0_12ISDKListenerEESaIS5_EE=so_stub_for_libtelux_audio
-Wl,--defsym=_ZN5telux6common15ListenerManager5purgeEv=so_stub_for_libtelux_audio
-Wl,--defsym=_ZN5telux6common15ListenerManager7cleanupEv=so_stub_for_libtelux_audio
-Wl,--defsym=_ZN5telux6common15ListenerManagerC1Ev=so_stub_for_libtelux_audio
-Wl,--defsym=_ZN5telux6common15ListenerManagerC2Ev=so_stub_for_libtelux_audio
-Wl,--defsym=_ZN5telux6common15ListenerManagerD1Ev=so_stub_for_libtelux_audio
-Wl,--defsym=_ZN5telux6common15ListenerManagerD2Ev=so_stub_for_libtelux_audio
-Wl,--defsym=_ZN5telux6common18FunctionalCallbackIJNS0_9ErrorCodeEEED0Ev=so_stub_for_libtelux_audio
-Wl,--defsym=_ZN5telux6common18FunctionalCallbackIJNS0_9ErrorCodeEEED1Ev=so_stub_for_libtelux_audio
-Wl,--defsym=_ZN5telux6common18FunctionalCallbackIJNS0_9ErrorCodeEEED2Ev=so_stub_for_libtelux_audio
-Wl,--defsym=_ZN5telux6common18FunctionalCallbackIJNS_5audio10StreamMuteENS0_9ErrorCodeEEED0Ev=so_stub_for_libtelux_audio
-Wl,--defsym=_ZN5telux6common18FunctionalCallbackIJNS_5audio10StreamMuteENS0_9ErrorCodeEEED1Ev=so_stub_for_libtelux_audio
-Wl,--defsym=_ZN5telux6common18FunctionalCallbackIJNS_5audio10StreamMuteENS0_9ErrorCodeEEED2Ev=so_stub_for_libtelux_audio
-Wl,--defsym=_ZN5telux6common18FunctionalCallbackIJNS_5audio12StreamVolumeENS0_9ErrorCodeEEED0Ev=so_stub_for_libtelux_audio
-Wl,--defsym=_ZN5telux6common18FunctionalCallbackIJNS_5audio12StreamVolumeENS0_9ErrorCodeEEED1Ev=so_stub_for_libtelux_audio
-Wl,--defsym=_ZN5telux6common18FunctionalCallbackIJNS_5audio12StreamVolumeENS0_9ErrorCodeEEED2Ev=so_stub_for_libtelux_audio
-Wl,--defsym=_ZN5telux6common18FunctionalCallbackIJNS_5audio21CalibrationInitStatusENS0_9ErrorCodeEEED0Ev=so_stub_for_libtelux_audio
-Wl,--defsym=_ZN5telux6common18FunctionalCallbackIJNS_5audio21CalibrationInitStatusENS0_9ErrorCodeEEED1Ev=so_stub_for_libtelux_audio
-Wl,--defsym=_ZN5telux6common18FunctionalCallbackIJNS_5audio21CalibrationInitStatusENS0_9ErrorCodeEEED2Ev=so_stub_for_libtelux_audio
-Wl,--defsym=_ZN5telux6common18FunctionalCallbackIJRSt10shared_ptrINS_5audio11ITranscoderEENS0_9ErrorCodeEEED0Ev=so_stub_for_libtelux_audio
-Wl,--defsym=_ZN5telux6common18FunctionalCallbackIJRSt10shared_ptrINS_5audio11ITranscoderEENS0_9ErrorCodeEEED1Ev=so_stub_for_libtelux_audio
-Wl,--defsym=_ZN5telux6common18FunctionalCallbackIJRSt10shared_ptrINS_5audio11ITranscoderEENS0_9ErrorCodeEEED2Ev=so_stub_for_libtelux_audio
-Wl,--defsym=_ZN5telux6common18FunctionalCallbackIJRSt10shared_ptrINS_5audio12IAudioStreamEENS0_9ErrorCodeEEED0Ev=so_stub_for_libtelux_audio
-Wl,--defsym=_ZN5telux6common18FunctionalCallbackIJRSt10shared_ptrINS_5audio12IAudioStreamEENS0_9ErrorCodeEEED1Ev=so_stub_for_libtelux_audio
-Wl,--defsym=_ZN5telux6common18FunctionalCallbackIJRSt10shared_ptrINS_5audio12IAudioStreamEENS0_9ErrorCodeEEED2Ev=so_stub_for_libtelux_audio
-Wl,--defsym=_ZN5telux6common18FunctionalCallbackIJSt10shared_ptrINS_5audio12IAudioBufferEEjNS0_9ErrorCodeEEED0Ev=so_stub_for_libtelux_audio
-Wl,--defsym=_ZN5telux6common18FunctionalCallbackIJSt10shared_ptrINS_5audio12IAudioBufferEEjNS0_9ErrorCodeEEED1Ev=so_stub_for_libtelux_audio
-Wl,--defsym=_ZN5telux6common18FunctionalCallbackIJSt10shared_ptrINS_5audio12IAudioBufferEEjNS0_9ErrorCodeEEED2Ev=so_stub_for_libtelux_audio
-Wl,--defsym=_ZN5telux6common18FunctionalCallbackIJSt10shared_ptrINS_5audio13IStreamBufferEEjNS0_9ErrorCodeEEED0Ev=so_stub_for_libtelux_audio
-Wl,--defsym=_ZN5telux6common18FunctionalCallbackIJSt10shared_ptrINS_5audio13IStreamBufferEEjNS0_9ErrorCodeEEED1Ev=so_stub_for_libtelux_audio
-Wl,--defsym=_ZN5telux6common18FunctionalCallbackIJSt10shared_ptrINS_5audio13IStreamBufferEEjNS0_9ErrorCodeEEED2Ev=so_stub_for_libtelux_audio
-Wl,--defsym=_ZN5telux6common18FunctionalCallbackIJSt10shared_ptrINS_5audio13IStreamBufferEENS0_9ErrorCodeEEED0Ev=so_stub_for_libtelux_audio
-Wl,--defsym=_ZN5telux6common18FunctionalCallbackIJSt10shared_ptrINS_5audio13IStreamBufferEENS0_9ErrorCodeEEED1Ev=so_stub_for_libtelux_audio
-Wl,--defsym=_ZN5telux6common18FunctionalCallbackIJSt10shared_ptrINS_5audio13IStreamBufferEENS0_9ErrorCodeEEED2Ev=so_stub_for_libtelux_audio
-Wl,--defsym=_ZN5telux6common18FunctionalCallbackIJSt6vectorINS_5audio10DeviceTypeESaIS4_EENS0_9ErrorCodeEEED0Ev=so_stub_for_libtelux_audio
-Wl,--defsym=_ZN5telux6common18FunctionalCallbackIJSt6vectorINS_5audio10DeviceTypeESaIS4_EENS0_9ErrorCodeEEED1Ev=so_stub_for_libtelux_audio
-Wl,--defsym=_ZN5telux6common18FunctionalCallbackIJSt6vectorINS_5audio10DeviceTypeESaIS4_EENS0_9ErrorCodeEEED2Ev=so_stub_for_libtelux_audio
-Wl,--defsym=_ZN5telux6common18FunctionalCallbackIJSt6vectorINS_5audio10StreamTypeESaIS4_EENS0_9ErrorCodeEEED0Ev=so_stub_for_libtelux_audio
-Wl,--defsym=_ZN5telux6common18FunctionalCallbackIJSt6vectorINS_5audio10StreamTypeESaIS4_EENS0_9ErrorCodeEEED1Ev=so_stub_for_libtelux_audio
-Wl,--defsym=_ZN5telux6common18FunctionalCallbackIJSt6vectorINS_5audio10StreamTypeESaIS4_EENS0_9ErrorCodeEEED2Ev=so_stub_for_libtelux_audio
-Wl,--defsym=_ZN5telux6common18FunctionalCallbackIJSt6vectorISt10shared_ptrINS_5audio12IAudioDeviceEESaIS6_EENS0_9ErrorCodeEEED0Ev=so_stub_for_libtelux_audio
-Wl,--defsym=_ZN5telux6common18FunctionalCallbackIJSt6vectorISt10shared_ptrINS_5audio12IAudioDeviceEESaIS6_EENS0_9ErrorCodeEEED1Ev=so_stub_for_libtelux_audio
-Wl,--defsym=_ZN5telux6common18FunctionalCallbackIJSt6vectorISt10shared_ptrINS_5audio12IAudioDeviceEESaIS6_EENS0_9ErrorCodeEEED2Ev=so_stub_for_libtelux_audio
-Wl,--defsym=_ZN5telux6common22CommandCallbackManager11addCallbackIJNS0_9ErrorCodeEEEEiSt8functionIFvDpT_EE=so_stub_for_libtelux_audio
-Wl,--defsym=_ZN5telux6common22CommandCallbackManager11addCallbackIJNS_5audio10StreamMuteENS0_9ErrorCodeEEEEiSt8functionIFvDpT_EE=so_stub_for_libtelux_audio
-Wl,--defsym=_ZN5telux6common22CommandCallbackManager11addCallbackIJNS_5audio12StreamVolumeENS0_9ErrorCodeEEEEiSt8functionIFvDpT_EE=so_stub_for_libtelux_audio
-Wl,--defsym=_ZN5telux6common22CommandCallbackManager11addCallbackIJNS_5audio21CalibrationInitStatusENS0_9ErrorCodeEEEEiSt8functionIFvDpT_EE=so_stub_for_libtelux_audio
-Wl,--defsym=_ZN5telux6common22CommandCallbackManager11addCallbackIJRSt10shared_ptrINS_5audio11ITranscoderEENS0_9ErrorCodeEEEEiSt8functionIFvDpT_EE=so_stub_for_libtelux_audio
-Wl,--defsym=_ZN5telux6common22CommandCallbackManager11addCallbackIJRSt10shared_ptrINS_5audio12IAudioStreamEENS0_9ErrorCodeEEEEiSt8functionIFvDpT_EE=so_stub_for_libtelux_audio
-Wl,--defsym=_ZN5telux6common22CommandCallbackManager11addCallbackIJSt10shared_ptrINS_5audio12IAudioBufferEEjNS0_9ErrorCodeEEEEiSt8functionIFvDpT_EE=so_stub_for_libtelux_audio
-Wl,--defsym=_ZN5telux6common22CommandCallbackManager11addCallbackIJSt10shared_ptrINS_5audio13IStreamBufferEEjNS0_9ErrorCodeEEEEiSt8functionIFvDpT_EE=so_stub_for_libtelux_audio
-Wl,--defsym=_ZN5telux6common22CommandCallbackManager11addCallbackIJSt10shared_ptrINS_5audio13IStreamBufferEENS0_9ErrorCodeEEEEiSt8functionIFvDpT_EE=so_stub_for_libtelux_audio
-Wl,--defsym=_ZN5telux6common22CommandCallbackManager11addCallbackIJSt6vectorINS_5audio10DeviceTypeESaIS5_EENS0_9ErrorCodeEEEEiSt8functionIFvDpT_EE=so_stub_for_libtelux_audio
-Wl,--defsym=_ZN5telux6common22CommandCallbackManager11addCallbackIJSt6vectorINS_5audio10StreamTypeESaIS5_EENS0_9ErrorCodeEEEEiSt8functionIFvDpT_EE=so_stub_for_libtelux_audio
-Wl,--defsym=_ZN5telux6common22CommandCallbackManager11addCallbackIJSt6vectorISt10shared_ptrINS_5audio12IAudioDeviceEESaIS7_EENS0_9ErrorCodeEEEEiSt8functionIFvDpT_EE=so_stub_for_libtelux_audio
-Wl,--defsym=_ZN5telux6common22CommandCallbackManager15executeCallbackIJDnNS0_9ErrorCodeEEEEvSt10shared_ptrINS0_16ICommandCallbackEEDpOT_=so_stub_for_libtelux_audio
-Wl,--defsym=_ZN5telux6common22CommandCallbackManager15executeCallbackIJDnRNS0_9ErrorCodeEEEEvSt10shared_ptrINS0_16ICommandCallbackEEDpOT_=so_stub_for_libtelux_audio
-Wl,--defsym=_ZN5telux6common22CommandCallbackManager15executeCallbackIJRNS0_9ErrorCodeEEEEvSt10shared_ptrINS0_16ICommandCallbackEEDpOT_=so_stub_for_libtelux_audio
-Wl,--defsym=_ZN5telux6common22CommandCallbackManager15executeCallbackIJRNS_5audio10StreamMuteERNS0_9ErrorCodeEEEEvSt10shared_ptrINS0_16ICommandCallbackEEDpOT_=so_stub_for_libtelux_audio
-Wl,--defsym=_ZN5telux6common22CommandCallbackManager15executeCallbackIJRNS_5audio12StreamVolumeERNS0_9ErrorCodeEEEEvSt10shared_ptrINS0_16ICommandCallbackEEDpOT_=so_stub_for_libtelux_audio
-Wl,--defsym=_ZN5telux6common22CommandCallbackManager15executeCallbackIJRNS_5audio21CalibrationInitStatusERNS0_9ErrorCodeEEEEvSt10shared_ptrINS0_16ICommandCallbackEEDpOT_=so_stub_for_libtelux_audio
-Wl,--defsym=_ZN5telux6common22CommandCallbackManager15executeCallbackIJRSt10shared_ptrINS_5audio12IAudioStreamEERNS0_9ErrorCodeEEEEvS3_INS0_16ICommandCallbackEEDpOT_=so_stub_for_libtelux_audio
-Wl,--defsym=_ZN5telux6common22CommandCallbackManager15executeCallbackIJRSt10shared_ptrINS_5audio14TranscoderImplEERNS0_9ErrorCodeEEEEvS3_INS0_16ICommandCallbackEEDpOT_=so_stub_for_libtelux_audio
-Wl,--defsym=_ZN5telux6common22CommandCallbackManager15executeCallbackIJRSt10shared_ptrINS_5audio15AudioBufferImplEERjRNS0_9ErrorCodeEEEEvS3_INS0_16ICommandCallbackEEDpOT_=so_stub_for_libtelux_audio
-Wl,--defsym=_ZN5telux6common22CommandCallbackManager15executeCallbackIJRSt10shared_ptrINS_5audio16StreamBufferImplEERjRNS0_9ErrorCodeEEEEvS3_INS0_16ICommandCallbackEEDpOT_=so_stub_for_libtelux_audio
-Wl,--defsym=_ZN5telux6common22CommandCallbackManager15executeCallbackIJRSt10shared_ptrINS_5audio16StreamBufferImplEERNS0_9ErrorCodeEEEEvS3_INS0_16ICommandCallbackEEDpOT_=so_stub_for_libtelux_audio
-Wl,--defsym=_ZN5telux6common22CommandCallbackManager15executeCallbackIJRSt6vectorINS_5audio10DeviceTypeESaIS5_EERNS0_9ErrorCodeEEEEvSt10shared_ptrINS0_16ICommandCallbackEEDpOT_=so_stub_for_libtelux_audio
-Wl,--defsym=_ZN5telux6common22CommandCallbackManager15executeCallbackIJRSt6vectorINS_5audio10StreamTypeESaIS5_EERNS0_9ErrorCodeEEEEvSt10shared_ptrINS0_16ICommandCallbackEEDpOT_=so_stub_for_libtelux_audio
-Wl,--defsym=_ZN5telux6common22CommandCallbackManager15executeCallbackIJRSt6vectorISt10shared_ptrINS_5audio15AudioDeviceImplEESaIS7_EERNS0_9ErrorCodeEEEEvS4_INS0_16ICommandCallbackEEDpOT_=so_stub_for_libtelux_audio
-Wl,--defsym=_ZN5telux6common22IServiceStatusListener21onServiceStatusChangeENS0_13ServiceStatusE=so_stub_for_libtelux_audio
-Wl,--defsym=_ZN5telux6common35enable_inheritable_shared_from_thisINS_5audio15AudioStreamImplEE16shared_from_thisEv=so_stub_for_libtelux_audio
-Wl,--defsym=_ZN5telux6common35enable_inheritable_shared_from_thisINS_5audio15AudioStreamImplEE27downcasted_shared_from_thisINS2_14PlayStreamImplEEESt10shared_ptrIT_Ev=so_stub_for_libtelux_audio
-Wl,--defsym=_ZN5telux6common35enable_inheritable_shared_from_thisINS_5audio15AudioStreamImplEE27downcasted_shared_from_thisINS2_15VoiceStreamImplEEESt10shared_ptrIT_Ev=so_stub_for_libtelux_audio
-Wl,--defsym=_ZN5telux6common35enable_inheritable_shared_from_thisINS_5audio15AudioStreamImplEE27downcasted_shared_from_thisINS2_17CaptureStreamImplEEESt10shared_ptrIT_Ev=so_stub_for_libtelux_audio
-Wl,--defsym=_ZN5telux6common35enable_inheritable_shared_from_thisINS_5audio15AudioStreamImplEE27downcasted_shared_from_thisINS2_18LoopbackStreamImplEEESt10shared_ptrIT_Ev=so_stub_for_libtelux_audio
-Wl,--defsym=_ZN5telux6common35enable_inheritable_shared_from_thisINS_5audio15AudioStreamImplEE27downcasted_shared_from_thisINS2_23ToneGeneratorStreamImplEEESt10shared_ptrIT_Ev=so_stub_for_libtelux_audio
-Wl,--defsym=_ZN5telux6common3Log10logMessageIJNSt7__cxx1112basic_stringIcSt11char_traitsIcESaIcEEEPKcmSA_PNS_5audio13IAudioManagerESA_iEEEvNS0_8LogLevelERKS8_SG_RKiDpT_=so_stub_for_libtelux_audio
-Wl,--defsym=_ZN5telux6common3Log10logMessageIJNSt7__cxx1112basic_stringIcSt11char_traitsIcESaIcEEEPKcPNS_5audio13IAudioManagerEEEEvNS0_8LogLevelERKS8_SG_RKiDpT_=so_stub_for_libtelux_audio
-Wl,--defsym=_ZN5telux6common3Log10logMessageIJNSt7__cxx1112basic_stringIcSt11char_traitsIcESaIcEEEPKcPNS_5audio13IAudioManagerESA_EEEvNS0_8LogLevelERKS8_SG_RKiDpT_=so_stub_for_libtelux_audio
-Wl,--defsym=_ZN5telux6common3Log10logMessageIJNSt7__cxx1112basic_stringIcSt11char_traitsIcESaIcEEEPKcPNS_5audio13IAudioManagerESA_iEEEvNS0_8LogLevelERKS8_SG_RKiDpT_=so_stub_for_libtelux_audio
-Wl,--defsym=_ZN5telux6common3Log10logMessageIJPKcEEEvNS0_8LogLevelERKNSt7__cxx1112basic_stringIcSt11char_traitsIcESaIcEEESD_RKiDpT_=so_stub_for_libtelux_audio
-Wl,--defsym=_ZN5telux6common3Log10logMessageIJPKcmEEEvNS0_8LogLevelERKNSt7__cxx1112basic_stringIcSt11char_traitsIcESaIcEEESD_RKiDpT_=so_stub_for_libtelux_audio
-Wl,--defsym=_ZN5telux6common3Log10logMessageIJPKcNSt7__cxx1112basic_stringIcSt11char_traitsIcESaIcEEES4_PNS_5audio13IAudioManagerEEEEvNS0_8LogLevelERKSA_SG_RKiDpT_=so_stub_for_libtelux_audio
-Wl,--defsym=_ZN5telux6common3Log10logMessageIJPKcS4_EEEvNS0_8LogLevelERKNSt7__cxx1112basic_stringIcSt11char_traitsIcESaIcEEESD_RKiDpT_=so_stub_for_libtelux_audio
-Wl,--defsym=_ZN5telux6common3Log10logMessageIJPKcS4_iEEEvNS0_8LogLevelERKNSt7__cxx1112basic_stringIcSt11char_traitsIcESaIcEEESD_RKiDpT_=so_stub_for_libtelux_audio
-Wl,--defsym=_ZN5telux6common3Log10logMessageIJPKcS4_jEEEvNS0_8LogLevelERKNSt7__cxx1112basic_stringIcSt11char_traitsIcESaIcEEESD_RKiDpT_=so_stub_for_libtelux_audio
-Wl,--defsym=_ZN5telux6common3Log10logMessageIJPKcS4_lEEEvNS0_8LogLevelERKNSt7__cxx1112basic_stringIcSt11char_traitsIcESaIcEEESD_RKiDpT_=so_stub_for_libtelux_audio
-Wl,--defsym=_ZN5telux6common3Log10logMessageIJPKcS4_mEEEvNS0_8LogLevelERKNSt7__cxx1112basic_stringIcSt11char_traitsIcESaIcEEESD_RKiDpT_=so_stub_for_libtelux_audio
-Wl,--defsym=_ZN5telux6common3Log10logMessageIJPKcS4_NSt7__cxx1112basic_stringIcSt11char_traitsIcESaIcEEES4_iEEEvNS0_8LogLevelERKSA_SD_RKiDpT_=so_stub_for_libtelux_audio
-Wl,--defsym=_ZN5telux6common3Log10logMessageIJPKcS4_NSt7__cxx1112basic_stringIcSt11char_traitsIcESaIcEEES4_iS4_PSt6vectorISt8functionIFvNS0_13ServiceStatusEEESaISF_EEEEEvNS0_8LogLevelERKSA_SL_RKiDpT_=so_stub_for_libtelux_audio
-Wl,--defsym=_ZN5telux6common3Log10logMessageIJPKcS4_NSt7__cxx1112basic_stringIcSt11char_traitsIcESaIcEEES4_PNS_5audio13IAudioManagerEEEEvNS0_8LogLevelERKSA_SG_RKiDpT_=so_stub_for_libtelux_audio
-Wl,--defsym=_ZN5telux6common3Log10logMessageIJPKcS4_NSt7__cxx1112basic_stringIcSt11char_traitsIcESaIcEEES4_S4_EEEvNS0_8LogLevelERKSA_SD_RKiDpT_=so_stub_for_libtelux_audio
-Wl,--defsym=_ZN5telux6common3Log10logMessageIJPKcS4_PSt8functionIFvNS0_13ServiceStatusEEEEEEvNS0_8LogLevelERKNSt7__cxx1112basic_stringIcSt11char_traitsIcESaIcEEESI_RKiDpT_=so_stub_for_libtelux_audio
-Wl,--defsym=_ZN5telux6common3Log10logMessageIJPKcS4_S4_EEEvNS0_8LogLevelERKNSt7__cxx1112basic_stringIcSt11char_traitsIcESaIcEEESD_RKiDpT_=so_stub_for_libtelux_audio
-Wl,--defsym=_ZN5telux6common3Log10logMessageIJPKcS4_S4_S4_PSt6vectorISt8functionIFvNS0_13ServiceStatusEEESaIS9_EEEEEvNS0_8LogLevelERKNSt7__cxx1112basic_stringIcSt11char_traitsIcESaIcEEESL_RKiDpT_=so_stub_for_libtelux_audio
-Wl,--defsym=_ZN5telux6common3Log16constructMessageINSt7__cxx1119basic_ostringstreamIcSt11char_traitsIcESaIcEEENS3_12basic_stringIcS6_S7_EEJPKciSC_PSt6vectorISt8functionIFvNS0_13ServiceStatusEEESaISH_EEEEEvRT_T0_DpT1_=so_stub_for_libtelux_audio
-Wl,--defsym=_ZN5telux6common3Log16constructMessageINSt7__cxx1119basic_ostringstreamIcSt11char_traitsIcESaIcEEENS3_12basic_stringIcS6_S7_EEJPKcmSC_PNS_5audio13IAudioManagerESC_iEEEvRT_T0_DpT1_=so_stub_for_libtelux_audio
-Wl,--defsym=_ZN5telux6common3Log16constructMessageINSt7__cxx1119basic_ostringstreamIcSt11char_traitsIcESaIcEEEPKcJNS3_12basic_stringIcS6_S7_EESA_iEEEvRT_T0_DpT1_=so_stub_for_libtelux_audio
-Wl,--defsym=_ZN5telux6common3Log16constructMessageINSt7__cxx1119basic_ostringstreamIcSt11char_traitsIcESaIcEEEPKcJNS3_12basic_stringIcS6_S7_EESA_iSA_PSt6vectorISt8functionIFvNS0_13ServiceStatusEEESaISH_EEEEEvRT_T0_DpT1_=so_stub_for_libtelux_audio
-Wl,--defsym=_ZN5telux6common3Log16constructMessageINSt7__cxx1119basic_ostringstreamIcSt11char_traitsIcESaIcEEEPKcJNS3_12basic_stringIcS6_S7_EESA_PNS_5audio13IAudioManagerEEEEvRT_T0_DpT1_=so_stub_for_libtelux_audio
-Wl,--defsym=_ZN5telux6common3Log16constructMessageINSt7__cxx1119basic_ostringstreamIcSt11char_traitsIcESaIcEEEPKcJNS3_12basic_stringIcS6_S7_EESA_SA_EEEvRT_T0_DpT1_=so_stub_for_libtelux_audio
-Wl,--defsym=_ZN5telux6common3Log16constructMessageINSt7__cxx1119basic_ostringstreamIcSt11char_traitsIcESaIcEEEPKcJSA_NS3_12basic_stringIcS6_S7_EESA_iEEEvRT_T0_DpT1_=so_stub_for_libtelux_audio
-Wl,--defsym=_ZN5telux6common3Log16constructMessageINSt7__cxx1119basic_ostringstreamIcSt11char_traitsIcESaIcEEEPKcJSA_NS3_12basic_stringIcS6_S7_EESA_iSA_PSt6vectorISt8functionIFvNS0_13ServiceStatusEEESaISH_EEEEEvRT_T0_DpT1_=so_stub_for_libtelux_audio
-Wl,--defsym=_ZN5telux6common3Log16constructMessageINSt7__cxx1119basic_ostringstreamIcSt11char_traitsIcESaIcEEEPKcJSA_NS3_12basic_stringIcS6_S7_EESA_PNS_5audio13IAudioManagerEEEEvRT_T0_DpT1_=so_stub_for_libtelux_audio
-Wl,--defsym=_ZN5telux6common3Log16constructMessageINSt7__cxx1119basic_ostringstreamIcSt11char_traitsIcESaIcEEEPKcJSA_NS3_12basic_stringIcS6_S7_EESA_SA_EEEvRT_T0_DpT1_=so_stub_for_libtelux_audio
-Wl,--defsym=_ZN5telux6common3Log16constructMessageINSt7__cxx1119basic_ostringstreamIcSt11char_traitsIcESaIcEEEPKcJSA_SA_SA_PSt6vectorISt8functionIFvNS0_13ServiceStatusEEESaISF_EEEEEvRT_T0_DpT1_=so_stub_for_libtelux_audio
-Wl,--defsym=_ZN9__gnu_cxx13new_allocatorIN5telux5audio14PlayStreamImplEE9constructIS3_JRjS6_S6_RSt10shared_ptrINS1_3qmi14AudioQmiClientEEEEEvPT_DpOT0_=so_stub_for_libtelux_audio
-Wl,--defsym=_ZN9__gnu_cxx13new_allocatorIN5telux5audio14TranscoderImplEE9constructIS3_JRNS2_21CreatedTranscoderInfoERSt10shared_ptrINS1_3qmi14AudioQmiClientEEEEEvPT_DpOT0_=so_stub_for_libtelux_audio
-Wl,--defsym=_ZN9__gnu_cxx13new_allocatorIN5telux5audio15AudioPlayerImplEE9constructIS3_JRSt10shared_ptrINS2_13IAudioManagerEEEEEvPT_DpOT0_=so_stub_for_libtelux_audio
-Wl,--defsym=_ZN9__gnu_cxx13new_allocatorIN5telux5audio15VoiceStreamImplEE9constructIS3_JRjRSt10shared_ptrINS1_3qmi14AudioQmiClientEEEEEvPT_DpOT0_=so_stub_for_libtelux_audio
-Wl,--defsym=_ZN9__gnu_cxx13new_allocatorIN5telux5audio17CaptureStreamImplEE9constructIS3_JRjS6_S6_RSt10shared_ptrINS1_3qmi14AudioQmiClientEEEEEvPT_DpOT0_=so_stub_for_libtelux_audio
-Wl,--defsym=_ZN9__gnu_cxx13new_allocatorIN5telux5audio18LoopbackStreamImplEE9constructIS3_JRjRSt10shared_ptrINS1_3qmi14AudioQmiClientEEEEEvPT_DpOT0_=so_stub_for_libtelux_audio
-Wl,--defsym=_ZN9__gnu_cxx13new_allocatorIN5telux5audio23ToneGeneratorStreamImplEE9constructIS3_JRjRSt10shared_ptrINS1_3qmi14AudioQmiClientEEEEEvPT_DpOT0_=so_stub_for_libtelux_audio
-Wl,--defsym=_ZN9__gnu_cxx5__ops10_Iter_predIZN5telux6common15ListenerManager16registerListenerESt8weak_ptrINS3_12ISDKListenerEEEUlS7_E_EclINS_17__normal_iteratorIPS7_St6vectorIS7_SaIS7_EEEEEEbT_=so_stub_for_libtelux_audio
-Wl,--defsym=_ZNKSt13__future_base13_State_baseV221_M_is_deferred_futureEv=so_stub_for_libtelux_audio
-Wl,--defsym=_ZNKSt14__basic_futureIbE13_M_get_resultEv=so_stub_for_libtelux_audio
-Wl,--defsym=_ZNKSt14__basic_futureIvE13_M_get_resultEv=so_stub_for_libtelux_audio
-Wl,--defsym=_ZNSt10_HashtableIiSt4pairIKiSt10shared_ptrIN5telux6common16ICommandCallbackEEESaIS7_ENSt8__detail10_Select1stESt8equal_toIiESt4hashIiENS9_18_Mod_range_hashingENS9_20_Default_ranged_hashENS9_20_Prime_rehash_policyENS9_17_Hashtable_traitsILb0ELb0ELb1EEEE13_M_rehash_auxEmSt17integral_constantIbLb1EE=so_stub_for_libtelux_audio
-Wl,--defsym=_ZNSt10_HashtableIiSt4pairIKiSt10shared_ptrIN5telux6common16ICommandCallbackEEESaIS7_ENSt8__detail10_Select1stESt8equal_toIiESt4hashIiENS9_18_Mod_range_hashingENS9_20_Default_ranged_hashENS9_20_Prime_rehash_policyENS9_17_Hashtable_traitsILb0ELb0ELb1EEEE21_M_insert_unique_nodeEmmPNS9_10_Hash_nodeIS7_Lb0EEEm=so_stub_for_libtelux_audio
-Wl,--defsym=_ZNSt10_HashtableIiSt4pairIKiSt10shared_ptrIN5telux6common16ICommandCallbackEEESaIS7_ENSt8__detail10_Select1stESt8equal_toIiESt4hashIiENS9_18_Mod_range_hashingENS9_20_Default_ranged_hashENS9_20_Prime_rehash_policyENS9_17_Hashtable_traitsILb0ELb0ELb1EEEE9_M_rehashEmRKm=so_stub_for_libtelux_audio
-Wl,--defsym=_ZNSt10shared_ptrIN5telux6common15ListenerManagerEEC1ISaIS2_EJEEESt20_Sp_alloc_shared_tagIT_EDpOT0_=so_stub_for_libtelux_audio
-Wl,--defsym=_ZNSt10shared_ptrIN5telux6common15ListenerManagerEEC2ISaIS2_EJEEESt20_Sp_alloc_shared_tagIT_EDpOT0_=so_stub_for_libtelux_audio
-Wl,--defsym=_ZNSt10shared_ptrISt6threadEC1ISaIS0_EJMN5telux6common14AsyncTaskQueueIvEEFvvEPS7_EEESt20_Sp_alloc_shared_tagIT_EDpOT0_=so_stub_for_libtelux_audio
-Wl,--defsym=_ZNSt10shared_ptrISt6threadEC2ISaIS0_EJMN5telux6common14AsyncTaskQueueIvEEFvvEPS7_EEESt20_Sp_alloc_shared_tagIT_EDpOT0_=so_stub_for_libtelux_audio
-Wl,--defsym=_ZNSt10unique_ptrINSt13__future_base12_Result_baseENS1_8_DeleterEED1Ev=so_stub_for_libtelux_audio
-Wl,--defsym=_ZNSt10unique_ptrINSt13__future_base12_Result_baseENS1_8_DeleterEED2Ev=so_stub_for_libtelux_audio
-Wl,--defsym=_ZNSt10unique_ptrINSt13__future_base7_ResultIvEENS0_12_Result_base8_DeleterEED1Ev=so_stub_for_libtelux_audio
-Wl,--defsym=_ZNSt10unique_ptrINSt13__future_base7_ResultIvEENS0_12_Result_base8_DeleterEED2Ev=so_stub_for_libtelux_audio
-Wl,--defsym=_ZNSt10unique_ptrINSt6thread6_StateESt14default_deleteIS1_EED1Ev=so_stub_for_libtelux_audio
-Wl,--defsym=_ZNSt10unique_ptrINSt6thread6_StateESt14default_deleteIS1_EED2Ev=so_stub_for_libtelux_audio
-Wl,--defsym=_ZNSt10__weak_ptrIN5telux6common12ISDKListenerELN9__gnu_cxx12_Lock_policyE2EEC1INS0_5audio13IPlayListenerEvEERKS_IT_LS4_2EE=so_stub_for_libtelux_audio
-Wl,--defsym=_ZNSt10__weak_ptrIN5telux6common12ISDKListenerELN9__gnu_cxx12_Lock_policyE2EEC1INS0_5audio14IAudioListenerEvEERKS_IT_LS4_2EE=so_stub_for_libtelux_audio
-Wl,--defsym=_ZNSt10__weak_ptrIN5telux6common12ISDKListenerELN9__gnu_cxx12_Lock_policyE2EEC1INS0_5audio14IVoiceListenerEvEERKS_IT_LS4_2EE=so_stub_for_libtelux_audio
-Wl,--defsym=_ZNSt10__weak_ptrIN5telux6common12ISDKListenerELN9__gnu_cxx12_Lock_policyE2EEC1INS0_5audio18ITranscodeListenerEvEERKS_IT_LS4_2EE=so_stub_for_libtelux_audio
-Wl,--defsym=_ZNSt10__weak_ptrIN5telux6common12ISDKListenerELN9__gnu_cxx12_Lock_policyE2EEC2INS0_5audio13IPlayListenerEvEERKS_IT_LS4_2EE=so_stub_for_libtelux_audio
-Wl,--defsym=_ZNSt10__weak_ptrIN5telux6common12ISDKListenerELN9__gnu_cxx12_Lock_policyE2EEC2INS0_5audio14IAudioListenerEvEERKS_IT_LS4_2EE=so_stub_for_libtelux_audio
-Wl,--defsym=_ZNSt10__weak_ptrIN5telux6common12ISDKListenerELN9__gnu_cxx12_Lock_policyE2EEC2INS0_5audio14IVoiceListenerEvEERKS_IT_LS4_2EE=so_stub_for_libtelux_audio
-Wl,--defsym=_ZNSt10__weak_ptrIN5telux6common12ISDKListenerELN9__gnu_cxx12_Lock_policyE2EEC2INS0_5audio18ITranscodeListenerEvEERKS_IT_LS4_2EE=so_stub_for_libtelux_audio
-Wl,--defsym=_ZNSt10__weak_ptrIN5telux6common14SharedFromThisELN9__gnu_cxx12_Lock_policyE2EE9_M_assignEPS2_RKSt14__shared_countILS4_2EE=so_stub_for_libtelux_audio
-Wl,--defsym=_ZNSt11_Deque_baseISt10shared_ptrIN5telux5audio13IStreamBufferEESaIS4_EE15_M_create_nodesEPPS4_S8_=so_stub_for_libtelux_audio
-Wl,--defsym=_ZNSt11_Deque_baseISt10shared_ptrIN5telux5audio13IStreamBufferEESaIS4_EE16_M_destroy_nodesEPPS4_S8_=so_stub_for_libtelux_audio
-Wl,--defsym=_ZNSt11_Deque_baseISt10shared_ptrIN5telux5audio13IStreamBufferEESaIS4_EE17_M_initialize_mapEm=so_stub_for_libtelux_audio
-Wl,--defsym=_ZNSt11_Deque_baseISt13shared_futureIvESaIS1_EE15_M_create_nodesEPPS1_S5_=so_stub_for_libtelux_audio
-Wl,--defsym=_ZNSt11_Deque_baseISt13shared_futureIvESaIS1_EE16_M_destroy_nodesEPPS1_S5_=so_stub_for_libtelux_audio
-Wl,--defsym=_ZNSt11_Deque_baseISt13shared_futureIvESaIS1_EE17_M_initialize_mapEm=so_stub_for_libtelux_audio
-Wl,--defsym=_ZNSt11unique_lockISt5mutexE6unlockEv=so_stub_for_libtelux_audio
-Wl,--defsym=_ZNSt12future_errorC1ESt10error_code=so_stub_for_libtelux_audio
-Wl,--defsym=_ZNSt12future_errorC2ESt10error_code=so_stub_for_libtelux_audio
-Wl,--defsym=_ZNSt12__shared_ptrIN5telux3qmi14AudioQmiClientELN9__gnu_cxx12_Lock_policyE2EEC1ERKSt10__weak_ptrIS2_LS4_2EESt9nothrow_t=so_stub_for_libtelux_audio
-Wl,--defsym=_ZNSt12__shared_ptrIN5telux3qmi14AudioQmiClientELN9__gnu_cxx12_Lock_policyE2EEC2ERKSt10__weak_ptrIS2_LS4_2EESt9nothrow_t=so_stub_for_libtelux_audio
-Wl,--defsym=_ZNSt12__shared_ptrIN5telux5audio13IAudioManagerELN9__gnu_cxx12_Lock_policyE2EEC1ERKSt10__weak_ptrIS2_LS4_2EESt9nothrow_t=so_stub_for_libtelux_audio
-Wl,--defsym=_ZNSt12__shared_ptrIN5telux5audio13IAudioManagerELN9__gnu_cxx12_Lock_policyE2EEC2ERKSt10__weak_ptrIS2_LS4_2EESt9nothrow_t=so_stub_for_libtelux_audio
-Wl,--defsym=_ZNSt12__shared_ptrIN5telux5audio14PlayStreamImplELN9__gnu_cxx12_Lock_policyE2EEC1ISaIS2_EJRjS8_S8_RSt10shared_ptrINS0_3qmi14AudioQmiClientEEEEESt20_Sp_alloc_shared_tagIT_EDpOT0_=so_stub_for_libtelux_audio
-Wl,--defsym=_ZNSt12__shared_ptrIN5telux5audio14PlayStreamImplELN9__gnu_cxx12_Lock_policyE2EEC2ISaIS2_EJRjS8_S8_RSt10shared_ptrINS0_3qmi14AudioQmiClientEEEEESt20_Sp_alloc_shared_tagIT_EDpOT0_=so_stub_for_libtelux_audio
-Wl,--defsym=_ZNSt12__shared_ptrIN5telux5audio14TranscoderImplELN9__gnu_cxx12_Lock_policyE2EEC1ISaIS2_EJRNS1_21CreatedTranscoderInfoERSt10shared_ptrINS0_3qmi14AudioQmiClientEEEEESt20_Sp_alloc_shared_tagIT_EDpOT0_=so_stub_for_libtelux_audio
-Wl,--defsym=_ZNSt12__shared_ptrIN5telux5audio14TranscoderImplELN9__gnu_cxx12_Lock_policyE2EEC2ISaIS2_EJRNS1_21CreatedTranscoderInfoERSt10shared_ptrINS0_3qmi14AudioQmiClientEEEEESt20_Sp_alloc_shared_tagIT_EDpOT0_=so_stub_for_libtelux_audio
-Wl,--defsym=_ZNSt12__shared_ptrIN5telux5audio15AudioDeviceImplELN9__gnu_cxx12_Lock_policyE2EEC1ISaIS2_EJRNS1_10DeviceTypeERNS1_15DeviceDirectionEEEESt20_Sp_alloc_shared_tagIT_EDpOT0_=so_stub_for_libtelux_audio
-Wl,--defsym=_ZNSt12__shared_ptrIN5telux5audio15AudioDeviceImplELN9__gnu_cxx12_Lock_policyE2EEC2ISaIS2_EJRNS1_10DeviceTypeERNS1_15DeviceDirectionEEEESt20_Sp_alloc_shared_tagIT_EDpOT0_=so_stub_for_libtelux_audio
-Wl,--defsym=_ZNSt12__shared_ptrIN5telux5audio15AudioPlayerImplELN9__gnu_cxx12_Lock_policyE2EEC1ISaIS2_EJRSt10shared_ptrINS1_13IAudioManagerEEEEESt20_Sp_alloc_shared_tagIT_EDpOT0_=so_stub_for_libtelux_audio
-Wl,--defsym=_ZNSt12__shared_ptrIN5telux5audio15AudioPlayerImplELN9__gnu_cxx12_Lock_policyE2EEC2ISaIS2_EJRSt10shared_ptrINS1_13IAudioManagerEEEEESt20_Sp_alloc_shared_tagIT_EDpOT0_=so_stub_for_libtelux_audio
-Wl,--defsym=_ZNSt12__shared_ptrIN5telux5audio15VoiceStreamImplELN9__gnu_cxx12_Lock_policyE2EEC1ISaIS2_EJRjRSt10shared_ptrINS0_3qmi14AudioQmiClientEEEEESt20_Sp_alloc_shared_tagIT_EDpOT0_=so_stub_for_libtelux_audio
-Wl,--defsym=_ZNSt12__shared_ptrIN5telux5audio15VoiceStreamImplELN9__gnu_cxx12_Lock_policyE2EEC2ISaIS2_EJRjRSt10shared_ptrINS0_3qmi14AudioQmiClientEEEEESt20_Sp_alloc_shared_tagIT_EDpOT0_=so_stub_for_libtelux_audio
-Wl,--defsym=_ZNSt12__shared_ptrIN5telux5audio16AudioManagerImplELN9__gnu_cxx12_Lock_policyE2EEC1ISaIS2_EJEEESt20_Sp_alloc_shared_tagIT_EDpOT0_=so_stub_for_libtelux_audio
-Wl,--defsym=_ZNSt12__shared_ptrIN5telux5audio16AudioManagerImplELN9__gnu_cxx12_Lock_policyE2EEC2ISaIS2_EJEEESt20_Sp_alloc_shared_tagIT_EDpOT0_=so_stub_for_libtelux_audio
-Wl,--defsym=_ZNSt12__shared_ptrIN5telux5audio17CaptureStreamImplELN9__gnu_cxx12_Lock_policyE2EEC1ISaIS2_EJRjS8_S8_RSt10shared_ptrINS0_3qmi14AudioQmiClientEEEEESt20_Sp_alloc_shared_tagIT_EDpOT0_=so_stub_for_libtelux_audio
-Wl,--defsym=_ZNSt12__shared_ptrIN5telux5audio17CaptureStreamImplELN9__gnu_cxx12_Lock_policyE2EEC2ISaIS2_EJRjS8_S8_RSt10shared_ptrINS0_3qmi14AudioQmiClientEEEEESt20_Sp_alloc_shared_tagIT_EDpOT0_=so_stub_for_libtelux_audio
-Wl,--defsym=_ZNSt12__shared_ptrIN5telux5audio17IPlayListListenerELN9__gnu_cxx12_Lock_policyE2EEC1ERKSt10__weak_ptrIS2_LS4_2EESt9nothrow_t=so_stub_for_libtelux_audio
-Wl,--defsym=_ZNSt12__shared_ptrIN5telux5audio17IPlayListListenerELN9__gnu_cxx12_Lock_policyE2EEC2ERKSt10__weak_ptrIS2_LS4_2EESt9nothrow_t=so_stub_for_libtelux_audio
-Wl,--defsym=_ZNSt12__shared_ptrIN5telux5audio18LoopbackStreamImplELN9__gnu_cxx12_Lock_policyE2EEC1ISaIS2_EJRjRSt10shared_ptrINS0_3qmi14AudioQmiClientEEEEESt20_Sp_alloc_shared_tagIT_EDpOT0_=so_stub_for_libtelux_audio
-Wl,--defsym=_ZNSt12__shared_ptrIN5telux5audio18LoopbackStreamImplELN9__gnu_cxx12_Lock_policyE2EEC2ISaIS2_EJRjRSt10shared_ptrINS0_3qmi14AudioQmiClientEEEEESt20_Sp_alloc_shared_tagIT_EDpOT0_=so_stub_for_libtelux_audio
-Wl,--defsym=_ZNSt12__shared_ptrIN5telux5audio23ToneGeneratorStreamImplELN9__gnu_cxx12_Lock_policyE2EEC1ISaIS2_EJRjRSt10shared_ptrINS0_3qmi14AudioQmiClientEEEEESt20_Sp_alloc_shared_tagIT_EDpOT0_=so_stub_for_libtelux_audio
-Wl,--defsym=_ZNSt12__shared_ptrIN5telux5audio23ToneGeneratorStreamImplELN9__gnu_cxx12_Lock_policyE2EEC2ISaIS2_EJRjRSt10shared_ptrINS0_3qmi14AudioQmiClientEEEEESt20_Sp_alloc_shared_tagIT_EDpOT0_=so_stub_for_libtelux_audio
-Wl,--defsym=_ZNSt12__shared_ptrIN5telux6common12ISDKListenerELN9__gnu_cxx12_Lock_policyE2EEC1ERKSt10__weak_ptrIS2_LS4_2EESt9nothrow_t=so_stub_for_libtelux_audio
-Wl,--defsym=_ZNSt12__shared_ptrIN5telux6common12ISDKListenerELN9__gnu_cxx12_Lock_policyE2EEC2ERKSt10__weak_ptrIS2_LS4_2EESt9nothrow_t=so_stub_for_libtelux_audio
-Wl,--defsym=_ZNSt12__weak_countILN9__gnu_cxx12_Lock_policyE2EEaSERKSt14__shared_countILS1_2EE=so_stub_for_libtelux_audio
-Wl,--defsym=_ZNSt13__future_base13_State_baseV210wait_untilINSt6chrono3_V212system_clockENS2_8durationIlSt5ratioILl1ELl1000000000EEEEEESt13future_statusRKNS2_10time_pointIT_T0_EE=so_stub_for_libtelux_audio
-Wl,--defsym=_ZNSt13__future_base13_State_baseV213_M_set_resultESt8functionIFSt10unique_ptrINS_12_Result_baseENS3_8_DeleterEEvEEb=so_stub_for_libtelux_audio
-Wl,--defsym=_ZNSt13__future_base13_State_baseV216_M_break_promiseESt10unique_ptrINS_12_Result_baseENS2_8_DeleterEE=so_stub_for_libtelux_audio
-Wl,--defsym=_ZNSt13__future_base13_State_baseV217_M_complete_asyncEv=so_stub_for_libtelux_audio
-Wl,--defsym=_ZNSt13__future_base13_State_baseV24waitEv=so_stub_for_libtelux_audio
-Wl,--defsym=_ZNSt13__future_base13_State_baseV29_M_do_setEPSt8functionIFSt10unique_ptrINS_12_Result_baseENS3_8_DeleterEEvEEPb=so_stub_for_libtelux_audio
-Wl,--defsym=_ZNSt13__future_base13_State_baseV2D0Ev=so_stub_for_libtelux_audio
-Wl,--defsym=_ZNSt13__future_base13_State_baseV2D1Ev=so_stub_for_libtelux_audio
-Wl,--defsym=_ZNSt13__future_base13_State_baseV2D2Ev=so_stub_for_libtelux_audio
-Wl,--defsym=_ZNSt13__future_base21_Async_state_commonV217_M_complete_asyncEv=so_stub_for_libtelux_audio
-Wl,--defsym=_ZNSt13__future_base21_Async_state_commonV2D0Ev=so_stub_for_libtelux_audio
-Wl,--defsym=_ZNSt13__future_base21_Async_state_commonV2D1Ev=so_stub_for_libtelux_audio
-Wl,--defsym=_ZNSt13__future_base21_Async_state_commonV2D2Ev=so_stub_for_libtelux_audio
-Wl,--defsym=_ZNSt13__future_base7_ResultIbE10_M_destroyEv=so_stub_for_libtelux_audio
-Wl,--defsym=_ZNSt13__future_base7_ResultIbED0Ev=so_stub_for_libtelux_audio
-Wl,--defsym=_ZNSt13__future_base7_ResultIbED1Ev=so_stub_for_libtelux_audio
-Wl,--defsym=_ZNSt13__future_base7_ResultIbED2Ev=so_stub_for_libtelux_audio
-Wl,--defsym=_ZNSt13__future_base7_ResultIvE10_M_destroyEv=so_stub_for_libtelux_audio
-Wl,--defsym=_ZNSt13__future_base7_ResultIvED0Ev=so_stub_for_libtelux_audio
-Wl,--defsym=_ZNSt13__future_base7_ResultIvED1Ev=so_stub_for_libtelux_audio
-Wl,--defsym=_ZNSt13__future_base7_ResultIvED2Ev=so_stub_for_libtelux_audio
-Wl,--defsym=_ZNSt14__basic_futureIbEC1ERKSt10shared_ptrINSt13__future_base13_State_baseV2EE=so_stub_for_libtelux_audio
-Wl,--defsym=_ZNSt14__basic_futureIbEC2ERKSt10shared_ptrINSt13__future_base13_State_baseV2EE=so_stub_for_libtelux_audio
-Wl,--defsym=_ZNSt14__basic_futureIvEC1ERKSt10shared_ptrINSt13__future_base13_State_baseV2EE=so_stub_for_libtelux_audio
-Wl,--defsym=_ZNSt14__basic_futureIvEC2ERKSt10shared_ptrINSt13__future_base13_State_baseV2EE=so_stub_for_libtelux_audio
-Wl,--defsym=_ZNSt14_Function_base13_Base_managerISt5_BindIFMN5telux5audio15AudioPlayerImplEFvNS2_6common9ErrorCodeEEPS4_St12_PlaceholderILi1EEEEE10_M_managerERSt9_Any_dataRKSF_St18_Manager_operation=so_stub_for_libtelux_audio
-Wl,--defsym=_ZNSt14_Function_base13_Base_managerISt5_BindIFMN5telux5audio15AudioPlayerImplEFvRSt10shared_ptrINS3_12IAudioStreamEENS2_6common9ErrorCodeEEPS4_St12_PlaceholderILi1EESE_ILi2EEEEE10_M_managerERSt9_Any_dataRKSK_St18_Manager_operation=so_stub_for_libtelux_audio
-Wl,--defsym=_ZNSt14_Function_base13_Base_managerISt5_BindIFMN5telux5audio15AudioPlayerImplEFvSt10shared_ptrINS3_13IStreamBufferEEjNS2_6common9ErrorCodeEEPS4_St12_PlaceholderILi1EESD_ILi2EESD_ILi3EEEEE10_M_managerERSt9_Any_dataRKSK_St18_Manager_operation=so_stub_for_libtelux_audio
-Wl,--defsym=_ZNSt14_Function_base13_Base_managerISt5_BindIFMN5telux5audio16AudioFactoryImplEFvNS2_6common13ServiceStatusEEPS4_St12_PlaceholderILi1EEEEE10_M_managerERSt9_Any_dataRKSF_St18_Manager_operation=so_stub_for_libtelux_audio
-Wl,--defsym=_ZNSt14_Function_base13_Base_managerISt5_BindIFMN5telux5audio23SetMuteResponseListenerEFvNS2_6common9ErrorCodeEEPS4_St12_PlaceholderILi1EEEEE10_M_managerERSt9_Any_dataRKSF_St18_Manager_operation=so_stub_for_libtelux_audio
-Wl,--defsym=_ZNSt14_Function_base13_Base_managerISt5_BindIFMN5telux5audio25GetDeviceResponseListenerEFvSt6vectorINS3_10DeviceTypeESaIS6_EENS2_6common9ErrorCodeEEPS4_St12_PlaceholderILi1EESE_ILi2EEEEE10_M_managerERSt9_Any_dataRKSK_St18_Manager_operation=so_stub_for_libtelux_audio
-Wl,--defsym=_ZNSt14_Function_base13_Base_managerISt5_BindIFMN5telux5audio25GetVolumeResponseListenerEFvNS3_12StreamVolumeENS2_6common9ErrorCodeEEPS4_St12_PlaceholderILi1EESB_ILi2EEEEE10_M_managerERSt9_Any_dataRKSH_St18_Manager_operation=so_stub_for_libtelux_audio
-Wl,--defsym=_ZNSt14_Function_base13_Base_managerISt5_BindIFMN5telux5audio25SetDeviceResponseListenerEFvNS2_6common9ErrorCodeEEPS4_St12_PlaceholderILi1EEEEE10_M_managerERSt9_Any_dataRKSF_St18_Manager_operation=so_stub_for_libtelux_audio
-Wl,--defsym=_ZNSt14_Function_base13_Base_managerISt5_BindIFMN5telux5audio25SetVolumeResponseListenerEFvNS2_6common9ErrorCodeEEPS4_St12_PlaceholderILi1EEEEE10_M_managerERSt9_Any_dataRKSF_St18_Manager_operation=so_stub_for_libtelux_audio
-Wl,--defsym=_ZNSt14_Function_base13_Base_managerIZN5telux6common13FactoryHelper10getManagerINS1_5audio13IAudioManagerEEESt10shared_ptrIT_ENSt7__cxx1112basic_stringIcSt11char_traitsIcESaIcEEERSt8weak_ptrIS8_ERSt6vectorISt8functionIFvNS2_13ServiceStatusEEESaISN_EESN_SK_IFS9_SN_EEEUlSL_E0_E10_M_managerERSt9_Any_dataRKSV_St18_Manager_operation=so_stub_for_libtelux_audio
-Wl,--defsym=_ZNSt14_Function_baseD1Ev=so_stub_for_libtelux_audio
-Wl,--defsym=_ZNSt14_Function_baseD2Ev=so_stub_for_libtelux_audio
-Wl,--defsym=_ZNSt14__shared_countILN9__gnu_cxx12_Lock_policyE2EEaSERKS2_=so_stub_for_libtelux_audio
-Wl,--defsym=_ZNSt14__shared_countILN9__gnu_cxx12_Lock_policyE2EEC1ERKSt12__weak_countILS1_2EE=so_stub_for_libtelux_audio
-Wl,--defsym=_ZNSt14__shared_countILN9__gnu_cxx12_Lock_policyE2EEC1ERKSt12__weak_countILS1_2EESt9nothrow_t=so_stub_for_libtelux_audio
-Wl,--defsym=_ZNSt14__shared_countILN9__gnu_cxx12_Lock_policyE2EEC1IN5telux5audio14TranscoderImplESaIS6_EJRNS5_21CreatedTranscoderInfoERSt10shared_ptrINS4_3qmi14AudioQmiClientEEEEERPT_St20_Sp_alloc_shared_tagIT0_EDpOT1_=so_stub_for_libtelux_audio
-Wl,--defsym=_ZNSt14__shared_countILN9__gnu_cxx12_Lock_policyE2EEC1IN5telux5audio15AudioBufferImplESaIS6_EJRjS8_mmEEERPT_St20_Sp_alloc_shared_tagIT0_EDpOT1_=so_stub_for_libtelux_audio
-Wl,--defsym=_ZNSt14__shared_countILN9__gnu_cxx12_Lock_policyE2EEC1IN5telux5audio15AudioDeviceImplESaIS6_EJRNS5_10DeviceTypeERNS5_15DeviceDirectionEEEERPT_St20_Sp_alloc_shared_tagIT0_EDpOT1_=so_stub_for_libtelux_audio
-Wl,--defsym=_ZNSt14__shared_countILN9__gnu_cxx12_Lock_policyE2EEC1IN5telux5audio15AudioPlayerImplESaIS6_EJRSt10shared_ptrINS5_13IAudioManagerEEEEERPT_St20_Sp_alloc_shared_tagIT0_EDpOT1_=so_stub_for_libtelux_audio
-Wl,--defsym=_ZNSt14__shared_countILN9__gnu_cxx12_Lock_policyE2EEC1IN5telux5audio15VoiceStreamImplESaIS6_EJRjRSt10shared_ptrINS4_3qmi14AudioQmiClientEEEEERPT_St20_Sp_alloc_shared_tagIT0_EDpOT1_=so_stub_for_libtelux_audio
-Wl,--defsym=_ZNSt14__shared_countILN9__gnu_cxx12_Lock_policyE2EEC1IN5telux5audio18LoopbackStreamImplESaIS6_EJRjRSt10shared_ptrINS4_3qmi14AudioQmiClientEEEEERPT_St20_Sp_alloc_shared_tagIT0_EDpOT1_=so_stub_for_libtelux_audio
-Wl,--defsym=_ZNSt14__shared_countILN9__gnu_cxx12_Lock_policyE2EEC1IN5telux5audio23ToneGeneratorStreamImplESaIS6_EJRjRSt10shared_ptrINS4_3qmi14AudioQmiClientEEEEERPT_St20_Sp_alloc_shared_tagIT0_EDpOT1_=so_stub_for_libtelux_audio
-Wl,--defsym=_ZNSt14__shared_countILN9__gnu_cxx12_Lock_policyE2EEC1IN5telux6common18FunctionalCallbackIJNS4_5audio10StreamMuteENS5_9ErrorCodeEEEESaISA_EJRSt8functionIFvS8_S9_EEEEERPT_St20_Sp_alloc_shared_tagIT0_EDpOT1_=so_stub_for_libtelux_audio
-Wl,--defsym=_ZNSt14__shared_countILN9__gnu_cxx12_Lock_policyE2EEC1IN5telux6common18FunctionalCallbackIJNS4_5audio12StreamVolumeENS5_9ErrorCodeEEEESaISA_EJRSt8functionIFvS8_S9_EEEEERPT_St20_Sp_alloc_shared_tagIT0_EDpOT1_=so_stub_for_libtelux_audio
-Wl,--defsym=_ZNSt14__shared_countILN9__gnu_cxx12_Lock_policyE2EEC1IN5telux6common18FunctionalCallbackIJNS4_5audio21CalibrationInitStatusENS5_9ErrorCodeEEEESaISA_EJRSt8functionIFvS8_S9_EEEEERPT_St20_Sp_alloc_shared_tagIT0_EDpOT1_=so_stub_for_libtelux_audio
-Wl,--defsym=_ZNSt14__shared_countILN9__gnu_cxx12_Lock_policyE2EEC1IN5telux6common18FunctionalCallbackIJNS5_9ErrorCodeEEEESaIS8_EJRSt8functionIFvS7_EEEEERPT_St20_Sp_alloc_shared_tagIT0_EDpOT1_=so_stub_for_libtelux_audio
-Wl,--defsym=_ZNSt14__shared_countILN9__gnu_cxx12_Lock_policyE2EEC1IN5telux6common18FunctionalCallbackIJRSt10shared_ptrINS4_5audio11ITranscoderEENS5_9ErrorCodeEEEESaISD_EJRSt8functionIFvSB_SC_EEEEERPT_St20_Sp_alloc_shared_tagIT0_EDpOT1_=so_stub_for_libtelux_audio
-Wl,--defsym=_ZNSt14__shared_countILN9__gnu_cxx12_Lock_policyE2EEC1IN5telux6common18FunctionalCallbackIJRSt10shared_ptrINS4_5audio12IAudioStreamEENS5_9ErrorCodeEEEESaISD_EJRSt8functionIFvSB_SC_EEEEERPT_St20_Sp_alloc_shared_tagIT0_EDpOT1_=so_stub_for_libtelux_audio
-Wl,--defsym=_ZNSt14__shared_countILN9__gnu_cxx12_Lock_policyE2EEC1IN5telux6common18FunctionalCallbackIJSt10shared_ptrINS4_5audio12IAudioBufferEEjNS5_9ErrorCodeEEEESaISC_EJRSt8functionIFvSA_jSB_EEEEERPT_St20_Sp_alloc_shared_tagIT0_EDpOT1_=so_stub_for_libtelux_audio
-Wl,--defsym=_ZNSt14__shared_countILN9__gnu_cxx12_Lock_policyE2EEC1IN5telux6common18FunctionalCallbackIJSt10shared_ptrINS4_5audio13IStreamBufferEEjNS5_9ErrorCodeEEEESaISC_EJRSt8functionIFvSA_jSB_EEEEERPT_St20_Sp_alloc_shared_tagIT0_EDpOT1_=so_stub_for_libtelux_audio
-Wl,--defsym=_ZNSt14__shared_countILN9__gnu_cxx12_Lock_policyE2EEC1IN5telux6common18FunctionalCallbackIJSt10shared_ptrINS4_5audio13IStreamBufferEENS5_9ErrorCodeEEEESaISC_EJRSt8functionIFvSA_SB_EEEEERPT_St20_Sp_alloc_shared_tagIT0_EDpOT1_=so_stub_for_libtelux_audio
-Wl,--defsym=_ZNSt14__shared_countILN9__gnu_cxx12_Lock_policyE2EEC1IN5telux6common18FunctionalCallbackIJSt6vectorINS4_5audio10DeviceTypeESaIS9_EENS5_9ErrorCodeEEEESaISD_EJRSt8functionIFvSB_SC_EEEEERPT_St20_Sp_alloc_shared_tagIT0_EDpOT1_=so_stub_for_libtelux_audio
-Wl,--defsym=_ZNSt14__shared_countILN9__gnu_cxx12_Lock_policyE2EEC1IN5telux6common18FunctionalCallbackIJSt6vectorINS4_5audio10StreamTypeESaIS9_EENS5_9ErrorCodeEEEESaISD_EJRSt8functionIFvSB_SC_EEEEERPT_St20_Sp_alloc_shared_tagIT0_EDpOT1_=so_stub_for_libtelux_audio
-Wl,--defsym=_ZNSt14__shared_countILN9__gnu_cxx12_Lock_policyE2EEC1IN5telux6common18FunctionalCallbackIJSt6vectorISt10shared_ptrINS4_5audio12IAudioDeviceEESaISB_EENS5_9ErrorCodeEEEESaISF_EJRSt8functionIFvSD_SE_EEEEERPT_St20_Sp_alloc_shared_tagIT0_EDpOT1_=so_stub_for_libtelux_audio
-Wl,--defsym=_ZNSt14__shared_countILN9__gnu_cxx12_Lock_policyE2EEC2ERKSt12__weak_countILS1_2EE=so_stub_for_libtelux_audio
-Wl,--defsym=_ZNSt14__shared_countILN9__gnu_cxx12_Lock_policyE2EEC2ERKSt12__weak_countILS1_2EESt9nothrow_t=so_stub_for_libtelux_audio
-Wl,--defsym=_ZNSt14__shared_countILN9__gnu_cxx12_Lock_policyE2EEC2IN5telux5audio14TranscoderImplESaIS6_EJRNS5_21CreatedTranscoderInfoERSt10shared_ptrINS4_3qmi14AudioQmiClientEEEEERPT_St20_Sp_alloc_shared_tagIT0_EDpOT1_=so_stub_for_libtelux_audio
-Wl,--defsym=_ZNSt14__shared_countILN9__gnu_cxx12_Lock_policyE2EEC2IN5telux5audio15AudioBufferImplESaIS6_EJRjS8_mmEEERPT_St20_Sp_alloc_shared_tagIT0_EDpOT1_=so_stub_for_libtelux_audio
-Wl,--defsym=_ZNSt14__shared_countILN9__gnu_cxx12_Lock_policyE2EEC2IN5telux5audio15AudioDeviceImplESaIS6_EJRNS5_10DeviceTypeERNS5_15DeviceDirectionEEEERPT_St20_Sp_alloc_shared_tagIT0_EDpOT1_=so_stub_for_libtelux_audio
-Wl,--defsym=_ZNSt14__shared_countILN9__gnu_cxx12_Lock_policyE2EEC2IN5telux5audio15AudioPlayerImplESaIS6_EJRSt10shared_ptrINS5_13IAudioManagerEEEEERPT_St20_Sp_alloc_shared_tagIT0_EDpOT1_=so_stub_for_libtelux_audio
-Wl,--defsym=_ZNSt14__shared_countILN9__gnu_cxx12_Lock_policyE2EEC2IN5telux5audio15VoiceStreamImplESaIS6_EJRjRSt10shared_ptrINS4_3qmi14AudioQmiClientEEEEERPT_St20_Sp_alloc_shared_tagIT0_EDpOT1_=so_stub_for_libtelux_audio
-Wl,--defsym=_ZNSt14__shared_countILN9__gnu_cxx12_Lock_policyE2EEC2IN5telux5audio18LoopbackStreamImplESaIS6_EJRjRSt10shared_ptrINS4_3qmi14AudioQmiClientEEEEERPT_St20_Sp_alloc_shared_tagIT0_EDpOT1_=so_stub_for_libtelux_audio
-Wl,--defsym=_ZNSt14__shared_countILN9__gnu_cxx12_Lock_policyE2EEC2IN5telux5audio23ToneGeneratorStreamImplESaIS6_EJRjRSt10shared_ptrINS4_3qmi14AudioQmiClientEEEEERPT_St20_Sp_alloc_shared_tagIT0_EDpOT1_=so_stub_for_libtelux_audio
-Wl,--defsym=_ZNSt14__shared_countILN9__gnu_cxx12_Lock_policyE2EEC2IN5telux6common18FunctionalCallbackIJNS4_5audio10StreamMuteENS5_9ErrorCodeEEEESaISA_EJRSt8functionIFvS8_S9_EEEEERPT_St20_Sp_alloc_shared_tagIT0_EDpOT1_=so_stub_for_libtelux_audio
-Wl,--defsym=_ZNSt14__shared_countILN9__gnu_cxx12_Lock_policyE2EEC2IN5telux6common18FunctionalCallbackIJNS4_5audio12StreamVolumeENS5_9ErrorCodeEEEESaISA_EJRSt8functionIFvS8_S9_EEEEERPT_St20_Sp_alloc_shared_tagIT0_EDpOT1_=so_stub_for_libtelux_audio
-Wl,--defsym=_ZNSt14__shared_countILN9__gnu_cxx12_Lock_policyE2EEC2IN5telux6common18FunctionalCallbackIJNS4_5audio21CalibrationInitStatusENS5_9ErrorCodeEEEESaISA_EJRSt8functionIFvS8_S9_EEEEERPT_St20_Sp_alloc_shared_tagIT0_EDpOT1_=so_stub_for_libtelux_audio
-Wl,--defsym=_ZNSt14__shared_countILN9__gnu_cxx12_Lock_policyE2EEC2IN5telux6common18FunctionalCallbackIJNS5_9ErrorCodeEEEESaIS8_EJRSt8functionIFvS7_EEEEERPT_St20_Sp_alloc_shared_tagIT0_EDpOT1_=so_stub_for_libtelux_audio
-Wl,--defsym=_ZNSt14__shared_countILN9__gnu_cxx12_Lock_policyE2EEC2IN5telux6common18FunctionalCallbackIJRSt10shared_ptrINS4_5audio11ITranscoderEENS5_9ErrorCodeEEEESaISD_EJRSt8functionIFvSB_SC_EEEEERPT_St20_Sp_alloc_shared_tagIT0_EDpOT1_=so_stub_for_libtelux_audio
-Wl,--defsym=_ZNSt14__shared_countILN9__gnu_cxx12_Lock_policyE2EEC2IN5telux6common18FunctionalCallbackIJRSt10shared_ptrINS4_5audio12IAudioStreamEENS5_9ErrorCodeEEEESaISD_EJRSt8functionIFvSB_SC_EEEEERPT_St20_Sp_alloc_shared_tagIT0_EDpOT1_=so_stub_for_libtelux_audio
-Wl,--defsym=_ZNSt14__shared_countILN9__gnu_cxx12_Lock_policyE2EEC2IN5telux6common18FunctionalCallbackIJSt10shared_ptrINS4_5audio12IAudioBufferEEjNS5_9ErrorCodeEEEESaISC_EJRSt8functionIFvSA_jSB_EEEEERPT_St20_Sp_alloc_shared_tagIT0_EDpOT1_=so_stub_for_libtelux_audio
-Wl,--defsym=_ZNSt14__shared_countILN9__gnu_cxx12_Lock_policyE2EEC2IN5telux6common18FunctionalCallbackIJSt10shared_ptrINS4_5audio13IStreamBufferEEjNS5_9ErrorCodeEEEESaISC_EJRSt8functionIFvSA_jSB_EEEEERPT_St20_Sp_alloc_shared_tagIT0_EDpOT1_=so_stub_for_libtelux_audio
-Wl,--defsym=_ZNSt14__shared_countILN9__gnu_cxx12_Lock_policyE2EEC2IN5telux6common18FunctionalCallbackIJSt10shared_ptrINS4_5audio13IStreamBufferEENS5_9ErrorCodeEEEESaISC_EJRSt8functionIFvSA_SB_EEEEERPT_St20_Sp_alloc_shared_tagIT0_EDpOT1_=so_stub_for_libtelux_audio
-Wl,--defsym=_ZNSt14__shared_countILN9__gnu_cxx12_Lock_policyE2EEC2IN5telux6common18FunctionalCallbackIJSt6vectorINS4_5audio10DeviceTypeESaIS9_EENS5_9ErrorCodeEEEESaISD_EJRSt8functionIFvSB_SC_EEEEERPT_St20_Sp_alloc_shared_tagIT0_EDpOT1_=so_stub_for_libtelux_audio
-Wl,--defsym=_ZNSt14__shared_countILN9__gnu_cxx12_Lock_policyE2EEC2IN5telux6common18FunctionalCallbackIJSt6vectorINS4_5audio10StreamTypeESaIS9_EENS5_9ErrorCodeEEEESaISD_EJRSt8functionIFvSB_SC_EEEEERPT_St20_Sp_alloc_shared_tagIT0_EDpOT1_=so_stub_for_libtelux_audio
-Wl,--defsym=_ZNSt14__shared_countILN9__gnu_cxx12_Lock_policyE2EEC2IN5telux6common18FunctionalCallbackIJSt6vectorISt10shared_ptrINS4_5audio12IAudioDeviceEESaISB_EENS5_9ErrorCodeEEEESaISF_EJRSt8functionIFvSD_SE_EEEEERPT_St20_Sp_alloc_shared_tagIT0_EDpOT1_=so_stub_for_libtelux_audio
-Wl,--defsym=_ZNSt15_Deque_iteratorISt13shared_futureIvERKS1_PS2_EpLEl=so_stub_for_libtelux_audio
-Wl,--defsym=_ZNSt15_Deque_iteratorISt13shared_futureIvERS1_PS1_EpLEl=so_stub_for_libtelux_audio
-Wl,--defsym=_ZNSt15__exception_ptr12__dest_thunkISt12future_errorEEvPv=so_stub_for_libtelux_audio
-Wl,--defsym=_ZNSt15__exception_ptr13exception_ptraSEOS0_=so_stub_for_libtelux_audio
-Wl,--defsym=_ZNSt16_Sp_counted_baseILN9__gnu_cxx12_Lock_policyE2EE10_M_releaseEv=so_stub_for_libtelux_audio
-Wl,--defsym=_ZNSt16_Sp_counted_baseILN9__gnu_cxx12_Lock_policyE2EE15_M_weak_releaseEv=so_stub_for_libtelux_audio
-Wl,--defsym=_ZNSt17_Function_handlerIFvN5telux5audio12StreamVolumeENS0_6common9ErrorCodeEESt5_BindIFMNS1_25GetVolumeResponseListenerEFvS2_S4_EPS7_St12_PlaceholderILi1EESB_ILi2EEEEE10_M_managerERSt9_Any_dataRKSH_St18_Manager_operation=so_stub_for_libtelux_audio
-Wl,--defsym=_ZNSt17_Function_handlerIFvN5telux5audio12StreamVolumeENS0_6common9ErrorCodeEESt5_BindIFMNS1_25GetVolumeResponseListenerEFvS2_S4_EPS7_St12_PlaceholderILi1EESB_ILi2EEEEE9_M_invokeERKSt9_Any_dataOS2_OS4_=so_stub_for_libtelux_audio
-Wl,--defsym=_ZNSt17_Function_handlerIFvN5telux6common13ServiceStatusEESt5_BindIFMNS0_5audio16AudioFactoryImplEFvS2_EPS6_St12_PlaceholderILi1EEEEE10_M_managerERSt9_Any_dataRKSF_St18_Manager_operation=so_stub_for_libtelux_audio
-Wl,--defsym=_ZNSt17_Function_handlerIFvN5telux6common13ServiceStatusEESt5_BindIFMNS0_5audio16AudioFactoryImplEFvS2_EPS6_St12_PlaceholderILi1EEEEE9_M_invokeERKSt9_Any_dataOS2_=so_stub_for_libtelux_audio
-Wl,--defsym=_ZNSt17_Function_handlerIFvN5telux6common13ServiceStatusEEZNS1_13FactoryHelper10getManagerINS0_5audio13IAudioManagerEEESt10shared_ptrIT_ENSt7__cxx1112basic_stringIcSt11char_traitsIcESaIcEEERSt8weak_ptrIS9_ERSt6vectorISt8functionIS3_ESaISM_EESM_SL_IFSA_SM_EEEUlS2_E0_E10_M_managerERSt9_Any_dataRKSU_St18_Manager_operation=so_stub_for_libtelux_audio
-Wl,--defsym=_ZNSt17_Function_handlerIFvN5telux6common13ServiceStatusEEZNS1_13FactoryHelper10getManagerINS0_5audio13IAudioManagerEEESt10shared_ptrIT_ENSt7__cxx1112basic_stringIcSt11char_traitsIcESaIcEEERSt8weak_ptrIS9_ERSt6vectorISt8functionIS3_ESaISM_EESM_SL_IFSA_SM_EEEUlS2_E0_E9_M_invokeERKSt9_Any_dataOS2_=so_stub_for_libtelux_audio
-Wl,--defsym=_ZNSt17_Function_handlerIFvN5telux6common9ErrorCodeEESt5_BindIFMNS0_5audio15AudioPlayerImplEFvS2_EPS6_St12_PlaceholderILi1EEEEE10_M_managerERSt9_Any_dataRKSF_St18_Manager_operation=so_stub_for_libtelux_audio
-Wl,--defsym=_ZNSt17_Function_handlerIFvN5telux6common9ErrorCodeEESt5_BindIFMNS0_5audio15AudioPlayerImplEFvS2_EPS6_St12_PlaceholderILi1EEEEE9_M_invokeERKSt9_Any_dataOS2_=so_stub_for_libtelux_audio
-Wl,--defsym=_ZNSt17_Function_handlerIFvN5telux6common9ErrorCodeEESt5_BindIFMNS0_5audio23SetMuteResponseListenerEFvS2_EPS6_St12_PlaceholderILi1EEEEE10_M_managerERSt9_Any_dataRKSF_St18_Manager_operation=so_stub_for_libtelux_audio
-Wl,--defsym=_ZNSt17_Function_handlerIFvN5telux6common9ErrorCodeEESt5_BindIFMNS0_5audio23SetMuteResponseListenerEFvS2_EPS6_St12_PlaceholderILi1EEEEE9_M_invokeERKSt9_Any_dataOS2_=so_stub_for_libtelux_audio
-Wl,--defsym=_ZNSt17_Function_handlerIFvN5telux6common9ErrorCodeEESt5_BindIFMNS0_5audio25SetDeviceResponseListenerEFvS2_EPS6_St12_PlaceholderILi1EEEEE10_M_managerERSt9_Any_dataRKSF_St18_Manager_operation=so_stub_for_libtelux_audio
-Wl,--defsym=_ZNSt17_Function_handlerIFvN5telux6common9ErrorCodeEESt5_BindIFMNS0_5audio25SetDeviceResponseListenerEFvS2_EPS6_St12_PlaceholderILi1EEEEE9_M_invokeERKSt9_Any_dataOS2_=so_stub_for_libtelux_audio
-Wl,--defsym=_ZNSt17_Function_handlerIFvN5telux6common9ErrorCodeEESt5_BindIFMNS0_5audio25SetVolumeResponseListenerEFvS2_EPS6_St12_PlaceholderILi1EEEEE10_M_managerERSt9_Any_dataRKSF_St18_Manager_operation=so_stub_for_libtelux_audio
-Wl,--defsym=_ZNSt17_Function_handlerIFvN5telux6common9ErrorCodeEESt5_BindIFMNS0_5audio25SetVolumeResponseListenerEFvS2_EPS6_St12_PlaceholderILi1EEEEE9_M_invokeERKSt9_Any_dataOS2_=so_stub_for_libtelux_audio
-Wl,--defsym=_ZNSt17_Function_handlerIFvRSt10shared_ptrIN5telux5audio12IAudioStreamEENS1_6common9ErrorCodeEESt5_BindIFMNS2_15AudioPlayerImplEFvS5_S7_EPSA_St12_PlaceholderILi1EESE_ILi2EEEEE10_M_managerERSt9_Any_dataRKSK_St18_Manager_operation=so_stub_for_libtelux_audio
-Wl,--defsym=_ZNSt17_Function_handlerIFvRSt10shared_ptrIN5telux5audio12IAudioStreamEENS1_6common9ErrorCodeEESt5_BindIFMNS2_15AudioPlayerImplEFvS5_S7_EPSA_St12_PlaceholderILi1EESE_ILi2EEEEE9_M_invokeERKSt9_Any_dataS5_OS7_=so_stub_for_libtelux_audio
-Wl,--defsym=_ZNSt17_Function_handlerIFvSt10shared_ptrIN5telux5audio13IStreamBufferEEjNS1_6common9ErrorCodeEESt5_BindIFMNS2_15AudioPlayerImplEFvS4_jS6_EPS9_St12_PlaceholderILi1EESD_ILi2EESD_ILi3EEEEE10_M_managerERSt9_Any_dataRKSK_St18_Manager_operation=so_stub_for_libtelux_audio
-Wl,--defsym=_ZNSt17_Function_handlerIFvSt10shared_ptrIN5telux5audio13IStreamBufferEEjNS1_6common9ErrorCodeEESt5_BindIFMNS2_15AudioPlayerImplEFvS4_jS6_EPS9_St12_PlaceholderILi1EESD_ILi2EESD_ILi3EEEEE9_M_invokeERKSt9_Any_dataOS4_OjOS6_=so_stub_for_libtelux_audio
-Wl,--defsym=_ZNSt17_Function_handlerIFvSt6vectorIN5telux5audio10DeviceTypeESaIS3_EENS1_6common9ErrorCodeEESt5_BindIFMNS2_25GetDeviceResponseListenerEFvS5_S7_EPSA_St12_PlaceholderILi1EESE_ILi2EEEEE10_M_managerERSt9_Any_dataRKSK_St18_Manager_operation=so_stub_for_libtelux_audio
-Wl,--defsym=_ZNSt17_Function_handlerIFvSt6vectorIN5telux5audio10DeviceTypeESaIS3_EENS1_6common9ErrorCodeEESt5_BindIFMNS2_25GetDeviceResponseListenerEFvS5_S7_EPSA_St12_PlaceholderILi1EESE_ILi2EEEEE9_M_invokeERKSt9_Any_dataOS5_OS7_=so_stub_for_libtelux_audio
-Wl,--defsym=_ZNSt18condition_variable4waitIZN5telux6common14AsyncTaskQueueIvE11executeTaskEvEUlvE_EEvRSt11unique_lockISt5mutexET_=so_stub_for_libtelux_audio
-Wl,--defsym=_ZNSt20__uninitialized_copyILb0EE13__uninit_copyIN9__gnu_cxx17__normal_iteratorIPKN5telux5audio14PlaybackConfigESt6vectorIS6_SaIS6_EEEEPS6_EET0_T_SF_SE_=so_stub_for_libtelux_audio
-Wl,--defsym=_ZNSt20__uninitialized_copyILb0EE13__uninit_copyIN9__gnu_cxx17__normal_iteratorIPKSt8functionIFvN5telux6common13ServiceStatusEEESt6vectorIS9_SaIS9_EEEEPS9_EET0_T_SI_SH_=so_stub_for_libtelux_audio
-Wl,--defsym=_ZNSt20__uninitialized_copyILb0EE13__uninit_copyIPN5telux5audio14PlaybackConfigES5_EET0_T_S7_S6_=so_stub_for_libtelux_audio
-Wl,--defsym=_ZNSt20__uninitialized_copyILb0EE13__uninit_copyIPSt8functionIFvN5telux6common13ServiceStatusEEES8_EET0_T_SA_S9_=so_stub_for_libtelux_audio
-Wl,--defsym=_ZNSt20__uninitialized_copyILb0EE13__uninit_copyISt15_Deque_iteratorISt13shared_futureIvERKS4_PS5_ES2_IS4_RS4_PS4_EEET0_T_SD_SC_=so_stub_for_libtelux_audio
-Wl,--defsym=_ZNSt23_Sp_counted_ptr_inplaceIN5telux5audio14PlayStreamImplESaIS2_ELN9__gnu_cxx12_Lock_policyE2EE10_M_destroyEv=so_stub_for_libtelux_audio
-Wl,--defsym=_ZNSt23_Sp_counted_ptr_inplaceIN5telux5audio14PlayStreamImplESaIS2_ELN9__gnu_cxx12_Lock_policyE2EE10_M_disposeEv=so_stub_for_libtelux_audio
-Wl,--defsym=_ZNSt23_Sp_counted_ptr_inplaceIN5telux5audio14PlayStreamImplESaIS2_ELN9__gnu_cxx12_Lock_policyE2EE14_M_get_deleterERKSt9type_info=so_stub_for_libtelux_audio
-Wl,--defsym=_ZNSt23_Sp_counted_ptr_inplaceIN5telux5audio14PlayStreamImplESaIS2_ELN9__gnu_cxx12_Lock_policyE2EED0Ev=so_stub_for_libtelux_audio
-Wl,--defsym=_ZNSt23_Sp_counted_ptr_inplaceIN5telux5audio14PlayStreamImplESaIS2_ELN9__gnu_cxx12_Lock_policyE2EED1Ev=so_stub_for_libtelux_audio
-Wl,--defsym=_ZNSt23_Sp_counted_ptr_inplaceIN5telux5audio14PlayStreamImplESaIS2_ELN9__gnu_cxx12_Lock_policyE2EED2Ev=so_stub_for_libtelux_audio
-Wl,--defsym=_ZNSt23_Sp_counted_ptr_inplaceIN5telux5audio14TranscoderImplESaIS2_ELN9__gnu_cxx12_Lock_policyE2EE10_M_destroyEv=so_stub_for_libtelux_audio
-Wl,--defsym=_ZNSt23_Sp_counted_ptr_inplaceIN5telux5audio14TranscoderImplESaIS2_ELN9__gnu_cxx12_Lock_policyE2EE10_M_disposeEv=so_stub_for_libtelux_audio
-Wl,--defsym=_ZNSt23_Sp_counted_ptr_inplaceIN5telux5audio14TranscoderImplESaIS2_ELN9__gnu_cxx12_Lock_policyE2EE14_M_get_deleterERKSt9type_info=so_stub_for_libtelux_audio
-Wl,--defsym=_ZNSt23_Sp_counted_ptr_inplaceIN5telux5audio14TranscoderImplESaIS2_ELN9__gnu_cxx12_Lock_policyE2EED0Ev=so_stub_for_libtelux_audio
-Wl,--defsym=_ZNSt23_Sp_counted_ptr_inplaceIN5telux5audio14TranscoderImplESaIS2_ELN9__gnu_cxx12_Lock_policyE2EED1Ev=so_stub_for_libtelux_audio
-Wl,--defsym=_ZNSt23_Sp_counted_ptr_inplaceIN5telux5audio14TranscoderImplESaIS2_ELN9__gnu_cxx12_Lock_policyE2EED2Ev=so_stub_for_libtelux_audio
-Wl,--defsym=_ZNSt23_Sp_counted_ptr_inplaceIN5telux5audio15AudioBufferImplESaIS2_ELN9__gnu_cxx12_Lock_policyE2EE10_M_destroyEv=so_stub_for_libtelux_audio
-Wl,--defsym=_ZNSt23_Sp_counted_ptr_inplaceIN5telux5audio15AudioBufferImplESaIS2_ELN9__gnu_cxx12_Lock_policyE2EE10_M_disposeEv=so_stub_for_libtelux_audio
-Wl,--defsym=_ZNSt23_Sp_counted_ptr_inplaceIN5telux5audio15AudioBufferImplESaIS2_ELN9__gnu_cxx12_Lock_policyE2EE14_M_get_deleterERKSt9type_info=so_stub_for_libtelux_audio
-Wl,--defsym=_ZNSt23_Sp_counted_ptr_inplaceIN5telux5audio15AudioBufferImplESaIS2_ELN9__gnu_cxx12_Lock_policyE2EED0Ev=so_stub_for_libtelux_audio
-Wl,--defsym=_ZNSt23_Sp_counted_ptr_inplaceIN5telux5audio15AudioBufferImplESaIS2_ELN9__gnu_cxx12_Lock_policyE2EED1Ev=so_stub_for_libtelux_audio
-Wl,--defsym=_ZNSt23_Sp_counted_ptr_inplaceIN5telux5audio15AudioBufferImplESaIS2_ELN9__gnu_cxx12_Lock_policyE2EED2Ev=so_stub_for_libtelux_audio
-Wl,--defsym=_ZNSt23_Sp_counted_ptr_inplaceIN5telux5audio15AudioDeviceImplESaIS2_ELN9__gnu_cxx12_Lock_policyE2EE10_M_destroyEv=so_stub_for_libtelux_audio
-Wl,--defsym=_ZNSt23_Sp_counted_ptr_inplaceIN5telux5audio15AudioDeviceImplESaIS2_ELN9__gnu_cxx12_Lock_policyE2EE10_M_disposeEv=so_stub_for_libtelux_audio
-Wl,--defsym=_ZNSt23_Sp_counted_ptr_inplaceIN5telux5audio15AudioDeviceImplESaIS2_ELN9__gnu_cxx12_Lock_policyE2EE14_M_get_deleterERKSt9type_info=so_stub_for_libtelux_audio
-Wl,--defsym=_ZNSt23_Sp_counted_ptr_inplaceIN5telux5audio15AudioDeviceImplESaIS2_ELN9__gnu_cxx12_Lock_policyE2EED0Ev=so_stub_for_libtelux_audio
-Wl,--defsym=_ZNSt23_Sp_counted_ptr_inplaceIN5telux5audio15AudioDeviceImplESaIS2_ELN9__gnu_cxx12_Lock_policyE2EED1Ev=so_stub_for_libtelux_audio
-Wl,--defsym=_ZNSt23_Sp_counted_ptr_inplaceIN5telux5audio15AudioDeviceImplESaIS2_ELN9__gnu_cxx12_Lock_policyE2EED2Ev=so_stub_for_libtelux_audio
-Wl,--defsym=_ZNSt23_Sp_counted_ptr_inplaceIN5telux5audio15AudioPlayerImplESaIS2_ELN9__gnu_cxx12_Lock_policyE2EE10_M_destroyEv=so_stub_for_libtelux_audio
-Wl,--defsym=_ZNSt23_Sp_counted_ptr_inplaceIN5telux5audio15AudioPlayerImplESaIS2_ELN9__gnu_cxx12_Lock_policyE2EE10_M_disposeEv=so_stub_for_libtelux_audio
-Wl,--defsym=_ZNSt23_Sp_counted_ptr_inplaceIN5telux5audio15AudioPlayerImplESaIS2_ELN9__gnu_cxx12_Lock_policyE2EE14_M_get_deleterERKSt9type_info=so_stub_for_libtelux_audio
-Wl,--defsym=_ZNSt23_Sp_counted_ptr_inplaceIN5telux5audio15AudioPlayerImplESaIS2_ELN9__gnu_cxx12_Lock_policyE2EED0Ev=so_stub_for_libtelux_audio
-Wl,--defsym=_ZNSt23_Sp_counted_ptr_inplaceIN5telux5audio15AudioPlayerImplESaIS2_ELN9__gnu_cxx12_Lock_policyE2EED1Ev=so_stub_for_libtelux_audio
-Wl,--defsym=_ZNSt23_Sp_counted_ptr_inplaceIN5telux5audio15AudioPlayerImplESaIS2_ELN9__gnu_cxx12_Lock_policyE2EED2Ev=so_stub_for_libtelux_audio
-Wl,--defsym=_ZNSt23_Sp_counted_ptr_inplaceIN5telux5audio15VoiceStreamImplESaIS2_ELN9__gnu_cxx12_Lock_policyE2EE10_M_destroyEv=so_stub_for_libtelux_audio
-Wl,--defsym=_ZNSt23_Sp_counted_ptr_inplaceIN5telux5audio15VoiceStreamImplESaIS2_ELN9__gnu_cxx12_Lock_policyE2EE10_M_disposeEv=so_stub_for_libtelux_audio
-Wl,--defsym=_ZNSt23_Sp_counted_ptr_inplaceIN5telux5audio15VoiceStreamImplESaIS2_ELN9__gnu_cxx12_Lock_policyE2EE14_M_get_deleterERKSt9type_info=so_stub_for_libtelux_audio
-Wl,--defsym=_ZNSt23_Sp_counted_ptr_inplaceIN5telux5audio15VoiceStreamImplESaIS2_ELN9__gnu_cxx12_Lock_policyE2EED0Ev=so_stub_for_libtelux_audio
-Wl,--defsym=_ZNSt23_Sp_counted_ptr_inplaceIN5telux5audio15VoiceStreamImplESaIS2_ELN9__gnu_cxx12_Lock_policyE2EED1Ev=so_stub_for_libtelux_audio
-Wl,--defsym=_ZNSt23_Sp_counted_ptr_inplaceIN5telux5audio15VoiceStreamImplESaIS2_ELN9__gnu_cxx12_Lock_policyE2EED2Ev=so_stub_for_libtelux_audio
-Wl,--defsym=_ZNSt23_Sp_counted_ptr_inplaceIN5telux5audio16AudioManagerImplESaIS2_ELN9__gnu_cxx12_Lock_policyE2EE10_M_destroyEv=so_stub_for_libtelux_audio
-Wl,--defsym=_ZNSt23_Sp_counted_ptr_inplaceIN5telux5audio16AudioManagerImplESaIS2_ELN9__gnu_cxx12_Lock_policyE2EE10_M_disposeEv=so_stub_for_libtelux_audio
-Wl,--defsym=_ZNSt23_Sp_counted_ptr_inplaceIN5telux5audio16AudioManagerImplESaIS2_ELN9__gnu_cxx12_Lock_policyE2EE14_M_get_deleterERKSt9type_info=so_stub_for_libtelux_audio
-Wl,--defsym=_ZNSt23_Sp_counted_ptr_inplaceIN5telux5audio16AudioManagerImplESaIS2_ELN9__gnu_cxx12_Lock_policyE2EED0Ev=so_stub_for_libtelux_audio
-Wl,--defsym=_ZNSt23_Sp_counted_ptr_inplaceIN5telux5audio16AudioManagerImplESaIS2_ELN9__gnu_cxx12_Lock_policyE2EED1Ev=so_stub_for_libtelux_audio
-Wl,--defsym=_ZNSt23_Sp_counted_ptr_inplaceIN5telux5audio16AudioManagerImplESaIS2_ELN9__gnu_cxx12_Lock_policyE2EED2Ev=so_stub_for_libtelux_audio
-Wl,--defsym=_ZNSt23_Sp_counted_ptr_inplaceIN5telux5audio16StreamBufferImplESaIS2_ELN9__gnu_cxx12_Lock_policyE2EE10_M_destroyEv=so_stub_for_libtelux_audio
-Wl,--defsym=_ZNSt23_Sp_counted_ptr_inplaceIN5telux5audio16StreamBufferImplESaIS2_ELN9__gnu_cxx12_Lock_policyE2EE10_M_disposeEv=so_stub_for_libtelux_audio
-Wl,--defsym=_ZNSt23_Sp_counted_ptr_inplaceIN5telux5audio16StreamBufferImplESaIS2_ELN9__gnu_cxx12_Lock_policyE2EE14_M_get_deleterERKSt9type_info=so_stub_for_libtelux_audio
-Wl,--defsym=_ZNSt23_Sp_counted_ptr_inplaceIN5telux5audio16StreamBufferImplESaIS2_ELN9__gnu_cxx12_Lock_policyE2EED0Ev=so_stub_for_libtelux_audio
-Wl,--defsym=_ZNSt23_Sp_counted_ptr_inplaceIN5telux5audio16StreamBufferImplESaIS2_ELN9__gnu_cxx12_Lock_policyE2EED1Ev=so_stub_for_libtelux_audio
-Wl,--defsym=_ZNSt23_Sp_counted_ptr_inplaceIN5telux5audio16StreamBufferImplESaIS2_ELN9__gnu_cxx12_Lock_policyE2EED2Ev=so_stub_for_libtelux_audio
-Wl,--defsym=_ZNSt23_Sp_counted_ptr_inplaceIN5telux5audio17CaptureStreamImplESaIS2_ELN9__gnu_cxx12_Lock_policyE2EE10_M_destroyEv=so_stub_for_libtelux_audio
-Wl,--defsym=_ZNSt23_Sp_counted_ptr_inplaceIN5telux5audio17CaptureStreamImplESaIS2_ELN9__gnu_cxx12_Lock_policyE2EE10_M_disposeEv=so_stub_for_libtelux_audio
-Wl,--defsym=_ZNSt23_Sp_counted_ptr_inplaceIN5telux5audio17CaptureStreamImplESaIS2_ELN9__gnu_cxx12_Lock_policyE2EE14_M_get_deleterERKSt9type_info=so_stub_for_libtelux_audio
-Wl,--defsym=_ZNSt23_Sp_counted_ptr_inplaceIN5telux5audio17CaptureStreamImplESaIS2_ELN9__gnu_cxx12_Lock_policyE2EED0Ev=so_stub_for_libtelux_audio
-Wl,--defsym=_ZNSt23_Sp_counted_ptr_inplaceIN5telux5audio17CaptureStreamImplESaIS2_ELN9__gnu_cxx12_Lock_policyE2EED1Ev=so_stub_for_libtelux_audio
-Wl,--defsym=_ZNSt23_Sp_counted_ptr_inplaceIN5telux5audio17CaptureStreamImplESaIS2_ELN9__gnu_cxx12_Lock_policyE2EED2Ev=so_stub_for_libtelux_audio
-Wl,--defsym=_ZNSt23_Sp_counted_ptr_inplaceIN5telux5audio18LoopbackStreamImplESaIS2_ELN9__gnu_cxx12_Lock_policyE2EE10_M_destroyEv=so_stub_for_libtelux_audio
-Wl,--defsym=_ZNSt23_Sp_counted_ptr_inplaceIN5telux5audio18LoopbackStreamImplESaIS2_ELN9__gnu_cxx12_Lock_policyE2EE10_M_disposeEv=so_stub_for_libtelux_audio
-Wl,--defsym=_ZNSt23_Sp_counted_ptr_inplaceIN5telux5audio18LoopbackStreamImplESaIS2_ELN9__gnu_cxx12_Lock_policyE2EE14_M_get_deleterERKSt9type_info=so_stub_for_libtelux_audio
-Wl,--defsym=_ZNSt23_Sp_counted_ptr_inplaceIN5telux5audio18LoopbackStreamImplESaIS2_ELN9__gnu_cxx12_Lock_policyE2EED0Ev=so_stub_for_libtelux_audio
-Wl,--defsym=_ZNSt23_Sp_counted_ptr_inplaceIN5telux5audio18LoopbackStreamImplESaIS2_ELN9__gnu_cxx12_Lock_policyE2EED1Ev=so_stub_for_libtelux_audio
-Wl,--defsym=_ZNSt23_Sp_counted_ptr_inplaceIN5telux5audio18LoopbackStreamImplESaIS2_ELN9__gnu_cxx12_Lock_policyE2EED2Ev=so_stub_for_libtelux_audio
-Wl,--defsym=_ZNSt23_Sp_counted_ptr_inplaceIN5telux5audio23ToneGeneratorStreamImplESaIS2_ELN9__gnu_cxx12_Lock_policyE2EE10_M_destroyEv=so_stub_for_libtelux_audio
-Wl,--defsym=_ZNSt23_Sp_counted_ptr_inplaceIN5telux5audio23ToneGeneratorStreamImplESaIS2_ELN9__gnu_cxx12_Lock_policyE2EE10_M_disposeEv=so_stub_for_libtelux_audio
-Wl,--defsym=_ZNSt23_Sp_counted_ptr_inplaceIN5telux5audio23ToneGeneratorStreamImplESaIS2_ELN9__gnu_cxx12_Lock_policyE2EE14_M_get_deleterERKSt9type_info=so_stub_for_libtelux_audio
-Wl,--defsym=_ZNSt23_Sp_counted_ptr_inplaceIN5telux5audio23ToneGeneratorStreamImplESaIS2_ELN9__gnu_cxx12_Lock_policyE2EED0Ev=so_stub_for_libtelux_audio
-Wl,--defsym=_ZNSt23_Sp_counted_ptr_inplaceIN5telux5audio23ToneGeneratorStreamImplESaIS2_ELN9__gnu_cxx12_Lock_policyE2EED1Ev=so_stub_for_libtelux_audio
-Wl,--defsym=_ZNSt23_Sp_counted_ptr_inplaceIN5telux5audio23ToneGeneratorStreamImplESaIS2_ELN9__gnu_cxx12_Lock_policyE2EED2Ev=so_stub_for_libtelux_audio
-Wl,--defsym=_ZNSt23_Sp_counted_ptr_inplaceIN5telux6common15ListenerManagerESaIS2_ELN9__gnu_cxx12_Lock_policyE2EE10_M_destroyEv=so_stub_for_libtelux_audio
-Wl,--defsym=_ZNSt23_Sp_counted_ptr_inplaceIN5telux6common15ListenerManagerESaIS2_ELN9__gnu_cxx12_Lock_policyE2EE10_M_disposeEv=so_stub_for_libtelux_audio
-Wl,--defsym=_ZNSt23_Sp_counted_ptr_inplaceIN5telux6common15ListenerManagerESaIS2_ELN9__gnu_cxx12_Lock_policyE2EE14_M_get_deleterERKSt9type_info=so_stub_for_libtelux_audio
-Wl,--defsym=_ZNSt23_Sp_counted_ptr_inplaceIN5telux6common15ListenerManagerESaIS2_ELN9__gnu_cxx12_Lock_policyE2EED0Ev=so_stub_for_libtelux_audio
-Wl,--defsym=_ZNSt23_Sp_counted_ptr_inplaceIN5telux6common15ListenerManagerESaIS2_ELN9__gnu_cxx12_Lock_policyE2EED1Ev=so_stub_for_libtelux_audio
-Wl,--defsym=_ZNSt23_Sp_counted_ptr_inplaceIN5telux6common15ListenerManagerESaIS2_ELN9__gnu_cxx12_Lock_policyE2EED2Ev=so_stub_for_libtelux_audio
-Wl,--defsym=_ZNSt23_Sp_counted_ptr_inplaceIN5telux6common18FunctionalCallbackIJNS0_5audio10StreamMuteENS1_9ErrorCodeEEEESaIS6_ELN9__gnu_cxx12_Lock_policyE2EE10_M_destroyEv=so_stub_for_libtelux_audio
-Wl,--defsym=_ZNSt23_Sp_counted_ptr_inplaceIN5telux6common18FunctionalCallbackIJNS0_5audio10StreamMuteENS1_9ErrorCodeEEEESaIS6_ELN9__gnu_cxx12_Lock_policyE2EE10_M_disposeEv=so_stub_for_libtelux_audio
-Wl,--defsym=_ZNSt23_Sp_counted_ptr_inplaceIN5telux6common18FunctionalCallbackIJNS0_5audio10StreamMuteENS1_9ErrorCodeEEEESaIS6_ELN9__gnu_cxx12_Lock_policyE2EE14_M_get_deleterERKSt9type_info=so_stub_for_libtelux_audio
-Wl,--defsym=_ZNSt23_Sp_counted_ptr_inplaceIN5telux6common18FunctionalCallbackIJNS0_5audio10StreamMuteENS1_9ErrorCodeEEEESaIS6_ELN9__gnu_cxx12_Lock_policyE2EED0Ev=so_stub_for_libtelux_audio
-Wl,--defsym=_ZNSt23_Sp_counted_ptr_inplaceIN5telux6common18FunctionalCallbackIJNS0_5audio10StreamMuteENS1_9ErrorCodeEEEESaIS6_ELN9__gnu_cxx12_Lock_policyE2EED1Ev=so_stub_for_libtelux_audio
-Wl,--defsym=_ZNSt23_Sp_counted_ptr_inplaceIN5telux6common18FunctionalCallbackIJNS0_5audio10StreamMuteENS1_9ErrorCodeEEEESaIS6_ELN9__gnu_cxx12_Lock_policyE2EED2Ev=so_stub_for_libtelux_audio
-Wl,--defsym=_ZNSt23_Sp_counted_ptr_inplaceIN5telux6common18FunctionalCallbackIJNS0_5audio12StreamVolumeENS1_9ErrorCodeEEEESaIS6_ELN9__gnu_cxx12_Lock_policyE2EE10_M_destroyEv=so_stub_for_libtelux_audio
-Wl,--defsym=_ZNSt23_Sp_counted_ptr_inplaceIN5telux6common18FunctionalCallbackIJNS0_5audio12StreamVolumeENS1_9ErrorCodeEEEESaIS6_ELN9__gnu_cxx12_Lock_policyE2EE10_M_disposeEv=so_stub_for_libtelux_audio
-Wl,--defsym=_ZNSt23_Sp_counted_ptr_inplaceIN5telux6common18FunctionalCallbackIJNS0_5audio12StreamVolumeENS1_9ErrorCodeEEEESaIS6_ELN9__gnu_cxx12_Lock_policyE2EE14_M_get_deleterERKSt9type_info=so_stub_for_libtelux_audio
-Wl,--defsym=_ZNSt23_Sp_counted_ptr_inplaceIN5telux6common18FunctionalCallbackIJNS0_5audio12StreamVolumeENS1_9ErrorCodeEEEESaIS6_ELN9__gnu_cxx12_Lock_policyE2EED0Ev=so_stub_for_libtelux_audio
-Wl,--defsym=_ZNSt23_Sp_counted_ptr_inplaceIN5telux6common18FunctionalCallbackIJNS0_5audio12StreamVolumeENS1_9ErrorCodeEEEESaIS6_ELN9__gnu_cxx12_Lock_policyE2EED1Ev=so_stub_for_libtelux_audio
-Wl,--defsym=_ZNSt23_Sp_counted_ptr_inplaceIN5telux6common18FunctionalCallbackIJNS0_5audio12StreamVolumeENS1_9ErrorCodeEEEESaIS6_ELN9__gnu_cxx12_Lock_policyE2EED2Ev=so_stub_for_libtelux_audio
-Wl,--defsym=_ZNSt23_Sp_counted_ptr_inplaceIN5telux6common18FunctionalCallbackIJNS0_5audio21CalibrationInitStatusENS1_9ErrorCodeEEEESaIS6_ELN9__gnu_cxx12_Lock_policyE2EE10_M_destroyEv=so_stub_for_libtelux_audio
-Wl,--defsym=_ZNSt23_Sp_counted_ptr_inplaceIN5telux6common18FunctionalCallbackIJNS0_5audio21CalibrationInitStatusENS1_9ErrorCodeEEEESaIS6_ELN9__gnu_cxx12_Lock_policyE2EE10_M_disposeEv=so_stub_for_libtelux_audio
-Wl,--defsym=_ZNSt23_Sp_counted_ptr_inplaceIN5telux6common18FunctionalCallbackIJNS0_5audio21CalibrationInitStatusENS1_9ErrorCodeEEEESaIS6_ELN9__gnu_cxx12_Lock_policyE2EE14_M_get_deleterERKSt9type_info=so_stub_for_libtelux_audio
-Wl,--defsym=_ZNSt23_Sp_counted_ptr_inplaceIN5telux6common18FunctionalCallbackIJNS0_5audio21CalibrationInitStatusENS1_9ErrorCodeEEEESaIS6_ELN9__gnu_cxx12_Lock_policyE2EED0Ev=so_stub_for_libtelux_audio
-Wl,--defsym=_ZNSt23_Sp_counted_ptr_inplaceIN5telux6common18FunctionalCallbackIJNS0_5audio21CalibrationInitStatusENS1_9ErrorCodeEEEESaIS6_ELN9__gnu_cxx12_Lock_policyE2EED1Ev=so_stub_for_libtelux_audio
-Wl,--defsym=_ZNSt23_Sp_counted_ptr_inplaceIN5telux6common18FunctionalCallbackIJNS0_5audio21CalibrationInitStatusENS1_9ErrorCodeEEEESaIS6_ELN9__gnu_cxx12_Lock_policyE2EED2Ev=so_stub_for_libtelux_audio
-Wl,--defsym=_ZNSt23_Sp_counted_ptr_inplaceIN5telux6common18FunctionalCallbackIJNS1_9ErrorCodeEEEESaIS4_ELN9__gnu_cxx12_Lock_policyE2EE10_M_destroyEv=so_stub_for_libtelux_audio
-Wl,--defsym=_ZNSt23_Sp_counted_ptr_inplaceIN5telux6common18FunctionalCallbackIJNS1_9ErrorCodeEEEESaIS4_ELN9__gnu_cxx12_Lock_policyE2EE10_M_disposeEv=so_stub_for_libtelux_audio
-Wl,--defsym=_ZNSt23_Sp_counted_ptr_inplaceIN5telux6common18FunctionalCallbackIJNS1_9ErrorCodeEEEESaIS4_ELN9__gnu_cxx12_Lock_policyE2EE14_M_get_deleterERKSt9type_info=so_stub_for_libtelux_audio
-Wl,--defsym=_ZNSt23_Sp_counted_ptr_inplaceIN5telux6common18FunctionalCallbackIJNS1_9ErrorCodeEEEESaIS4_ELN9__gnu_cxx12_Lock_policyE2EED0Ev=so_stub_for_libtelux_audio
-Wl,--defsym=_ZNSt23_Sp_counted_ptr_inplaceIN5telux6common18FunctionalCallbackIJNS1_9ErrorCodeEEEESaIS4_ELN9__gnu_cxx12_Lock_policyE2EED1Ev=so_stub_for_libtelux_audio
-Wl,--defsym=_ZNSt23_Sp_counted_ptr_inplaceIN5telux6common18FunctionalCallbackIJNS1_9ErrorCodeEEEESaIS4_ELN9__gnu_cxx12_Lock_policyE2EED2Ev=so_stub_for_libtelux_audio
-Wl,--defsym=_ZNSt23_Sp_counted_ptr_inplaceIN5telux6common18FunctionalCallbackIJRSt10shared_ptrINS0_5audio11ITranscoderEENS1_9ErrorCodeEEEESaIS9_ELN9__gnu_cxx12_Lock_policyE2EE10_M_destroyEv=so_stub_for_libtelux_audio
-Wl,--defsym=_ZNSt23_Sp_counted_ptr_inplaceIN5telux6common18FunctionalCallbackIJRSt10shared_ptrINS0_5audio11ITranscoderEENS1_9ErrorCodeEEEESaIS9_ELN9__gnu_cxx12_Lock_policyE2EE10_M_disposeEv=so_stub_for_libtelux_audio
-Wl,--defsym=_ZNSt23_Sp_counted_ptr_inplaceIN5telux6common18FunctionalCallbackIJRSt10shared_ptrINS0_5audio11ITranscoderEENS1_9ErrorCodeEEEESaIS9_ELN9__gnu_cxx12_Lock_policyE2EE14_M_get_deleterERKSt9type_info=so_stub_for_libtelux_audio
-Wl,--defsym=_ZNSt23_Sp_counted_ptr_inplaceIN5telux6common18FunctionalCallbackIJRSt10shared_ptrINS0_5audio11ITranscoderEENS1_9ErrorCodeEEEESaIS9_ELN9__gnu_cxx12_Lock_policyE2EED0Ev=so_stub_for_libtelux_audio
-Wl,--defsym=_ZNSt23_Sp_counted_ptr_inplaceIN5telux6common18FunctionalCallbackIJRSt10shared_ptrINS0_5audio11ITranscoderEENS1_9ErrorCodeEEEESaIS9_ELN9__gnu_cxx12_Lock_policyE2EED1Ev=so_stub_for_libtelux_audio
-Wl,--defsym=_ZNSt23_Sp_counted_ptr_inplaceIN5telux6common18FunctionalCallbackIJRSt10shared_ptrINS0_5audio11ITranscoderEENS1_9ErrorCodeEEEESaIS9_ELN9__gnu_cxx12_Lock_policyE2EED2Ev=so_stub_for_libtelux_audio
-Wl,--defsym=_ZNSt23_Sp_counted_ptr_inplaceIN5telux6common18FunctionalCallbackIJRSt10shared_ptrINS0_5audio12IAudioStreamEENS1_9ErrorCodeEEEESaIS9_ELN9__gnu_cxx12_Lock_policyE2EE10_M_destroyEv=so_stub_for_libtelux_audio
-Wl,--defsym=_ZNSt23_Sp_counted_ptr_inplaceIN5telux6common18FunctionalCallbackIJRSt10shared_ptrINS0_5audio12IAudioStreamEENS1_9ErrorCodeEEEESaIS9_ELN9__gnu_cxx12_Lock_policyE2EE10_M_disposeEv=so_stub_for_libtelux_audio
-Wl,--defsym=_ZNSt23_Sp_counted_ptr_inplaceIN5telux6common18FunctionalCallbackIJRSt10shared_ptrINS0_5audio12IAudioStreamEENS1_9ErrorCodeEEEESaIS9_ELN9__gnu_cxx12_Lock_policyE2EE14_M_get_deleterERKSt9type_info=so_stub_for_libtelux_audio
-Wl,--defsym=_ZNSt23_Sp_counted_ptr_inplaceIN5telux6common18FunctionalCallbackIJRSt10shared_ptrINS0_5audio12IAudioStreamEENS1_9ErrorCodeEEEESaIS9_ELN9__gnu_cxx12_Lock_policyE2EED0Ev=so_stub_for_libtelux_audio
-Wl,--defsym=_ZNSt23_Sp_counted_ptr_inplaceIN5telux6common18FunctionalCallbackIJRSt10shared_ptrINS0_5audio12IAudioStreamEENS1_9ErrorCodeEEEESaIS9_ELN9__gnu_cxx12_Lock_policyE2EED1Ev=so_stub_for_libtelux_audio
-Wl,--defsym=_ZNSt23_Sp_counted_ptr_inplaceIN5telux6common18FunctionalCallbackIJRSt10shared_ptrINS0_5audio12IAudioStreamEENS1_9ErrorCodeEEEESaIS9_ELN9__gnu_cxx12_Lock_policyE2EED2Ev=so_stub_for_libtelux_audio
-Wl,--defsym=_ZNSt23_Sp_counted_ptr_inplaceIN5telux6common18FunctionalCallbackIJSt10shared_ptrINS0_5audio12IAudioBufferEEjNS1_9ErrorCodeEEEESaIS8_ELN9__gnu_cxx12_Lock_policyE2EE10_M_destroyEv=so_stub_for_libtelux_audio
-Wl,--defsym=_ZNSt23_Sp_counted_ptr_inplaceIN5telux6common18FunctionalCallbackIJSt10shared_ptrINS0_5audio12IAudioBufferEEjNS1_9ErrorCodeEEEESaIS8_ELN9__gnu_cxx12_Lock_policyE2EE10_M_disposeEv=so_stub_for_libtelux_audio
-Wl,--defsym=_ZNSt23_Sp_counted_ptr_inplaceIN5telux6common18FunctionalCallbackIJSt10shared_ptrINS0_5audio12IAudioBufferEEjNS1_9ErrorCodeEEEESaIS8_ELN9__gnu_cxx12_Lock_policyE2EE14_M_get_deleterERKSt9type_info=so_stub_for_libtelux_audio
-Wl,--defsym=_ZNSt23_Sp_counted_ptr_inplaceIN5telux6common18FunctionalCallbackIJSt10shared_ptrINS0_5audio12IAudioBufferEEjNS1_9ErrorCodeEEEESaIS8_ELN9__gnu_cxx12_Lock_policyE2EED0Ev=so_stub_for_libtelux_audio
-Wl,--defsym=_ZNSt23_Sp_counted_ptr_inplaceIN5telux6common18FunctionalCallbackIJSt10shared_ptrINS0_5audio12IAudioBufferEEjNS1_9ErrorCodeEEEESaIS8_ELN9__gnu_cxx12_Lock_policyE2EED1Ev=so_stub_for_libtelux_audio
-Wl,--defsym=_ZNSt23_Sp_counted_ptr_inplaceIN5telux6common18FunctionalCallbackIJSt10shared_ptrINS0_5audio12IAudioBufferEEjNS1_9ErrorCodeEEEESaIS8_ELN9__gnu_cxx12_Lock_policyE2EED2Ev=so_stub_for_libtelux_audio
-Wl,--defsym=_ZNSt23_Sp_counted_ptr_inplaceIN5telux6common18FunctionalCallbackIJSt10shared_ptrINS0_5audio13IStreamBufferEEjNS1_9ErrorCodeEEEESaIS8_ELN9__gnu_cxx12_Lock_policyE2EE10_M_destroyEv=so_stub_for_libtelux_audio
-Wl,--defsym=_ZNSt23_Sp_counted_ptr_inplaceIN5telux6common18FunctionalCallbackIJSt10shared_ptrINS0_5audio13IStreamBufferEEjNS1_9ErrorCodeEEEESaIS8_ELN9__gnu_cxx12_Lock_policyE2EE10_M_disposeEv=so_stub_for_libtelux_audio
-Wl,--defsym=_ZNSt23_Sp_counted_ptr_inplaceIN5telux6common18FunctionalCallbackIJSt10shared_ptrINS0_5audio13IStreamBufferEEjNS1_9ErrorCodeEEEESaIS8_ELN9__gnu_cxx12_Lock_policyE2EE14_M_get_deleterERKSt9type_info=so_stub_for_libtelux_audio
-Wl,--defsym=_ZNSt23_Sp_counted_ptr_inplaceIN5telux6common18FunctionalCallbackIJSt10shared_ptrINS0_5audio13IStreamBufferEEjNS1_9ErrorCodeEEEESaIS8_ELN9__gnu_cxx12_Lock_policyE2EED0Ev=so_stub_for_libtelux_audio
-Wl,--defsym=_ZNSt23_Sp_counted_ptr_inplaceIN5telux6common18FunctionalCallbackIJSt10shared_ptrINS0_5audio13IStreamBufferEEjNS1_9ErrorCodeEEEESaIS8_ELN9__gnu_cxx12_Lock_policyE2EED1Ev=so_stub_for_libtelux_audio
-Wl,--defsym=_ZNSt23_Sp_counted_ptr_inplaceIN5telux6common18FunctionalCallbackIJSt10shared_ptrINS0_5audio13IStreamBufferEEjNS1_9ErrorCodeEEEESaIS8_ELN9__gnu_cxx12_Lock_policyE2EED2Ev=so_stub_for_libtelux_audio
-Wl,--defsym=_ZNSt23_Sp_counted_ptr_inplaceIN5telux6common18FunctionalCallbackIJSt10shared_ptrINS0_5audio13IStreamBufferEENS1_9ErrorCodeEEEESaIS8_ELN9__gnu_cxx12_Lock_policyE2EE10_M_destroyEv=so_stub_for_libtelux_audio
-Wl,--defsym=_ZNSt23_Sp_counted_ptr_inplaceIN5telux6common18FunctionalCallbackIJSt10shared_ptrINS0_5audio13IStreamBufferEENS1_9ErrorCodeEEEESaIS8_ELN9__gnu_cxx12_Lock_policyE2EE10_M_disposeEv=so_stub_for_libtelux_audio
-Wl,--defsym=_ZNSt23_Sp_counted_ptr_inplaceIN5telux6common18FunctionalCallbackIJSt10shared_ptrINS0_5audio13IStreamBufferEENS1_9ErrorCodeEEEESaIS8_ELN9__gnu_cxx12_Lock_policyE2EE14_M_get_deleterERKSt9type_info=so_stub_for_libtelux_audio
-Wl,--defsym=_ZNSt23_Sp_counted_ptr_inplaceIN5telux6common18FunctionalCallbackIJSt10shared_ptrINS0_5audio13IStreamBufferEENS1_9ErrorCodeEEEESaIS8_ELN9__gnu_cxx12_Lock_policyE2EED0Ev=so_stub_for_libtelux_audio
-Wl,--defsym=_ZNSt23_Sp_counted_ptr_inplaceIN5telux6common18FunctionalCallbackIJSt10shared_ptrINS0_5audio13IStreamBufferEENS1_9ErrorCodeEEEESaIS8_ELN9__gnu_cxx12_Lock_policyE2EED1Ev=so_stub_for_libtelux_audio
-Wl,--defsym=_ZNSt23_Sp_counted_ptr_inplaceIN5telux6common18FunctionalCallbackIJSt10shared_ptrINS0_5audio13IStreamBufferEENS1_9ErrorCodeEEEESaIS8_ELN9__gnu_cxx12_Lock_policyE2EED2Ev=so_stub_for_libtelux_audio
-Wl,--defsym=_ZNSt23_Sp_counted_ptr_inplaceIN5telux6common18FunctionalCallbackIJSt6vectorINS0_5audio10DeviceTypeESaIS5_EENS1_9ErrorCodeEEEESaIS9_ELN9__gnu_cxx12_Lock_policyE2EE10_M_destroyEv=so_stub_for_libtelux_audio
-Wl,--defsym=_ZNSt23_Sp_counted_ptr_inplaceIN5telux6common18FunctionalCallbackIJSt6vectorINS0_5audio10DeviceTypeESaIS5_EENS1_9ErrorCodeEEEESaIS9_ELN9__gnu_cxx12_Lock_policyE2EE10_M_disposeEv=so_stub_for_libtelux_audio
-Wl,--defsym=_ZNSt23_Sp_counted_ptr_inplaceIN5telux6common18FunctionalCallbackIJSt6vectorINS0_5audio10DeviceTypeESaIS5_EENS1_9ErrorCodeEEEESaIS9_ELN9__gnu_cxx12_Lock_policyE2EE14_M_get_deleterERKSt9type_info=so_stub_for_libtelux_audio
-Wl,--defsym=_ZNSt23_Sp_counted_ptr_inplaceIN5telux6common18FunctionalCallbackIJSt6vectorINS0_5audio10DeviceTypeESaIS5_EENS1_9ErrorCodeEEEESaIS9_ELN9__gnu_cxx12_Lock_policyE2EED0Ev=so_stub_for_libtelux_audio
-Wl,--defsym=_ZNSt23_Sp_counted_ptr_inplaceIN5telux6common18FunctionalCallbackIJSt6vectorINS0_5audio10DeviceTypeESaIS5_EENS1_9ErrorCodeEEEESaIS9_ELN9__gnu_cxx12_Lock_policyE2EED1Ev=so_stub_for_libtelux_audio
-Wl,--defsym=_ZNSt23_Sp_counted_ptr_inplaceIN5telux6common18FunctionalCallbackIJSt6vectorINS0_5audio10DeviceTypeESaIS5_EENS1_9ErrorCodeEEEESaIS9_ELN9__gnu_cxx12_Lock_policyE2EED2Ev=so_stub_for_libtelux_audio
-Wl,--defsym=_ZNSt23_Sp_counted_ptr_inplaceIN5telux6common18FunctionalCallbackIJSt6vectorINS0_5audio10StreamTypeESaIS5_EENS1_9ErrorCodeEEEESaIS9_ELN9__gnu_cxx12_Lock_policyE2EE10_M_destroyEv=so_stub_for_libtelux_audio
-Wl,--defsym=_ZNSt23_Sp_counted_ptr_inplaceIN5telux6common18FunctionalCallbackIJSt6vectorINS0_5audio10StreamTypeESaIS5_EENS1_9ErrorCodeEEEESaIS9_ELN9__gnu_cxx12_Lock_policyE2EE10_M_disposeEv=so_stub_for_libtelux_audio
-Wl,--defsym=_ZNSt23_Sp_counted_ptr_inplaceIN5telux6common18FunctionalCallbackIJSt6vectorINS0_5audio10StreamTypeESaIS5_EENS1_9ErrorCodeEEEESaIS9_ELN9__gnu_cxx12_Lock_policyE2EE14_M_get_deleterERKSt9type_info=so_stub_for_libtelux_audio
-Wl,--defsym=_ZNSt23_Sp_counted_ptr_inplaceIN5telux6common18FunctionalCallbackIJSt6vectorINS0_5audio10StreamTypeESaIS5_EENS1_9ErrorCodeEEEESaIS9_ELN9__gnu_cxx12_Lock_policyE2EED0Ev=so_stub_for_libtelux_audio
-Wl,--defsym=_ZNSt23_Sp_counted_ptr_inplaceIN5telux6common18FunctionalCallbackIJSt6vectorINS0_5audio10StreamTypeESaIS5_EENS1_9ErrorCodeEEEESaIS9_ELN9__gnu_cxx12_Lock_policyE2EED1Ev=so_stub_for_libtelux_audio
-Wl,--defsym=_ZNSt23_Sp_counted_ptr_inplaceIN5telux6common18FunctionalCallbackIJSt6vectorINS0_5audio10StreamTypeESaIS5_EENS1_9ErrorCodeEEEESaIS9_ELN9__gnu_cxx12_Lock_policyE2EED2Ev=so_stub_for_libtelux_audio
-Wl,--defsym=_ZNSt23_Sp_counted_ptr_inplaceIN5telux6common18FunctionalCallbackIJSt6vectorISt10shared_ptrINS0_5audio12IAudioDeviceEESaIS7_EENS1_9ErrorCodeEEEESaISB_ELN9__gnu_cxx12_Lock_policyE2EE10_M_destroyEv=so_stub_for_libtelux_audio
-Wl,--defsym=_ZNSt23_Sp_counted_ptr_inplaceIN5telux6common18FunctionalCallbackIJSt6vectorISt10shared_ptrINS0_5audio12IAudioDeviceEESaIS7_EENS1_9ErrorCodeEEEESaISB_ELN9__gnu_cxx12_Lock_policyE2EE10_M_disposeEv=so_stub_for_libtelux_audio
-Wl,--defsym=_ZNSt23_Sp_counted_ptr_inplaceIN5telux6common18FunctionalCallbackIJSt6vectorISt10shared_ptrINS0_5audio12IAudioDeviceEESaIS7_EENS1_9ErrorCodeEEEESaISB_ELN9__gnu_cxx12_Lock_policyE2EE14_M_get_deleterERKSt9type_info=so_stub_for_libtelux_audio
-Wl,--defsym=_ZNSt23_Sp_counted_ptr_inplaceIN5telux6common18FunctionalCallbackIJSt6vectorISt10shared_ptrINS0_5audio12IAudioDeviceEESaIS7_EENS1_9ErrorCodeEEEESaISB_ELN9__gnu_cxx12_Lock_policyE2EED0Ev=so_stub_for_libtelux_audio
-Wl,--defsym=_ZNSt23_Sp_counted_ptr_inplaceIN5telux6common18FunctionalCallbackIJSt6vectorISt10shared_ptrINS0_5audio12IAudioDeviceEESaIS7_EENS1_9ErrorCodeEEEESaISB_ELN9__gnu_cxx12_Lock_policyE2EED1Ev=so_stub_for_libtelux_audio
-Wl,--defsym=_ZNSt23_Sp_counted_ptr_inplaceIN5telux6common18FunctionalCallbackIJSt6vectorISt10shared_ptrINS0_5audio12IAudioDeviceEESaIS7_EENS1_9ErrorCodeEEEESaISB_ELN9__gnu_cxx12_Lock_policyE2EED2Ev=so_stub_for_libtelux_audio
-Wl,--defsym=_ZNSt23_Sp_counted_ptr_inplaceISt6threadSaIS0_ELN9__gnu_cxx12_Lock_policyE2EE10_M_destroyEv=so_stub_for_libtelux_audio
-Wl,--defsym=_ZNSt23_Sp_counted_ptr_inplaceISt6threadSaIS0_ELN9__gnu_cxx12_Lock_policyE2EE10_M_disposeEv=so_stub_for_libtelux_audio
-Wl,--defsym=_ZNSt23_Sp_counted_ptr_inplaceISt6threadSaIS0_ELN9__gnu_cxx12_Lock_policyE2EE14_M_get_deleterERKSt9type_info=so_stub_for_libtelux_audio
-Wl,--defsym=_ZNSt23_Sp_counted_ptr_inplaceISt6threadSaIS0_ELN9__gnu_cxx12_Lock_policyE2EED0Ev=so_stub_for_libtelux_audio
-Wl,--defsym=_ZNSt23_Sp_counted_ptr_inplaceISt6threadSaIS0_ELN9__gnu_cxx12_Lock_policyE2EED1Ev=so_stub_for_libtelux_audio
-Wl,--defsym=_ZNSt23_Sp_counted_ptr_inplaceISt6threadSaIS0_ELN9__gnu_cxx12_Lock_policyE2EED2Ev=so_stub_for_libtelux_audio
-Wl,--defsym=_ZNSt5dequeISt10shared_ptrIN5telux5audio13IStreamBufferEESaIS4_EE15_M_erase_at_endESt15_Deque_iteratorIS4_RS4_PS4_E=so_stub_for_libtelux_audio
-Wl,--defsym=_ZNSt5dequeISt10shared_ptrIN5telux5audio13IStreamBufferEESaIS4_EE16_M_push_back_auxIJRKS4_EEEvDpOT_=so_stub_for_libtelux_audio
-Wl,--defsym=_ZNSt5dequeISt10shared_ptrIN5telux5audio13IStreamBufferEESaIS4_EE17_M_reallocate_mapEmb=so_stub_for_libtelux_audio
-Wl,--defsym=_ZNSt5dequeISt10shared_ptrIN5telux5audio13IStreamBufferEESaIS4_EE19_M_destroy_data_auxESt15_Deque_iteratorIS4_RS4_PS4_ESA_=so_stub_for_libtelux_audio
-Wl,--defsym=_ZNSt5dequeISt10shared_ptrIN5telux5audio13IStreamBufferEESaIS4_EE9push_backERKS4_=so_stub_for_libtelux_audio
-Wl,--defsym=_ZNSt5dequeISt10shared_ptrIN5telux5audio13IStreamBufferEESaIS4_EED1Ev=so_stub_for_libtelux_audio
-Wl,--defsym=_ZNSt5dequeISt10shared_ptrIN5telux5audio13IStreamBufferEESaIS4_EED2Ev=so_stub_for_libtelux_audio
-Wl,--defsym=_ZNSt5dequeISt13shared_futureIvESaIS1_EE13_M_insert_auxISt15_Deque_iteratorIS1_RKS1_PS6_EEEvS5_IS1_RS1_PS1_ET_SD_m=so_stub_for_libtelux_audio
-Wl,--defsym=_ZNSt5dequeISt13shared_futureIvESaIS1_EE15_M_erase_at_endESt15_Deque_iteratorIS1_RS1_PS1_E=so_stub_for_libtelux_audio
-Wl,--defsym=_ZNSt5dequeISt13shared_futureIvESaIS1_EE16_M_pop_front_auxEv=so_stub_for_libtelux_audio
-Wl,--defsym=_ZNSt5dequeISt13shared_futureIvESaIS1_EE16_M_push_back_auxIJRKS1_EEEvDpOT_=so_stub_for_libtelux_audio
-Wl,--defsym=_ZNSt5dequeISt13shared_futureIvESaIS1_EE17_M_reallocate_mapEmb=so_stub_for_libtelux_audio
-Wl,--defsym=_ZNSt5dequeISt13shared_futureIvESaIS1_EE19_M_destroy_data_auxESt15_Deque_iteratorIS1_RS1_PS1_ES7_=so_stub_for_libtelux_audio
-Wl,--defsym=_ZNSt5dequeISt13shared_futureIvESaIS1_EE19_M_range_insert_auxISt15_Deque_iteratorIS1_RKS1_PS6_EEEvS5_IS1_RS1_PS1_ET_SD_St20forward_iterator_tag=so_stub_for_libtelux_audio
-Wl,--defsym=_ZNSt5dequeISt13shared_futureIvESaIS1_EE23_M_new_elements_at_backEm=so_stub_for_libtelux_audio
-Wl,--defsym=_ZNSt5dequeISt13shared_futureIvESaIS1_EE24_M_new_elements_at_frontEm=so_stub_for_libtelux_audio
-Wl,--defsym=_ZNSt5dequeISt13shared_futureIvESaIS1_EE8_M_eraseESt15_Deque_iteratorIS1_RS1_PS1_E=so_stub_for_libtelux_audio
-Wl,--defsym=_ZNSt5dequeISt13shared_futureIvESaIS1_EEaSERKS3_=so_stub_for_libtelux_audio
-Wl,--defsym=_ZNSt5dequeISt13shared_futureIvESaIS1_EED1Ev=so_stub_for_libtelux_audio
-Wl,--defsym=_ZNSt5dequeISt13shared_futureIvESaIS1_EED2Ev=so_stub_for_libtelux_audio
-Wl,--defsym=_ZNSt6thread11_State_implINS_8_InvokerISt5tupleIJMN5telux6common14AsyncTaskQueueIvEEFvvEPS6_EEEEE6_M_runEv=so_stub_for_libtelux_audio
-Wl,--defsym=_ZNSt6thread11_State_implINS_8_InvokerISt5tupleIJMN5telux6common14AsyncTaskQueueIvEEFvvEPS6_EEEEED0Ev=so_stub_for_libtelux_audio
-Wl,--defsym=_ZNSt6thread11_State_implINS_8_InvokerISt5tupleIJMN5telux6common14AsyncTaskQueueIvEEFvvEPS6_EEEEED1Ev=so_stub_for_libtelux_audio
-Wl,--defsym=_ZNSt6thread11_State_implINS_8_InvokerISt5tupleIJMN5telux6common14AsyncTaskQueueIvEEFvvEPS6_EEEEED2Ev=so_stub_for_libtelux_audio
-Wl,--defsym=_ZNSt6thread11_State_implINS_8_InvokerISt5tupleIJZN5telux6common13FactoryHelper10getManagerINS3_5audio13IAudioManagerEEESt10shared_ptrIT_ENSt7__cxx1112basic_stringIcSt11char_traitsIcESaIcEEERSt8weak_ptrISA_ERSt6vectorISt8functionIFvNS4_13ServiceStatusEEESaISP_EESP_SM_IFSB_SP_EEEUlvE_EEEEE6_M_runEv=so_stub_for_libtelux_audio
-Wl,--defsym=_ZNSt6thread11_State_implINS_8_InvokerISt5tupleIJZN5telux6common13FactoryHelper10getManagerINS3_5audio13IAudioManagerEEESt10shared_ptrIT_ENSt7__cxx1112basic_stringIcSt11char_traitsIcESaIcEEERSt8weak_ptrISA_ERSt6vectorISt8functionIFvNS4_13ServiceStatusEEESaISP_EESP_SM_IFSB_SP_EEEUlvE_EEEEED0Ev=so_stub_for_libtelux_audio
-Wl,--defsym=_ZNSt6thread11_State_implINS_8_InvokerISt5tupleIJZN5telux6common13FactoryHelper10getManagerINS3_5audio13IAudioManagerEEESt10shared_ptrIT_ENSt7__cxx1112basic_stringIcSt11char_traitsIcESaIcEEERSt8weak_ptrISA_ERSt6vectorISt8functionIFvNS4_13ServiceStatusEEESaISP_EESP_SM_IFSB_SP_EEEUlvE_EEEEED1Ev=so_stub_for_libtelux_audio
-Wl,--defsym=_ZNSt6thread11_State_implINS_8_InvokerISt5tupleIJZN5telux6common13FactoryHelper10getManagerINS3_5audio13IAudioManagerEEESt10shared_ptrIT_ENSt7__cxx1112basic_stringIcSt11char_traitsIcESaIcEEERSt8weak_ptrISA_ERSt6vectorISt8functionIFvNS4_13ServiceStatusEEESaISP_EESP_SM_IFSB_SP_EEEUlvE_EEEEED2Ev=so_stub_for_libtelux_audio
-Wl,--defsym=_ZNSt6threadC1IMN5telux6common14AsyncTaskQueueIvEEFvvEJPS4_EvEEOT_DpOT0_=so_stub_for_libtelux_audio
-Wl,--defsym=_ZNSt6threadC1IZN5telux6common13FactoryHelper10getManagerINS1_5audio13IAudioManagerEEESt10shared_ptrIT_ENSt7__cxx1112basic_stringIcSt11char_traitsIcESaIcEEERSt8weak_ptrIS8_ERSt6vectorISt8functionIFvNS2_13ServiceStatusEEESaISN_EESN_SK_IFS9_SN_EEEUlvE_JEvEEOS8_DpOT0_=so_stub_for_libtelux_audio
-Wl,--defsym=_ZNSt6threadC2IMN5telux6common14AsyncTaskQueueIvEEFvvEJPS4_EvEEOT_DpOT0_=so_stub_for_libtelux_audio
-Wl,--defsym=_ZNSt6threadC2IZN5telux6common13FactoryHelper10getManagerINS1_5audio13IAudioManagerEEESt10shared_ptrIT_ENSt7__cxx1112basic_stringIcSt11char_traitsIcESaIcEEERSt8weak_ptrIS8_ERSt6vectorISt8functionIFvNS2_13ServiceStatusEEESaISN_EESN_SK_IFS9_SN_EEEUlvE_JEvEEOS8_DpOT0_=so_stub_for_libtelux_audio
-Wl,--defsym=_ZNSt6vectorIN5telux5audio10DeviceTypeESaIS2_EE13_M_assign_auxIPKS2_EEvT_S8_St20forward_iterator_tag=so_stub_for_libtelux_audio
-Wl,--defsym=_ZNSt6vectorIN5telux5audio10DeviceTypeESaIS2_EE17_M_default_appendEm=so_stub_for_libtelux_audio
-Wl,--defsym=_ZNSt6vectorIN5telux5audio10DeviceTypeESaIS2_EE17_M_realloc_insertIJS2_EEEvN9__gnu_cxx17__normal_iteratorIPS2_S4_EEDpOT_=so_stub_for_libtelux_audio
-Wl,--defsym=_ZNSt6vectorIN5telux5audio10DeviceTypeESaIS2_EEaSERKS4_=so_stub_for_libtelux_audio
-Wl,--defsym=_ZNSt6vectorIN5telux5audio10DeviceTypeESaIS2_EEC1ERKS4_=so_stub_for_libtelux_audio
-Wl,--defsym=_ZNSt6vectorIN5telux5audio10DeviceTypeESaIS2_EEC2ERKS4_=so_stub_for_libtelux_audio
-Wl,--defsym=_ZNSt6vectorIN5telux5audio13ChannelVolumeESaIS2_EE12emplace_backIJRS2_EEEvDpOT_=so_stub_for_libtelux_audio
-Wl,--defsym=_ZNSt6vectorIN5telux5audio13ChannelVolumeESaIS2_EE17_M_realloc_insertIJRS2_EEEvN9__gnu_cxx17__normal_iteratorIPS2_S4_EEDpOT_=so_stub_for_libtelux_audio
-Wl,--defsym=_ZNSt6vectorIN5telux5audio13ChannelVolumeESaIS2_EEC1ERKS4_=so_stub_for_libtelux_audio
-Wl,--defsym=_ZNSt6vectorIN5telux5audio13ChannelVolumeESaIS2_EEC2ERKS4_=so_stub_for_libtelux_audio
-Wl,--defsym=_ZNSt6vectorIN5telux5audio14PlaybackConfigESaIS2_EE20_M_allocate_and_copyIN9__gnu_cxx17__normal_iteratorIPKS2_S4_EEEEPS2_mT_SC_=so_stub_for_libtelux_audio
-Wl,--defsym=_ZNSt6vectorIN5telux5audio14PlaybackConfigESaIS2_EEaSERKS4_=so_stub_for_libtelux_audio
-Wl,--defsym=_ZNSt6vectorIN5telux5audio14PlaybackConfigESaIS2_EED1Ev=so_stub_for_libtelux_audio
-Wl,--defsym=_ZNSt6vectorIN5telux5audio14PlaybackConfigESaIS2_EED2Ev=so_stub_for_libtelux_audio
-Wl,--defsym=_ZNSt6vectorIN5telux5audio9DirectionESaIS2_EEaSERKS4_=so_stub_for_libtelux_audio
-Wl,--defsym=_ZNSt6vectorIN5telux5audio9DirectionESaIS2_EEC1ERKS4_=so_stub_for_libtelux_audio
-Wl,--defsym=_ZNSt6vectorIN5telux5audio9DirectionESaIS2_EEC2ERKS4_=so_stub_for_libtelux_audio
-Wl,--defsym=_ZNSt6vectorISt10shared_ptrIN5telux5audio15AudioDeviceImplEESaIS4_EE12emplace_backIJRS4_EEEvDpOT_=so_stub_for_libtelux_audio
-Wl,--defsym=_ZNSt6vectorISt10shared_ptrIN5telux5audio15AudioDeviceImplEESaIS4_EE17_M_realloc_insertIJRS4_EEEvN9__gnu_cxx17__normal_iteratorIPS4_S6_EEDpOT_=so_stub_for_libtelux_audio
-Wl,--defsym=_ZNSt6vectorISt10shared_ptrIN5telux5audio15AudioDeviceImplEESaIS4_EED1Ev=so_stub_for_libtelux_audio
-Wl,--defsym=_ZNSt6vectorISt10shared_ptrIN5telux5audio15AudioDeviceImplEESaIS4_EED2Ev=so_stub_for_libtelux_audio
-Wl,--defsym=_ZNSt6vectorISt8functionIFvN5telux6common13ServiceStatusEEESaIS5_EE15_M_erase_at_endEPS5_=so_stub_for_libtelux_audio
-Wl,--defsym=_ZNSt6vectorISt8functionIFvN5telux6common13ServiceStatusEEESaIS5_EE17_M_realloc_insertIJRKS5_EEEvN9__gnu_cxx17__normal_iteratorIPS5_S7_EEDpOT_=so_stub_for_libtelux_audio
-Wl,--defsym=_ZNSt6vectorISt8functionIFvN5telux6common13ServiceStatusEEESaIS5_EE20_M_allocate_and_copyIN9__gnu_cxx17__normal_iteratorIPKS5_S7_EEEEPS5_mT_SF_=so_stub_for_libtelux_audio
-Wl,--defsym=_ZNSt6vectorISt8functionIFvN5telux6common13ServiceStatusEEESaIS5_EEaSERKS7_=so_stub_for_libtelux_audio
-Wl,--defsym=_ZNSt6vectorISt8functionIFvN5telux6common13ServiceStatusEEESaIS5_EED1Ev=so_stub_for_libtelux_audio
-Wl,--defsym=_ZNSt6vectorISt8functionIFvN5telux6common13ServiceStatusEEESaIS5_EED2Ev=so_stub_for_libtelux_audio
-Wl,--defsym=_ZNSt6vectorISt8weak_ptrIN5telux5audio14TranscoderImplEESaIS4_EE17_M_realloc_insertIJS4_EEEvN9__gnu_cxx17__normal_iteratorIPS4_S6_EEDpOT_=so_stub_for_libtelux_audio
-Wl,--defsym=_ZNSt6vectorISt8weak_ptrIN5telux5audio15AudioStreamImplEESaIS4_EE12emplace_backIJS4_EEEvDpOT_=so_stub_for_libtelux_audio
-Wl,--defsym=_ZNSt6vectorISt8weak_ptrIN5telux5audio15AudioStreamImplEESaIS4_EE17_M_realloc_insertIJS4_EEEvN9__gnu_cxx17__normal_iteratorIPS4_S6_EEDpOT_=so_stub_for_libtelux_audio
-Wl,--defsym=_ZNSt6vectorISt8weak_ptrIN5telux6common12ISDKListenerEESaIS4_EE12emplace_backIJRS4_EEEvDpOT_=so_stub_for_libtelux_audio
-Wl,--defsym=_ZNSt6vectorISt8weak_ptrIN5telux6common12ISDKListenerEESaIS4_EE12emplace_backIJRSt10shared_ptrIS3_EEEEvDpOT_=so_stub_for_libtelux_audio
-Wl,--defsym=_ZNSt6vectorISt8weak_ptrIN5telux6common12ISDKListenerEESaIS4_EE17_M_realloc_insertIJRS4_EEEvN9__gnu_cxx17__normal_iteratorIPS4_S6_EEDpOT_=so_stub_for_libtelux_audio
-Wl,--defsym=_ZNSt6vectorISt8weak_ptrIN5telux6common12ISDKListenerEESaIS4_EE17_M_realloc_insertIJRSt10shared_ptrIS3_EEEEvN9__gnu_cxx17__normal_iteratorIPS4_S6_EEDpOT_=so_stub_for_libtelux_audio
-Wl,--defsym=_ZNSt6vectorISt8weak_ptrIN5telux6common12ISDKListenerEESaIS4_EE8_M_eraseEN9__gnu_cxx17__normal_iteratorIPS4_S6_EE=so_stub_for_libtelux_audio
-Wl,--defsym=_ZNSt6vectorISt8weak_ptrIN5telux6common12ISDKListenerEESaIS4_EED1Ev=so_stub_for_libtelux_audio
-Wl,--defsym=_ZNSt6vectorISt8weak_ptrIN5telux6common12ISDKListenerEESaIS4_EED2Ev=so_stub_for_libtelux_audio
-Wl,--defsym=_ZNSt6vectorItSaItEEC1ERKS1_=so_stub_for_libtelux_audio
-Wl,--defsym=_ZNSt6vectorItSaItEEC2ERKS1_=so_stub_for_libtelux_audio
-Wl,--defsym=_ZNSt7__cxx1112basic_stringIcSt11char_traitsIcESaIcEE12_M_constructIPcEEvT_S7_St20forward_iterator_tag=so_stub_for_libtelux_audio
-Wl,--defsym=_ZNSt7__cxx1112basic_stringIcSt11char_traitsIcESaIcEE12_M_constructIPKcEEvT_S8_St20forward_iterator_tag=so_stub_for_libtelux_audio
-Wl,--defsym=_ZNSt7__cxx1115basic_stringbufIcSt11char_traitsIcESaIcEED0Ev=so_stub_for_libtelux_audio
-Wl,--defsym=_ZNSt7__cxx1115basic_stringbufIcSt11char_traitsIcESaIcEED1Ev=so_stub_for_libtelux_audio
-Wl,--defsym=_ZNSt7__cxx1115basic_stringbufIcSt11char_traitsIcESaIcEED2Ev=so_stub_for_libtelux_audio
-Wl,--defsym=_ZNSt8__detail9_Map_baseIiSt4pairIKiSt10shared_ptrIN5telux6common16ICommandCallbackEEESaIS8_ENS_10_Select1stESt8equal_toIiESt4hashIiENS_18_Mod_range_hashingENS_20_Default_ranged_hashENS_20_Prime_rehash_policyENS_17_Hashtable_traitsILb0ELb0ELb1EEELb1EEixERS2_=so_stub_for_libtelux_audio
-Wl,--defsym=_ZNSt8functionIFvN5telux6common13ServiceStatusEEEaSERKS4_=so_stub_for_libtelux_audio
-Wl,--defsym=_ZNSt8functionIFvN5telux6common13ServiceStatusEEEC1IRZNS1_13FactoryHelper10getManagerINS0_5audio13IAudioManagerEEESt10shared_ptrIT_ENSt7__cxx1112basic_stringIcSt11char_traitsIcESaIcEEERSt8weak_ptrISB_ERSt6vectorIS4_SaIS4_EES4_S_IFSC_S4_EEEUlS2_E0_vEEOSB_=so_stub_for_libtelux_audio
-Wl,--defsym=_ZNSt8functionIFvN5telux6common13ServiceStatusEEEC2IRZNS1_13FactoryHelper10getManagerINS0_5audio13IAudioManagerEEESt10shared_ptrIT_ENSt7__cxx1112basic_stringIcSt11char_traitsIcESaIcEEERSt8weak_ptrISB_ERSt6vectorIS4_SaIS4_EES4_S_IFSC_S4_EEEUlS2_E0_vEEOSB_=so_stub_for_libtelux_audio
-Wl,--defsym=_ZNSt8functionIFvSt10shared_ptrIN5telux5audio13IStreamBufferEEjNS1_6common9ErrorCodeEEEaSISt5_BindIFMNS2_15AudioPlayerImplEFvS4_jS6_EPSB_St12_PlaceholderILi1EESF_ILi2EESF_ILi3EEEEEENSt9enable_ifIXsrNS8_9_CallableIT_NSL_IXntsrSt7is_sameINSt9remove_cvINSt16remove_referenceISN_E4typeEE4typeES8_E5valueESt5decayISN_EE4type4typeESt15__invoke_resultIRS10_JS4_jS6_EEEE5valueERS8_E4typeEOSN_=so_stub_for_libtelux_audio
-Wl,--defsym=_ZNSt8_Rb_treeIjSt4pairIKjSt3setISt8weak_ptrIN5telux6common12ISDKListenerEENS5_15ListenerManager12SetPredicateESaIS7_EEESt10_Select1stISC_ESt4lessIjESaISC_EE8_M_eraseEPSt13_Rb_tree_nodeISC_E=so_stub_for_libtelux_audio
-Wl,--defsym=_ZNSt8_Rb_treeISt8weak_ptrIN5telux6common12ISDKListenerEES4_St9_IdentityIS4_ENS2_15ListenerManager12SetPredicateESaIS4_EE8_M_eraseEPSt13_Rb_tree_nodeIS4_E=so_stub_for_libtelux_audio
-Wl,--defsym=_ZSt10__invoke_rIvRSt5_BindIFMN5telux5audio15AudioPlayerImplEFvNS1_6common9ErrorCodeEEPS3_St12_PlaceholderILi1EEEEJS5_EENSt9enable_ifIXsrSt6__and_IJSt7is_voidIT_ESt14__is_invocableIT0_JDpT1_EEEE5valueESH_E4typeEOSK_DpOSL_=so_stub_for_libtelux_audio
-Wl,--defsym=_ZSt10__invoke_rIvRSt5_BindIFMN5telux5audio15AudioPlayerImplEFvSt10shared_ptrINS2_13IStreamBufferEEjNS1_6common9ErrorCodeEEPS3_St12_PlaceholderILi1EESC_ILi2EESC_ILi3EEEEJS6_jS8_EENSt9enable_ifIXsrSt6__and_IJSt7is_voidIT_ESt14__is_invocableIT0_JDpT1_EEEE5valueESM_E4typeEOSP_DpOSQ_=so_stub_for_libtelux_audio
-Wl,--defsym=_ZSt10__invoke_rIvRSt5_BindIFMN5telux5audio16AudioFactoryImplEFvNS1_6common13ServiceStatusEEPS3_St12_PlaceholderILi1EEEEJS5_EENSt9enable_ifIXsrSt6__and_IJSt7is_voidIT_ESt14__is_invocableIT0_JDpT1_EEEE5valueESH_E4typeEOSK_DpOSL_=so_stub_for_libtelux_audio
-Wl,--defsym=_ZSt10__invoke_rIvRSt5_BindIFMN5telux5audio23SetMuteResponseListenerEFvNS1_6common9ErrorCodeEEPS3_St12_PlaceholderILi1EEEEJS5_EENSt9enable_ifIXsrSt6__and_IJSt7is_voidIT_ESt14__is_invocableIT0_JDpT1_EEEE5valueESH_E4typeEOSK_DpOSL_=so_stub_for_libtelux_audio
-Wl,--defsym=_ZSt10__invoke_rIvRSt5_BindIFMN5telux5audio25GetDeviceResponseListenerEFvSt6vectorINS2_10DeviceTypeESaIS5_EENS1_6common9ErrorCodeEEPS3_St12_PlaceholderILi1EESD_ILi2EEEEJS7_S9_EENSt9enable_ifIXsrSt6__and_IJSt7is_voidIT_ESt14__is_invocableIT0_JDpT1_EEEE5valueESM_E4typeEOSP_DpOSQ_=so_stub_for_libtelux_audio
-Wl,--defsym=_ZSt10__invoke_rIvRSt5_BindIFMN5telux5audio25GetVolumeResponseListenerEFvNS2_12StreamVolumeENS1_6common9ErrorCodeEEPS3_St12_PlaceholderILi1EESA_ILi2EEEEJS4_S6_EENSt9enable_ifIXsrSt6__and_IJSt7is_voidIT_ESt14__is_invocableIT0_JDpT1_EEEE5valueESJ_E4typeEOSM_DpOSN_=so_stub_for_libtelux_audio
-Wl,--defsym=_ZSt10__invoke_rIvRSt5_BindIFMN5telux5audio25SetDeviceResponseListenerEFvNS1_6common9ErrorCodeEEPS3_St12_PlaceholderILi1EEEEJS5_EENSt9enable_ifIXsrSt6__and_IJSt7is_voidIT_ESt14__is_invocableIT0_JDpT1_EEEE5valueESH_E4typeEOSK_DpOSL_=so_stub_for_libtelux_audio
-Wl,--defsym=_ZSt10__invoke_rIvRSt5_BindIFMN5telux5audio25SetVolumeResponseListenerEFvNS1_6common9ErrorCodeEEPS3_St12_PlaceholderILi1EEEEJS5_EENSt9enable_ifIXsrSt6__and_IJSt7is_voidIT_ESt14__is_invocableIT0_JDpT1_EEEE5valueESH_E4typeEOSK_DpOSL_=so_stub_for_libtelux_audio
-Wl,--defsym=_ZSt13__copy_move_aILb0EN9__gnu_cxx17__normal_iteratorIPKN5telux5audio14PlaybackConfigESt6vectorIS4_SaIS4_EEEENS1_IPS4_S9_EEET1_T0_SE_SD_=so_stub_for_libtelux_audio
-Wl,--defsym=_ZSt13__copy_move_aILb0EN9__gnu_cxx17__normal_iteratorIPKSt8functionIFvN5telux6common13ServiceStatusEEESt6vectorIS7_SaIS7_EEEENS1_IPS7_SC_EEET1_T0_SH_SG_=so_stub_for_libtelux_audio
-Wl,--defsym=_ZSt13__copy_move_aILb1EN9__gnu_cxx17__normal_iteratorIPSt8weak_ptrIN5telux6common12ISDKListenerEESt6vectorIS6_SaIS6_EEEESB_ET1_T0_SD_SC_=so_stub_for_libtelux_audio
-Wl,--defsym=_ZSt13move_backwardISt15_Deque_iteratorISt13shared_futureIvERS2_PS2_ES5_ET0_T_S7_S6_=so_stub_for_libtelux_audio
-Wl,--defsym=_ZSt14__copy_move_a1ILb0EPSt13shared_futureIvES1_EN9__gnu_cxx11__enable_ifIXsrSt23__is_random_access_iterIT0_NSt15iterator_traitsIS6_E17iterator_categoryEE7__valueESt15_Deque_iteratorIT1_RSC_PSC_EE6__typeES6_S6_SF_=so_stub_for_libtelux_audio
-Wl,--defsym=_ZSt14__copy_move_a1ILb0ESt13shared_futureIvERKS1_PS2_S1_ESt15_Deque_iteratorIT3_RS6_PS6_ES5_IT0_T1_T2_ESD_S9_=so_stub_for_libtelux_audio
-Wl,--defsym=_ZSt14__copy_move_a1ILb1EPSt13shared_futureIvES1_EN9__gnu_cxx11__enable_ifIXsrSt23__is_random_access_iterIT0_NSt15iterator_traitsIS6_E17iterator_categoryEE7__valueESt15_Deque_iteratorIT1_RSC_PSC_EE6__typeES6_S6_SF_=so_stub_for_libtelux_audio
-Wl,--defsym=_ZSt14__copy_move_a1ILb1ESt13shared_futureIvERS1_PS1_S1_ESt15_Deque_iteratorIT3_RS5_PS5_ES4_IT0_T1_T2_ESC_S8_=so_stub_for_libtelux_audio
-Wl,--defsym=_ZSt18make_exception_ptrISt12future_errorENSt15__exception_ptr13exception_ptrET_=so_stub_for_libtelux_audio
-Wl,--defsym=_ZSt18uninitialized_copyISt13move_iteratorISt15_Deque_iteratorISt13shared_futureIvERS3_PS3_EES6_ET0_T_S9_S8_=so_stub_for_libtelux_audio
-Wl,--defsym=_ZSt22__uninitialized_copy_aISt15_Deque_iteratorISt13shared_futureIvERKS2_PS3_ES0_IS2_RS2_PS2_ES2_ET0_T_SB_SA_RSaIT1_E=so_stub_for_libtelux_audio
-Wl,--defsym=_ZSt22__uninitialized_move_aISt15_Deque_iteratorISt13shared_futureIvERS2_PS2_ES5_SaIS2_EET0_T_S8_S7_RT1_=so_stub_for_libtelux_audio
-Wl,--defsym=_ZSt23__copy_move_backward_a1ILb1EPSt13shared_futureIvES1_EN9__gnu_cxx11__enable_ifIXsrSt23__is_random_access_iterIT0_NSt15iterator_traitsIS6_E17iterator_categoryEE7__valueESt15_Deque_iteratorIT1_RSC_PSC_EE6__typeES6_S6_SF_=so_stub_for_libtelux_audio
-Wl,--defsym=_ZSt23__copy_move_backward_a1ILb1ESt13shared_futureIvERS1_PS1_S1_ESt15_Deque_iteratorIT3_RS5_PS5_ES4_IT0_T1_T2_ESC_S8_=so_stub_for_libtelux_audio
-Wl,--defsym=_ZSt4copyISt15_Deque_iteratorISt13shared_futureIvERKS2_PS3_ES0_IS2_RS2_PS2_EET0_T_SB_SA_=so_stub_for_libtelux_audio
-Wl,--defsym=_ZSt4moveISt15_Deque_iteratorISt13shared_futureIvERS2_PS2_ES5_ET0_T_S7_S6_=so_stub_for_libtelux_audio
-Wl,--defsym=_ZSt4swapINSt11_Deque_baseISt10shared_ptrIN5telux5audio13IStreamBufferEESaIS5_EE16_Deque_impl_dataEENSt9enable_ifIXsrSt6__and_IJSt6__not_ISt15__is_tuple_likeIT_EESt21is_move_constructibleISD_ESt18is_move_assignableISD_EEE5valueEvE4typeERSD_SN_=so_stub_for_libtelux_audio
-Wl,--defsym=_ZSt7find_ifIN9__gnu_cxx17__normal_iteratorIPSt8weak_ptrIN5telux6common12ISDKListenerEESt6vectorIS6_SaIS6_EEEEZNS4_15ListenerManager16registerListenerES6_EUlS6_E_ET_SE_SE_T0_=so_stub_for_libtelux_audio
-Wl,--defsym=_ZSt9__advanceISt15_Deque_iteratorISt13shared_futureIvERKS2_PS3_ElEvRT_T0_St26random_access_iterator_tag=so_stub_for_libtelux_audio
-Wl,--defsym=_ZSt9__find_ifIN9__gnu_cxx17__normal_iteratorIPSt8weak_ptrIN5telux6common12ISDKListenerEESt6vectorIS6_SaIS6_EEEENS0_5__ops10_Iter_predIZNS4_15ListenerManager16registerListenerES6_EUlS6_E_EEET_SH_SH_T0_St26random_access_iterator_tag=so_stub_for_libtelux_audio
-Wl,--defsym=_ZSteqIN5telux5audio10DeviceTypeESaIS2_EEbRKSt6vectorIT_T0_ES9_=so_stub_for_libtelux_audio
-Wl,--defsym=_ZSteqRKSt10error_codeRKSt15error_condition=so_stub_for_libtelux_audio
-Wl,--defsym=_ZThn16_N5telux5audio14PlayStreamImplD0Ev=so_stub_for_libtelux_audio
-Wl,--defsym=_ZThn16_N5telux5audio14PlayStreamImplD1Ev=so_stub_for_libtelux_audio
-Wl,--defsym=_ZThn16_N5telux5audio14TranscoderImpl13onWriteResultENS_6common9ErrorCodeEjjPNS0_13AudioUserDataE=so_stub_for_libtelux_audio
-Wl,--defsym=_ZThn16_N5telux5audio14TranscoderImplD0Ev=so_stub_for_libtelux_audio
-Wl,--defsym=_ZThn16_N5telux5audio14TranscoderImplD1Ev=so_stub_for_libtelux_audio
-Wl,--defsym=_ZThn16_N5telux5audio15AudioPlayerImpl21onServiceStatusChangeENS_6common13ServiceStatusE=so_stub_for_libtelux_audio
-Wl,--defsym=_ZThn16_N5telux5audio15AudioPlayerImplD0Ev=so_stub_for_libtelux_audio
-Wl,--defsym=_ZThn16_N5telux5audio15AudioPlayerImplD1Ev=so_stub_for_libtelux_audio
-Wl,--defsym=_ZThn16_N5telux5audio15AudioStreamImpl15onGetMuteResultENS_6common9ErrorCodeEjNS0_10StreamMuteEPv=so_stub_for_libtelux_audio
-Wl,--defsym=_ZThn16_N5telux5audio15AudioStreamImpl15onSetMuteResultENS_6common9ErrorCodeEjPv=so_stub_for_libtelux_audio
-Wl,--defsym=_ZThn16_N5telux5audio15AudioStreamImplD0Ev=so_stub_for_libtelux_audio
-Wl,--defsym=_ZThn16_N5telux5audio15AudioStreamImplD1Ev=so_stub_for_libtelux_audio
-Wl,--defsym=_ZThn16_N5telux5audio15VoiceStreamImplD0Ev=so_stub_for_libtelux_audio
-Wl,--defsym=_ZThn16_N5telux5audio15VoiceStreamImplD1Ev=so_stub_for_libtelux_audio
-Wl,--defsym=_ZThn16_N5telux5audio16AudioManagerImpl18onGetStreamsResultENS_6common9ErrorCodeESt6vectorINS0_10StreamTypeESaIS5_EEPv=so_stub_for_libtelux_audio
-Wl,--defsym=_ZThn16_N5telux5audio16AudioManagerImplD0Ev=so_stub_for_libtelux_audio
-Wl,--defsym=_ZThn16_N5telux5audio16AudioManagerImplD1Ev=so_stub_for_libtelux_audio
-Wl,--defsym=_ZThn16_N5telux5audio17CaptureStreamImplD0Ev=so_stub_for_libtelux_audio
-Wl,--defsym=_ZThn16_N5telux5audio17CaptureStreamImplD1Ev=so_stub_for_libtelux_audio
-Wl,--defsym=_ZThn16_N5telux5audio18LoopbackStreamImplD0Ev=so_stub_for_libtelux_audio
-Wl,--defsym=_ZThn16_N5telux5audio18LoopbackStreamImplD1Ev=so_stub_for_libtelux_audio
-Wl,--defsym=_ZThn16_N5telux5audio23ToneGeneratorStreamImplD0Ev=so_stub_for_libtelux_audio
-Wl,--defsym=_ZThn16_N5telux5audio23ToneGeneratorStreamImplD1Ev=so_stub_for_libtelux_audio
-Wl,--defsym=_ZThn224_N5telux5audio15VoiceStreamImpl10startAudioESt8functionIFvNS_6common9ErrorCodeEEE=so_stub_for_libtelux_audio
-Wl,--defsym=_ZThn224_N5telux5audio15VoiceStreamImpl12playDtmfToneENS0_8DtmfToneEttSt8functionIFvNS_6common9ErrorCodeEEE=so_stub_for_libtelux_audio
-Wl,--defsym=_ZThn224_N5telux5audio15VoiceStreamImpl12stopDtmfToneENS0_15StreamDirectionESt8functionIFvNS_6common9ErrorCodeEEE=so_stub_for_libtelux_audio
-Wl,--defsym=_ZThn224_N5telux5audio15VoiceStreamImpl16registerListenerESt8weak_ptrINS0_14IVoiceListenerEESt8functionIFvNS_6common9ErrorCodeEEE=so_stub_for_libtelux_audio
-Wl,--defsym=_ZThn224_N5telux5audio15VoiceStreamImpl18deRegisterListenerESt8weak_ptrINS0_14IVoiceListenerEE=so_stub_for_libtelux_audio
-Wl,--defsym=_ZThn224_N5telux5audio15VoiceStreamImpl9stopAudioESt8functionIFvNS_6common9ErrorCodeEEE=so_stub_for_libtelux_audio
-Wl,--defsym=_ZThn224_N5telux5audio15VoiceStreamImplD0Ev=so_stub_for_libtelux_audio
-Wl,--defsym=_ZThn224_N5telux5audio15VoiceStreamImplD1Ev=so_stub_for_libtelux_audio
-Wl,--defsym=_ZThn232_N5telux5audio14PlayStreamImpl13onWriteResultENS_6common9ErrorCodeEjjPNS0_13AudioUserDataE=so_stub_for_libtelux_audio
-Wl,--defsym=_ZThn232_N5telux5audio14PlayStreamImplD0Ev=so_stub_for_libtelux_audio
-Wl,--defsym=_ZThn232_N5telux5audio14PlayStreamImplD1Ev=so_stub_for_libtelux_audio
-Wl,--defsym=_ZThn232_N5telux5audio15VoiceStreamImpl16onPlayDtmfResultENS_6common9ErrorCodeEjPv=so_stub_for_libtelux_audio
-Wl,--defsym=_ZThn232_N5telux5audio15VoiceStreamImpl16onStopDtmfResultENS_6common9ErrorCodeEjPv=so_stub_for_libtelux_audio
-Wl,--defsym=_ZThn232_N5telux5audio15VoiceStreamImplD0Ev=so_stub_for_libtelux_audio
-Wl,--defsym=_ZThn232_N5telux5audio15VoiceStreamImplD1Ev=so_stub_for_libtelux_audio
-Wl,--defsym=_ZThn232_N5telux5audio17CaptureStreamImpl12onReadResultENS_6common9ErrorCodeEjjPNS0_13AudioUserDataE=so_stub_for_libtelux_audio
-Wl,--defsym=_ZThn232_N5telux5audio17CaptureStreamImplD0Ev=so_stub_for_libtelux_audio
-Wl,--defsym=_ZThn232_N5telux5audio17CaptureStreamImplD1Ev=so_stub_for_libtelux_audio
-Wl,--defsym=_ZThn232_N5telux5audio18LoopbackStreamImpl19onStreamStartResultENS_6common9ErrorCodeEjPv=so_stub_for_libtelux_audio
-Wl,--defsym=_ZThn232_N5telux5audio18LoopbackStreamImplD0Ev=so_stub_for_libtelux_audio
-Wl,--defsym=_ZThn232_N5telux5audio18LoopbackStreamImplD1Ev=so_stub_for_libtelux_audio
-Wl,--defsym=_ZThn232_N5telux5audio23ToneGeneratorStreamImpl16onToneStopResultENS_6common9ErrorCodeEjPv=so_stub_for_libtelux_audio
-Wl,--defsym=_ZThn232_N5telux5audio23ToneGeneratorStreamImpl17onToneStartResultENS_6common9ErrorCodeEjPv=so_stub_for_libtelux_audio
-Wl,--defsym=_ZThn232_N5telux5audio23ToneGeneratorStreamImplD0Ev=so_stub_for_libtelux_audio
-Wl,--defsym=_ZThn232_N5telux5audio23ToneGeneratorStreamImplD1Ev=so_stub_for_libtelux_audio
-Wl,--defsym=_ZThn240_N5telux5audio14PlayStreamImpl13onFlushResultENS_6common9ErrorCodeEjPv=so_stub_for_libtelux_audio
-Wl,--defsym=_ZThn240_N5telux5audio14PlayStreamImplD0Ev=so_stub_for_libtelux_audio
-Wl,--defsym=_ZThn240_N5telux5audio14PlayStreamImplD1Ev=so_stub_for_libtelux_audio
-Wl,--defsym=_ZThn240_N5telux5audio15VoiceStreamImpl19onStreamStartResultENS_6common9ErrorCodeEjPv=so_stub_for_libtelux_audio
-Wl,--defsym=_ZThn240_N5telux5audio15VoiceStreamImplD0Ev=so_stub_for_libtelux_audio
-Wl,--defsym=_ZThn240_N5telux5audio15VoiceStreamImplD1Ev=so_stub_for_libtelux_audio
-Wl,--defsym=_ZThn240_N5telux5audio18LoopbackStreamImpl18onStreamStopResultENS_6common9ErrorCodeEjPv=so_stub_for_libtelux_audio
-Wl,--defsym=_ZThn240_N5telux5audio18LoopbackStreamImplD0Ev=so_stub_for_libtelux_audio
-Wl,--defsym=_ZThn240_N5telux5audio18LoopbackStreamImplD1Ev=so_stub_for_libtelux_audio
-Wl,--defsym=_ZThn248_N5telux5audio14PlayStreamImpl13onDrainResultENS_6common9ErrorCodeEjPv=so_stub_for_libtelux_audio
-Wl,--defsym=_ZThn248_N5telux5audio14PlayStreamImplD0Ev=so_stub_for_libtelux_audio
-Wl,--defsym=_ZThn248_N5telux5audio14PlayStreamImplD1Ev=so_stub_for_libtelux_audio
-Wl,--defsym=_ZThn248_N5telux5audio15VoiceStreamImpl18onStreamStopResultENS_6common9ErrorCodeEjPv=so_stub_for_libtelux_audio
-Wl,--defsym=_ZThn248_N5telux5audio15VoiceStreamImplD0Ev=so_stub_for_libtelux_audio
-Wl,--defsym=_ZThn248_N5telux5audio15VoiceStreamImplD1Ev=so_stub_for_libtelux_audio
-Wl,--defsym=_ZThn24_N5telux5audio14PlayStreamImplD0Ev=so_stub_for_libtelux_audio
-Wl,--defsym=_ZThn24_N5telux5audio14PlayStreamImplD1Ev=so_stub_for_libtelux_audio
-Wl,--defsym=_ZThn24_N5telux5audio14TranscoderImpl12onReadResultENS_6common9ErrorCodeEjjPNS0_13AudioUserDataE=so_stub_for_libtelux_audio
-Wl,--defsym=_ZThn24_N5telux5audio14TranscoderImplD0Ev=so_stub_for_libtelux_audio
-Wl,--defsym=_ZThn24_N5telux5audio14TranscoderImplD1Ev=so_stub_for_libtelux_audio
-Wl,--defsym=_ZThn24_N5telux5audio15AudioStreamImplD0Ev=so_stub_for_libtelux_audio
-Wl,--defsym=_ZThn24_N5telux5audio15AudioStreamImplD1Ev=so_stub_for_libtelux_audio
-Wl,--defsym=_ZThn24_N5telux5audio15VoiceStreamImplD0Ev=so_stub_for_libtelux_audio
-Wl,--defsym=_ZThn24_N5telux5audio15VoiceStreamImplD1Ev=so_stub_for_libtelux_audio
-Wl,--defsym=_ZThn24_N5telux5audio16AudioManagerImpl24onGetCalInitStatusResultENS_6common9ErrorCodeENS0_21CalibrationInitStatusEPv=so_stub_for_libtelux_audio
-Wl,--defsym=_ZThn24_N5telux5audio16AudioManagerImplD0Ev=so_stub_for_libtelux_audio
-Wl,--defsym=_ZThn24_N5telux5audio16AudioManagerImplD1Ev=so_stub_for_libtelux_audio
-Wl,--defsym=_ZThn24_N5telux5audio17CaptureStreamImplD0Ev=so_stub_for_libtelux_audio
-Wl,--defsym=_ZThn24_N5telux5audio17CaptureStreamImplD1Ev=so_stub_for_libtelux_audio
-Wl,--defsym=_ZThn24_N5telux5audio18LoopbackStreamImplD0Ev=so_stub_for_libtelux_audio
-Wl,--defsym=_ZThn24_N5telux5audio18LoopbackStreamImplD1Ev=so_stub_for_libtelux_audio
-Wl,--defsym=_ZThn24_N5telux5audio23ToneGeneratorStreamImplD0Ev=so_stub_for_libtelux_audio
-Wl,--defsym=_ZThn24_N5telux5audio23ToneGeneratorStreamImplD1Ev=so_stub_for_libtelux_audio
-Wl,--defsym=_ZThn256_N5telux5audio14PlayStreamImpl11onDrainDoneEj=so_stub_for_libtelux_audio
-Wl,--defsym=_ZThn256_N5telux5audio14PlayStreamImpl12onWriteReadyEj=so_stub_for_libtelux_audio
-Wl,--defsym=_ZThn256_N5telux5audio14PlayStreamImplD0Ev=so_stub_for_libtelux_audio
-Wl,--defsym=_ZThn256_N5telux5audio14PlayStreamImplD1Ev=so_stub_for_libtelux_audio
-Wl,--defsym=_ZThn256_N5telux5audio15VoiceStreamImpl26onIndicationRegisterResultENS_6common9ErrorCodeEjPv=so_stub_for_libtelux_audio
-Wl,--defsym=_ZThn256_N5telux5audio15VoiceStreamImpl28onIndicationDeRegisterResultENS_6common9ErrorCodeEjPv=so_stub_for_libtelux_audio
-Wl,--defsym=_ZThn256_N5telux5audio15VoiceStreamImplD0Ev=so_stub_for_libtelux_audio
-Wl,--defsym=_ZThn256_N5telux5audio15VoiceStreamImplD1Ev=so_stub_for_libtelux_audio
-Wl,--defsym=_ZThn264_N5telux5audio15VoiceStreamImpl18onDtmfToneDetectedEjNS0_8DtmfToneE=so_stub_for_libtelux_audio
-Wl,--defsym=_ZThn264_N5telux5audio15VoiceStreamImplD0Ev=so_stub_for_libtelux_audio
-Wl,--defsym=_ZThn264_N5telux5audio15VoiceStreamImplD1Ev=so_stub_for_libtelux_audio
-Wl,--defsym=_ZThn32_N5telux5audio14PlayStreamImplD0Ev=so_stub_for_libtelux_audio
-Wl,--defsym=_ZThn32_N5telux5audio14PlayStreamImplD1Ev=so_stub_for_libtelux_audio
-Wl,--defsym=_ZThn32_N5telux5audio14TranscoderImpl11onDrainDoneEj=so_stub_for_libtelux_audio
-Wl,--defsym=_ZThn32_N5telux5audio14TranscoderImpl12onWriteReadyEj=so_stub_for_libtelux_audio
-Wl,--defsym=_ZThn32_N5telux5audio14TranscoderImplD0Ev=so_stub_for_libtelux_audio
-Wl,--defsym=_ZThn32_N5telux5audio14TranscoderImplD1Ev=so_stub_for_libtelux_audio
-Wl,--defsym=_ZThn32_N5telux5audio16AudioManagerImpl20onCreateStreamResultENS_6common9ErrorCodeENS0_17CreatedStreamInfoEPv=so_stub_for_libtelux_audio
-Wl,--defsym=_ZThn32_N5telux5audio16AudioManagerImplD0Ev=so_stub_for_libtelux_audio
-Wl,--defsym=_ZThn32_N5telux5audio16AudioManagerImplD1Ev=so_stub_for_libtelux_audio
-Wl,--defsym=_ZThn32_N5telux5audio17CaptureStreamImplD0Ev=so_stub_for_libtelux_audio
-Wl,--defsym=_ZThn32_N5telux5audio17CaptureStreamImplD1Ev=so_stub_for_libtelux_audio
-Wl,--defsym=_ZThn32_N5telux5audio18LoopbackStreamImplD0Ev=so_stub_for_libtelux_audio
-Wl,--defsym=_ZThn32_N5telux5audio18LoopbackStreamImplD1Ev=so_stub_for_libtelux_audio
-Wl,--defsym=_ZThn32_N5telux5audio23ToneGeneratorStreamImplD0Ev=so_stub_for_libtelux_audio
-Wl,--defsym=_ZThn32_N5telux5audio23ToneGeneratorStreamImplD1Ev=so_stub_for_libtelux_audio
-Wl,--defsym=_ZThn40_N5telux5audio16AudioManagerImpl20onDeleteStreamResultENS_6common9ErrorCodeEjPv=so_stub_for_libtelux_audio
-Wl,--defsym=_ZThn40_N5telux5audio16AudioManagerImplD0Ev=so_stub_for_libtelux_audio
-Wl,--defsym=_ZThn40_N5telux5audio16AudioManagerImplD1Ev=so_stub_for_libtelux_audio
-Wl,--defsym=_ZThn48_N5telux5audio16AudioManagerImpl24onCreateTranscoderResultENS_6common9ErrorCodeENS0_21CreatedTranscoderInfoEPv=so_stub_for_libtelux_audio
-Wl,--defsym=_ZThn48_N5telux5audio16AudioManagerImplD0Ev=so_stub_for_libtelux_audio
-Wl,--defsym=_ZThn48_N5telux5audio16AudioManagerImplD1Ev=so_stub_for_libtelux_audio
-Wl,--defsym=_ZThn56_N5telux5audio16AudioManagerImpl13onQ6SSRUpdateENS_6common13ServiceStatusE=so_stub_for_libtelux_audio
-Wl,--defsym=_ZThn56_N5telux5audio16AudioManagerImpl23onTransportStatusUpdateENS_6common13ServiceStatusE=so_stub_for_libtelux_audio
-Wl,--defsym=_ZThn56_N5telux5audio16AudioManagerImplD0Ev=so_stub_for_libtelux_audio
-Wl,--defsym=_ZThn56_N5telux5audio16AudioManagerImplD1Ev=so_stub_for_libtelux_audio
-Wl,--defsym=_ZThn8_N5telux5audio14PlayStreamImplD0Ev=so_stub_for_libtelux_audio
-Wl,--defsym=_ZThn8_N5telux5audio14PlayStreamImplD1Ev=so_stub_for_libtelux_audio
-Wl,--defsym=_ZThn8_N5telux5audio14TranscoderImpl24onDeleteTranscoderResultENS_6common9ErrorCodeEjjPv=so_stub_for_libtelux_audio
-Wl,--defsym=_ZThn8_N5telux5audio14TranscoderImplD0Ev=so_stub_for_libtelux_audio
-Wl,--defsym=_ZThn8_N5telux5audio14TranscoderImplD1Ev=so_stub_for_libtelux_audio
-Wl,--defsym=_ZThn8_N5telux5audio15AudioPlayerImpl13onPlayStoppedEv=so_stub_for_libtelux_audio
-Wl,--defsym=_ZThn8_N5telux5audio15AudioPlayerImpl15onReadyForWriteEv=so_stub_for_libtelux_audio
-Wl,--defsym=_ZThn8_N5telux5audio15AudioPlayerImplD0Ev=so_stub_for_libtelux_audio
-Wl,--defsym=_ZThn8_N5telux5audio15AudioPlayerImplD1Ev=so_stub_for_libtelux_audio
-Wl,--defsym=_ZThn8_N5telux5audio15AudioStreamImpl17onGetVolumeResultENS_6common9ErrorCodeEjNS0_12StreamVolumeEPv=so_stub_for_libtelux_audio
-Wl,--defsym=_ZThn8_N5telux5audio15AudioStreamImpl17onSetVolumeResultENS_6common9ErrorCodeEjPv=so_stub_for_libtelux_audio
-Wl,--defsym=_ZThn8_N5telux5audio15AudioStreamImplD0Ev=so_stub_for_libtelux_audio
-Wl,--defsym=_ZThn8_N5telux5audio15AudioStreamImplD1Ev=so_stub_for_libtelux_audio
-Wl,--defsym=_ZThn8_N5telux5audio15VoiceStreamImplD0Ev=so_stub_for_libtelux_audio
-Wl,--defsym=_ZThn8_N5telux5audio15VoiceStreamImplD1Ev=so_stub_for_libtelux_audio
-Wl,--defsym=_ZThn8_N5telux5audio16AudioManagerImpl18onGetDevicesResultENS_6common9ErrorCodeESt6vectorINS0_10DeviceTypeESaIS5_EES4_INS0_15DeviceDirectionESaIS8_EEPv=so_stub_for_libtelux_audio
-Wl,--defsym=_ZThn8_N5telux5audio16AudioManagerImplD0Ev=so_stub_for_libtelux_audio
-Wl,--defsym=_ZThn8_N5telux5audio16AudioManagerImplD1Ev=so_stub_for_libtelux_audio
-Wl,--defsym=_ZThn8_N5telux5audio16StreamBufferImplD0Ev=so_stub_for_libtelux_audio
-Wl,--defsym=_ZThn8_N5telux5audio16StreamBufferImplD1Ev=so_stub_for_libtelux_audio
-Wl,--defsym=_ZThn8_N5telux5audio17CaptureStreamImplD0Ev=so_stub_for_libtelux_audio
-Wl,--defsym=_ZThn8_N5telux5audio17CaptureStreamImplD1Ev=so_stub_for_libtelux_audio
-Wl,--defsym=_ZThn8_N5telux5audio18LoopbackStreamImplD0Ev=so_stub_for_libtelux_audio
-Wl,--defsym=_ZThn8_N5telux5audio18LoopbackStreamImplD1Ev=so_stub_for_libtelux_audio
-Wl,--defsym=_ZThn8_N5telux5audio23ToneGeneratorStreamImplD0Ev=so_stub_for_libtelux_audio
-Wl,--defsym=_ZThn8_N5telux5audio23ToneGeneratorStreamImplD1Ev=so_stub_for_libtelux_audio
-Wl,--defsym=_ZTIN5telux5audio11ITranscoderE=so_stub_for_libtelux_audio
-Wl,--defsym=_ZTIN5telux5audio12AudioFactoryE=so_stub_for_libtelux_audio
-Wl,--defsym=_ZTIN5telux5audio12IAudioBufferE=so_stub_for_libtelux_audio
-Wl,--defsym=_ZTIN5telux5audio12IAudioDeviceE=so_stub_for_libtelux_audio
-Wl,--defsym=_ZTIN5telux5audio12IAudioPlayerE=so_stub_for_libtelux_audio
-Wl,--defsym=_ZTIN5telux5audio12IAudioStreamE=so_stub_for_libtelux_audio
-Wl,--defsym=_ZTIN5telux5audio13IAudioManagerE=so_stub_for_libtelux_audio
-Wl,--defsym=_ZTIN5telux5audio13IGetDevicesCbE=so_stub_for_libtelux_audio
-Wl,--defsym=_ZTIN5telux5audio13IGetStreamsCbE=so_stub_for_libtelux_audio
-Wl,--defsym=_ZTIN5telux5audio13IIndicationCbE=so_stub_for_libtelux_audio
-Wl,--defsym=_ZTIN5telux5audio13IPlayListenerE=so_stub_for_libtelux_audio
-Wl,--defsym=_ZTIN5telux5audio13ISetGetMuteCbE=so_stub_for_libtelux_audio
-Wl,--defsym=_ZTIN5telux5audio13IStopStreamCbE=so_stub_for_libtelux_audio
-Wl,--defsym=_ZTIN5telux5audio13IStreamBufferE=so_stub_for_libtelux_audio
-Wl,--defsym=_ZTIN5telux5audio14IAudioListenerE=so_stub_for_libtelux_audio
-Wl,--defsym=_ZTIN5telux5audio14IStartStreamCbE=so_stub_for_libtelux_audio
-Wl,--defsym=_ZTIN5telux5audio14IVoiceListenerE=so_stub_for_libtelux_audio
-Wl,--defsym=_ZTIN5telux5audio14PlayStreamImplE=so_stub_for_libtelux_audio
-Wl,--defsym=_ZTIN5telux5audio14TranscoderImplE=so_stub_for_libtelux_audio
-Wl,--defsym=_ZTIN5telux5audio15AudioBufferImplE=so_stub_for_libtelux_audio
-Wl,--defsym=_ZTIN5telux5audio15AudioDeviceImplE=so_stub_for_libtelux_audio
-Wl,--defsym=_ZTIN5telux5audio15AudioPlayerImplE=so_stub_for_libtelux_audio
-Wl,--defsym=_ZTIN5telux5audio15AudioStreamImplE=so_stub_for_libtelux_audio
-Wl,--defsym=_ZTIN5telux5audio15ICreateStreamCbE=so_stub_for_libtelux_audio
-Wl,--defsym=_ZTIN5telux5audio15IDeleteStreamCbE=so_stub_for_libtelux_audio
-Wl,--defsym=_ZTIN5telux5audio15ISetGetDeviceCbE=so_stub_for_libtelux_audio
-Wl,--defsym=_ZTIN5telux5audio15ISetGetVolumeCbE=so_stub_for_libtelux_audio
-Wl,--defsym=_ZTIN5telux5audio15VoiceStreamImplE=so_stub_for_libtelux_audio
-Wl,--defsym=_ZTIN5telux5audio16AudioFactoryImplE=so_stub_for_libtelux_audio
-Wl,--defsym=_ZTIN5telux5audio16AudioManagerImplE=so_stub_for_libtelux_audio
-Wl,--defsym=_ZTIN5telux5audio16IAudioPlayStreamE=so_stub_for_libtelux_audio
-Wl,--defsym=_ZTIN5telux5audio16StreamBufferImplE=so_stub_for_libtelux_audio
-Wl,--defsym=_ZTIN5telux5audio17CaptureStreamImplE=so_stub_for_libtelux_audio
-Wl,--defsym=_ZTIN5telux5audio17IAudioVoiceStreamE=so_stub_for_libtelux_audio
-Wl,--defsym=_ZTIN5telux5audio18ITranscodeCreateCbE=so_stub_for_libtelux_audio
-Wl,--defsym=_ZTIN5telux5audio18ITranscodeDeleteCbE=so_stub_for_libtelux_audio
-Wl,--defsym=_ZTIN5telux5audio18ITranscodeListenerE=so_stub_for_libtelux_audio
-Wl,--defsym=_ZTIN5telux5audio18LoopbackStreamImplE=so_stub_for_libtelux_audio
-Wl,--defsym=_ZTIN5telux5audio19IAudioCaptureStreamE=so_stub_for_libtelux_audio
-Wl,--defsym=_ZTIN5telux5audio19IGetCalInitStatusCbE=so_stub_for_libtelux_audio
-Wl,--defsym=_ZTIN5telux5audio19IPlayStreamEventsCbE=so_stub_for_libtelux_audio
-Wl,--defsym=_ZTIN5telux5audio20IAudioLoopbackStreamE=so_stub_for_libtelux_audio
-Wl,--defsym=_ZTIN5telux5audio20IVoiceStreamEventsCbE=so_stub_for_libtelux_audio
-Wl,--defsym=_ZTIN5telux5audio22IServiceStatusEventsCbE=so_stub_for_libtelux_audio
-Wl,--defsym=_ZTIN5telux5audio23ToneGeneratorStreamImplE=so_stub_for_libtelux_audio
-Wl,--defsym=_ZTIN5telux5audio25IAudioToneGeneratorStreamE=so_stub_for_libtelux_audio
-Wl,--defsym=_ZTIN5telux5audio7IDTMFCbE=so_stub_for_libtelux_audio
-Wl,--defsym=_ZTIN5telux5audio7IReadCbE=so_stub_for_libtelux_audio
-Wl,--defsym=_ZTIN5telux5audio7IToneCbE=so_stub_for_libtelux_audio
-Wl,--defsym=_ZTIN5telux5audio8IDrainCbE=so_stub_for_libtelux_audio
-Wl,--defsym=_ZTIN5telux5audio8IFlushCbE=so_stub_for_libtelux_audio
-Wl,--defsym=_ZTIN5telux5audio8IWriteCbE=so_stub_for_libtelux_audio
-Wl,--defsym=_ZTIN5telux6common12ISDKListenerE=so_stub_for_libtelux_audio
-Wl,--defsym=_ZTIN5telux6common13FactoryHelperE=so_stub_for_libtelux_audio
-Wl,--defsym=_ZTIN5telux6common14SharedFromThisE=so_stub_for_libtelux_audio
-Wl,--defsym=_ZTIN5telux6common16ICommandCallbackE=so_stub_for_libtelux_audio
-Wl,--defsym=_ZTIN5telux6common18FunctionalCallbackIJNS0_9ErrorCodeEEEE=so_stub_for_libtelux_audio
-Wl,--defsym=_ZTIN5telux6common18FunctionalCallbackIJNS_5audio10StreamMuteENS0_9ErrorCodeEEEE=so_stub_for_libtelux_audio
-Wl,--defsym=_ZTIN5telux6common18FunctionalCallbackIJNS_5audio12StreamVolumeENS0_9ErrorCodeEEEE=so_stub_for_libtelux_audio
-Wl,--defsym=_ZTIN5telux6common18FunctionalCallbackIJNS_5audio21CalibrationInitStatusENS0_9ErrorCodeEEEE=so_stub_for_libtelux_audio
-Wl,--defsym=_ZTIN5telux6common18FunctionalCallbackIJRSt10shared_ptrINS_5audio11ITranscoderEENS0_9ErrorCodeEEEE=so_stub_for_libtelux_audio
-Wl,--defsym=_ZTIN5telux6common18FunctionalCallbackIJRSt10shared_ptrINS_5audio12IAudioStreamEENS0_9ErrorCodeEEEE=so_stub_for_libtelux_audio
-Wl,--defsym=_ZTIN5telux6common18FunctionalCallbackIJSt10shared_ptrINS_5audio12IAudioBufferEEjNS0_9ErrorCodeEEEE=so_stub_for_libtelux_audio
-Wl,--defsym=_ZTIN5telux6common18FunctionalCallbackIJSt10shared_ptrINS_5audio13IStreamBufferEEjNS0_9ErrorCodeEEEE=so_stub_for_libtelux_audio
-Wl,--defsym=_ZTIN5telux6common18FunctionalCallbackIJSt10shared_ptrINS_5audio13IStreamBufferEENS0_9ErrorCodeEEEE=so_stub_for_libtelux_audio
-Wl,--defsym=_ZTIN5telux6common18FunctionalCallbackIJSt6vectorINS_5audio10DeviceTypeESaIS4_EENS0_9ErrorCodeEEEE=so_stub_for_libtelux_audio
-Wl,--defsym=_ZTIN5telux6common18FunctionalCallbackIJSt6vectorINS_5audio10StreamTypeESaIS4_EENS0_9ErrorCodeEEEE=so_stub_for_libtelux_audio
-Wl,--defsym=_ZTIN5telux6common18FunctionalCallbackIJSt6vectorISt10shared_ptrINS_5audio12IAudioDeviceEESaIS6_EENS0_9ErrorCodeEEEE=so_stub_for_libtelux_audio
-Wl,--defsym=_ZTIN5telux6common22IServiceStatusListenerE=so_stub_for_libtelux_audio
-Wl,--defsym=_ZTIN5telux6common35enable_inheritable_shared_from_thisINS_5audio15AudioStreamImplEEE=so_stub_for_libtelux_audio
-Wl,--defsym=_ZTINSt13__future_base13_State_baseV2E=so_stub_for_libtelux_audio
-Wl,--defsym=_ZTINSt13__future_base21_Async_state_commonV2E=so_stub_for_libtelux_audio
-Wl,--defsym=_ZTINSt13__future_base7_ResultIbEE=so_stub_for_libtelux_audio
-Wl,--defsym=_ZTINSt13__future_base7_ResultIvEE=so_stub_for_libtelux_audio
-Wl,--defsym=_ZTINSt6thread11_State_implINS_8_InvokerISt5tupleIJMN5telux6common14AsyncTaskQueueIvEEFvvEPS6_EEEEEE=so_stub_for_libtelux_audio
-Wl,--defsym=_ZTINSt6thread11_State_implINS_8_InvokerISt5tupleIJZN5telux6common13FactoryHelper10getManagerINS3_5audio13IAudioManagerEEESt10shared_ptrIT_ENSt7__cxx1112basic_stringIcSt11char_traitsIcESaIcEEERSt8weak_ptrISA_ERSt6vectorISt8functionIFvNS4_13ServiceStatusEEESaISP_EESP_SM_IFSB_SP_EEEUlvE_EEEEEE=so_stub_for_libtelux_audio
-Wl,--defsym=_ZTISt11_Mutex_baseILN9__gnu_cxx12_Lock_policyE2EE=so_stub_for_libtelux_audio
-Wl,--defsym=_ZTISt16_Sp_counted_baseILN9__gnu_cxx12_Lock_policyE2EE=so_stub_for_libtelux_audio
-Wl,--defsym=_ZTISt17_Weak_result_typeIMN5telux5audio15AudioPlayerImplEFvNS0_6common9ErrorCodeEEE=so_stub_for_libtelux_audio
-Wl,--defsym=_ZTISt17_Weak_result_typeIMN5telux5audio15AudioPlayerImplEFvRSt10shared_ptrINS1_12IAudioStreamEENS0_6common9ErrorCodeEEE=so_stub_for_libtelux_audio
-Wl,--defsym=_ZTISt17_Weak_result_typeIMN5telux5audio15AudioPlayerImplEFvSt10shared_ptrINS1_13IStreamBufferEEjNS0_6common9ErrorCodeEEE=so_stub_for_libtelux_audio
-Wl,--defsym=_ZTISt17_Weak_result_typeIMN5telux5audio16AudioFactoryImplEFvNS0_6common13ServiceStatusEEE=so_stub_for_libtelux_audio
-Wl,--defsym=_ZTISt17_Weak_result_typeIMN5telux5audio23SetMuteResponseListenerEFvNS0_6common9ErrorCodeEEE=so_stub_for_libtelux_audio
-Wl,--defsym=_ZTISt17_Weak_result_typeIMN5telux5audio25GetDeviceResponseListenerEFvSt6vectorINS1_10DeviceTypeESaIS4_EENS0_6common9ErrorCodeEEE=so_stub_for_libtelux_audio
-Wl,--defsym=_ZTISt17_Weak_result_typeIMN5telux5audio25GetVolumeResponseListenerEFvNS1_12StreamVolumeENS0_6common9ErrorCodeEEE=so_stub_for_libtelux_audio
-Wl,--defsym=_ZTISt17_Weak_result_typeIMN5telux5audio25SetDeviceResponseListenerEFvNS0_6common9ErrorCodeEEE=so_stub_for_libtelux_audio
-Wl,--defsym=_ZTISt17_Weak_result_typeIMN5telux5audio25SetVolumeResponseListenerEFvNS0_6common9ErrorCodeEEE=so_stub_for_libtelux_audio
-Wl,--defsym=_ZTISt23enable_shared_from_thisIN5telux5audio14TranscoderImplEE=so_stub_for_libtelux_audio
-Wl,--defsym=_ZTISt23enable_shared_from_thisIN5telux5audio15AudioDeviceImplEE=so_stub_for_libtelux_audio
-Wl,--defsym=_ZTISt23enable_shared_from_thisIN5telux5audio15AudioPlayerImplEE=so_stub_for_libtelux_audio
-Wl,--defsym=_ZTISt23enable_shared_from_thisIN5telux5audio16AudioManagerImplEE=so_stub_for_libtelux_audio
-Wl,--defsym=_ZTISt23enable_shared_from_thisIN5telux6common14SharedFromThisEE=so_stub_for_libtelux_audio
-Wl,--defsym=_ZTISt23_Sp_counted_ptr_inplaceIN5telux5audio14PlayStreamImplESaIS2_ELN9__gnu_cxx12_Lock_policyE2EE=so_stub_for_libtelux_audio
-Wl,--defsym=_ZTISt23_Sp_counted_ptr_inplaceIN5telux5audio14TranscoderImplESaIS2_ELN9__gnu_cxx12_Lock_policyE2EE=so_stub_for_libtelux_audio
-Wl,--defsym=_ZTISt23_Sp_counted_ptr_inplaceIN5telux5audio15AudioBufferImplESaIS2_ELN9__gnu_cxx12_Lock_policyE2EE=so_stub_for_libtelux_audio
-Wl,--defsym=_ZTISt23_Sp_counted_ptr_inplaceIN5telux5audio15AudioDeviceImplESaIS2_ELN9__gnu_cxx12_Lock_policyE2EE=so_stub_for_libtelux_audio
-Wl,--defsym=_ZTISt23_Sp_counted_ptr_inplaceIN5telux5audio15AudioPlayerImplESaIS2_ELN9__gnu_cxx12_Lock_policyE2EE=so_stub_for_libtelux_audio
-Wl,--defsym=_ZTISt23_Sp_counted_ptr_inplaceIN5telux5audio15VoiceStreamImplESaIS2_ELN9__gnu_cxx12_Lock_policyE2EE=so_stub_for_libtelux_audio
-Wl,--defsym=_ZTISt23_Sp_counted_ptr_inplaceIN5telux5audio16AudioManagerImplESaIS2_ELN9__gnu_cxx12_Lock_policyE2EE=so_stub_for_libtelux_audio
-Wl,--defsym=_ZTISt23_Sp_counted_ptr_inplaceIN5telux5audio16StreamBufferImplESaIS2_ELN9__gnu_cxx12_Lock_policyE2EE=so_stub_for_libtelux_audio
-Wl,--defsym=_ZTISt23_Sp_counted_ptr_inplaceIN5telux5audio17CaptureStreamImplESaIS2_ELN9__gnu_cxx12_Lock_policyE2EE=so_stub_for_libtelux_audio
-Wl,--defsym=_ZTISt23_Sp_counted_ptr_inplaceIN5telux5audio18LoopbackStreamImplESaIS2_ELN9__gnu_cxx12_Lock_policyE2EE=so_stub_for_libtelux_audio
-Wl,--defsym=_ZTISt23_Sp_counted_ptr_inplaceIN5telux5audio23ToneGeneratorStreamImplESaIS2_ELN9__gnu_cxx12_Lock_policyE2EE=so_stub_for_libtelux_audio
-Wl,--defsym=_ZTISt23_Sp_counted_ptr_inplaceIN5telux6common15ListenerManagerESaIS2_ELN9__gnu_cxx12_Lock_policyE2EE=so_stub_for_libtelux_audio
-Wl,--defsym=_ZTISt23_Sp_counted_ptr_inplaceIN5telux6common18FunctionalCallbackIJNS0_5audio10StreamMuteENS1_9ErrorCodeEEEESaIS6_ELN9__gnu_cxx12_Lock_policyE2EE=so_stub_for_libtelux_audio
-Wl,--defsym=_ZTISt23_Sp_counted_ptr_inplaceIN5telux6common18FunctionalCallbackIJNS0_5audio12StreamVolumeENS1_9ErrorCodeEEEESaIS6_ELN9__gnu_cxx12_Lock_policyE2EE=so_stub_for_libtelux_audio
-Wl,--defsym=_ZTISt23_Sp_counted_ptr_inplaceIN5telux6common18FunctionalCallbackIJNS0_5audio21CalibrationInitStatusENS1_9ErrorCodeEEEESaIS6_ELN9__gnu_cxx12_Lock_policyE2EE=so_stub_for_libtelux_audio
-Wl,--defsym=_ZTISt23_Sp_counted_ptr_inplaceIN5telux6common18FunctionalCallbackIJNS1_9ErrorCodeEEEESaIS4_ELN9__gnu_cxx12_Lock_policyE2EE=so_stub_for_libtelux_audio
-Wl,--defsym=_ZTISt23_Sp_counted_ptr_inplaceIN5telux6common18FunctionalCallbackIJRSt10shared_ptrINS0_5audio11ITranscoderEENS1_9ErrorCodeEEEESaIS9_ELN9__gnu_cxx12_Lock_policyE2EE=so_stub_for_libtelux_audio
-Wl,--defsym=_ZTISt23_Sp_counted_ptr_inplaceIN5telux6common18FunctionalCallbackIJRSt10shared_ptrINS0_5audio12IAudioStreamEENS1_9ErrorCodeEEEESaIS9_ELN9__gnu_cxx12_Lock_policyE2EE=so_stub_for_libtelux_audio
-Wl,--defsym=_ZTISt23_Sp_counted_ptr_inplaceIN5telux6common18FunctionalCallbackIJSt10shared_ptrINS0_5audio12IAudioBufferEEjNS1_9ErrorCodeEEEESaIS8_ELN9__gnu_cxx12_Lock_policyE2EE=so_stub_for_libtelux_audio
-Wl,--defsym=_ZTISt23_Sp_counted_ptr_inplaceIN5telux6common18FunctionalCallbackIJSt10shared_ptrINS0_5audio13IStreamBufferEEjNS1_9ErrorCodeEEEESaIS8_ELN9__gnu_cxx12_Lock_policyE2EE=so_stub_for_libtelux_audio
-Wl,--defsym=_ZTISt23_Sp_counted_ptr_inplaceIN5telux6common18FunctionalCallbackIJSt10shared_ptrINS0_5audio13IStreamBufferEENS1_9ErrorCodeEEEESaIS8_ELN9__gnu_cxx12_Lock_policyE2EE=so_stub_for_libtelux_audio
-Wl,--defsym=_ZTISt23_Sp_counted_ptr_inplaceIN5telux6common18FunctionalCallbackIJSt6vectorINS0_5audio10DeviceTypeESaIS5_EENS1_9ErrorCodeEEEESaIS9_ELN9__gnu_cxx12_Lock_policyE2EE=so_stub_for_libtelux_audio
-Wl,--defsym=_ZTISt23_Sp_counted_ptr_inplaceIN5telux6common18FunctionalCallbackIJSt6vectorINS0_5audio10StreamTypeESaIS5_EENS1_9ErrorCodeEEEESaIS9_ELN9__gnu_cxx12_Lock_policyE2EE=so_stub_for_libtelux_audio
-Wl,--defsym=_ZTISt23_Sp_counted_ptr_inplaceIN5telux6common18FunctionalCallbackIJSt6vectorISt10shared_ptrINS0_5audio12IAudioDeviceEESaIS7_EENS1_9ErrorCodeEEEESaISB_ELN9__gnu_cxx12_Lock_policyE2EE=so_stub_for_libtelux_audio
-Wl,--defsym=_ZTISt23_Sp_counted_ptr_inplaceISt6threadSaIS0_ELN9__gnu_cxx12_Lock_policyE2EE=so_stub_for_libtelux_audio
-Wl,--defsym=_ZTISt24_Weak_result_type_memfunIMN5telux5audio15AudioPlayerImplEFvNS0_6common9ErrorCodeEELb1EE=so_stub_for_libtelux_audio
-Wl,--defsym=_ZTISt24_Weak_result_type_memfunIMN5telux5audio15AudioPlayerImplEFvRSt10shared_ptrINS1_12IAudioStreamEENS0_6common9ErrorCodeEELb1EE=so_stub_for_libtelux_audio
-Wl,--defsym=_ZTISt24_Weak_result_type_memfunIMN5telux5audio15AudioPlayerImplEFvSt10shared_ptrINS1_13IStreamBufferEEjNS0_6common9ErrorCodeEELb1EE=so_stub_for_libtelux_audio
-Wl,--defsym=_ZTISt24_Weak_result_type_memfunIMN5telux5audio16AudioFactoryImplEFvNS0_6common13ServiceStatusEELb1EE=so_stub_for_libtelux_audio
-Wl,--defsym=_ZTISt24_Weak_result_type_memfunIMN5telux5audio23SetMuteResponseListenerEFvNS0_6common9ErrorCodeEELb1EE=so_stub_for_libtelux_audio
-Wl,--defsym=_ZTISt24_Weak_result_type_memfunIMN5telux5audio25GetDeviceResponseListenerEFvSt6vectorINS1_10DeviceTypeESaIS4_EENS0_6common9ErrorCodeEELb1EE=so_stub_for_libtelux_audio
-Wl,--defsym=_ZTISt24_Weak_result_type_memfunIMN5telux5audio25GetVolumeResponseListenerEFvNS1_12StreamVolumeENS0_6common9ErrorCodeEELb1EE=so_stub_for_libtelux_audio
-Wl,--defsym=_ZTISt24_Weak_result_type_memfunIMN5telux5audio25SetDeviceResponseListenerEFvNS0_6common9ErrorCodeEELb1EE=so_stub_for_libtelux_audio
-Wl,--defsym=_ZTISt24_Weak_result_type_memfunIMN5telux5audio25SetVolumeResponseListenerEFvNS0_6common9ErrorCodeEELb1EE=so_stub_for_libtelux_audio
-Wl,--defsym=_ZTISt5_BindIFMN5telux5audio15AudioPlayerImplEFvNS0_6common9ErrorCodeEEPS2_St12_PlaceholderILi1EEEE=so_stub_for_libtelux_audio
-Wl,--defsym=_ZTISt5_BindIFMN5telux5audio15AudioPlayerImplEFvRSt10shared_ptrINS1_12IAudioStreamEENS0_6common9ErrorCodeEEPS2_St12_PlaceholderILi1EESC_ILi2EEEE=so_stub_for_libtelux_audio
-Wl,--defsym=_ZTISt5_BindIFMN5telux5audio15AudioPlayerImplEFvSt10shared_ptrINS1_13IStreamBufferEEjNS0_6common9ErrorCodeEEPS2_St12_PlaceholderILi1EESB_ILi2EESB_ILi3EEEE=so_stub_for_libtelux_audio
-Wl,--defsym=_ZTISt5_BindIFMN5telux5audio16AudioFactoryImplEFvNS0_6common13ServiceStatusEEPS2_St12_PlaceholderILi1EEEE=so_stub_for_libtelux_audio
-Wl,--defsym=_ZTISt5_BindIFMN5telux5audio23SetMuteResponseListenerEFvNS0_6common9ErrorCodeEEPS2_St12_PlaceholderILi1EEEE=so_stub_for_libtelux_audio
-Wl,--defsym=_ZTISt5_BindIFMN5telux5audio25GetDeviceResponseListenerEFvSt6vectorINS1_10DeviceTypeESaIS4_EENS0_6common9ErrorCodeEEPS2_St12_PlaceholderILi1EESC_ILi2EEEE=so_stub_for_libtelux_audio
-Wl,--defsym=_ZTISt5_BindIFMN5telux5audio25GetVolumeResponseListenerEFvNS1_12StreamVolumeENS0_6common9ErrorCodeEEPS2_St12_PlaceholderILi1EES9_ILi2EEEE=so_stub_for_libtelux_audio
-Wl,--defsym=_ZTISt5_BindIFMN5telux5audio25SetDeviceResponseListenerEFvNS0_6common9ErrorCodeEEPS2_St12_PlaceholderILi1EEEE=so_stub_for_libtelux_audio
-Wl,--defsym=_ZTISt5_BindIFMN5telux5audio25SetVolumeResponseListenerEFvNS0_6common9ErrorCodeEEPS2_St12_PlaceholderILi1EEEE=so_stub_for_libtelux_audio
-Wl,--defsym=_ZTIZN5telux6common13FactoryHelper10getManagerINS_5audio13IAudioManagerEEESt10shared_ptrIT_ENSt7__cxx1112basic_stringIcSt11char_traitsIcESaIcEEERSt8weak_ptrIS6_ERSt6vectorISt8functionIFvNS0_13ServiceStatusEEESaISL_EESL_SI_IFS7_SL_EEEUlSJ_E0_=so_stub_for_libtelux_audio
-Wl,--defsym=_ZTSN5telux5audio11ITranscoderE=so_stub_for_libtelux_audio
-Wl,--defsym=_ZTSN5telux5audio12AudioFactoryE=so_stub_for_libtelux_audio
-Wl,--defsym=_ZTSN5telux5audio12IAudioBufferE=so_stub_for_libtelux_audio
-Wl,--defsym=_ZTSN5telux5audio12IAudioDeviceE=so_stub_for_libtelux_audio
-Wl,--defsym=_ZTSN5telux5audio12IAudioPlayerE=so_stub_for_libtelux_audio
-Wl,--defsym=_ZTSN5telux5audio12IAudioStreamE=so_stub_for_libtelux_audio
-Wl,--defsym=_ZTSN5telux5audio13IAudioManagerE=so_stub_for_libtelux_audio
-Wl,--defsym=_ZTSN5telux5audio13IGetDevicesCbE=so_stub_for_libtelux_audio
-Wl,--defsym=_ZTSN5telux5audio13IGetStreamsCbE=so_stub_for_libtelux_audio
-Wl,--defsym=_ZTSN5telux5audio13IIndicationCbE=so_stub_for_libtelux_audio
-Wl,--defsym=_ZTSN5telux5audio13IPlayListenerE=so_stub_for_libtelux_audio
-Wl,--defsym=_ZTSN5telux5audio13ISetGetMuteCbE=so_stub_for_libtelux_audio
-Wl,--defsym=_ZTSN5telux5audio13IStopStreamCbE=so_stub_for_libtelux_audio
-Wl,--defsym=_ZTSN5telux5audio13IStreamBufferE=so_stub_for_libtelux_audio
-Wl,--defsym=_ZTSN5telux5audio14IAudioListenerE=so_stub_for_libtelux_audio
-Wl,--defsym=_ZTSN5telux5audio14IStartStreamCbE=so_stub_for_libtelux_audio
-Wl,--defsym=_ZTSN5telux5audio14IVoiceListenerE=so_stub_for_libtelux_audio
-Wl,--defsym=_ZTSN5telux5audio14PlayStreamImplE=so_stub_for_libtelux_audio
-Wl,--defsym=_ZTSN5telux5audio14TranscoderImplE=so_stub_for_libtelux_audio
-Wl,--defsym=_ZTSN5telux5audio15AudioBufferImplE=so_stub_for_libtelux_audio
-Wl,--defsym=_ZTSN5telux5audio15AudioDeviceImplE=so_stub_for_libtelux_audio
-Wl,--defsym=_ZTSN5telux5audio15AudioPlayerImplE=so_stub_for_libtelux_audio
-Wl,--defsym=_ZTSN5telux5audio15AudioStreamImplE=so_stub_for_libtelux_audio
-Wl,--defsym=_ZTSN5telux5audio15ICreateStreamCbE=so_stub_for_libtelux_audio
-Wl,--defsym=_ZTSN5telux5audio15IDeleteStreamCbE=so_stub_for_libtelux_audio
-Wl,--defsym=_ZTSN5telux5audio15ISetGetDeviceCbE=so_stub_for_libtelux_audio
-Wl,--defsym=_ZTSN5telux5audio15ISetGetVolumeCbE=so_stub_for_libtelux_audio
-Wl,--defsym=_ZTSN5telux5audio15VoiceStreamImplE=so_stub_for_libtelux_audio
-Wl,--defsym=_ZTSN5telux5audio16AudioFactoryImplE=so_stub_for_libtelux_audio
-Wl,--defsym=_ZTSN5telux5audio16AudioManagerImplE=so_stub_for_libtelux_audio
-Wl,--defsym=_ZTSN5telux5audio16IAudioPlayStreamE=so_stub_for_libtelux_audio
-Wl,--defsym=_ZTSN5telux5audio16StreamBufferImplE=so_stub_for_libtelux_audio
-Wl,--defsym=_ZTSN5telux5audio17CaptureStreamImplE=so_stub_for_libtelux_audio
-Wl,--defsym=_ZTSN5telux5audio17IAudioVoiceStreamE=so_stub_for_libtelux_audio
-Wl,--defsym=_ZTSN5telux5audio18ITranscodeCreateCbE=so_stub_for_libtelux_audio
-Wl,--defsym=_ZTSN5telux5audio18ITranscodeDeleteCbE=so_stub_for_libtelux_audio
-Wl,--defsym=_ZTSN5telux5audio18ITranscodeListenerE=so_stub_for_libtelux_audio
-Wl,--defsym=_ZTSN5telux5audio18LoopbackStreamImplE=so_stub_for_libtelux_audio
-Wl,--defsym=_ZTSN5telux5audio19IAudioCaptureStreamE=so_stub_for_libtelux_audio
-Wl,--defsym=_ZTSN5telux5audio19IGetCalInitStatusCbE=so_stub_for_libtelux_audio
-Wl,--defsym=_ZTSN5telux5audio19IPlayStreamEventsCbE=so_stub_for_libtelux_audio
-Wl,--defsym=_ZTSN5telux5audio20IAudioLoopbackStreamE=so_stub_for_libtelux_audio
-Wl,--defsym=_ZTSN5telux5audio20IVoiceStreamEventsCbE=so_stub_for_libtelux_audio
-Wl,--defsym=_ZTSN5telux5audio22IServiceStatusEventsCbE=so_stub_for_libtelux_audio
-Wl,--defsym=_ZTSN5telux5audio23ToneGeneratorStreamImplE=so_stub_for_libtelux_audio
-Wl,--defsym=_ZTSN5telux5audio25IAudioToneGeneratorStreamE=so_stub_for_libtelux_audio
-Wl,--defsym=_ZTSN5telux5audio7IDTMFCbE=so_stub_for_libtelux_audio
-Wl,--defsym=_ZTSN5telux5audio7IReadCbE=so_stub_for_libtelux_audio
-Wl,--defsym=_ZTSN5telux5audio7IToneCbE=so_stub_for_libtelux_audio
-Wl,--defsym=_ZTSN5telux5audio8IDrainCbE=so_stub_for_libtelux_audio
-Wl,--defsym=_ZTSN5telux5audio8IFlushCbE=so_stub_for_libtelux_audio
-Wl,--defsym=_ZTSN5telux5audio8IWriteCbE=so_stub_for_libtelux_audio
-Wl,--defsym=_ZTSN5telux6common12ISDKListenerE=so_stub_for_libtelux_audio
-Wl,--defsym=_ZTSN5telux6common13FactoryHelperE=so_stub_for_libtelux_audio
-Wl,--defsym=_ZTSN5telux6common14SharedFromThisE=so_stub_for_libtelux_audio
-Wl,--defsym=_ZTSN5telux6common16ICommandCallbackE=so_stub_for_libtelux_audio
-Wl,--defsym=_ZTSN5telux6common18FunctionalCallbackIJNS0_9ErrorCodeEEEE=so_stub_for_libtelux_audio
-Wl,--defsym=_ZTSN5telux6common18FunctionalCallbackIJNS_5audio10StreamMuteENS0_9ErrorCodeEEEE=so_stub_for_libtelux_audio
-Wl,--defsym=_ZTSN5telux6common18FunctionalCallbackIJNS_5audio12StreamVolumeENS0_9ErrorCodeEEEE=so_stub_for_libtelux_audio
-Wl,--defsym=_ZTSN5telux6common18FunctionalCallbackIJNS_5audio21CalibrationInitStatusENS0_9ErrorCodeEEEE=so_stub_for_libtelux_audio
-Wl,--defsym=_ZTSN5telux6common18FunctionalCallbackIJRSt10shared_ptrINS_5audio11ITranscoderEENS0_9ErrorCodeEEEE=so_stub_for_libtelux_audio
-Wl,--defsym=_ZTSN5telux6common18FunctionalCallbackIJRSt10shared_ptrINS_5audio12IAudioStreamEENS0_9ErrorCodeEEEE=so_stub_for_libtelux_audio
-Wl,--defsym=_ZTSN5telux6common18FunctionalCallbackIJSt10shared_ptrINS_5audio12IAudioBufferEEjNS0_9ErrorCodeEEEE=so_stub_for_libtelux_audio
-Wl,--defsym=_ZTSN5telux6common18FunctionalCallbackIJSt10shared_ptrINS_5audio13IStreamBufferEEjNS0_9ErrorCodeEEEE=so_stub_for_libtelux_audio
-Wl,--defsym=_ZTSN5telux6common18FunctionalCallbackIJSt10shared_ptrINS_5audio13IStreamBufferEENS0_9ErrorCodeEEEE=so_stub_for_libtelux_audio
-Wl,--defsym=_ZTSN5telux6common18FunctionalCallbackIJSt6vectorINS_5audio10DeviceTypeESaIS4_EENS0_9ErrorCodeEEEE=so_stub_for_libtelux_audio
-Wl,--defsym=_ZTSN5telux6common18FunctionalCallbackIJSt6vectorINS_5audio10StreamTypeESaIS4_EENS0_9ErrorCodeEEEE=so_stub_for_libtelux_audio
-Wl,--defsym=_ZTSN5telux6common18FunctionalCallbackIJSt6vectorISt10shared_ptrINS_5audio12IAudioDeviceEESaIS6_EENS0_9ErrorCodeEEEE=so_stub_for_libtelux_audio
-Wl,--defsym=_ZTSN5telux6common22IServiceStatusListenerE=so_stub_for_libtelux_audio
-Wl,--defsym=_ZTSN5telux6common35enable_inheritable_shared_from_thisINS_5audio15AudioStreamImplEEE=so_stub_for_libtelux_audio
-Wl,--defsym=_ZTSNSt13__future_base13_State_baseV2E=so_stub_for_libtelux_audio
-Wl,--defsym=_ZTSNSt13__future_base21_Async_state_commonV2E=so_stub_for_libtelux_audio
-Wl,--defsym=_ZTSNSt13__future_base7_ResultIbEE=so_stub_for_libtelux_audio
-Wl,--defsym=_ZTSNSt13__future_base7_ResultIvEE=so_stub_for_libtelux_audio
-Wl,--defsym=_ZTSNSt6thread11_State_implINS_8_InvokerISt5tupleIJMN5telux6common14AsyncTaskQueueIvEEFvvEPS6_EEEEEE=so_stub_for_libtelux_audio
-Wl,--defsym=_ZTSNSt6thread11_State_implINS_8_InvokerISt5tupleIJZN5telux6common13FactoryHelper10getManagerINS3_5audio13IAudioManagerEEESt10shared_ptrIT_ENSt7__cxx1112basic_stringIcSt11char_traitsIcESaIcEEERSt8weak_ptrISA_ERSt6vectorISt8functionIFvNS4_13ServiceStatusEEESaISP_EESP_SM_IFSB_SP_EEEUlvE_EEEEEE=so_stub_for_libtelux_audio
-Wl,--defsym=_ZTSSt11_Mutex_baseILN9__gnu_cxx12_Lock_policyE2EE=so_stub_for_libtelux_audio
-Wl,--defsym=_ZTSSt16_Sp_counted_baseILN9__gnu_cxx12_Lock_policyE2EE=so_stub_for_libtelux_audio
-Wl,--defsym=_ZTSSt17_Weak_result_typeIMN5telux5audio15AudioPlayerImplEFvNS0_6common9ErrorCodeEEE=so_stub_for_libtelux_audio
-Wl,--defsym=_ZTSSt17_Weak_result_typeIMN5telux5audio15AudioPlayerImplEFvRSt10shared_ptrINS1_12IAudioStreamEENS0_6common9ErrorCodeEEE=so_stub_for_libtelux_audio
-Wl,--defsym=_ZTSSt17_Weak_result_typeIMN5telux5audio15AudioPlayerImplEFvSt10shared_ptrINS1_13IStreamBufferEEjNS0_6common9ErrorCodeEEE=so_stub_for_libtelux_audio
-Wl,--defsym=_ZTSSt17_Weak_result_typeIMN5telux5audio16AudioFactoryImplEFvNS0_6common13ServiceStatusEEE=so_stub_for_libtelux_audio
-Wl,--defsym=_ZTSSt17_Weak_result_typeIMN5telux5audio23SetMuteResponseListenerEFvNS0_6common9ErrorCodeEEE=so_stub_for_libtelux_audio
-Wl,--defsym=_ZTSSt17_Weak_result_typeIMN5telux5audio25GetDeviceResponseListenerEFvSt6vectorINS1_10DeviceTypeESaIS4_EENS0_6common9ErrorCodeEEE=so_stub_for_libtelux_audio
-Wl,--defsym=_ZTSSt17_Weak_result_typeIMN5telux5audio25GetVolumeResponseListenerEFvNS1_12StreamVolumeENS0_6common9ErrorCodeEEE=so_stub_for_libtelux_audio
-Wl,--defsym=_ZTSSt17_Weak_result_typeIMN5telux5audio25SetDeviceResponseListenerEFvNS0_6common9ErrorCodeEEE=so_stub_for_libtelux_audio
-Wl,--defsym=_ZTSSt17_Weak_result_typeIMN5telux5audio25SetVolumeResponseListenerEFvNS0_6common9ErrorCodeEEE=so_stub_for_libtelux_audio
-Wl,--defsym=_ZTSSt19_Sp_make_shared_tag=so_stub_for_libtelux_audio
-Wl,--defsym=_ZTSSt23enable_shared_from_thisIN5telux5audio14TranscoderImplEE=so_stub_for_libtelux_audio
-Wl,--defsym=_ZTSSt23enable_shared_from_thisIN5telux5audio15AudioDeviceImplEE=so_stub_for_libtelux_audio
-Wl,--defsym=_ZTSSt23enable_shared_from_thisIN5telux5audio15AudioPlayerImplEE=so_stub_for_libtelux_audio
-Wl,--defsym=_ZTSSt23enable_shared_from_thisIN5telux5audio16AudioManagerImplEE=so_stub_for_libtelux_audio
-Wl,--defsym=_ZTSSt23enable_shared_from_thisIN5telux6common14SharedFromThisEE=so_stub_for_libtelux_audio
-Wl,--defsym=_ZTSSt23_Sp_counted_ptr_inplaceIN5telux5audio14PlayStreamImplESaIS2_ELN9__gnu_cxx12_Lock_policyE2EE=so_stub_for_libtelux_audio
-Wl,--defsym=_ZTSSt23_Sp_counted_ptr_inplaceIN5telux5audio14TranscoderImplESaIS2_ELN9__gnu_cxx12_Lock_policyE2EE=so_stub_for_libtelux_audio
-Wl,--defsym=_ZTSSt23_Sp_counted_ptr_inplaceIN5telux5audio15AudioBufferImplESaIS2_ELN9__gnu_cxx12_Lock_policyE2EE=so_stub_for_libtelux_audio
-Wl,--defsym=_ZTSSt23_Sp_counted_ptr_inplaceIN5telux5audio15AudioDeviceImplESaIS2_ELN9__gnu_cxx12_Lock_policyE2EE=so_stub_for_libtelux_audio
-Wl,--defsym=_ZTSSt23_Sp_counted_ptr_inplaceIN5telux5audio15AudioPlayerImplESaIS2_ELN9__gnu_cxx12_Lock_policyE2EE=so_stub_for_libtelux_audio
-Wl,--defsym=_ZTSSt23_Sp_counted_ptr_inplaceIN5telux5audio15VoiceStreamImplESaIS2_ELN9__gnu_cxx12_Lock_policyE2EE=so_stub_for_libtelux_audio
-Wl,--defsym=_ZTSSt23_Sp_counted_ptr_inplaceIN5telux5audio16AudioManagerImplESaIS2_ELN9__gnu_cxx12_Lock_policyE2EE=so_stub_for_libtelux_audio
-Wl,--defsym=_ZTSSt23_Sp_counted_ptr_inplaceIN5telux5audio16StreamBufferImplESaIS2_ELN9__gnu_cxx12_Lock_policyE2EE=so_stub_for_libtelux_audio
-Wl,--defsym=_ZTSSt23_Sp_counted_ptr_inplaceIN5telux5audio17CaptureStreamImplESaIS2_ELN9__gnu_cxx12_Lock_policyE2EE=so_stub_for_libtelux_audio
-Wl,--defsym=_ZTSSt23_Sp_counted_ptr_inplaceIN5telux5audio18LoopbackStreamImplESaIS2_ELN9__gnu_cxx12_Lock_policyE2EE=so_stub_for_libtelux_audio
-Wl,--defsym=_ZTSSt23_Sp_counted_ptr_inplaceIN5telux5audio23ToneGeneratorStreamImplESaIS2_ELN9__gnu_cxx12_Lock_policyE2EE=so_stub_for_libtelux_audio
-Wl,--defsym=_ZTSSt23_Sp_counted_ptr_inplaceIN5telux6common15ListenerManagerESaIS2_ELN9__gnu_cxx12_Lock_policyE2EE=so_stub_for_libtelux_audio
-Wl,--defsym=_ZTSSt23_Sp_counted_ptr_inplaceIN5telux6common18FunctionalCallbackIJNS0_5audio10StreamMuteENS1_9ErrorCodeEEEESaIS6_ELN9__gnu_cxx12_Lock_policyE2EE=so_stub_for_libtelux_audio
-Wl,--defsym=_ZTSSt23_Sp_counted_ptr_inplaceIN5telux6common18FunctionalCallbackIJNS0_5audio12StreamVolumeENS1_9ErrorCodeEEEESaIS6_ELN9__gnu_cxx12_Lock_policyE2EE=so_stub_for_libtelux_audio
-Wl,--defsym=_ZTSSt23_Sp_counted_ptr_inplaceIN5telux6common18FunctionalCallbackIJNS0_5audio21CalibrationInitStatusENS1_9ErrorCodeEEEESaIS6_ELN9__gnu_cxx12_Lock_policyE2EE=so_stub_for_libtelux_audio
-Wl,--defsym=_ZTSSt23_Sp_counted_ptr_inplaceIN5telux6common18FunctionalCallbackIJNS1_9ErrorCodeEEEESaIS4_ELN9__gnu_cxx12_Lock_policyE2EE=so_stub_for_libtelux_audio
-Wl,--defsym=_ZTSSt23_Sp_counted_ptr_inplaceIN5telux6common18FunctionalCallbackIJRSt10shared_ptrINS0_5audio11ITranscoderEENS1_9ErrorCodeEEEESaIS9_ELN9__gnu_cxx12_Lock_policyE2EE=so_stub_for_libtelux_audio
-Wl,--defsym=_ZTSSt23_Sp_counted_ptr_inplaceIN5telux6common18FunctionalCallbackIJRSt10shared_ptrINS0_5audio12IAudioStreamEENS1_9ErrorCodeEEEESaIS9_ELN9__gnu_cxx12_Lock_policyE2EE=so_stub_for_libtelux_audio
-Wl,--defsym=_ZTSSt23_Sp_counted_ptr_inplaceIN5telux6common18FunctionalCallbackIJSt10shared_ptrINS0_5audio12IAudioBufferEEjNS1_9ErrorCodeEEEESaIS8_ELN9__gnu_cxx12_Lock_policyE2EE=so_stub_for_libtelux_audio
-Wl,--defsym=_ZTSSt23_Sp_counted_ptr_inplaceIN5telux6common18FunctionalCallbackIJSt10shared_ptrINS0_5audio13IStreamBufferEEjNS1_9ErrorCodeEEEESaIS8_ELN9__gnu_cxx12_Lock_policyE2EE=so_stub_for_libtelux_audio
-Wl,--defsym=_ZTSSt23_Sp_counted_ptr_inplaceIN5telux6common18FunctionalCallbackIJSt10shared_ptrINS0_5audio13IStreamBufferEENS1_9ErrorCodeEEEESaIS8_ELN9__gnu_cxx12_Lock_policyE2EE=so_stub_for_libtelux_audio
-Wl,--defsym=_ZTSSt23_Sp_counted_ptr_inplaceIN5telux6common18FunctionalCallbackIJSt6vectorINS0_5audio10DeviceTypeESaIS5_EENS1_9ErrorCodeEEEESaIS9_ELN9__gnu_cxx12_Lock_policyE2EE=so_stub_for_libtelux_audio
-Wl,--defsym=_ZTSSt23_Sp_counted_ptr_inplaceIN5telux6common18FunctionalCallbackIJSt6vectorINS0_5audio10StreamTypeESaIS5_EENS1_9ErrorCodeEEEESaIS9_ELN9__gnu_cxx12_Lock_policyE2EE=so_stub_for_libtelux_audio
-Wl,--defsym=_ZTSSt23_Sp_counted_ptr_inplaceIN5telux6common18FunctionalCallbackIJSt6vectorISt10shared_ptrINS0_5audio12IAudioDeviceEESaIS7_EENS1_9ErrorCodeEEEESaISB_ELN9__gnu_cxx12_Lock_policyE2EE=so_stub_for_libtelux_audio
-Wl,--defsym=_ZTSSt23_Sp_counted_ptr_inplaceISt6threadSaIS0_ELN9__gnu_cxx12_Lock_policyE2EE=so_stub_for_libtelux_audio
-Wl,--defsym=_ZTSSt24_Weak_result_type_memfunIMN5telux5audio15AudioPlayerImplEFvNS0_6common9ErrorCodeEELb1EE=so_stub_for_libtelux_audio
-Wl,--defsym=_ZTSSt24_Weak_result_type_memfunIMN5telux5audio15AudioPlayerImplEFvRSt10shared_ptrINS1_12IAudioStreamEENS0_6common9ErrorCodeEELb1EE=so_stub_for_libtelux_audio
-Wl,--defsym=_ZTSSt24_Weak_result_type_memfunIMN5telux5audio15AudioPlayerImplEFvSt10shared_ptrINS1_13IStreamBufferEEjNS0_6common9ErrorCodeEELb1EE=so_stub_for_libtelux_audio
-Wl,--defsym=_ZTSSt24_Weak_result_type_memfunIMN5telux5audio16AudioFactoryImplEFvNS0_6common13ServiceStatusEELb1EE=so_stub_for_libtelux_audio
-Wl,--defsym=_ZTSSt24_Weak_result_type_memfunIMN5telux5audio23SetMuteResponseListenerEFvNS0_6common9ErrorCodeEELb1EE=so_stub_for_libtelux_audio
-Wl,--defsym=_ZTSSt24_Weak_result_type_memfunIMN5telux5audio25GetDeviceResponseListenerEFvSt6vectorINS1_10DeviceTypeESaIS4_EENS0_6common9ErrorCodeEELb1EE=so_stub_for_libtelux_audio
-Wl,--defsym=_ZTSSt24_Weak_result_type_memfunIMN5telux5audio25GetVolumeResponseListenerEFvNS1_12StreamVolumeENS0_6common9ErrorCodeEELb1EE=so_stub_for_libtelux_audio
-Wl,--defsym=_ZTSSt24_Weak_result_type_memfunIMN5telux5audio25SetDeviceResponseListenerEFvNS0_6common9ErrorCodeEELb1EE=so_stub_for_libtelux_audio
-Wl,--defsym=_ZTSSt24_Weak_result_type_memfunIMN5telux5audio25SetVolumeResponseListenerEFvNS0_6common9ErrorCodeEELb1EE=so_stub_for_libtelux_audio
-Wl,--defsym=_ZTSSt5_BindIFMN5telux5audio15AudioPlayerImplEFvNS0_6common9ErrorCodeEEPS2_St12_PlaceholderILi1EEEE=so_stub_for_libtelux_audio
-Wl,--defsym=_ZTSSt5_BindIFMN5telux5audio15AudioPlayerImplEFvRSt10shared_ptrINS1_12IAudioStreamEENS0_6common9ErrorCodeEEPS2_St12_PlaceholderILi1EESC_ILi2EEEE=so_stub_for_libtelux_audio
-Wl,--defsym=_ZTSSt5_BindIFMN5telux5audio15AudioPlayerImplEFvSt10shared_ptrINS1_13IStreamBufferEEjNS0_6common9ErrorCodeEEPS2_St12_PlaceholderILi1EESB_ILi2EESB_ILi3EEEE=so_stub_for_libtelux_audio
-Wl,--defsym=_ZTSSt5_BindIFMN5telux5audio16AudioFactoryImplEFvNS0_6common13ServiceStatusEEPS2_St12_PlaceholderILi1EEEE=so_stub_for_libtelux_audio
-Wl,--defsym=_ZTSSt5_BindIFMN5telux5audio23SetMuteResponseListenerEFvNS0_6common9ErrorCodeEEPS2_St12_PlaceholderILi1EEEE=so_stub_for_libtelux_audio
-Wl,--defsym=_ZTSSt5_BindIFMN5telux5audio25GetDeviceResponseListenerEFvSt6vectorINS1_10DeviceTypeESaIS4_EENS0_6common9ErrorCodeEEPS2_St12_PlaceholderILi1EESC_ILi2EEEE=so_stub_for_libtelux_audio
-Wl,--defsym=_ZTSSt5_BindIFMN5telux5audio25GetVolumeResponseListenerEFvNS1_12StreamVolumeENS0_6common9ErrorCodeEEPS2_St12_PlaceholderILi1EES9_ILi2EEEE=so_stub_for_libtelux_audio
-Wl,--defsym=_ZTSSt5_BindIFMN5telux5audio25SetDeviceResponseListenerEFvNS0_6common9ErrorCodeEEPS2_St12_PlaceholderILi1EEEE=so_stub_for_libtelux_audio
-Wl,--defsym=_ZTSSt5_BindIFMN5telux5audio25SetVolumeResponseListenerEFvNS0_6common9ErrorCodeEEPS2_St12_PlaceholderILi1EEEE=so_stub_for_libtelux_audio
-Wl,--defsym=_ZTSZN5telux6common13FactoryHelper10getManagerINS_5audio13IAudioManagerEEESt10shared_ptrIT_ENSt7__cxx1112basic_stringIcSt11char_traitsIcESaIcEEERSt8weak_ptrIS6_ERSt6vectorISt8functionIFvNS0_13ServiceStatusEEESaISL_EESL_SI_IFS7_SL_EEEUlSJ_E0_=so_stub_for_libtelux_audio
-Wl,--defsym=_ZTTN5telux5audio14PlayStreamImplE=so_stub_for_libtelux_audio
-Wl,--defsym=_ZTTN5telux5audio15AudioBufferImplE=so_stub_for_libtelux_audio
-Wl,--defsym=_ZTTN5telux5audio15AudioPlayerImplE=so_stub_for_libtelux_audio
-Wl,--defsym=_ZTTN5telux5audio15AudioStreamImplE=so_stub_for_libtelux_audio
-Wl,--defsym=_ZTTN5telux5audio15VoiceStreamImplE=so_stub_for_libtelux_audio
-Wl,--defsym=_ZTTN5telux5audio16StreamBufferImplE=so_stub_for_libtelux_audio
-Wl,--defsym=_ZTTN5telux5audio17CaptureStreamImplE=so_stub_for_libtelux_audio
-Wl,--defsym=_ZTTN5telux5audio18LoopbackStreamImplE=so_stub_for_libtelux_audio
-Wl,--defsym=_ZTTN5telux5audio23ToneGeneratorStreamImplE=so_stub_for_libtelux_audio
-Wl,--defsym=_ZTv0_n24_N5telux5audio14PlayStreamImplD0Ev=so_stub_for_libtelux_audio
-Wl,--defsym=_ZTv0_n24_N5telux5audio14PlayStreamImplD1Ev=so_stub_for_libtelux_audio
-Wl,--defsym=_ZTv0_n24_N5telux5audio15AudioBufferImpl10getMinSizeEv=so_stub_for_libtelux_audio
-Wl,--defsym=_ZTv0_n24_N5telux5audio15AudioPlayerImplD0Ev=so_stub_for_libtelux_audio
-Wl,--defsym=_ZTv0_n24_N5telux5audio15AudioPlayerImplD1Ev=so_stub_for_libtelux_audio
-Wl,--defsym=_ZTv0_n24_N5telux5audio15AudioStreamImpl7getTypeEv=so_stub_for_libtelux_audio
-Wl,--defsym=_ZTv0_n24_N5telux5audio15AudioStreamImplD0Ev=so_stub_for_libtelux_audio
-Wl,--defsym=_ZTv0_n24_N5telux5audio15AudioStreamImplD1Ev=so_stub_for_libtelux_audio
-Wl,--defsym=_ZTv0_n24_N5telux5audio15VoiceStreamImplD0Ev=so_stub_for_libtelux_audio
-Wl,--defsym=_ZTv0_n24_N5telux5audio15VoiceStreamImplD1Ev=so_stub_for_libtelux_audio
-Wl,--defsym=_ZTv0_n24_N5telux5audio17CaptureStreamImplD0Ev=so_stub_for_libtelux_audio
-Wl,--defsym=_ZTv0_n24_N5telux5audio17CaptureStreamImplD1Ev=so_stub_for_libtelux_audio
-Wl,--defsym=_ZTv0_n24_N5telux5audio18LoopbackStreamImplD0Ev=so_stub_for_libtelux_audio
-Wl,--defsym=_ZTv0_n24_N5telux5audio18LoopbackStreamImplD1Ev=so_stub_for_libtelux_audio
-Wl,--defsym=_ZTv0_n24_N5telux5audio23ToneGeneratorStreamImplD0Ev=so_stub_for_libtelux_audio
-Wl,--defsym=_ZTv0_n24_N5telux5audio23ToneGeneratorStreamImplD1Ev=so_stub_for_libtelux_audio
-Wl,--defsym=_ZTv0_n32_N5telux5audio15AudioBufferImpl10getMaxSizeEv=so_stub_for_libtelux_audio
-Wl,--defsym=_ZTv0_n32_N5telux5audio15AudioStreamImpl9setDeviceESt6vectorINS0_10DeviceTypeESaIS3_EESt8functionIFvNS_6common9ErrorCodeEEE=so_stub_for_libtelux_audio
-Wl,--defsym=_ZTv0_n40_N5telux5audio15AudioBufferImpl12getRawBufferEv=so_stub_for_libtelux_audio
-Wl,--defsym=_ZTv0_n40_N5telux5audio15AudioStreamImpl9getDeviceESt8functionIFvSt6vectorINS0_10DeviceTypeESaIS4_EENS_6common9ErrorCodeEEE=so_stub_for_libtelux_audio
-Wl,--defsym=_ZTv0_n48_N5telux5audio15AudioBufferImpl11getDataSizeEv=so_stub_for_libtelux_audio
-Wl,--defsym=_ZTv0_n48_N5telux5audio15AudioStreamImpl9setVolumeENS0_12StreamVolumeESt8functionIFvNS_6common9ErrorCodeEEE=so_stub_for_libtelux_audio
-Wl,--defsym=_ZTv0_n56_N5telux5audio15AudioBufferImpl11setDataSizeEj=so_stub_for_libtelux_audio
-Wl,--defsym=_ZTv0_n56_N5telux5audio15AudioStreamImpl9getVolumeENS0_15StreamDirectionESt8functionIFvNS0_12StreamVolumeENS_6common9ErrorCodeEEE=so_stub_for_libtelux_audio
-Wl,--defsym=_ZTv0_n64_N5telux5audio15AudioBufferImpl5resetEv=so_stub_for_libtelux_audio
-Wl,--defsym=_ZTv0_n64_N5telux5audio15AudioStreamImpl7setMuteENS0_10StreamMuteESt8functionIFvNS_6common9ErrorCodeEEE=so_stub_for_libtelux_audio
-Wl,--defsym=_ZTv0_n72_N5telux5audio15AudioBufferImplD0Ev=so_stub_for_libtelux_audio
-Wl,--defsym=_ZTv0_n72_N5telux5audio15AudioBufferImplD1Ev=so_stub_for_libtelux_audio
-Wl,--defsym=_ZTv0_n72_N5telux5audio15AudioStreamImpl7getMuteENS0_15StreamDirectionESt8functionIFvNS0_10StreamMuteENS_6common9ErrorCodeEEE=so_stub_for_libtelux_audio
-Wl,--defsym=_ZTv0_n72_N5telux5audio16StreamBufferImplD0Ev=so_stub_for_libtelux_audio
-Wl,--defsym=_ZTv0_n72_N5telux5audio16StreamBufferImplD1Ev=so_stub_for_libtelux_audio
-Wl,--defsym=_ZTv0_n80_N5telux5audio14PlayStreamImplD0Ev=so_stub_for_libtelux_audio
-Wl,--defsym=_ZTv0_n80_N5telux5audio14PlayStreamImplD1Ev=so_stub_for_libtelux_audio
-Wl,--defsym=_ZTv0_n80_N5telux5audio15AudioStreamImplD0Ev=so_stub_for_libtelux_audio
-Wl,--defsym=_ZTv0_n80_N5telux5audio15AudioStreamImplD1Ev=so_stub_for_libtelux_audio
-Wl,--defsym=_ZTv0_n80_N5telux5audio15VoiceStreamImplD0Ev=so_stub_for_libtelux_audio
-Wl,--defsym=_ZTv0_n80_N5telux5audio15VoiceStreamImplD1Ev=so_stub_for_libtelux_audio
-Wl,--defsym=_ZTv0_n80_N5telux5audio17CaptureStreamImplD0Ev=so_stub_for_libtelux_audio
-Wl,--defsym=_ZTv0_n80_N5telux5audio17CaptureStreamImplD1Ev=so_stub_for_libtelux_audio
-Wl,--defsym=_ZTv0_n80_N5telux5audio18LoopbackStreamImplD0Ev=so_stub_for_libtelux_audio
-Wl,--defsym=_ZTv0_n80_N5telux5audio18LoopbackStreamImplD1Ev=so_stub_for_libtelux_audio
-Wl,--defsym=_ZTv0_n80_N5telux5audio23ToneGeneratorStreamImplD0Ev=so_stub_for_libtelux_audio
-Wl,--defsym=_ZTv0_n80_N5telux5audio23ToneGeneratorStreamImplD1Ev=so_stub_for_libtelux_audio
-Wl,--defsym=_ZTVN5telux5audio12AudioFactoryE=so_stub_for_libtelux_audio
-Wl,--defsym=_ZTVN5telux5audio12IAudioPlayerE=so_stub_for_libtelux_audio
-Wl,--defsym=_ZTVN5telux5audio12IAudioStreamE=so_stub_for_libtelux_audio
-Wl,--defsym=_ZTVN5telux5audio13IIndicationCbE=so_stub_for_libtelux_audio
-Wl,--defsym=_ZTVN5telux5audio13IPlayListenerE=so_stub_for_libtelux_audio
-Wl,--defsym=_ZTVN5telux5audio13ISetGetMuteCbE=so_stub_for_libtelux_audio
-Wl,--defsym=_ZTVN5telux5audio13IStopStreamCbE=so_stub_for_libtelux_audio
-Wl,--defsym=_ZTVN5telux5audio14IStartStreamCbE=so_stub_for_libtelux_audio
-Wl,--defsym=_ZTVN5telux5audio14PlayStreamImplE=so_stub_for_libtelux_audio
-Wl,--defsym=_ZTVN5telux5audio14TranscoderImplE=so_stub_for_libtelux_audio
-Wl,--defsym=_ZTVN5telux5audio15AudioBufferImplE=so_stub_for_libtelux_audio
-Wl,--defsym=_ZTVN5telux5audio15AudioDeviceImplE=so_stub_for_libtelux_audio
-Wl,--defsym=_ZTVN5telux5audio15AudioPlayerImplE=so_stub_for_libtelux_audio
-Wl,--defsym=_ZTVN5telux5audio15AudioStreamImplE=so_stub_for_libtelux_audio
-Wl,--defsym=_ZTVN5telux5audio15ISetGetDeviceCbE=so_stub_for_libtelux_audio
-Wl,--defsym=_ZTVN5telux5audio15ISetGetVolumeCbE=so_stub_for_libtelux_audio
-Wl,--defsym=_ZTVN5telux5audio15VoiceStreamImplE=so_stub_for_libtelux_audio
-Wl,--defsym=_ZTVN5telux5audio16AudioFactoryImplE=so_stub_for_libtelux_audio
-Wl,--defsym=_ZTVN5telux5audio16AudioManagerImplE=so_stub_for_libtelux_audio
-Wl,--defsym=_ZTVN5telux5audio16StreamBufferImplE=so_stub_for_libtelux_audio
-Wl,--defsym=_ZTVN5telux5audio17CaptureStreamImplE=so_stub_for_libtelux_audio
-Wl,--defsym=_ZTVN5telux5audio18LoopbackStreamImplE=so_stub_for_libtelux_audio
-Wl,--defsym=_ZTVN5telux5audio19IPlayStreamEventsCbE=so_stub_for_libtelux_audio
-Wl,--defsym=_ZTVN5telux5audio20IVoiceStreamEventsCbE=so_stub_for_libtelux_audio
-Wl,--defsym=_ZTVN5telux5audio23ToneGeneratorStreamImplE=so_stub_for_libtelux_audio
-Wl,--defsym=_ZTVN5telux5audio7IDTMFCbE=so_stub_for_libtelux_audio
-Wl,--defsym=_ZTVN5telux5audio7IReadCbE=so_stub_for_libtelux_audio
-Wl,--defsym=_ZTVN5telux5audio7IToneCbE=so_stub_for_libtelux_audio
-Wl,--defsym=_ZTVN5telux5audio8IDrainCbE=so_stub_for_libtelux_audio
-Wl,--defsym=_ZTVN5telux5audio8IFlushCbE=so_stub_for_libtelux_audio
-Wl,--defsym=_ZTVN5telux5audio8IWriteCbE=so_stub_for_libtelux_audio
-Wl,--defsym=_ZTVN5telux6common14SharedFromThisE=so_stub_for_libtelux_audio
-Wl,--defsym=_ZTVN5telux6common18FunctionalCallbackIJNS0_9ErrorCodeEEEE=so_stub_for_libtelux_audio
-Wl,--defsym=_ZTVN5telux6common18FunctionalCallbackIJNS_5audio10StreamMuteENS0_9ErrorCodeEEEE=so_stub_for_libtelux_audio
-Wl,--defsym=_ZTVN5telux6common18FunctionalCallbackIJNS_5audio12StreamVolumeENS0_9ErrorCodeEEEE=so_stub_for_libtelux_audio
-Wl,--defsym=_ZTVN5telux6common18FunctionalCallbackIJNS_5audio21CalibrationInitStatusENS0_9ErrorCodeEEEE=so_stub_for_libtelux_audio
-Wl,--defsym=_ZTVN5telux6common18FunctionalCallbackIJRSt10shared_ptrINS_5audio11ITranscoderEENS0_9ErrorCodeEEEE=so_stub_for_libtelux_audio
-Wl,--defsym=_ZTVN5telux6common18FunctionalCallbackIJRSt10shared_ptrINS_5audio12IAudioStreamEENS0_9ErrorCodeEEEE=so_stub_for_libtelux_audio
-Wl,--defsym=_ZTVN5telux6common18FunctionalCallbackIJSt10shared_ptrINS_5audio12IAudioBufferEEjNS0_9ErrorCodeEEEE=so_stub_for_libtelux_audio
-Wl,--defsym=_ZTVN5telux6common18FunctionalCallbackIJSt10shared_ptrINS_5audio13IStreamBufferEEjNS0_9ErrorCodeEEEE=so_stub_for_libtelux_audio
-Wl,--defsym=_ZTVN5telux6common18FunctionalCallbackIJSt10shared_ptrINS_5audio13IStreamBufferEENS0_9ErrorCodeEEEE=so_stub_for_libtelux_audio
-Wl,--defsym=_ZTVN5telux6common18FunctionalCallbackIJSt6vectorINS_5audio10DeviceTypeESaIS4_EENS0_9ErrorCodeEEEE=so_stub_for_libtelux_audio
-Wl,--defsym=_ZTVN5telux6common18FunctionalCallbackIJSt6vectorINS_5audio10StreamTypeESaIS4_EENS0_9ErrorCodeEEEE=so_stub_for_libtelux_audio
-Wl,--defsym=_ZTVN5telux6common18FunctionalCallbackIJSt6vectorISt10shared_ptrINS_5audio12IAudioDeviceEESaIS6_EENS0_9ErrorCodeEEEE=so_stub_for_libtelux_audio
-Wl,--defsym=_ZTVNSt13__future_base13_State_baseV2E=so_stub_for_libtelux_audio
-Wl,--defsym=_ZTVNSt13__future_base21_Async_state_commonV2E=so_stub_for_libtelux_audio
-Wl,--defsym=_ZTVNSt13__future_base7_ResultIbEE=so_stub_for_libtelux_audio
-Wl,--defsym=_ZTVNSt13__future_base7_ResultIvEE=so_stub_for_libtelux_audio
-Wl,--defsym=_ZTVNSt6thread11_State_implINS_8_InvokerISt5tupleIJMN5telux6common14AsyncTaskQueueIvEEFvvEPS6_EEEEEE=so_stub_for_libtelux_audio
-Wl,--defsym=_ZTVNSt6thread11_State_implINS_8_InvokerISt5tupleIJZN5telux6common13FactoryHelper10getManagerINS3_5audio13IAudioManagerEEESt10shared_ptrIT_ENSt7__cxx1112basic_stringIcSt11char_traitsIcESaIcEEERSt8weak_ptrISA_ERSt6vectorISt8functionIFvNS4_13ServiceStatusEEESaISP_EESP_SM_IFSB_SP_EEEUlvE_EEEEEE=so_stub_for_libtelux_audio
-Wl,--defsym=_ZTVSt23_Sp_counted_ptr_inplaceIN5telux5audio14PlayStreamImplESaIS2_ELN9__gnu_cxx12_Lock_policyE2EE=so_stub_for_libtelux_audio
-Wl,--defsym=_ZTVSt23_Sp_counted_ptr_inplaceIN5telux5audio14TranscoderImplESaIS2_ELN9__gnu_cxx12_Lock_policyE2EE=so_stub_for_libtelux_audio
-Wl,--defsym=_ZTVSt23_Sp_counted_ptr_inplaceIN5telux5audio15AudioBufferImplESaIS2_ELN9__gnu_cxx12_Lock_policyE2EE=so_stub_for_libtelux_audio
-Wl,--defsym=_ZTVSt23_Sp_counted_ptr_inplaceIN5telux5audio15AudioDeviceImplESaIS2_ELN9__gnu_cxx12_Lock_policyE2EE=so_stub_for_libtelux_audio
-Wl,--defsym=_ZTVSt23_Sp_counted_ptr_inplaceIN5telux5audio15AudioPlayerImplESaIS2_ELN9__gnu_cxx12_Lock_policyE2EE=so_stub_for_libtelux_audio
-Wl,--defsym=_ZTVSt23_Sp_counted_ptr_inplaceIN5telux5audio15VoiceStreamImplESaIS2_ELN9__gnu_cxx12_Lock_policyE2EE=so_stub_for_libtelux_audio
-Wl,--defsym=_ZTVSt23_Sp_counted_ptr_inplaceIN5telux5audio16AudioManagerImplESaIS2_ELN9__gnu_cxx12_Lock_policyE2EE=so_stub_for_libtelux_audio
-Wl,--defsym=_ZTVSt23_Sp_counted_ptr_inplaceIN5telux5audio16StreamBufferImplESaIS2_ELN9__gnu_cxx12_Lock_policyE2EE=so_stub_for_libtelux_audio
-Wl,--defsym=_ZTVSt23_Sp_counted_ptr_inplaceIN5telux5audio17CaptureStreamImplESaIS2_ELN9__gnu_cxx12_Lock_policyE2EE=so_stub_for_libtelux_audio
-Wl,--defsym=_ZTVSt23_Sp_counted_ptr_inplaceIN5telux5audio18LoopbackStreamImplESaIS2_ELN9__gnu_cxx12_Lock_policyE2EE=so_stub_for_libtelux_audio
-Wl,--defsym=_ZTVSt23_Sp_counted_ptr_inplaceIN5telux5audio23ToneGeneratorStreamImplESaIS2_ELN9__gnu_cxx12_Lock_policyE2EE=so_stub_for_libtelux_audio
-Wl,--defsym=_ZTVSt23_Sp_counted_ptr_inplaceIN5telux6common15ListenerManagerESaIS2_ELN9__gnu_cxx12_Lock_policyE2EE=so_stub_for_libtelux_audio
-Wl,--defsym=_ZTVSt23_Sp_counted_ptr_inplaceIN5telux6common18FunctionalCallbackIJNS0_5audio10StreamMuteENS1_9ErrorCodeEEEESaIS6_ELN9__gnu_cxx12_Lock_policyE2EE=so_stub_for_libtelux_audio
-Wl,--defsym=_ZTVSt23_Sp_counted_ptr_inplaceIN5telux6common18FunctionalCallbackIJNS0_5audio12StreamVolumeENS1_9ErrorCodeEEEESaIS6_ELN9__gnu_cxx12_Lock_policyE2EE=so_stub_for_libtelux_audio
-Wl,--defsym=_ZTVSt23_Sp_counted_ptr_inplaceIN5telux6common18FunctionalCallbackIJNS0_5audio21CalibrationInitStatusENS1_9ErrorCodeEEEESaIS6_ELN9__gnu_cxx12_Lock_policyE2EE=so_stub_for_libtelux_audio
-Wl,--defsym=_ZTVSt23_Sp_counted_ptr_inplaceIN5telux6common18FunctionalCallbackIJNS1_9ErrorCodeEEEESaIS4_ELN9__gnu_cxx12_Lock_policyE2EE=so_stub_for_libtelux_audio
-Wl,--defsym=_ZTVSt23_Sp_counted_ptr_inplaceIN5telux6common18FunctionalCallbackIJRSt10shared_ptrINS0_5audio11ITranscoderEENS1_9ErrorCodeEEEESaIS9_ELN9__gnu_cxx12_Lock_policyE2EE=so_stub_for_libtelux_audio
-Wl,--defsym=_ZTVSt23_Sp_counted_ptr_inplaceIN5telux6common18FunctionalCallbackIJRSt10shared_ptrINS0_5audio12IAudioStreamEENS1_9ErrorCodeEEEESaIS9_ELN9__gnu_cxx12_Lock_policyE2EE=so_stub_for_libtelux_audio
-Wl,--defsym=_ZTVSt23_Sp_counted_ptr_inplaceIN5telux6common18FunctionalCallbackIJSt10shared_ptrINS0_5audio12IAudioBufferEEjNS1_9ErrorCodeEEEESaIS8_ELN9__gnu_cxx12_Lock_policyE2EE=so_stub_for_libtelux_audio
-Wl,--defsym=_ZTVSt23_Sp_counted_ptr_inplaceIN5telux6common18FunctionalCallbackIJSt10shared_ptrINS0_5audio13IStreamBufferEEjNS1_9ErrorCodeEEEESaIS8_ELN9__gnu_cxx12_Lock_policyE2EE=so_stub_for_libtelux_audio
-Wl,--defsym=_ZTVSt23_Sp_counted_ptr_inplaceIN5telux6common18FunctionalCallbackIJSt10shared_ptrINS0_5audio13IStreamBufferEENS1_9ErrorCodeEEEESaIS8_ELN9__gnu_cxx12_Lock_policyE2EE=so_stub_for_libtelux_audio
-Wl,--defsym=_ZTVSt23_Sp_counted_ptr_inplaceIN5telux6common18FunctionalCallbackIJSt6vectorINS0_5audio10DeviceTypeESaIS5_EENS1_9ErrorCodeEEEESaIS9_ELN9__gnu_cxx12_Lock_policyE2EE=so_stub_for_libtelux_audio
-Wl,--defsym=_ZTVSt23_Sp_counted_ptr_inplaceIN5telux6common18FunctionalCallbackIJSt6vectorINS0_5audio10StreamTypeESaIS5_EENS1_9ErrorCodeEEEESaIS9_ELN9__gnu_cxx12_Lock_policyE2EE=so_stub_for_libtelux_audio
-Wl,--defsym=_ZTVSt23_Sp_counted_ptr_inplaceIN5telux6common18FunctionalCallbackIJSt6vectorISt10shared_ptrINS0_5audio12IAudioDeviceEESaIS7_EENS1_9ErrorCodeEEEESaISB_ELN9__gnu_cxx12_Lock_policyE2EE=so_stub_for_libtelux_audio
-Wl,--defsym=_ZTVSt23_Sp_counted_ptr_inplaceISt6threadSaIS0_ELN9__gnu_cxx12_Lock_policyE2EE=so_stub_for_libtelux_audio
-Wl,--defsym=_ZZN5telux6common13FactoryHelper10getManagerINS_5audio13IAudioManagerEEESt10shared_ptrIT_ENSt7__cxx1112basic_stringIcSt11char_traitsIcESaIcEEERSt8weak_ptrIS6_ERSt6vectorISt8functionIFvNS0_13ServiceStatusEEESaISL_EESL_SI_IFS7_SL_EEENKUlSJ_E0_clESJ_=so_stub_for_libtelux_audio
-Wl,--defsym=_ZZNSt19_Sp_make_shared_tag5_S_tiEvE5__tag=so_stub_for_libtelux_audio
-Wl,--defsym=_ZZNSt9once_flag18_Prepare_executionC4IZSt9call_onceIMNSt13__future_base13_State_baseV2EFvPSt8functionIFSt10unique_ptrINS3_12_Result_baseENS7_8_DeleterEEvEEPbEJPS4_SC_SD_EEvRS_OT_DpOT0_EUlvE_EERSI_ENUlvE_4_FUNEv=so_stub_for_libtelux_audio
-Wl,--defsym=_ZZNSt9once_flag18_Prepare_executionC4IZSt9call_onceIMSt6threadFvvEJPS3_EEvRS_OT_DpOT0_EUlvE_EERS8_ENUlvE_4_FUNEv=so_stub_for_libtelux_audio
