-Wl,--defsym=__gcov_error_file=so_stub_for_libtelux_loc
-Wl,--defsym=__gcov_kvp_dynamic_pool=so_stub_for_libtelux_loc
-Wl,--defsym=__gcov_kvp_dynamic_pool_index=so_stub_for_libtelux_loc
-Wl,--defsym=__gcov_kvp_dynamic_pool_size=so_stub_for_libtelux_loc
-Wl,--defsym=__gcov_master=so_stub_for_libtelux_loc
-Wl,--defsym=__gcov_var=so_stub_for_libtelux_loc
-Wl,--defsym=mangle_path=so_stub_for_libtelux_loc
-Wl,--defsym=_ZN15location_client13GnssReportCbsD1Ev=so_stub_for_libtelux_loc
-Wl,--defsym=_ZN15location_client13GnssReportCbsD2Ev=so_stub_for_libtelux_loc
-Wl,--defsym=_ZN15location_client15EngineReportCbsD1Ev=so_stub_for_libtelux_loc
-Wl,--defsym=_ZN15location_client15EngineReportCbsD2Ev=so_stub_for_libtelux_loc
-Wl,--defsym=_ZN20location_integration16XtraConfigParamsD1Ev=so_stub_for_libtelux_loc
-Wl,--defsym=_ZN20location_integration16XtraConfigParamsD2Ev=so_stub_for_libtelux_loc
-Wl,--defsym=_ZN20location_integration17LocIntegrationCbsD1Ev=so_stub_for_libtelux_loc
-Wl,--defsym=_ZN20location_integration17LocIntegrationCbsD2Ev=so_stub_for_libtelux_loc
-Wl,--defsym=_ZN5telux3loc10SVInfoImpl10getAzimuthEv=so_stub_for_libtelux_loc
-Wl,--defsym=_ZN5telux3loc10SVInfoImpl10setAzimuthEf=so_stub_for_libtelux_loc
-Wl,--defsym=_ZN5telux3loc10SVInfoImpl11setGnssSVIdEt=so_stub_for_libtelux_loc
-Wl,--defsym=_ZN5telux3loc10SVInfoImpl11setSVStatusENS0_8SVStatusE=so_stub_for_libtelux_loc
-Wl,--defsym=_ZN5telux3loc10SVInfoImpl12getElevationEv=so_stub_for_libtelux_loc
-Wl,--defsym=_ZN5telux3loc10SVInfoImpl12setElevationEf=so_stub_for_libtelux_loc
-Wl,--defsym=_ZN5telux3loc10SVInfoImpl13getGlonassFcnEv=so_stub_for_libtelux_loc
-Wl,--defsym=_ZN5telux3loc10SVInfoImpl13getHasAlmanacEv=so_stub_for_libtelux_loc
-Wl,--defsym=_ZN5telux3loc10SVInfoImpl13getSignalTypeEv=so_stub_for_libtelux_loc
-Wl,--defsym=_ZN5telux3loc10SVInfoImpl13setGlonassFcnEt=so_stub_for_libtelux_loc
-Wl,--defsym=_ZN5telux3loc10SVInfoImpl13setHasAlmanacENS0_18SVInfoAvailabilityE=so_stub_for_libtelux_loc
-Wl,--defsym=_ZN5telux3loc10SVInfoImpl13setSignalTypeEj=so_stub_for_libtelux_loc
-Wl,--defsym=_ZN5telux3loc10SVInfoImpl14getBasebandCnrEv=so_stub_for_libtelux_loc
-Wl,--defsym=_ZN5telux3loc10SVInfoImpl14setBasebandCnrEd=so_stub_for_libtelux_loc
-Wl,--defsym=_ZN5telux3loc10SVInfoImpl15getHasEphemerisEv=so_stub_for_libtelux_loc
-Wl,--defsym=_ZN5telux3loc10SVInfoImpl15setHasEphemerisENS0_18SVInfoAvailabilityE=so_stub_for_libtelux_loc
-Wl,--defsym=_ZN5telux3loc10SVInfoImpl16getConstellationEv=so_stub_for_libtelux_loc
-Wl,--defsym=_ZN5telux3loc10SVInfoImpl16setConstellationENS0_21GnssConstellationTypeE=so_stub_for_libtelux_loc
-Wl,--defsym=_ZN5telux3loc10SVInfoImpl17getSVHealthStatusEv=so_stub_for_libtelux_loc
-Wl,--defsym=_ZN5telux3loc10SVInfoImpl17setSVHealthStatusENS0_14SVHealthStatusE=so_stub_for_libtelux_loc
-Wl,--defsym=_ZN5telux3loc10SVInfoImpl19getCarrierFrequencyEv=so_stub_for_libtelux_loc
-Wl,--defsym=_ZN5telux3loc10SVInfoImpl19setCarrierFrequencyEf=so_stub_for_libtelux_loc
-Wl,--defsym=_ZN5telux3loc10SVInfoImpl5getIdEv=so_stub_for_libtelux_loc
-Wl,--defsym=_ZN5telux3loc10SVInfoImpl6getSnrEv=so_stub_for_libtelux_loc
-Wl,--defsym=_ZN5telux3loc10SVInfoImpl6setSnrEf=so_stub_for_libtelux_loc
-Wl,--defsym=_ZN5telux3loc10SVInfoImpl9getHasFixEv=so_stub_for_libtelux_loc
-Wl,--defsym=_ZN5telux3loc10SVInfoImpl9getStatusEv=so_stub_for_libtelux_loc
-Wl,--defsym=_ZN5telux3loc10SVInfoImpl9setHasFixENS0_18SVInfoAvailabilityE=so_stub_for_libtelux_loc
-Wl,--defsym=_ZN5telux3loc10SVInfoImplC1Ev=so_stub_for_libtelux_loc
-Wl,--defsym=_ZN5telux3loc10SVInfoImplC2Ev=so_stub_for_libtelux_loc
-Wl,--defsym=_ZN5telux3loc10TimeWindow10isInWindowEm=so_stub_for_libtelux_loc
-Wl,--defsym=_ZN5telux3loc10TimeWindow11resetWindowEv=so_stub_for_libtelux_loc
-Wl,--defsym=_ZN5telux3loc10TimeWindow15setTimeIntervalEm=so_stub_for_libtelux_loc
-Wl,--defsym=_ZN5telux3loc10TimeWindow15updateTimeStampEm=so_stub_for_libtelux_loc
-Wl,--defsym=_ZN5telux3loc10TimeWindow16isTimeStampValidEv=so_stub_for_libtelux_loc
-Wl,--defsym=_ZN5telux3loc10TimeWindowC1Em=so_stub_for_libtelux_loc
-Wl,--defsym=_ZN5telux3loc10TimeWindowC2Em=so_stub_for_libtelux_loc
-Wl,--defsym=_ZN5telux3loc10XtraConfigC1ERKS1_=so_stub_for_libtelux_loc
-Wl,--defsym=_ZN5telux3loc10XtraConfigC2ERKS1_=so_stub_for_libtelux_loc
-Wl,--defsym=_ZN5telux3loc10XtraConfigD1Ev=so_stub_for_libtelux_loc
-Wl,--defsym=_ZN5telux3loc10XtraConfigD2Ev=so_stub_for_libtelux_loc
-Wl,--defsym=_ZN5telux3loc13GnssEphemerisD1Ev=so_stub_for_libtelux_loc
-Wl,--defsym=_ZN5telux3loc13GnssEphemerisD2Ev=so_stub_for_libtelux_loc
-Wl,--defsym=_ZN5telux3loc14GnssSignalInfo11getGnssDataEv=so_stub_for_libtelux_loc
-Wl,--defsym=_ZN5telux3loc14GnssSignalInfoC1Ev=so_stub_for_libtelux_loc
-Wl,--defsym=_ZN5telux3loc14GnssSignalInfoC2Ev=so_stub_for_libtelux_loc
-Wl,--defsym=_ZN5telux3loc14GnssSVInfoImpl13getSVInfoListEv=so_stub_for_libtelux_loc
-Wl,--defsym=_ZN5telux3loc14GnssSVInfoImpl13setGnssSVListESt6vectorISt10shared_ptrINS0_7ISVInfoEESaIS5_EE=so_stub_for_libtelux_loc
-Wl,--defsym=_ZN5telux3loc14GnssSVInfoImpl15getAltitudeTypeEv=so_stub_for_libtelux_loc
-Wl,--defsym=_ZN5telux3loc14GnssSVInfoImpl15setAltitudeTypeENS0_12AltitudeTypeE=so_stub_for_libtelux_loc
-Wl,--defsym=_ZN5telux3loc14GnssSVInfoImplC1Ev=so_stub_for_libtelux_loc
-Wl,--defsym=_ZN5telux3loc14GnssSVInfoImplC2Ev=so_stub_for_libtelux_loc
-Wl,--defsym=_ZN5telux3loc14LocationHelper12convertSVIdsESt6vectorIN15location_client17GnssMeasUsageInfoESaIS4_EE=so_stub_for_libtelux_loc
-Wl,--defsym=_ZN5telux3loc14LocationHelper13convertGnssSvEN15location_client6GnssSvE=so_stub_for_libtelux_loc
-Wl,--defsym=_ZN5telux3loc14LocationHelper15convertGnssDataEN15location_client8GnssDataE=so_stub_for_libtelux_loc
-Wl,--defsym=_ZN5telux3loc14LocationHelper16convertAgcStatusEN15location_client9AgcStatusE=so_stub_for_libtelux_loc
-Wl,--defsym=_ZN5telux3loc14LocationHelper16convertFrameDataEN15location_client28GnssLocationPositionDynamicsE=so_stub_for_libtelux_loc
-Wl,--defsym=_ZN5telux3loc14LocationHelper17convertEngineTypeENS0_10EngineTypeE=so_stub_for_libtelux_loc
-Wl,--defsym=_ZN5telux3loc14LocationHelper17convertXtraStatusERKN20location_integration10XtraStatusE=so_stub_for_libtelux_loc
-Wl,--defsym=_ZN5telux3loc14LocationHelper19convertAltitudeTypeEb=so_stub_for_libtelux_loc
-Wl,--defsym=_ZN5telux3loc14LocationHelper19convertBdsEphemerisERSt6vectorINS0_12BdsEphemerisESaIS3_EERKS2_IN15location_client12BdsEphemerisESaIS8_EE=so_stub_for_libtelux_loc
-Wl,--defsym=_ZN5telux3loc14LocationHelper19convertDeletionInfoEj=so_stub_for_libtelux_loc
-Wl,--defsym=_ZN5telux3loc14LocationHelper19convertGpsEphemerisERSt6vectorINS0_16GpsQzssEphemerisESaIS3_EERKS2_IN15location_client16GpsQzssEphemerisESaIS8_EE=so_stub_for_libtelux_loc
-Wl,--defsym=_ZN5telux3loc14LocationHelper19convertLeverArmInfoERKSt13unordered_mapINS0_12LeverArmTypeENS0_14LeverArmParamsESt4hashIS3_ESt8equal_toIS3_ESaISt4pairIKS3_S4_EEE=so_stub_for_libtelux_loc
-Wl,--defsym=_ZN5telux3loc14LocationHelper19convertReportStatusEN15location_client16LocSessionStatusE=so_stub_for_libtelux_loc
-Wl,--defsym=_ZN5telux3loc14LocationHelper20convertBdsExtEphDataERKN15location_client15BdsExtEphemerisE=so_stub_for_libtelux_loc
-Wl,--defsym=_ZN5telux3loc14LocationHelper20convertLocEngineTypeEt=so_stub_for_libtelux_loc
-Wl,--defsym=_ZN5telux3loc14LocationHelper20convertMeasUsageInfoESt6vectorIN15location_client17GnssMeasUsageInfoESaIS4_EE=so_stub_for_libtelux_loc
-Wl,--defsym=_ZN5telux3loc14LocationHelper20convertQzssEphemerisERSt6vectorINS0_13QzssEphemerisESaIS3_EERKS2_IN15location_client13QzssEphemerisESaIS8_EE=so_stub_for_libtelux_loc
-Wl,--defsym=_ZN5telux3loc14LocationHelper21convertCapabilityMaskEm=so_stub_for_libtelux_loc
-Wl,--defsym=_ZN5telux3loc14LocationHelper21convertDREngineConfigERKNS0_21DREngineConfigurationE=so_stub_for_libtelux_loc
-Wl,--defsym=_ZN5telux3loc14LocationHelper21convertEngineRunStateENS0_22LocationEngineRunStateE=so_stub_for_libtelux_loc
-Wl,--defsym=_ZN5telux3loc14LocationHelper21convertGnssSystemTimeEN15location_client14GnssSystemTimeE=so_stub_for_libtelux_loc
-Wl,--defsym=_ZN5telux3loc14LocationHelper21convertNavicEphemerisERSt6vectorINS0_14NavicEphemerisESaIS3_EERKS2_IN15location_client14NavicEphemerisESaIS8_EE=so_stub_for_libtelux_loc
-Wl,--defsym=_ZN5telux3loc14LocationHelper21convertRobustLocationEN20location_integration20RobustLocationConfigE=so_stub_for_libtelux_loc
-Wl,--defsym=_ZN5telux3loc14LocationHelper21convertSbasCorrectionEN15location_client27GnssLocationNavSolutionMaskE=so_stub_for_libtelux_loc
-Wl,--defsym=_ZN5telux3loc14LocationHelper21convertSolutionStatusEN15location_client20DrSolutionStatusMaskE=so_stub_for_libtelux_loc
-Wl,--defsym=_ZN5telux3loc14LocationHelper22convertLLAVRPBasedInfoEN15location_client7LLAInfoE=so_stub_for_libtelux_loc
-Wl,--defsym=_ZN5telux3loc14LocationHelper23convertGalileoEphemerisERSt6vectorINS0_16GalileoEphemerisESaIS3_EERKS2_IN15location_client16GalileoEphemerisESaIS8_EE=so_stub_for_libtelux_loc
-Wl,--defsym=_ZN5telux3loc14LocationHelper23convertGlonassEphemerisERSt6vectorINS0_16GlonassEphemerisESaIS3_EERKS2_IN15location_client16GlonassEphemerisESaIS8_EE=so_stub_for_libtelux_loc
-Wl,--defsym=_ZN5telux3loc14LocationHelper23convertGnssMeasurementsERKN15location_client16GnssMeasurementsERNS0_16GnssMeasurementsE=so_stub_for_libtelux_loc
-Wl,--defsym=_ZN5telux3loc14LocationHelper23convertLocOutputEngMaskEN15location_client21PositioningEngineMaskE=so_stub_for_libtelux_loc
-Wl,--defsym=_ZN5telux3loc14LocationHelper23convertLocOutputEngTypeEN15location_client19LocOutputEngineTypeE=so_stub_for_libtelux_loc
-Wl,--defsym=_ZN5telux3loc14LocationHelper23convertXtraConfigParamsENS0_10XtraConfigE=so_stub_for_libtelux_loc
-Wl,--defsym=_ZN5telux3loc14LocationHelper24convertCalibrationStatusEN15location_client23DrCalibrationStatusMaskE=so_stub_for_libtelux_loc
-Wl,--defsym=_ZN5telux3loc14LocationHelper24convertConstellationTypeEN15location_client24Gnss_LocSvSystemEnumTypeE=so_stub_for_libtelux_loc
-Wl,--defsym=_ZN5telux3loc14LocationHelper24convertGnssEphemerisInfoERKN15location_client13GnssEphemerisERNS0_13GnssEphemerisE=so_stub_for_libtelux_loc
-Wl,--defsym=_ZN5telux3loc14LocationHelper24convertGpsQzssExtEphDataERKN15location_client19GpsQzssExtEphemerisE=so_stub_for_libtelux_loc
-Wl,--defsym=_ZN5telux3loc14LocationHelper24gnssConstellationMappingESt6vectorINS0_15SvBlackListInfoESaIS3_EEPS2_IN20location_integration12GnssSvIdInfoESaIS7_EE=so_stub_for_libtelux_loc
-Wl,--defsym=_ZN5telux3loc14LocationHelper25convertLocationSystemInfoEN15location_client18LocationSystemInfoE=so_stub_for_libtelux_loc
-Wl,--defsym=_ZN5telux3loc14LocationHelper25convertNavigationSolutionEN15location_client27GnssLocationNavSolutionMaskE=so_stub_for_libtelux_loc
-Wl,--defsym=_ZN5telux3loc14LocationHelper26convertCommonEphemerisDataERKN15location_client17GnssEphCommonInfoE=so_stub_for_libtelux_loc
-Wl,--defsym=_ZN5telux3loc14LocationHelper26convertEastNorthUpVelocityERKN15location_client12GnssLocationE=so_stub_for_libtelux_loc
-Wl,--defsym=_ZN5telux3loc14LocationHelper26convertENUVelocityVRPBasedERKN15location_client12GnssLocationE=so_stub_for_libtelux_loc
-Wl,--defsym=_ZN5telux3loc14LocationHelper26convertLocationReliabilityEN15location_client19LocationReliabilityE=so_stub_for_libtelux_loc
-Wl,--defsym=_ZN5telux3loc14LocationHelper27convertConstellationSetTypeERKSt13unordered_setIN20location_integration21GnssConstellationTypeESt4hashIS4_ESt8equal_toIS4_ESaIS4_EE=so_stub_for_libtelux_loc
-Wl,--defsym=_ZN5telux3loc14LocationHelper27convertConstellationSetTypeESt13unordered_setINS0_21GnssConstellationTypeESt4hashIS3_ESt8equal_toIS3_ESaIS3_EE=so_stub_for_libtelux_loc
-Wl,--defsym=_ZN5telux3loc14LocationHelper28convertGnssConstellationTypeEN20location_integration21GnssConstellationTypeE=so_stub_for_libtelux_loc
-Wl,--defsym=_ZN5telux3loc14LocationHelper28convertGnssConstellationTypeENS0_21GnssConstellationTypeE=so_stub_for_libtelux_loc
-Wl,--defsym=_ZN5telux3loc14LocationHelper28convertTerrestrialTechnologyEj=so_stub_for_libtelux_loc
-Wl,--defsym=_ZN5telux3loc14LocationHelper29convertEngineMaskToReportTypeEtRSt6vectorINS0_10ReportTypeESaIS3_EE=so_stub_for_libtelux_loc
-Wl,--defsym=_ZN5telux3loc14LocationHelper29convertGnssEnergyConsumedInfoEN15location_client22GnssEnergyConsumedInfoE=so_stub_for_libtelux_loc
-Wl,--defsym=_ZN5telux3loc14LocationHelper29convertLocationInfoExValidityEm=so_stub_for_libtelux_loc
-Wl,--defsym=_ZN5telux3loc14LocationHelper30convertLocResponseToTeluxErrorEN15location_client16LocationResponseE=so_stub_for_libtelux_loc
-Wl,--defsym=_ZN5telux3loc14LocationHelper31convertLocResponseToTeluxStatusEN15location_client16LocationResponseE=so_stub_for_libtelux_loc
-Wl,--defsym=_ZN5telux3loc14LocationHelper32convertGnssDisasterCrisisReportsEN15location_client12GnssDcReportERNS0_24GnssDisasterCrisisReportE=so_stub_for_libtelux_loc
-Wl,--defsym=_ZN5telux3loc14LocationHelper32convertOutputEngMaskToReportTypeEN15location_client19LocOutputEngineTypeERNS0_10ReportTypeE=so_stub_for_libtelux_loc
-Wl,--defsym=_ZN5telux3loc14LocationHelper33convertLocIntegrationResponseTypeEN20location_integration22LocIntegrationResponseE=so_stub_for_libtelux_loc
-Wl,--defsym=_ZN5telux3loc14LocationHelper35convertGnssSvOptionsMaskToFixStatusEN15location_client17GnssSvOptionsMaskE=so_stub_for_libtelux_loc
-Wl,--defsym=_ZN5telux3loc14LocationHelper37convertEastNorthUpVelocityUncertaintyERKN15location_client12GnssLocationE=so_stub_for_libtelux_loc
-Wl,--defsym=_ZN5telux3loc14LocationHelper38convertGnssTypeToGnssConstellationTypeEN15location_client10GnssSvTypeE=so_stub_for_libtelux_loc
-Wl,--defsym=_ZN5telux3loc14LocationHelper38convertLocationToLocationInfoImplBasicERKN15location_client8LocationE=so_stub_for_libtelux_loc
-Wl,--defsym=_ZN5telux3loc14LocationHelper39convertGnssLocationToLocationInfoImplExERKN15location_client12GnssLocationE=so_stub_for_libtelux_loc
-Wl,--defsym=_ZN5telux3loc14LocationHelper39convertGnssSvOptionsMaskToAlmanacStatusEN15location_client17GnssSvOptionsMaskE=so_stub_for_libtelux_loc
-Wl,--defsym=_ZN5telux3loc14LocationHelper41convertGnssSvOptionsMaskToEphemerisStatusEN15location_client17GnssSvOptionsMaskE=so_stub_for_libtelux_loc
-Wl,--defsym=_ZN5telux3loc15LocationFactory11getInstanceEv=so_stub_for_libtelux_loc
-Wl,--defsym=_ZN5telux3loc15LocationFactoryC1Ev=so_stub_for_libtelux_loc
-Wl,--defsym=_ZN5telux3loc15LocationFactoryC2Ev=so_stub_for_libtelux_loc
-Wl,--defsym=_ZN5telux3loc15LocationFactoryD1Ev=so_stub_for_libtelux_loc
-Wl,--defsym=_ZN5telux3loc15LocationFactoryD2Ev=so_stub_for_libtelux_loc
-Wl,--defsym=_ZN5telux3loc16DgnssManagerImpl12createSourceENS0_15DgnssDataFormatE=so_stub_for_libtelux_loc
-Wl,--defsym=_ZN5telux3loc16DgnssManagerImpl13releaseSourceEv=so_stub_for_libtelux_loc
-Wl,--defsym=_ZN5telux3loc16DgnssManagerImpl15onDgnssStatusCbE18QDgnssSourceStatus=so_stub_for_libtelux_loc
-Wl,--defsym=_ZN5telux3loc16DgnssManagerImpl16getServiceStatusEv=so_stub_for_libtelux_loc
-Wl,--defsym=_ZN5telux3loc16DgnssManagerImpl16isSubsystemReadyEv=so_stub_for_libtelux_loc
-Wl,--defsym=_ZN5telux3loc16DgnssManagerImpl16onSubsystemReadyEv=so_stub_for_libtelux_loc
-Wl,--defsym=_ZN5telux3loc16DgnssManagerImpl16registerListenerESt8weak_ptrINS0_20IDgnssStatusListenerEE=so_stub_for_libtelux_loc
-Wl,--defsym=_ZN5telux3loc16DgnssManagerImpl18deRegisterListenerEv=so_stub_for_libtelux_loc
-Wl,--defsym=_ZN5telux3loc16DgnssManagerImpl20injectCorrectionDataEPKhj=so_stub_for_libtelux_loc
-Wl,--defsym=_ZN5telux3loc16DgnssManagerImpl21waitForInitializationEv=so_stub_for_libtelux_loc
-Wl,--defsym=_ZN5telux3loc16DgnssManagerImpl4initESt8functionIFvNS_6common13ServiceStatusEEE=so_stub_for_libtelux_loc
-Wl,--defsym=_ZN5telux3loc16DgnssManagerImplC1ENS0_15DgnssDataFormatE=so_stub_for_libtelux_loc
-Wl,--defsym=_ZN5telux3loc16DgnssManagerImplC2ENS0_15DgnssDataFormatE=so_stub_for_libtelux_loc
-Wl,--defsym=_ZN5telux3loc16DgnssManagerImplD0Ev=so_stub_for_libtelux_loc
-Wl,--defsym=_ZN5telux3loc16DgnssManagerImplD1Ev=so_stub_for_libtelux_loc
-Wl,--defsym=_ZN5telux3loc16DgnssManagerImplD2Ev=so_stub_for_libtelux_loc
-Wl,--defsym=_ZN5telux3loc16LocationResponse12onResponseCbEN15location_client16LocationResponseE=so_stub_for_libtelux_loc
-Wl,--defsym=_ZN5telux3loc16LocationResponse12resetPromiseEv=so_stub_for_libtelux_loc
-Wl,--defsym=_ZN5telux3loc16LocationResponse9getFutureEv=so_stub_for_libtelux_loc
-Wl,--defsym=_ZN5telux3loc16LocationResponseC1Ev=so_stub_for_libtelux_loc
-Wl,--defsym=_ZN5telux3loc16LocationResponseC2Ev=so_stub_for_libtelux_loc
-Wl,--defsym=_ZN5telux3loc18LocationInfoImplEx10getHeadingEv=so_stub_for_libtelux_loc
-Wl,--defsym=_ZN5telux3loc18LocationInfoImplEx10getTimeDopEv=so_stub_for_libtelux_loc
-Wl,--defsym=_ZN5telux3loc18LocationInfoImplEx11getAltitudeEv=so_stub_for_libtelux_loc
-Wl,--defsym=_ZN5telux3loc18LocationInfoImplEx11getLatitudeEv=so_stub_for_libtelux_loc
-Wl,--defsym=_ZN5telux3loc18LocationInfoImplEx11getTechMaskEv=so_stub_for_libtelux_loc
-Wl,--defsym=_ZN5telux3loc18LocationInfoImplEx12getLongitudeEv=so_stub_for_libtelux_loc
-Wl,--defsym=_ZN5telux3loc18LocationInfoImplEx12getNumSvUsedEv=so_stub_for_libtelux_loc
-Wl,--defsym=_ZN5telux3loc18LocationInfoImplEx12getTimeStampEv=so_stub_for_libtelux_loc
-Wl,--defsym=_ZN5telux3loc18LocationInfoImplEx12getTimeUncMsEv=so_stub_for_libtelux_loc
-Wl,--defsym=_ZN5telux3loc18LocationInfoImplEx14getLeapSecondsERh=so_stub_for_libtelux_loc
-Wl,--defsym=_ZN5telux3loc18LocationInfoImplEx14getPositionDopEv=so_stub_for_libtelux_loc
-Wl,--defsym=_ZN5telux3loc18LocationInfoImplEx14getVerticalDopEv=so_stub_for_libtelux_loc
-Wl,--defsym=_ZN5telux3loc18LocationInfoImplEx14getVRPBasedLLAEv=so_stub_for_libtelux_loc
-Wl,--defsym=_ZN5telux3loc18LocationInfoImplEx15getAltitudeTypeEv=so_stub_for_libtelux_loc
-Wl,--defsym=_ZN5telux3loc18LocationInfoImplEx15getGeometricDopEv=so_stub_for_libtelux_loc
-Wl,--defsym=_ZN5telux3loc18LocationInfoImplEx15getReportStatusEv=so_stub_for_libtelux_loc
-Wl,--defsym=_ZN5telux3loc18LocationInfoImplEx16getBodyFrameDataEv=so_stub_for_libtelux_loc
-Wl,--defsym=_ZN5telux3loc18LocationInfoImplEx16getHorizontalDopEv=so_stub_for_libtelux_loc
-Wl,--defsym=_ZN5telux3loc18LocationInfoImplEx16getmeasUsageInfoEv=so_stub_for_libtelux_loc
-Wl,--defsym=_ZN5telux3loc18LocationInfoImplEx17getBaselineLengthEv=so_stub_for_libtelux_loc
-Wl,--defsym=_ZN5telux3loc18LocationInfoImplEx17getGnssSystemTimeEv=so_stub_for_libtelux_loc
-Wl,--defsym=_ZN5telux3loc18LocationInfoImplEx17getSbasCorrectionEv=so_stub_for_libtelux_loc
-Wl,--defsym=_ZN5telux3loc18LocationInfoImplEx17getSolutionStatusEv=so_stub_for_libtelux_loc
-Wl,--defsym=_ZN5telux3loc18LocationInfoImplEx18getConformityIndexEv=so_stub_for_libtelux_loc
-Wl,--defsym=_ZN5telux3loc18LocationInfoImplEx18getDgnssStationIdsEv=so_stub_for_libtelux_loc
-Wl,--defsym=_ZN5telux3loc18LocationInfoImplEx18getElapsedGptpTimeEv=so_stub_for_libtelux_loc
-Wl,--defsym=_ZN5telux3loc18LocationInfoImplEx18getElapsedRealTimeEv=so_stub_for_libtelux_loc
-Wl,--defsym=_ZN5telux3loc18LocationInfoImplEx19getAgeOfCorrectionsEv=so_stub_for_libtelux_loc
-Wl,--defsym=_ZN5telux3loc18LocationInfoImplEx19getLocOutputEngMaskEv=so_stub_for_libtelux_loc
-Wl,--defsym=_ZN5telux3loc18LocationInfoImplEx19getLocOutputEngTypeEv=so_stub_for_libtelux_loc
-Wl,--defsym=_ZN5telux3loc18LocationInfoImplEx19getSpeedUncertaintyEv=so_stub_for_libtelux_loc
-Wl,--defsym=_ZN5telux3loc18LocationInfoImplEx19getSvUsedInPositionEv=so_stub_for_libtelux_loc
-Wl,--defsym=_ZN5telux3loc18LocationInfoImplEx20getCalibrationStatusEv=so_stub_for_libtelux_loc
-Wl,--defsym=_ZN5telux3loc18LocationInfoImplEx20getIntegrityRiskUsedEv=so_stub_for_libtelux_loc
-Wl,--defsym=_ZN5telux3loc18LocationInfoImplEx20getMagneticDeviationEv=so_stub_for_libtelux_loc
-Wl,--defsym=_ZN5telux3loc18LocationInfoImplEx21getElapsedGptpTimeUncEv=so_stub_for_libtelux_loc
-Wl,--defsym=_ZN5telux3loc18LocationInfoImplEx21getHeadingUncertaintyEv=so_stub_for_libtelux_loc
-Wl,--defsym=_ZN5telux3loc18LocationInfoImplEx21getNavigationSolutionEv=so_stub_for_libtelux_loc
-Wl,--defsym=_ZN5telux3loc18LocationInfoImplEx21getPositionTechnologyEv=so_stub_for_libtelux_loc
-Wl,--defsym=_ZN5telux3loc18LocationInfoImplEx22getVelocityEastNorthUpERSt6vectorIfSaIfEE=so_stub_for_libtelux_loc
-Wl,--defsym=_ZN5telux3loc18LocationInfoImplEx22getVerticalReliabilityEv=so_stub_for_libtelux_loc
-Wl,--defsym=_ZN5telux3loc18LocationInfoImplEx22getVerticalUncertaintyEv=so_stub_for_libtelux_loc
-Wl,--defsym=_ZN5telux3loc18LocationInfoImplEx22getVRPBasedENUVelocityEv=so_stub_for_libtelux_loc
-Wl,--defsym=_ZN5telux3loc18LocationInfoImplEx23getAltitudeMeanSeaLevelEv=so_stub_for_libtelux_loc
-Wl,--defsym=_ZN5telux3loc18LocationInfoImplEx23getLocationInfoValidityEv=so_stub_for_libtelux_loc
-Wl,--defsym=_ZN5telux3loc18LocationInfoImplEx24getEastStandardDeviationEv=so_stub_for_libtelux_loc
-Wl,--defsym=_ZN5telux3loc18LocationInfoImplEx24getHorizontalReliabilityEv=so_stub_for_libtelux_loc
-Wl,--defsym=_ZN5telux3loc18LocationInfoImplEx24getHorizontalUncertaintyEv=so_stub_for_libtelux_loc
-Wl,--defsym=_ZN5telux3loc18LocationInfoImplEx25getLeapSecondsUncertaintyEv=so_stub_for_libtelux_loc
-Wl,--defsym=_ZN5telux3loc18LocationInfoImplEx25getLocationInfoExValidityEv=so_stub_for_libtelux_loc
-Wl,--defsym=_ZN5telux3loc18LocationInfoImplEx25getNorthStandardDeviationEv=so_stub_for_libtelux_loc
-Wl,--defsym=_ZN5telux3loc18LocationInfoImplEx26getProtectionLevelVerticalEv=so_stub_for_libtelux_loc
-Wl,--defsym=_ZN5telux3loc18LocationInfoImplEx28getProtectionLevelAlongTrackEv=so_stub_for_libtelux_loc
-Wl,--defsym=_ZN5telux3loc18LocationInfoImplEx28getProtectionLevelCrossTrackEv=so_stub_for_libtelux_loc
-Wl,--defsym=_ZN5telux3loc18LocationInfoImplEx29getElapsedRealTimeUncertaintyEv=so_stub_for_libtelux_loc
-Wl,--defsym=_ZN5telux3loc18LocationInfoImplEx31getCalibrationConfidencePercentEv=so_stub_for_libtelux_loc
-Wl,--defsym=_ZN5telux3loc18LocationInfoImplEx31getHorizontalUncertaintyAzimuthEv=so_stub_for_libtelux_loc
-Wl,--defsym=_ZN5telux3loc18LocationInfoImplEx33getHorizontalUncertaintySemiMajorEv=so_stub_for_libtelux_loc
-Wl,--defsym=_ZN5telux3loc18LocationInfoImplEx33getHorizontalUncertaintySemiMinorEv=so_stub_for_libtelux_loc
-Wl,--defsym=_ZN5telux3loc18LocationInfoImplEx33getVelocityUncertaintyEastNorthUpERSt6vectorIfSaIfEE=so_stub_for_libtelux_loc
-Wl,--defsym=_ZN5telux3loc18LocationInfoImplEx8getSpeedEv=so_stub_for_libtelux_loc
-Wl,--defsym=_ZN5telux3loc18LocationInfoImplEx8getSVIdsERSt6vectorItSaItEE=so_stub_for_libtelux_loc
-Wl,--defsym=_ZN5telux3loc18LocationInfoImplExC1Ev=so_stub_for_libtelux_loc
-Wl,--defsym=_ZN5telux3loc18LocationInfoImplExC2Ev=so_stub_for_libtelux_loc
-Wl,--defsym=_ZN5telux3loc18LocationInfoImplExD1Ev=so_stub_for_libtelux_loc
-Wl,--defsym=_ZN5telux3loc18LocationInfoImplExD2Ev=so_stub_for_libtelux_loc
-Wl,--defsym=_ZN5telux3loc19LocationFactoryImpl11getInstanceEv=so_stub_for_libtelux_loc
-Wl,--defsym=_ZN5telux3loc19LocationFactoryImpl15getDgnssManagerENS0_15DgnssDataFormatESt8functionIFvNS_6common13ServiceStatusEEE=so_stub_for_libtelux_loc
-Wl,--defsym=_ZN5telux3loc19LocationFactoryImpl18getLocationManagerESt8functionIFvNS_6common13ServiceStatusEEE=so_stub_for_libtelux_loc
-Wl,--defsym=_ZN5telux3loc19LocationFactoryImpl23getLocationConfiguratorESt8functionIFvNS_6common13ServiceStatusEEE=so_stub_for_libtelux_loc
-Wl,--defsym=_ZN5telux3loc19LocationFactoryImpl25onGetConfiguratorResponseENS_6common13ServiceStatusE=so_stub_for_libtelux_loc
-Wl,--defsym=_ZN5telux3loc19LocationFactoryImpl25onGetDgnssManagerResponseENS_6common13ServiceStatusE=so_stub_for_libtelux_loc
-Wl,--defsym=_ZN5telux3loc19LocationFactoryImplC1Ev=so_stub_for_libtelux_loc
-Wl,--defsym=_ZN5telux3loc19LocationFactoryImplC2Ev=so_stub_for_libtelux_loc
-Wl,--defsym=_ZN5telux3loc19LocationFactoryImplD1Ev=so_stub_for_libtelux_loc
-Wl,--defsym=_ZN5telux3loc19LocationFactoryImplD2Ev=so_stub_for_libtelux_loc
-Wl,--defsym=_ZN5telux3loc19LocationManagerImpl10onGnssSvCbERKSt6vectorIN15location_client6GnssSvESaIS4_EE=so_stub_for_libtelux_loc
-Wl,--defsym=_ZN5telux3loc19LocationManagerImpl11getYearOfHwESt8functionIFvtNS_6common9ErrorCodeEEE=so_stub_for_libtelux_loc
-Wl,--defsym=_ZN5telux3loc19LocationManagerImpl11stopReportsESt8functionIFvNS_6common9ErrorCodeEEE=so_stub_for_libtelux_loc
-Wl,--defsym=_ZN5telux3loc19LocationManagerImpl12onGnssDataCbERKN15location_client8GnssDataE=so_stub_for_libtelux_loc
-Wl,--defsym=_ZN5telux3loc19LocationManagerImpl12onGnssNmeaCbEmRKNSt7__cxx1112basic_stringIcSt11char_traitsIcESaIcEEE=so_stub_for_libtelux_loc
-Wl,--defsym=_ZN5telux3loc19LocationManagerImpl12onLocationCbERKN15location_client8LocationE=so_stub_for_libtelux_loc
-Wl,--defsym=_ZN5telux3loc19LocationManagerImpl14onEngineNmeaCbEN15location_client19LocOutputEngineTypeEmRKNSt7__cxx1112basic_stringIcSt11char_traitsIcESaIcEEE=so_stub_for_libtelux_loc
-Wl,--defsym=_ZN5telux3loc19LocationManagerImpl15getCapabilitiesEv=so_stub_for_libtelux_loc
-Wl,--defsym=_ZN5telux3loc19LocationManagerImpl15getyearOfHwSyncEtSt8functionIFvtNS_6common9ErrorCodeEEE=so_stub_for_libtelux_loc
-Wl,--defsym=_ZN5telux3loc19LocationManagerImpl15hasAccurateTimeERKN15location_client14GnssSystemTimeE=so_stub_for_libtelux_loc
-Wl,--defsym=_ZN5telux3loc19LocationManagerImpl16getServiceStatusEv=so_stub_for_libtelux_loc
-Wl,--defsym=_ZN5telux3loc19LocationManagerImpl16isSubsystemReadyEv=so_stub_for_libtelux_loc
-Wl,--defsym=_ZN5telux3loc19LocationManagerImpl16onCapabilitiesCbEm=so_stub_for_libtelux_loc
-Wl,--defsym=_ZN5telux3loc19LocationManagerImpl16onGnssLocationCbERKN15location_client12GnssLocationE=so_stub_for_libtelux_loc
-Wl,--defsym=_ZN5telux3loc19LocationManagerImpl16onSubsystemReadyEv=so_stub_for_libtelux_loc
-Wl,--defsym=_ZN5telux3loc19LocationManagerImpl16onSysPowerChangeENS_3qmi8PwrStateE=so_stub_for_libtelux_loc
-Wl,--defsym=_ZN5telux3loc19LocationManagerImpl17onGnssEphemerisCbERKN15location_client13GnssEphemerisE=so_stub_for_libtelux_loc
-Wl,--defsym=_ZN5telux3loc19LocationManagerImpl17startBasicReportsEjjSt8functionIFvNS_6common9ErrorCodeEEE=so_stub_for_libtelux_loc
-Wl,--defsym=_ZN5telux3loc19LocationManagerImpl17startBasicReportsEjSt8functionIFvNS_6common9ErrorCodeEEE=so_stub_for_libtelux_loc
-Wl,--defsym=_ZN5telux3loc19LocationManagerImpl18adjustTimeIntervalERj=so_stub_for_libtelux_loc
-Wl,--defsym=_ZN5telux3loc19LocationManagerImpl18registerListenerExESt8weak_ptrINS0_17ILocationListenerEE=so_stub_for_libtelux_loc
-Wl,--defsym=_ZN5telux3loc19LocationManagerImpl19onEngineLocationsCbERKSt6vectorIN15location_client12GnssLocationESaIS4_EE=so_stub_for_libtelux_loc
-Wl,--defsym=_ZN5telux3loc19LocationManagerImpl20computeGnssTimeStampERKN15location_client12GnssLocationE=so_stub_for_libtelux_loc
-Wl,--defsym=_ZN5telux3loc19LocationManagerImpl20deRegisterListenerExESt8weak_ptrINS0_17ILocationListenerEE=so_stub_for_libtelux_loc
-Wl,--defsym=_ZN5telux3loc19LocationManagerImpl20onGnssExtendedDataCbERKSt6vectorIhSaIhEE=so_stub_for_libtelux_loc
-Wl,--defsym=_ZN5telux3loc19LocationManagerImpl20onGnssMeasurementsCbERKN15location_client16GnssMeasurementsE=so_stub_for_libtelux_loc
-Wl,--defsym=_ZN5telux3loc19LocationManagerImpl20startDetailedReportsEjSt8functionIFvNS_6common9ErrorCodeEEEj=so_stub_for_libtelux_loc
-Wl,--defsym=_ZN5telux3loc19LocationManagerImpl21startBasicReportsSyncEjSt8functionIFvNS_6common9ErrorCodeEEE=so_stub_for_libtelux_loc
-Wl,--defsym=_ZN5telux3loc19LocationManagerImpl21waitForInitializationEv=so_stub_for_libtelux_loc
-Wl,--defsym=_ZN5telux3loc19LocationManagerImpl22getTerrestrialPositionEjjSt8functionIFvSt10shared_ptrINS0_17ILocationInfoBaseEEEES2_IFvNS_6common9ErrorCodeEEE=so_stub_for_libtelux_loc
-Wl,--defsym=_ZN5telux3loc19LocationManagerImpl22onGnssDisasterCrisisCbERKN15location_client12GnssDcReportE=so_stub_for_libtelux_loc
-Wl,--defsym=_ZN5telux3loc19LocationManagerImpl22onLocationSystemInfoCbERKN15location_client18LocationSystemInfoE=so_stub_for_libtelux_loc
-Wl,--defsym=_ZN5telux3loc19LocationManagerImpl23convertEngineReportTypeEjRN15location_client15EngineReportCbsE=so_stub_for_libtelux_loc
-Wl,--defsym=_ZN5telux3loc19LocationManagerImpl24getAvailableNewListenersERSt6vectorISt10shared_ptrINS_6common12ISDKListenerEESaIS6_EE=so_stub_for_libtelux_loc
-Wl,--defsym=_ZN5telux3loc19LocationManagerImpl24startDetailedReportsSyncEjSt8functionIFvNS_6common9ErrorCodeEEEj=so_stub_for_libtelux_loc
-Wl,--defsym=_ZN5telux3loc19LocationManagerImpl25convertDetailedReportTypeEjRN15location_client13GnssReportCbsE=so_stub_for_libtelux_loc
-Wl,--defsym=_ZN5telux3loc19LocationManagerImpl25requestEnergyConsumedInfoESt8functionIFvNS0_22GnssEnergyConsumedInfoENS_6common9ErrorCodeEEE=so_stub_for_libtelux_loc
-Wl,--defsym=_ZN5telux3loc19LocationManagerImpl26getTerrestrialPositionSyncEjjSt8functionIFvSt10shared_ptrINS0_17ILocationInfoBaseEEEES2_IFvNS_6common9ErrorCodeEEE=so_stub_for_libtelux_loc
-Wl,--defsym=_ZN5telux3loc19LocationManagerImpl26onGnssEnergyConsumedInfoCbERKN15location_client22GnssEnergyConsumedInfoE=so_stub_for_libtelux_loc
-Wl,--defsym=_ZN5telux3loc19LocationManagerImpl26startDetailedEngineReportsEjtSt8functionIFvNS_6common9ErrorCodeEEEj=so_stub_for_libtelux_loc
-Wl,--defsym=_ZN5telux3loc19LocationManagerImpl27onTerrestrialPositionInfoCbERKN15location_client8LocationE=so_stub_for_libtelux_loc
-Wl,--defsym=_ZN5telux3loc19LocationManagerImpl28registerForSystemInfoUpdatesESt8weak_ptrINS0_27ILocationSystemInfoListenerEESt8functionIFvNS_6common9ErrorCodeEEE=so_stub_for_libtelux_loc
-Wl,--defsym=_ZN5telux3loc19LocationManagerImpl29requestEnergyConsumedInfoSyncESt8functionIFvNS0_22GnssEnergyConsumedInfoENS_6common9ErrorCodeEEE=so_stub_for_libtelux_loc
-Wl,--defsym=_ZN5telux3loc19LocationManagerImpl30deRegisterForSystemInfoUpdatesESt8weak_ptrINS0_27ILocationSystemInfoListenerEESt8functionIFvNS_6common9ErrorCodeEEE=so_stub_for_libtelux_loc
-Wl,--defsym=_ZN5telux3loc19LocationManagerImpl30startDetailedEngineReportsSyncEjtSt8functionIFvNS_6common9ErrorCodeEEEj=so_stub_for_libtelux_loc
-Wl,--defsym=_ZN5telux3loc19LocationManagerImpl32cancelTerrestrialPositionRequestESt8functionIFvNS_6common9ErrorCodeEEE=so_stub_for_libtelux_loc
-Wl,--defsym=_ZN5telux3loc19LocationManagerImpl32registerForSystemInfoUpdatesSyncESt8weak_ptrINS0_27ILocationSystemInfoListenerEESt8functionIFvNS_6common9ErrorCodeEEE=so_stub_for_libtelux_loc
-Wl,--defsym=_ZN5telux3loc19LocationManagerImpl34deRegisterForSystemInfoUpdatesSyncESt8weak_ptrINS0_27ILocationSystemInfoListenerEESt8functionIFvNS_6common9ErrorCodeEEE=so_stub_for_libtelux_loc
-Wl,--defsym=_ZN5telux3loc19LocationManagerImpl36cancelTerrestrialPositionRequestSyncESt8functionIFvNS_6common9ErrorCodeEEE=so_stub_for_libtelux_loc
-Wl,--defsym=_ZN5telux3loc19LocationManagerImpl4initESt8functionIFvNS_6common13ServiceStatusEEE=so_stub_for_libtelux_loc
-Wl,--defsym=_ZN5telux3loc19LocationManagerImpl7cleanupEv=so_stub_for_libtelux_loc
-Wl,--defsym=_ZN5telux3loc19LocationManagerImplC1Ev=so_stub_for_libtelux_loc
-Wl,--defsym=_ZN5telux3loc19LocationManagerImplC2Ev=so_stub_for_libtelux_loc
-Wl,--defsym=_ZN5telux3loc19LocationManagerImplD0Ev=so_stub_for_libtelux_loc
-Wl,--defsym=_ZN5telux3loc19LocationManagerImplD1Ev=so_stub_for_libtelux_loc
-Wl,--defsym=_ZN5telux3loc19LocationManagerImplD2Ev=so_stub_for_libtelux_loc
-Wl,--defsym=_ZN5telux3loc20LocationReportFilter15isReportIgnoredEmNS0_10ReportTypeE=so_stub_for_libtelux_loc
-Wl,--defsym=_ZN5telux3loc20LocationReportFilter15resetAllFiltersEv=so_stub_for_libtelux_loc
-Wl,--defsym=_ZN5telux3loc20LocationReportFilter17startReportFilterEmNS0_10ReportTypeE=so_stub_for_libtelux_loc
-Wl,--defsym=_ZN5telux3loc20LocationReportFilterC1Ev=so_stub_for_libtelux_loc
-Wl,--defsym=_ZN5telux3loc20LocationReportFilterC2Ev=so_stub_for_libtelux_loc
-Wl,--defsym=_ZN5telux3loc21LocationInfoImplBasic10getHeadingEv=so_stub_for_libtelux_loc
-Wl,--defsym=_ZN5telux3loc21LocationInfoImplBasic11getAltitudeEv=so_stub_for_libtelux_loc
-Wl,--defsym=_ZN5telux3loc21LocationInfoImplBasic11getLatitudeEv=so_stub_for_libtelux_loc
-Wl,--defsym=_ZN5telux3loc21LocationInfoImplBasic11getTechMaskEv=so_stub_for_libtelux_loc
-Wl,--defsym=_ZN5telux3loc21LocationInfoImplBasic12getLongitudeEv=so_stub_for_libtelux_loc
-Wl,--defsym=_ZN5telux3loc21LocationInfoImplBasic12getTimeStampEv=so_stub_for_libtelux_loc
-Wl,--defsym=_ZN5telux3loc21LocationInfoImplBasic12getTimeUncMsEv=so_stub_for_libtelux_loc
-Wl,--defsym=_ZN5telux3loc21LocationInfoImplBasic18getElapsedGptpTimeEv=so_stub_for_libtelux_loc
-Wl,--defsym=_ZN5telux3loc21LocationInfoImplBasic18getElapsedRealTimeEv=so_stub_for_libtelux_loc
-Wl,--defsym=_ZN5telux3loc21LocationInfoImplBasic19getSpeedUncertaintyEv=so_stub_for_libtelux_loc
-Wl,--defsym=_ZN5telux3loc21LocationInfoImplBasic21getElapsedGptpTimeUncEv=so_stub_for_libtelux_loc
-Wl,--defsym=_ZN5telux3loc21LocationInfoImplBasic21getHeadingUncertaintyEv=so_stub_for_libtelux_loc
-Wl,--defsym=_ZN5telux3loc21LocationInfoImplBasic22getVerticalUncertaintyEv=so_stub_for_libtelux_loc
-Wl,--defsym=_ZN5telux3loc21LocationInfoImplBasic23getLocationInfoValidityEv=so_stub_for_libtelux_loc
-Wl,--defsym=_ZN5telux3loc21LocationInfoImplBasic24getHorizontalUncertaintyEv=so_stub_for_libtelux_loc
-Wl,--defsym=_ZN5telux3loc21LocationInfoImplBasic29getElapsedRealTimeUncertaintyEv=so_stub_for_libtelux_loc
-Wl,--defsym=_ZN5telux3loc21LocationInfoImplBasic8getSpeedEv=so_stub_for_libtelux_loc
-Wl,--defsym=_ZN5telux3loc21LocationInfoImplBasicC1Ev=so_stub_for_libtelux_loc
-Wl,--defsym=_ZN5telux3loc21LocationInfoImplBasicC2Ev=so_stub_for_libtelux_loc
-Wl,--defsym=_ZN5telux3loc24LocationConfiguratorImpl11configureDRERKNS0_21DREngineConfigurationESt8functionIFvNS_6common9ErrorCodeEEE=so_stub_for_libtelux_loc
-Wl,--defsym=_ZN5telux3loc24LocationConfiguratorImpl13configureNmeaENS0_10NmeaConfigESt8functionIFvNS_6common9ErrorCodeEEE=so_stub_for_libtelux_loc
-Wl,--defsym=_ZN5telux3loc24LocationConfiguratorImpl13configurePACEEbSt8functionIFvNS_6common9ErrorCodeEEE=so_stub_for_libtelux_loc
-Wl,--defsym=_ZN5telux3loc24LocationConfiguratorImpl14configureCTuncEbSt8functionIFvNS_6common9ErrorCodeEEEfj=so_stub_for_libtelux_loc
-Wl,--defsym=_ZN5telux3loc24LocationConfiguratorImpl14configureOsnmaEbSt8functionIFvNS_6common9ErrorCodeEEE=so_stub_for_libtelux_loc
-Wl,--defsym=_ZN5telux3loc24LocationConfiguratorImpl14onMinGpsWeekCbEt=so_stub_for_libtelux_loc
-Wl,--defsym=_ZN5telux3loc24LocationConfiguratorImpl16deleteAidingDataEjSt8functionIFvNS_6common9ErrorCodeEEE=so_stub_for_libtelux_loc
-Wl,--defsym=_ZN5telux3loc24LocationConfiguratorImpl16getServiceStatusEv=so_stub_for_libtelux_loc
-Wl,--defsym=_ZN5telux3loc24LocationConfiguratorImpl16isSubsystemReadyEv=so_stub_for_libtelux_loc
-Wl,--defsym=_ZN5telux3loc24LocationConfiguratorImpl16onSubsystemReadyEv=so_stub_for_libtelux_loc
-Wl,--defsym=_ZN5telux3loc24LocationConfiguratorImpl16registerListenerESt6bitsetILm32EESt8weak_ptrINS0_23ILocationConfigListenerEE=so_stub_for_libtelux_loc
-Wl,--defsym=_ZN5telux3loc24LocationConfiguratorImpl17configureLeverArmERKSt13unordered_mapINS0_12LeverArmTypeENS0_14LeverArmParamsESt4hashIS3_ESt8equal_toIS3_ESaISt4pairIKS3_S4_EEESt8functionIFvNS_6common9ErrorCodeEEE=so_stub_for_libtelux_loc
-Wl,--defsym=_ZN5telux3loc24LocationConfiguratorImpl17onSecondaryBandCbERKSt13unordered_setIN20location_integration21GnssConstellationTypeESt4hashIS4_ESt8equal_toIS4_ESaIS4_EE=so_stub_for_libtelux_loc
-Wl,--defsym=_ZN5telux3loc24LocationConfiguratorImpl17requestMinGpsWeekESt8functionIFvtNS_6common9ErrorCodeEEE=so_stub_for_libtelux_loc
-Wl,--defsym=_ZN5telux3loc24LocationConfiguratorImpl17requestXtraStatusESt8functionIFvNS0_10XtraStatusENS_6common9ErrorCodeEEE=so_stub_for_libtelux_loc
-Wl,--defsym=_ZN5telux3loc24LocationConfiguratorImpl18configureNmeaTypesEjSt8functionIFvNS_6common9ErrorCodeEEE=so_stub_for_libtelux_loc
-Wl,--defsym=_ZN5telux3loc24LocationConfiguratorImpl18deRegisterListenerESt6bitsetILm32EESt8weak_ptrINS0_23ILocationConfigListenerEE=so_stub_for_libtelux_loc
-Wl,--defsym=_ZN5telux3loc24LocationConfiguratorImpl18onConfigResponseCbEN20location_integration17LocConfigTypeEnumENS2_22LocIntegrationResponseE=so_stub_for_libtelux_loc
-Wl,--defsym=_ZN5telux3loc24LocationConfiguratorImpl18onMinSVElevationCbEh=so_stub_for_libtelux_loc
-Wl,--defsym=_ZN5telux3loc24LocationConfiguratorImpl18onRobustLocationCbEN20location_integration20RobustLocationConfigE=so_stub_for_libtelux_loc
-Wl,--defsym=_ZN5telux3loc24LocationConfiguratorImpl19configureMinGpsWeekEtSt8functionIFvNS_6common9ErrorCodeEEE=so_stub_for_libtelux_loc
-Wl,--defsym=_ZN5telux3loc24LocationConfiguratorImpl19configureXtraParamsEbNS0_10XtraConfigESt8functionIFvNS_6common9ErrorCodeEEE=so_stub_for_libtelux_loc
-Wl,--defsym=_ZN5telux3loc24LocationConfiguratorImpl19deleteAllAidingDataESt8functionIFvNS_6common9ErrorCodeEEE=so_stub_for_libtelux_loc
-Wl,--defsym=_ZN5telux3loc24LocationConfiguratorImpl20configureEngineStateENS0_10EngineTypeENS0_22LocationEngineRunStateESt8functionIFvNS_6common9ErrorCodeEEE=so_stub_for_libtelux_loc
-Wl,--defsym=_ZN5telux3loc24LocationConfiguratorImpl20onGnssSignalUpdateCbEN15location_client18GnssSignalTypeMaskE=so_stub_for_libtelux_loc
-Wl,--defsym=_ZN5telux3loc24LocationConfiguratorImpl20onXtraStatusUpdateCbEN20location_integration23XtraStatusUpdateTriggerERKNS2_10XtraStatusE=so_stub_for_libtelux_loc
-Wl,--defsym=_ZN5telux3loc24LocationConfiguratorImpl20sendXtraRegistrationERSt6bitsetILm32EE=so_stub_for_libtelux_loc
-Wl,--defsym=_ZN5telux3loc24LocationConfiguratorImpl21onConfigOsnmaResponseESt8functionIFvNS_6common9ErrorCodeEEE=so_stub_for_libtelux_loc
-Wl,--defsym=_ZN5telux3loc24LocationConfiguratorImpl21provideConsentForXtraEbSt8functionIFvNS_6common9ErrorCodeEEE=so_stub_for_libtelux_loc
-Wl,--defsym=_ZN5telux3loc24LocationConfiguratorImpl21requestMinSVElevationESt8functionIFvhNS_6common9ErrorCodeEEE=so_stub_for_libtelux_loc
-Wl,--defsym=_ZN5telux3loc24LocationConfiguratorImpl21requestRobustLocationESt8functionIFvNS0_27RobustLocationConfigurationENS_6common9ErrorCodeEEE=so_stub_for_libtelux_loc
-Wl,--defsym=_ZN5telux3loc24LocationConfiguratorImpl21waitForConfigResponseEN20location_integration17LocConfigTypeEnumESt8functionIFvNS_6common9ErrorCodeEEE=so_stub_for_libtelux_loc
-Wl,--defsym=_ZN5telux3loc24LocationConfiguratorImpl21waitForInitializationEv=so_stub_for_libtelux_loc
-Wl,--defsym=_ZN5telux3loc24LocationConfiguratorImpl22configureSecondaryBandERKSt13unordered_setINS0_21GnssConstellationTypeESt4hashIS3_ESt8equal_toIS3_ESaIS3_EESt8functionIFvNS_6common9ErrorCodeEEE=so_stub_for_libtelux_loc
-Wl,--defsym=_ZN5telux3loc24LocationConfiguratorImpl22registerForXtraUpdatesEb=so_stub_for_libtelux_loc
-Wl,--defsym=_ZN5telux3loc24LocationConfiguratorImpl22sendXtraDeregistrationERSt6bitsetILm32EE=so_stub_for_libtelux_loc
-Wl,--defsym=_ZN5telux3loc24LocationConfiguratorImpl23configureConstellationsERKSt6vectorINS0_15SvBlackListInfoESaIS3_EESt8functionIFvNS_6common9ErrorCodeEEEb=so_stub_for_libtelux_loc
-Wl,--defsym=_ZN5telux3loc24LocationConfiguratorImpl23configureMinSVElevationEhSt8functionIFvNS_6common9ErrorCodeEEE=so_stub_for_libtelux_loc
-Wl,--defsym=_ZN5telux3loc24LocationConfiguratorImpl23configureRobustLocationEbbSt8functionIFvNS_6common9ErrorCodeEEE=so_stub_for_libtelux_loc
-Wl,--defsym=_ZN5telux3loc24LocationConfiguratorImpl24onDREngineConfigResponseESt8functionIFvNS_6common9ErrorCodeEEE=so_stub_for_libtelux_loc
-Wl,--defsym=_ZN5telux3loc24LocationConfiguratorImpl25onConfigNmeaTypesResponseESt8functionIFvNS_6common9ErrorCodeEEE=so_stub_for_libtelux_loc
-Wl,--defsym=_ZN5telux3loc24LocationConfiguratorImpl26onConfigMinGpsWeekResponseESt8functionIFvNS_6common9ErrorCodeEEE=so_stub_for_libtelux_loc
-Wl,--defsym=_ZN5telux3loc24LocationConfiguratorImpl26onPACEConfiguratorResponseESt8functionIFvNS_6common9ErrorCodeEEE=so_stub_for_libtelux_loc
-Wl,--defsym=_ZN5telux3loc24LocationConfiguratorImpl26onTuncConfiguratorResponseESt8functionIFvNS_6common9ErrorCodeEEE=so_stub_for_libtelux_loc
-Wl,--defsym=_ZN5telux3loc24LocationConfiguratorImpl26requestSecondaryBandConfigESt8functionIFvSt13unordered_setINS0_21GnssConstellationTypeESt4hashIS4_ESt8equal_toIS4_ESaIS4_EENS_6common9ErrorCodeEEE=so_stub_for_libtelux_loc
-Wl,--defsym=_ZN5telux3loc24LocationConfiguratorImpl27injectMerkleTreeInformationENSt7__cxx1112basic_stringIcSt11char_traitsIcESaIcEEESt8functionIFvNS_6common9ErrorCodeEEE=so_stub_for_libtelux_loc
-Wl,--defsym=_ZN5telux3loc24LocationConfiguratorImpl27onConfigEngineStateResponseESt8functionIFvNS_6common9ErrorCodeEEE=so_stub_for_libtelux_loc
-Wl,--defsym=_ZN5telux3loc24LocationConfiguratorImpl27onRequestMinGpsWeekResponseESt8functionIFvtNS_6common9ErrorCodeEEE=so_stub_for_libtelux_loc
-Wl,--defsym=_ZN5telux3loc24LocationConfiguratorImpl27onRequestXtraStatusResponseESt8functionIFvNS0_10XtraStatusENS_6common9ErrorCodeEEE=so_stub_for_libtelux_loc
-Wl,--defsym=_ZN5telux3loc24LocationConfiguratorImpl28configureEngineIntegrityRiskENS0_10EngineTypeEjSt8functionIFvNS_6common9ErrorCodeEEE=so_stub_for_libtelux_loc
-Wl,--defsym=_ZN5telux3loc24LocationConfiguratorImpl28onDeleteConfiguratorResponseESt8functionIFvNS_6common9ErrorCodeEEE=so_stub_for_libtelux_loc
-Wl,--defsym=_ZN5telux3loc24LocationConfiguratorImpl28registerForGnssSignalUpdatesEb=so_stub_for_libtelux_loc
-Wl,--defsym=_ZN5telux3loc24LocationConfiguratorImpl29onConfigureXtraParamsResponseESt8functionIFvNS_6common9ErrorCodeEEE=so_stub_for_libtelux_loc
-Wl,--defsym=_ZN5telux3loc24LocationConfiguratorImpl30onConfigMinSVElevationResponseESt8functionIFvNS_6common9ErrorCodeEEE=so_stub_for_libtelux_loc
-Wl,--defsym=_ZN5telux3loc24LocationConfiguratorImpl30onLeverArmConfiguratorResponseESt8functionIFvNS_6common9ErrorCodeEEE=so_stub_for_libtelux_loc
-Wl,--defsym=_ZN5telux3loc24LocationConfiguratorImpl30onRequestSecondaryBandResponseESt8functionIFvSt13unordered_setINS0_21GnssConstellationTypeESt4hashIS4_ESt8equal_toIS4_ESaIS4_EENS_6common9ErrorCodeEEE=so_stub_for_libtelux_loc
-Wl,--defsym=_ZN5telux3loc24LocationConfiguratorImpl31onRequestMinSVElevationResponseESt8functionIFvhNS_6common9ErrorCodeEEE=so_stub_for_libtelux_loc
-Wl,--defsym=_ZN5telux3loc24LocationConfiguratorImpl31onRequestRobustLocationResponseESt8functionIFvNS0_27RobustLocationConfigurationENS_6common9ErrorCodeEEE=so_stub_for_libtelux_loc
-Wl,--defsym=_ZN5telux3loc24LocationConfiguratorImpl31onRobustLocConfiguratorResponseESt8functionIFvNS_6common9ErrorCodeEEE=so_stub_for_libtelux_loc
-Wl,--defsym=_ZN5telux3loc24LocationConfiguratorImpl32onDeleteDataConfiguratorResponseESt8functionIFvNS_6common9ErrorCodeEEE=so_stub_for_libtelux_loc
-Wl,--defsym=_ZN5telux3loc24LocationConfiguratorImpl32onTerrestrialPositioningResponseESt8functionIFvNS_6common9ErrorCodeEEE=so_stub_for_libtelux_loc
-Wl,--defsym=_ZN5telux3loc24LocationConfiguratorImpl32sendGnssSignalUpdateRegistrationERSt6bitsetILm32EE=so_stub_for_libtelux_loc
-Wl,--defsym=_ZN5telux3loc24LocationConfiguratorImpl33onBlackListSvConfiguratorResponseESt8functionIFvNS_6common9ErrorCodeEEE=so_stub_for_libtelux_loc
-Wl,--defsym=_ZN5telux3loc24LocationConfiguratorImpl33onMerkleTreeInfoInjectionResponseESt8functionIFvNS_6common9ErrorCodeEEE=so_stub_for_libtelux_loc
-Wl,--defsym=_ZN5telux3loc24LocationConfiguratorImpl34sendGnssSignalUpdateDeregistrationERSt6bitsetILm32EE=so_stub_for_libtelux_loc
-Wl,--defsym=_ZN5telux3loc24LocationConfiguratorImpl35onConfigEngineIntegrityRiskResponseESt8functionIFvNS_6common9ErrorCodeEEE=so_stub_for_libtelux_loc
-Wl,--defsym=_ZN5telux3loc24LocationConfiguratorImpl35onSecondaryBandConfiguratorResponseESt8functionIFvNS_6common9ErrorCodeEEE=so_stub_for_libtelux_loc
-Wl,--defsym=_ZN5telux3loc24LocationConfiguratorImpl39provideConsentForTerrestrialPositioningEbSt8functionIFvNS_6common9ErrorCodeEEE=so_stub_for_libtelux_loc
-Wl,--defsym=_ZN5telux3loc24LocationConfiguratorImpl4initESt8functionIFvNS_6common13ServiceStatusEEE=so_stub_for_libtelux_loc
-Wl,--defsym=_ZN5telux3loc24LocationConfiguratorImpl7cleanupEv=so_stub_for_libtelux_loc
-Wl,--defsym=_ZN5telux3loc24LocationConfiguratorImplC1Ev=so_stub_for_libtelux_loc
-Wl,--defsym=_ZN5telux3loc24LocationConfiguratorImplC2Ev=so_stub_for_libtelux_loc
-Wl,--defsym=_ZN5telux3loc24LocationConfiguratorImplD0Ev=so_stub_for_libtelux_loc
-Wl,--defsym=_ZN5telux3loc24LocationConfiguratorImplD1Ev=so_stub_for_libtelux_loc
-Wl,--defsym=_ZN5telux3loc24LocationConfiguratorImplD2Ev=so_stub_for_libtelux_loc
-Wl,--defsym=_ZN5telux3loc33setRequiredPermToRunAsDgnssClientEv=so_stub_for_libtelux_loc
-Wl,--defsym=_ZN5telux3loc34LocationPowerStateResponseCallback15commandResponseENS_6common9ErrorCodeE=so_stub_for_libtelux_loc
-Wl,--defsym=_ZN5telux3loc8USERNAMEE=so_stub_for_libtelux_loc
-Wl,--defsym=_ZN5telux6common14AsyncTaskQueueIvE11executeTaskEv=so_stub_for_libtelux_loc
-Wl,--defsym=_ZN5telux6common14AsyncTaskQueueIvE14purgeCompletedEv=so_stub_for_libtelux_loc
-Wl,--defsym=_ZN5telux6common14AsyncTaskQueueIvE3addERSt13shared_futureIvE=so_stub_for_libtelux_loc
-Wl,--defsym=_ZN5telux6common14AsyncTaskQueueIvE8shutdownEb=so_stub_for_libtelux_loc
-Wl,--defsym=_ZN5telux6common14AsyncTaskQueueIvEC1Ev=so_stub_for_libtelux_loc
-Wl,--defsym=_ZN5telux6common14AsyncTaskQueueIvEC2Ev=so_stub_for_libtelux_loc
-Wl,--defsym=_ZN5telux6common14AsyncTaskQueueIvED1Ev=so_stub_for_libtelux_loc
-Wl,--defsym=_ZN5telux6common14AsyncTaskQueueIvED2Ev=so_stub_for_libtelux_loc
-Wl,--defsym=_ZN5telux6common15ListenerManager16registerListenerESt8weak_ptrINS0_12ISDKListenerEE=so_stub_for_libtelux_loc
-Wl,--defsym=_ZN5telux6common15ListenerManager16registerListenerISt6bitsetILm32EEEENS0_6StatusESt8weak_ptrINS0_12ISDKListenerEET_RS9_=so_stub_for_libtelux_loc
-Wl,--defsym=_ZN5telux6common15ListenerManager18deRegisterListenerESt8weak_ptrINS0_12ISDKListenerEE=so_stub_for_libtelux_loc
-Wl,--defsym=_ZN5telux6common15ListenerManager18deRegisterListenerISt6bitsetILm32EEEENS0_6StatusESt8weak_ptrINS0_12ISDKListenerEET_RS9_=so_stub_for_libtelux_loc
-Wl,--defsym=_ZN5telux6common15ListenerManager21getAvailableListenersEjRSt6vectorISt8weak_ptrINS0_12ISDKListenerEESaIS5_EE=so_stub_for_libtelux_loc
-Wl,--defsym=_ZN5telux6common15ListenerManager21getAvailableListenersERSt6vectorISt8weak_ptrINS0_12ISDKListenerEESaIS5_EE=so_stub_for_libtelux_loc
-Wl,--defsym=_ZN5telux6common15ListenerManager5purgeEv=so_stub_for_libtelux_loc
-Wl,--defsym=_ZN5telux6common15ListenerManager7cleanupEv=so_stub_for_libtelux_loc
-Wl,--defsym=_ZN5telux6common15ListenerManagerC1Ev=so_stub_for_libtelux_loc
-Wl,--defsym=_ZN5telux6common15ListenerManagerC2Ev=so_stub_for_libtelux_loc
-Wl,--defsym=_ZN5telux6common15ListenerManagerD1Ev=so_stub_for_libtelux_loc
-Wl,--defsym=_ZN5telux6common15ListenerManagerD2Ev=so_stub_for_libtelux_loc
-Wl,--defsym=_ZN5telux6common18FunctionalCallbackIJhNS0_9ErrorCodeEEED0Ev=so_stub_for_libtelux_loc
-Wl,--defsym=_ZN5telux6common18FunctionalCallbackIJhNS0_9ErrorCodeEEED1Ev=so_stub_for_libtelux_loc
-Wl,--defsym=_ZN5telux6common18FunctionalCallbackIJhNS0_9ErrorCodeEEED2Ev=so_stub_for_libtelux_loc
-Wl,--defsym=_ZN5telux6common18FunctionalCallbackIJNS0_13ServiceStatusEEED0Ev=so_stub_for_libtelux_loc
-Wl,--defsym=_ZN5telux6common18FunctionalCallbackIJNS0_13ServiceStatusEEED1Ev=so_stub_for_libtelux_loc
-Wl,--defsym=_ZN5telux6common18FunctionalCallbackIJNS0_13ServiceStatusEEED2Ev=so_stub_for_libtelux_loc
-Wl,--defsym=_ZN5telux6common18FunctionalCallbackIJNS_3loc10XtraStatusENS0_9ErrorCodeEEED0Ev=so_stub_for_libtelux_loc
-Wl,--defsym=_ZN5telux6common18FunctionalCallbackIJNS_3loc10XtraStatusENS0_9ErrorCodeEEED1Ev=so_stub_for_libtelux_loc
-Wl,--defsym=_ZN5telux6common18FunctionalCallbackIJNS_3loc10XtraStatusENS0_9ErrorCodeEEED2Ev=so_stub_for_libtelux_loc
-Wl,--defsym=_ZN5telux6common18FunctionalCallbackIJNS_3loc22GnssEnergyConsumedInfoENS0_9ErrorCodeEEED0Ev=so_stub_for_libtelux_loc
-Wl,--defsym=_ZN5telux6common18FunctionalCallbackIJNS_3loc22GnssEnergyConsumedInfoENS0_9ErrorCodeEEED1Ev=so_stub_for_libtelux_loc
-Wl,--defsym=_ZN5telux6common18FunctionalCallbackIJNS_3loc22GnssEnergyConsumedInfoENS0_9ErrorCodeEEED2Ev=so_stub_for_libtelux_loc
-Wl,--defsym=_ZN5telux6common18FunctionalCallbackIJNS_3loc27RobustLocationConfigurationENS0_9ErrorCodeEEED0Ev=so_stub_for_libtelux_loc
-Wl,--defsym=_ZN5telux6common18FunctionalCallbackIJNS_3loc27RobustLocationConfigurationENS0_9ErrorCodeEEED1Ev=so_stub_for_libtelux_loc
-Wl,--defsym=_ZN5telux6common18FunctionalCallbackIJNS_3loc27RobustLocationConfigurationENS0_9ErrorCodeEEED2Ev=so_stub_for_libtelux_loc
-Wl,--defsym=_ZN5telux6common18FunctionalCallbackIJSt10shared_ptrINS_3loc17ILocationInfoBaseEEEED0Ev=so_stub_for_libtelux_loc
-Wl,--defsym=_ZN5telux6common18FunctionalCallbackIJSt10shared_ptrINS_3loc17ILocationInfoBaseEEEED1Ev=so_stub_for_libtelux_loc
-Wl,--defsym=_ZN5telux6common18FunctionalCallbackIJSt10shared_ptrINS_3loc17ILocationInfoBaseEEEED2Ev=so_stub_for_libtelux_loc
-Wl,--defsym=_ZN5telux6common18FunctionalCallbackIJSt13unordered_setINS_3loc21GnssConstellationTypeESt4hashIS4_ESt8equal_toIS4_ESaIS4_EENS0_9ErrorCodeEEED0Ev=so_stub_for_libtelux_loc
-Wl,--defsym=_ZN5telux6common18FunctionalCallbackIJSt13unordered_setINS_3loc21GnssConstellationTypeESt4hashIS4_ESt8equal_toIS4_ESaIS4_EENS0_9ErrorCodeEEED1Ev=so_stub_for_libtelux_loc
-Wl,--defsym=_ZN5telux6common18FunctionalCallbackIJSt13unordered_setINS_3loc21GnssConstellationTypeESt4hashIS4_ESt8equal_toIS4_ESaIS4_EENS0_9ErrorCodeEEED2Ev=so_stub_for_libtelux_loc
-Wl,--defsym=_ZN5telux6common18FunctionalCallbackIJtNS0_9ErrorCodeEEED0Ev=so_stub_for_libtelux_loc
-Wl,--defsym=_ZN5telux6common18FunctionalCallbackIJtNS0_9ErrorCodeEEED1Ev=so_stub_for_libtelux_loc
-Wl,--defsym=_ZN5telux6common18FunctionalCallbackIJtNS0_9ErrorCodeEEED2Ev=so_stub_for_libtelux_loc
-Wl,--defsym=_ZN5telux6common22CommandCallbackManager11addCallbackIJhNS0_9ErrorCodeEEEEiSt8functionIFvDpT_EE=so_stub_for_libtelux_loc
-Wl,--defsym=_ZN5telux6common22CommandCallbackManager11addCallbackIJNS0_13ServiceStatusEEEEiSt8functionIFvDpT_EE=so_stub_for_libtelux_loc
-Wl,--defsym=_ZN5telux6common22CommandCallbackManager11addCallbackIJNS_3loc10XtraStatusENS0_9ErrorCodeEEEEiSt8functionIFvDpT_EE=so_stub_for_libtelux_loc
-Wl,--defsym=_ZN5telux6common22CommandCallbackManager11addCallbackIJNS_3loc22GnssEnergyConsumedInfoENS0_9ErrorCodeEEEEiSt8functionIFvDpT_EE=so_stub_for_libtelux_loc
-Wl,--defsym=_ZN5telux6common22CommandCallbackManager11addCallbackIJNS_3loc27RobustLocationConfigurationENS0_9ErrorCodeEEEEiSt8functionIFvDpT_EE=so_stub_for_libtelux_loc
-Wl,--defsym=_ZN5telux6common22CommandCallbackManager11addCallbackIJSt10shared_ptrINS_3loc17ILocationInfoBaseEEEEEiSt8functionIFvDpT_EE=so_stub_for_libtelux_loc
-Wl,--defsym=_ZN5telux6common22CommandCallbackManager11addCallbackIJSt13unordered_setINS_3loc21GnssConstellationTypeESt4hashIS5_ESt8equal_toIS5_ESaIS5_EENS0_9ErrorCodeEEEEiSt8functionIFvDpT_EE=so_stub_for_libtelux_loc
-Wl,--defsym=_ZN5telux6common22CommandCallbackManager11addCallbackIJtNS0_9ErrorCodeEEEEiSt8functionIFvDpT_EE=so_stub_for_libtelux_loc
-Wl,--defsym=_ZN5telux6common22CommandCallbackManager15executeCallbackIJNS0_13ServiceStatusEEEEvSt10shared_ptrINS0_16ICommandCallbackEEDpOT_=so_stub_for_libtelux_loc
-Wl,--defsym=_ZN5telux6common22CommandCallbackManager15executeCallbackIJRhNS0_9ErrorCodeEEEEvSt10shared_ptrINS0_16ICommandCallbackEEDpOT_=so_stub_for_libtelux_loc
-Wl,--defsym=_ZN5telux6common22CommandCallbackManager15executeCallbackIJRNS_3loc10XtraStatusENS0_9ErrorCodeEEEEvSt10shared_ptrINS0_16ICommandCallbackEEDpOT_=so_stub_for_libtelux_loc
-Wl,--defsym=_ZN5telux6common22CommandCallbackManager15executeCallbackIJRNS_3loc22GnssEnergyConsumedInfoENS0_9ErrorCodeEEEEvSt10shared_ptrINS0_16ICommandCallbackEEDpOT_=so_stub_for_libtelux_loc
-Wl,--defsym=_ZN5telux6common22CommandCallbackManager15executeCallbackIJRNS_3loc27RobustLocationConfigurationENS0_9ErrorCodeEEEEvSt10shared_ptrINS0_16ICommandCallbackEEDpOT_=so_stub_for_libtelux_loc
-Wl,--defsym=_ZN5telux6common22CommandCallbackManager15executeCallbackIJRSt10shared_ptrINS_3loc21LocationInfoImplBasicEEEEEvS3_INS0_16ICommandCallbackEEDpOT_=so_stub_for_libtelux_loc
-Wl,--defsym=_ZN5telux6common22CommandCallbackManager15executeCallbackIJRSt13unordered_setINS_3loc21GnssConstellationTypeESt4hashIS5_ESt8equal_toIS5_ESaIS5_EENS0_9ErrorCodeEEEEvSt10shared_ptrINS0_16ICommandCallbackEEDpOT_=so_stub_for_libtelux_loc
-Wl,--defsym=_ZN5telux6common22CommandCallbackManager15executeCallbackIJRtNS0_9ErrorCodeEEEEvSt10shared_ptrINS0_16ICommandCallbackEEDpOT_=so_stub_for_libtelux_loc
-Wl,--defsym=_ZN5telux6common3Log10logMessageIJPKcEEEvNS0_8LogLevelERKNSt7__cxx1112basic_stringIcSt11char_traitsIcESaIcEEESD_RKiDpT_=so_stub_for_libtelux_loc
-Wl,--defsym=_ZN5telux6common3Log10logMessageIJPKcmEEEvNS0_8LogLevelERKNSt7__cxx1112basic_stringIcSt11char_traitsIcESaIcEEESD_RKiDpT_=so_stub_for_libtelux_loc
-Wl,--defsym=_ZN5telux6common3Log10logMessageIJPKcS4_18QDgnssSourceStatusEEEvNS0_8LogLevelERKNSt7__cxx1112basic_stringIcSt11char_traitsIcESaIcEEESE_RKiDpT_=so_stub_for_libtelux_loc
-Wl,--defsym=_ZN5telux6common3Log10logMessageIJPKcS4_bEEEvNS0_8LogLevelERKNSt7__cxx1112basic_stringIcSt11char_traitsIcESaIcEEESD_RKiDpT_=so_stub_for_libtelux_loc
-Wl,--defsym=_ZN5telux6common3Log10logMessageIJPKcS4_EEEvNS0_8LogLevelERKNSt7__cxx1112basic_stringIcSt11char_traitsIcESaIcEEESD_RKiDpT_=so_stub_for_libtelux_loc
-Wl,--defsym=_ZN5telux6common3Log10logMessageIJPKcS4_iEEEvNS0_8LogLevelERKNSt7__cxx1112basic_stringIcSt11char_traitsIcESaIcEEESD_RKiDpT_=so_stub_for_libtelux_loc
-Wl,--defsym=_ZN5telux6common3Log10logMessageIJPKcS4_jEEEvNS0_8LogLevelERKNSt7__cxx1112basic_stringIcSt11char_traitsIcESaIcEEESD_RKiDpT_=so_stub_for_libtelux_loc
-Wl,--defsym=_ZN5telux6common3Log10logMessageIJPKcS4_mEEEvNS0_8LogLevelERKNSt7__cxx1112basic_stringIcSt11char_traitsIcESaIcEEESD_RKiDpT_=so_stub_for_libtelux_loc
-Wl,--defsym=_ZN5telux6common3Log10logMessageIJPKcS4_N20location_integration22LocIntegrationResponseEEEEvNS0_8LogLevelERKNSt7__cxx1112basic_stringIcSt11char_traitsIcESaIcEEESF_RKiDpT_=so_stub_for_libtelux_loc
-Wl,--defsym=_ZN5telux6common3Log10logMessageIJPKcS4_NSt7__cxx1112basic_stringIcSt11char_traitsIcESaIcEEEEEEvNS0_8LogLevelERKSA_SD_RKiDpT_=so_stub_for_libtelux_loc
-Wl,--defsym=_ZN5telux6common3Log10logMessageIJPKcS4_NSt7__cxx1112basic_stringIcSt11char_traitsIcESaIcEEES4_SA_EEEvNS0_8LogLevelERKSA_SD_RKiDpT_=so_stub_for_libtelux_loc
-Wl,--defsym=_ZN5telux6common3Log10logMessageIJPKcS4_S4_EEEvNS0_8LogLevelERKNSt7__cxx1112basic_stringIcSt11char_traitsIcESaIcEEESD_RKiDpT_=so_stub_for_libtelux_loc
-Wl,--defsym=_ZN5telux6common3Log16constructMessageINSt7__cxx1119basic_ostringstreamIcSt11char_traitsIcESaIcEEENS3_12basic_stringIcS6_S7_EEJPKcSA_EEEvRT_T0_DpT1_=so_stub_for_libtelux_loc
-Wl,--defsym=_ZN5telux6common3Log16constructMessageINSt7__cxx1119basic_ostringstreamIcSt11char_traitsIcESaIcEEEPKcJNS3_12basic_stringIcS6_S7_EEEEEvRT_T0_DpT1_=so_stub_for_libtelux_loc
-Wl,--defsym=_ZN5telux6common3Log16constructMessageINSt7__cxx1119basic_ostringstreamIcSt11char_traitsIcESaIcEEEPKcJNS3_12basic_stringIcS6_S7_EESA_SC_EEEvRT_T0_DpT1_=so_stub_for_libtelux_loc
-Wl,--defsym=_ZN5telux6common3Log16constructMessageINSt7__cxx1119basic_ostringstreamIcSt11char_traitsIcESaIcEEEPKcJSA_NS3_12basic_stringIcS6_S7_EEEEEvRT_T0_DpT1_=so_stub_for_libtelux_loc
-Wl,--defsym=_ZN5telux6common3Log16constructMessageINSt7__cxx1119basic_ostringstreamIcSt11char_traitsIcESaIcEEEPKcJSA_NS3_12basic_stringIcS6_S7_EESA_SC_EEEvRT_T0_DpT1_=so_stub_for_libtelux_loc
-Wl,--defsym=_ZN9__gnu_cxx13new_allocatorIN15location_client17LocationClientApiEE9constructIS2_JRSt8functionIFvmEEEEEvPT_DpOT0_=so_stub_for_libtelux_loc
-Wl,--defsym=_ZN9__gnu_cxx5__ops10_Iter_predIZN5telux6common15ListenerManager16registerListenerESt8weak_ptrINS3_12ISDKListenerEEEUlS7_E_EclINS_17__normal_iteratorIPS7_St6vectorIS7_SaIS7_EEEEEEbT_=so_stub_for_libtelux_loc
-Wl,--defsym=_ZNK5telux6common15ListenerManager12SetPredicateclERKSt8weak_ptrINS0_12ISDKListenerEES7_=so_stub_for_libtelux_loc
-Wl,--defsym=_ZNKSt13__future_base13_State_baseV221_M_is_deferred_futureEv=so_stub_for_libtelux_loc
-Wl,--defsym=_ZNKSt14__basic_futureIN15location_client16LocationResponseEE13_M_get_resultEv=so_stub_for_libtelux_loc
-Wl,--defsym=_ZNKSt14__basic_futureIN5telux6common9ErrorCodeEE13_M_get_resultEv=so_stub_for_libtelux_loc
-Wl,--defsym=_ZNKSt14__basic_futureIvE13_M_get_resultEv=so_stub_for_libtelux_loc
-Wl,--defsym=_ZNKSt8_Rb_treeIN20location_integration17LocConfigTypeEnumESt4pairIKS1_11RequestInfoESt10_Select1stIS5_ESt4lessIS1_ESaIS5_EE4findERS3_=so_stub_for_libtelux_loc
-Wl,--defsym=_ZNSt10_HashtableIiSt4pairIKiSt10shared_ptrIN5telux6common16ICommandCallbackEEESaIS7_ENSt8__detail10_Select1stESt8equal_toIiESt4hashIiENS9_18_Mod_range_hashingENS9_20_Default_ranged_hashENS9_20_Prime_rehash_policyENS9_17_Hashtable_traitsILb0ELb0ELb1EEEE13_M_rehash_auxEmSt17integral_constantIbLb1EE=so_stub_for_libtelux_loc
-Wl,--defsym=_ZNSt10_HashtableIiSt4pairIKiSt10shared_ptrIN5telux6common16ICommandCallbackEEESaIS7_ENSt8__detail10_Select1stESt8equal_toIiESt4hashIiENS9_18_Mod_range_hashingENS9_20_Default_ranged_hashENS9_20_Prime_rehash_policyENS9_17_Hashtable_traitsILb0ELb0ELb1EEEE21_M_insert_unique_nodeEmmPNS9_10_Hash_nodeIS7_Lb0EEEm=so_stub_for_libtelux_loc
-Wl,--defsym=_ZNSt10_HashtableIiSt4pairIKiSt10shared_ptrIN5telux6common16ICommandCallbackEEESaIS7_ENSt8__detail10_Select1stESt8equal_toIiESt4hashIiENS9_18_Mod_range_hashingENS9_20_Default_ranged_hashENS9_20_Prime_rehash_policyENS9_17_Hashtable_traitsILb0ELb0ELb1EEEE9_M_rehashEmRKm=so_stub_for_libtelux_loc
-Wl,--defsym=_ZNSt10_HashtableIN20location_integration12LeverArmTypeESt4pairIKS1_NS0_14LeverArmParamsEESaIS5_ENSt8__detail10_Select1stESt8equal_toIS1_ESt4hashIS1_ENS7_18_Mod_range_hashingENS7_20_Default_ranged_hashENS7_20_Prime_rehash_policyENS7_17_Hashtable_traitsILb0ELb0ELb1EEEE10_M_emplaceIJS2_IS1_S4_EEEES2_INS7_14_Node_iteratorIS5_Lb0ELb0EEEbESt17integral_constantIbLb1EEDpOT_=so_stub_for_libtelux_loc
-Wl,--defsym=_ZNSt10_HashtableIN20location_integration12LeverArmTypeESt4pairIKS1_NS0_14LeverArmParamsEESaIS5_ENSt8__detail10_Select1stESt8equal_toIS1_ESt4hashIS1_ENS7_18_Mod_range_hashingENS7_20_Default_ranged_hashENS7_20_Prime_rehash_policyENS7_17_Hashtable_traitsILb0ELb0ELb1EEEE13_M_rehash_auxEmSt17integral_constantIbLb1EE=so_stub_for_libtelux_loc
-Wl,--defsym=_ZNSt10_HashtableIN20location_integration12LeverArmTypeESt4pairIKS1_NS0_14LeverArmParamsEESaIS5_ENSt8__detail10_Select1stESt8equal_toIS1_ESt4hashIS1_ENS7_18_Mod_range_hashingENS7_20_Default_ranged_hashENS7_20_Prime_rehash_policyENS7_17_Hashtable_traitsILb0ELb0ELb1EEEE21_M_insert_unique_nodeEmmPNS7_10_Hash_nodeIS5_Lb0EEEm=so_stub_for_libtelux_loc
-Wl,--defsym=_ZNSt10_HashtableIN20location_integration12LeverArmTypeESt4pairIKS1_NS0_14LeverArmParamsEESaIS5_ENSt8__detail10_Select1stESt8equal_toIS1_ESt4hashIS1_ENS7_18_Mod_range_hashingENS7_20_Default_ranged_hashENS7_20_Prime_rehash_policyENS7_17_Hashtable_traitsILb0ELb0ELb1EEEE5clearEv=so_stub_for_libtelux_loc
-Wl,--defsym=_ZNSt10_HashtableIN20location_integration12LeverArmTypeESt4pairIKS1_NS0_14LeverArmParamsEESaIS5_ENSt8__detail10_Select1stESt8equal_toIS1_ESt4hashIS1_ENS7_18_Mod_range_hashingENS7_20_Default_ranged_hashENS7_20_Prime_rehash_policyENS7_17_Hashtable_traitsILb0ELb0ELb1EEEE9_M_rehashEmRKm=so_stub_for_libtelux_loc
-Wl,--defsym=_ZNSt10_HashtableIN20location_integration12LeverArmTypeESt4pairIKS1_NS0_14LeverArmParamsEESaIS5_ENSt8__detail10_Select1stESt8equal_toIS1_ESt4hashIS1_ENS7_18_Mod_range_hashingENS7_20_Default_ranged_hashENS7_20_Prime_rehash_policyENS7_17_Hashtable_traitsILb0ELb0ELb1EEEED1Ev=so_stub_for_libtelux_loc
-Wl,--defsym=_ZNSt10_HashtableIN20location_integration12LeverArmTypeESt4pairIKS1_NS0_14LeverArmParamsEESaIS5_ENSt8__detail10_Select1stESt8equal_toIS1_ESt4hashIS1_ENS7_18_Mod_range_hashingENS7_20_Default_ranged_hashENS7_20_Prime_rehash_policyENS7_17_Hashtable_traitsILb0ELb0ELb1EEEED2Ev=so_stub_for_libtelux_loc
-Wl,--defsym=_ZNSt10_HashtableIN20location_integration17LocConfigTypeEnumESt4pairIKS1_jESaIS4_ENSt8__detail10_Select1stESt8equal_toIS1_ESt4hashIS1_ENS6_18_Mod_range_hashingENS6_20_Default_ranged_hashENS6_20_Prime_rehash_policyENS6_17_Hashtable_traitsILb0ELb0ELb1EEEE5clearEv=so_stub_for_libtelux_loc
-Wl,--defsym=_ZNSt10_HashtableIN20location_integration17LocConfigTypeEnumESt4pairIKS1_jESaIS4_ENSt8__detail10_Select1stESt8equal_toIS1_ESt4hashIS1_ENS6_18_Mod_range_hashingENS6_20_Default_ranged_hashENS6_20_Prime_rehash_policyENS6_17_Hashtable_traitsILb0ELb0ELb1EEEED1Ev=so_stub_for_libtelux_loc
-Wl,--defsym=_ZNSt10_HashtableIN20location_integration17LocConfigTypeEnumESt4pairIKS1_jESaIS4_ENSt8__detail10_Select1stESt8equal_toIS1_ESt4hashIS1_ENS6_18_Mod_range_hashingENS6_20_Default_ranged_hashENS6_20_Prime_rehash_policyENS6_17_Hashtable_traitsILb0ELb0ELb1EEEED2Ev=so_stub_for_libtelux_loc
-Wl,--defsym=_ZNSt10_HashtableIN20location_integration21GnssConstellationTypeES1_SaIS1_ENSt8__detail9_IdentityESt8equal_toIS1_ESt4hashIS1_ENS3_18_Mod_range_hashingENS3_20_Default_ranged_hashENS3_20_Prime_rehash_policyENS3_17_Hashtable_traitsILb0ELb1ELb1EEEE13_M_rehash_auxEmSt17integral_constantIbLb1EE=so_stub_for_libtelux_loc
-Wl,--defsym=_ZNSt10_HashtableIN20location_integration21GnssConstellationTypeES1_SaIS1_ENSt8__detail9_IdentityESt8equal_toIS1_ESt4hashIS1_ENS3_18_Mod_range_hashingENS3_20_Default_ranged_hashENS3_20_Prime_rehash_policyENS3_17_Hashtable_traitsILb0ELb1ELb1EEEE14_M_move_assignEOSE_St17integral_constantIbLb1EE=so_stub_for_libtelux_loc
-Wl,--defsym=_ZNSt10_HashtableIN20location_integration21GnssConstellationTypeES1_SaIS1_ENSt8__detail9_IdentityESt8equal_toIS1_ESt4hashIS1_ENS3_18_Mod_range_hashingENS3_20_Default_ranged_hashENS3_20_Prime_rehash_policyENS3_17_Hashtable_traitsILb0ELb1ELb1EEEE21_M_insert_unique_nodeEmmPNS3_10_Hash_nodeIS1_Lb0EEEm=so_stub_for_libtelux_loc
-Wl,--defsym=_ZNSt10_HashtableIN20location_integration21GnssConstellationTypeES1_SaIS1_ENSt8__detail9_IdentityESt8equal_toIS1_ESt4hashIS1_ENS3_18_Mod_range_hashingENS3_20_Default_ranged_hashENS3_20_Prime_rehash_policyENS3_17_Hashtable_traitsILb0ELb1ELb1EEEE9_M_insertIRKS1_NS3_10_AllocNodeISaINS3_10_Hash_nodeIS1_Lb0EEEEEEEESt4pairINS3_14_Node_iteratorIS1_Lb1ELb0EEEbEOT_RKT0_St17integral_constantIbLb1EE=so_stub_for_libtelux_loc
-Wl,--defsym=_ZNSt10_HashtableIN20location_integration21GnssConstellationTypeES1_SaIS1_ENSt8__detail9_IdentityESt8equal_toIS1_ESt4hashIS1_ENS3_18_Mod_range_hashingENS3_20_Default_ranged_hashENS3_20_Prime_rehash_policyENS3_17_Hashtable_traitsILb0ELb1ELb1EEEE9_M_rehashEmRKm=so_stub_for_libtelux_loc
-Wl,--defsym=_ZNSt10_HashtableIN20location_integration21GnssConstellationTypeES1_SaIS1_ENSt8__detail9_IdentityESt8equal_toIS1_ESt4hashIS1_ENS3_18_Mod_range_hashingENS3_20_Default_ranged_hashENS3_20_Prime_rehash_policyENS3_17_Hashtable_traitsILb0ELb1ELb1EEEED1Ev=so_stub_for_libtelux_loc
-Wl,--defsym=_ZNSt10_HashtableIN20location_integration21GnssConstellationTypeES1_SaIS1_ENSt8__detail9_IdentityESt8equal_toIS1_ESt4hashIS1_ENS3_18_Mod_range_hashingENS3_20_Default_ranged_hashENS3_20_Prime_rehash_policyENS3_17_Hashtable_traitsILb0ELb1ELb1EEEED2Ev=so_stub_for_libtelux_loc
-Wl,--defsym=_ZNSt10_HashtableIN5telux3loc21GnssConstellationTypeES2_SaIS2_ENSt8__detail9_IdentityESt8equal_toIS2_ESt4hashIS2_ENS4_18_Mod_range_hashingENS4_20_Default_ranged_hashENS4_20_Prime_rehash_policyENS4_17_Hashtable_traitsILb0ELb1ELb1EEEE13_M_rehash_auxEmSt17integral_constantIbLb1EE=so_stub_for_libtelux_loc
-Wl,--defsym=_ZNSt10_HashtableIN5telux3loc21GnssConstellationTypeES2_SaIS2_ENSt8__detail9_IdentityESt8equal_toIS2_ESt4hashIS2_ENS4_18_Mod_range_hashingENS4_20_Default_ranged_hashENS4_20_Prime_rehash_policyENS4_17_Hashtable_traitsILb0ELb1ELb1EEEE21_M_insert_unique_nodeEmmPNS4_10_Hash_nodeIS2_Lb0EEEm=so_stub_for_libtelux_loc
-Wl,--defsym=_ZNSt10_HashtableIN5telux3loc21GnssConstellationTypeES2_SaIS2_ENSt8__detail9_IdentityESt8equal_toIS2_ESt4hashIS2_ENS4_18_Mod_range_hashingENS4_20_Default_ranged_hashENS4_20_Prime_rehash_policyENS4_17_Hashtable_traitsILb0ELb1ELb1EEEE5clearEv=so_stub_for_libtelux_loc
-Wl,--defsym=_ZNSt10_HashtableIN5telux3loc21GnssConstellationTypeES2_SaIS2_ENSt8__detail9_IdentityESt8equal_toIS2_ESt4hashIS2_ENS4_18_Mod_range_hashingENS4_20_Default_ranged_hashENS4_20_Prime_rehash_policyENS4_17_Hashtable_traitsILb0ELb1ELb1EEEE9_M_assignIRKSF_NS4_10_AllocNodeISaINS4_10_Hash_nodeIS2_Lb0EEEEEEEEvOT_RKT0_=so_stub_for_libtelux_loc
-Wl,--defsym=_ZNSt10_HashtableIN5telux3loc21GnssConstellationTypeES2_SaIS2_ENSt8__detail9_IdentityESt8equal_toIS2_ESt4hashIS2_ENS4_18_Mod_range_hashingENS4_20_Default_ranged_hashENS4_20_Prime_rehash_policyENS4_17_Hashtable_traitsILb0ELb1ELb1EEEE9_M_insertIRKS2_NS4_10_AllocNodeISaINS4_10_Hash_nodeIS2_Lb0EEEEEEEESt4pairINS4_14_Node_iteratorIS2_Lb1ELb0EEEbEOT_RKT0_St17integral_constantIbLb1EE=so_stub_for_libtelux_loc
-Wl,--defsym=_ZNSt10_HashtableIN5telux3loc21GnssConstellationTypeES2_SaIS2_ENSt8__detail9_IdentityESt8equal_toIS2_ESt4hashIS2_ENS4_18_Mod_range_hashingENS4_20_Default_ranged_hashENS4_20_Prime_rehash_policyENS4_17_Hashtable_traitsILb0ELb1ELb1EEEE9_M_rehashEmRKm=so_stub_for_libtelux_loc
-Wl,--defsym=_ZNSt10_HashtableIN5telux3loc21GnssConstellationTypeES2_SaIS2_ENSt8__detail9_IdentityESt8equal_toIS2_ESt4hashIS2_ENS4_18_Mod_range_hashingENS4_20_Default_ranged_hashENS4_20_Prime_rehash_policyENS4_17_Hashtable_traitsILb0ELb1ELb1EEEEC1ERKSF_=so_stub_for_libtelux_loc
-Wl,--defsym=_ZNSt10_HashtableIN5telux3loc21GnssConstellationTypeES2_SaIS2_ENSt8__detail9_IdentityESt8equal_toIS2_ESt4hashIS2_ENS4_18_Mod_range_hashingENS4_20_Default_ranged_hashENS4_20_Prime_rehash_policyENS4_17_Hashtable_traitsILb0ELb1ELb1EEEEC2ERKSF_=so_stub_for_libtelux_loc
-Wl,--defsym=_ZNSt10_HashtableIN5telux3loc21GnssConstellationTypeES2_SaIS2_ENSt8__detail9_IdentityESt8equal_toIS2_ESt4hashIS2_ENS4_18_Mod_range_hashingENS4_20_Default_ranged_hashENS4_20_Prime_rehash_policyENS4_17_Hashtable_traitsILb0ELb1ELb1EEEED1Ev=so_stub_for_libtelux_loc
-Wl,--defsym=_ZNSt10_HashtableIN5telux3loc21GnssConstellationTypeES2_SaIS2_ENSt8__detail9_IdentityESt8equal_toIS2_ESt4hashIS2_ENS4_18_Mod_range_hashingENS4_20_Default_ranged_hashENS4_20_Prime_rehash_policyENS4_17_Hashtable_traitsILb0ELb1ELb1EEEED2Ev=so_stub_for_libtelux_loc
-Wl,--defsym=_ZNSt10shared_ptrIN20location_integration22LocationIntegrationApiEEC1ISaIS1_EJRSt13unordered_mapINS0_17LocConfigTypeEnumEjSt4hashIS6_ESt8equal_toIS6_ESaISt4pairIKS6_jEEERNS0_17LocIntegrationCbsEEEESt20_Sp_alloc_shared_tagIT_EDpOT0_=so_stub_for_libtelux_loc
-Wl,--defsym=_ZNSt10shared_ptrIN20location_integration22LocationIntegrationApiEEC2ISaIS1_EJRSt13unordered_mapINS0_17LocConfigTypeEnumEjSt4hashIS6_ESt8equal_toIS6_ESaISt4pairIKS6_jEEERNS0_17LocIntegrationCbsEEEESt20_Sp_alloc_shared_tagIT_EDpOT0_=so_stub_for_libtelux_loc
-Wl,--defsym=_ZNSt10shared_ptrIN5telux3loc10SVInfoImplEEC1ISaIS2_EJEEESt20_Sp_alloc_shared_tagIT_EDpOT0_=so_stub_for_libtelux_loc
-Wl,--defsym=_ZNSt10shared_ptrIN5telux3loc10SVInfoImplEEC2ISaIS2_EJEEESt20_Sp_alloc_shared_tagIT_EDpOT0_=so_stub_for_libtelux_loc
-Wl,--defsym=_ZNSt10shared_ptrIN5telux3loc14GnssSignalInfoEEC1ISaIS2_EJEEESt20_Sp_alloc_shared_tagIT_EDpOT0_=so_stub_for_libtelux_loc
-Wl,--defsym=_ZNSt10shared_ptrIN5telux3loc14GnssSignalInfoEEC2ISaIS2_EJEEESt20_Sp_alloc_shared_tagIT_EDpOT0_=so_stub_for_libtelux_loc
-Wl,--defsym=_ZNSt10shared_ptrIN5telux3loc14GnssSVInfoImplEEC1ISaIS2_EJEEESt20_Sp_alloc_shared_tagIT_EDpOT0_=so_stub_for_libtelux_loc
-Wl,--defsym=_ZNSt10shared_ptrIN5telux3loc14GnssSVInfoImplEEC2ISaIS2_EJEEESt20_Sp_alloc_shared_tagIT_EDpOT0_=so_stub_for_libtelux_loc
-Wl,--defsym=_ZNSt10shared_ptrIN5telux3loc16LocationResponseEEC1ISaIS2_EJEEESt20_Sp_alloc_shared_tagIT_EDpOT0_=so_stub_for_libtelux_loc
-Wl,--defsym=_ZNSt10shared_ptrIN5telux3loc16LocationResponseEEC2ISaIS2_EJEEESt20_Sp_alloc_shared_tagIT_EDpOT0_=so_stub_for_libtelux_loc
-Wl,--defsym=_ZNSt10shared_ptrIN5telux3loc18LocationInfoImplExEEC1ISaIS2_EJEEESt20_Sp_alloc_shared_tagIT_EDpOT0_=so_stub_for_libtelux_loc
-Wl,--defsym=_ZNSt10shared_ptrIN5telux3loc18LocationInfoImplExEEC2ISaIS2_EJEEESt20_Sp_alloc_shared_tagIT_EDpOT0_=so_stub_for_libtelux_loc
-Wl,--defsym=_ZNSt10shared_ptrIN5telux3loc20LocationReportFilterEEC1ISaIS2_EJEEESt20_Sp_alloc_shared_tagIT_EDpOT0_=so_stub_for_libtelux_loc
-Wl,--defsym=_ZNSt10shared_ptrIN5telux3loc20LocationReportFilterEEC2ISaIS2_EJEEESt20_Sp_alloc_shared_tagIT_EDpOT0_=so_stub_for_libtelux_loc
-Wl,--defsym=_ZNSt10shared_ptrIN5telux3loc21LocationInfoImplBasicEEC1ISaIS2_EJEEESt20_Sp_alloc_shared_tagIT_EDpOT0_=so_stub_for_libtelux_loc
-Wl,--defsym=_ZNSt10shared_ptrIN5telux3loc21LocationInfoImplBasicEEC2ISaIS2_EJEEESt20_Sp_alloc_shared_tagIT_EDpOT0_=so_stub_for_libtelux_loc
-Wl,--defsym=_ZNSt10shared_ptrIN5telux6common15ListenerManagerEEC1ISaIS2_EJEEESt20_Sp_alloc_shared_tagIT_EDpOT0_=so_stub_for_libtelux_loc
-Wl,--defsym=_ZNSt10shared_ptrIN5telux6common15ListenerManagerEEC2ISaIS2_EJEEESt20_Sp_alloc_shared_tagIT_EDpOT0_=so_stub_for_libtelux_loc
-Wl,--defsym=_ZNSt10shared_ptrISt6threadEC1ISaIS0_EJMN5telux6common14AsyncTaskQueueIvEEFvvEPS7_EEESt20_Sp_alloc_shared_tagIT_EDpOT0_=so_stub_for_libtelux_loc
-Wl,--defsym=_ZNSt10shared_ptrISt6threadEC2ISaIS0_EJMN5telux6common14AsyncTaskQueueIvEEFvvEPS7_EEESt20_Sp_alloc_shared_tagIT_EDpOT0_=so_stub_for_libtelux_loc
-Wl,--defsym=_ZNSt10unique_ptrINSt13__future_base12_Result_baseENS1_8_DeleterEED1Ev=so_stub_for_libtelux_loc
-Wl,--defsym=_ZNSt10unique_ptrINSt13__future_base12_Result_baseENS1_8_DeleterEED2Ev=so_stub_for_libtelux_loc
-Wl,--defsym=_ZNSt10unique_ptrINSt13__future_base7_ResultIvEENS0_12_Result_base8_DeleterEED1Ev=so_stub_for_libtelux_loc
-Wl,--defsym=_ZNSt10unique_ptrINSt13__future_base7_ResultIvEENS0_12_Result_base8_DeleterEED2Ev=so_stub_for_libtelux_loc
-Wl,--defsym=_ZNSt10unique_ptrINSt6thread6_StateESt14default_deleteIS1_EED1Ev=so_stub_for_libtelux_loc
-Wl,--defsym=_ZNSt10unique_ptrINSt6thread6_StateESt14default_deleteIS1_EED2Ev=so_stub_for_libtelux_loc
-Wl,--defsym=_ZNSt10__weak_ptrIN5telux3qmi17ISysPowerListenerELN9__gnu_cxx12_Lock_policyE2EEC1INS0_3loc19LocationManagerImplEvEERKS_IT_LS4_2EE=so_stub_for_libtelux_loc
-Wl,--defsym=_ZNSt10__weak_ptrIN5telux3qmi17ISysPowerListenerELN9__gnu_cxx12_Lock_policyE2EEC2INS0_3loc19LocationManagerImplEvEERKS_IT_LS4_2EE=so_stub_for_libtelux_loc
-Wl,--defsym=_ZNSt10__weak_ptrIN5telux6common12ISDKListenerELN9__gnu_cxx12_Lock_policyE2EEC1INS0_3loc23ILocationConfigListenerEvEERKS_IT_LS4_2EE=so_stub_for_libtelux_loc
-Wl,--defsym=_ZNSt10__weak_ptrIN5telux6common12ISDKListenerELN9__gnu_cxx12_Lock_policyE2EEC1INS0_3loc27ILocationSystemInfoListenerEvEERKS_IT_LS4_2EE=so_stub_for_libtelux_loc
-Wl,--defsym=_ZNSt10__weak_ptrIN5telux6common12ISDKListenerELN9__gnu_cxx12_Lock_policyE2EEC2INS0_3loc23ILocationConfigListenerEvEERKS_IT_LS4_2EE=so_stub_for_libtelux_loc
-Wl,--defsym=_ZNSt10__weak_ptrIN5telux6common12ISDKListenerELN9__gnu_cxx12_Lock_policyE2EEC2INS0_3loc27ILocationSystemInfoListenerEvEERKS_IT_LS4_2EE=so_stub_for_libtelux_loc
-Wl,--defsym=_ZNSt11_Deque_baseISt13shared_futureIvESaIS1_EE15_M_create_nodesEPPS1_S5_=so_stub_for_libtelux_loc
-Wl,--defsym=_ZNSt11_Deque_baseISt13shared_futureIvESaIS1_EE16_M_destroy_nodesEPPS1_S5_=so_stub_for_libtelux_loc
-Wl,--defsym=_ZNSt11_Deque_baseISt13shared_futureIvESaIS1_EE17_M_initialize_mapEm=so_stub_for_libtelux_loc
-Wl,--defsym=_ZNSt11unique_lockISt5mutexE6unlockEv=so_stub_for_libtelux_loc
-Wl,--defsym=_ZNSt12future_errorC1ESt10error_code=so_stub_for_libtelux_loc
-Wl,--defsym=_ZNSt12future_errorC2ESt10error_code=so_stub_for_libtelux_loc
-Wl,--defsym=_ZNSt12__shared_ptrIN5telux3loc16DgnssManagerImplELN9__gnu_cxx12_Lock_policyE2EEC1ISaIS2_EJRNS1_15DgnssDataFormatEEEESt20_Sp_alloc_shared_tagIT_EDpOT0_=so_stub_for_libtelux_loc
-Wl,--defsym=_ZNSt12__shared_ptrIN5telux3loc16DgnssManagerImplELN9__gnu_cxx12_Lock_policyE2EEC2ISaIS2_EJRNS1_15DgnssDataFormatEEEESt20_Sp_alloc_shared_tagIT_EDpOT0_=so_stub_for_libtelux_loc
-Wl,--defsym=_ZNSt12__shared_ptrIN5telux3loc19LocationManagerImplELN9__gnu_cxx12_Lock_policyE2EEC1ISaIS2_EJEEESt20_Sp_alloc_shared_tagIT_EDpOT0_=so_stub_for_libtelux_loc
-Wl,--defsym=_ZNSt12__shared_ptrIN5telux3loc19LocationManagerImplELN9__gnu_cxx12_Lock_policyE2EEC2ISaIS2_EJEEESt20_Sp_alloc_shared_tagIT_EDpOT0_=so_stub_for_libtelux_loc
-Wl,--defsym=_ZNSt12__shared_ptrIN5telux3loc20IDgnssStatusListenerELN9__gnu_cxx12_Lock_policyE2EEC1ERKSt10__weak_ptrIS2_LS4_2EESt9nothrow_t=so_stub_for_libtelux_loc
-Wl,--defsym=_ZNSt12__shared_ptrIN5telux3loc20IDgnssStatusListenerELN9__gnu_cxx12_Lock_policyE2EEC2ERKSt10__weak_ptrIS2_LS4_2EESt9nothrow_t=so_stub_for_libtelux_loc
-Wl,--defsym=_ZNSt12__shared_ptrIN5telux3loc24LocationConfiguratorImplELN9__gnu_cxx12_Lock_policyE2EEC1ISaIS2_EJEEESt20_Sp_alloc_shared_tagIT_EDpOT0_=so_stub_for_libtelux_loc
-Wl,--defsym=_ZNSt12__shared_ptrIN5telux3loc24LocationConfiguratorImplELN9__gnu_cxx12_Lock_policyE2EEC2ISaIS2_EJEEESt20_Sp_alloc_shared_tagIT_EDpOT0_=so_stub_for_libtelux_loc
-Wl,--defsym=_ZNSt12__shared_ptrINSt13__future_base13_State_baseV2ELN9__gnu_cxx12_Lock_policyE2EE5resetEv=so_stub_for_libtelux_loc
-Wl,--defsym=_ZNSt12__weak_countILN9__gnu_cxx12_Lock_policyE2EEaSERKS2_=so_stub_for_libtelux_loc
-Wl,--defsym=_ZNSt12__weak_countILN9__gnu_cxx12_Lock_policyE2EEaSERKSt14__shared_countILS1_2EE=so_stub_for_libtelux_loc
-Wl,--defsym=_ZNSt13__future_base13_State_baseV210wait_untilINSt6chrono3_V212system_clockENS2_8durationIlSt5ratioILl1ELl1000000000EEEEEESt13future_statusRKNS2_10time_pointIT_T0_EE=so_stub_for_libtelux_loc
-Wl,--defsym=_ZNSt13__future_base13_State_baseV213_M_set_resultESt8functionIFSt10unique_ptrINS_12_Result_baseENS3_8_DeleterEEvEEb=so_stub_for_libtelux_loc
-Wl,--defsym=_ZNSt13__future_base13_State_baseV216_M_break_promiseESt10unique_ptrINS_12_Result_baseENS2_8_DeleterEE=so_stub_for_libtelux_loc
-Wl,--defsym=_ZNSt13__future_base13_State_baseV217_M_complete_asyncEv=so_stub_for_libtelux_loc
-Wl,--defsym=_ZNSt13__future_base13_State_baseV24waitEv=so_stub_for_libtelux_loc
-Wl,--defsym=_ZNSt13__future_base13_State_baseV29_M_do_setEPSt8functionIFSt10unique_ptrINS_12_Result_baseENS3_8_DeleterEEvEEPb=so_stub_for_libtelux_loc
-Wl,--defsym=_ZNSt13__future_base13_State_baseV2D0Ev=so_stub_for_libtelux_loc
-Wl,--defsym=_ZNSt13__future_base13_State_baseV2D1Ev=so_stub_for_libtelux_loc
-Wl,--defsym=_ZNSt13__future_base13_State_baseV2D2Ev=so_stub_for_libtelux_loc
-Wl,--defsym=_ZNSt13__future_base21_Async_state_commonV217_M_complete_asyncEv=so_stub_for_libtelux_loc
-Wl,--defsym=_ZNSt13__future_base21_Async_state_commonV2D0Ev=so_stub_for_libtelux_loc
-Wl,--defsym=_ZNSt13__future_base21_Async_state_commonV2D1Ev=so_stub_for_libtelux_loc
-Wl,--defsym=_ZNSt13__future_base21_Async_state_commonV2D2Ev=so_stub_for_libtelux_loc
-Wl,--defsym=_ZNSt13__future_base7_ResultIbE10_M_destroyEv=so_stub_for_libtelux_loc
-Wl,--defsym=_ZNSt13__future_base7_ResultIbED0Ev=so_stub_for_libtelux_loc
-Wl,--defsym=_ZNSt13__future_base7_ResultIbED1Ev=so_stub_for_libtelux_loc
-Wl,--defsym=_ZNSt13__future_base7_ResultIbED2Ev=so_stub_for_libtelux_loc
-Wl,--defsym=_ZNSt13__future_base7_ResultIN15location_client16LocationResponseEE10_M_destroyEv=so_stub_for_libtelux_loc
-Wl,--defsym=_ZNSt13__future_base7_ResultIN15location_client16LocationResponseEED0Ev=so_stub_for_libtelux_loc
-Wl,--defsym=_ZNSt13__future_base7_ResultIN15location_client16LocationResponseEED1Ev=so_stub_for_libtelux_loc
-Wl,--defsym=_ZNSt13__future_base7_ResultIN15location_client16LocationResponseEED2Ev=so_stub_for_libtelux_loc
-Wl,--defsym=_ZNSt13__future_base7_ResultIN5telux6common9ErrorCodeEE10_M_destroyEv=so_stub_for_libtelux_loc
-Wl,--defsym=_ZNSt13__future_base7_ResultIN5telux6common9ErrorCodeEED0Ev=so_stub_for_libtelux_loc
-Wl,--defsym=_ZNSt13__future_base7_ResultIN5telux6common9ErrorCodeEED1Ev=so_stub_for_libtelux_loc
-Wl,--defsym=_ZNSt13__future_base7_ResultIN5telux6common9ErrorCodeEED2Ev=so_stub_for_libtelux_loc
-Wl,--defsym=_ZNSt13__future_base7_ResultIvE10_M_destroyEv=so_stub_for_libtelux_loc
-Wl,--defsym=_ZNSt13__future_base7_ResultIvED0Ev=so_stub_for_libtelux_loc
-Wl,--defsym=_ZNSt13__future_base7_ResultIvED1Ev=so_stub_for_libtelux_loc
-Wl,--defsym=_ZNSt13__future_base7_ResultIvED2Ev=so_stub_for_libtelux_loc
-Wl,--defsym=_ZNSt14__basic_futureIbEC1ERKSt10shared_ptrINSt13__future_base13_State_baseV2EE=so_stub_for_libtelux_loc
-Wl,--defsym=_ZNSt14__basic_futureIbEC2ERKSt10shared_ptrINSt13__future_base13_State_baseV2EE=so_stub_for_libtelux_loc
-Wl,--defsym=_ZNSt14__basic_futureIN15location_client16LocationResponseEEC1ERKSt10shared_ptrINSt13__future_base13_State_baseV2EE=so_stub_for_libtelux_loc
-Wl,--defsym=_ZNSt14__basic_futureIN15location_client16LocationResponseEEC2ERKSt10shared_ptrINSt13__future_base13_State_baseV2EE=so_stub_for_libtelux_loc
-Wl,--defsym=_ZNSt14__basic_futureIN5telux6common9ErrorCodeEEC1ERKSt10shared_ptrINSt13__future_base13_State_baseV2EE=so_stub_for_libtelux_loc
-Wl,--defsym=_ZNSt14__basic_futureIN5telux6common9ErrorCodeEEC2ERKSt10shared_ptrINSt13__future_base13_State_baseV2EE=so_stub_for_libtelux_loc
-Wl,--defsym=_ZNSt14__basic_futureIvEC1ERKSt10shared_ptrINSt13__future_base13_State_baseV2EE=so_stub_for_libtelux_loc
-Wl,--defsym=_ZNSt14__basic_futureIvEC2ERKSt10shared_ptrINSt13__future_base13_State_baseV2EE=so_stub_for_libtelux_loc
-Wl,--defsym=_ZNSt14_Function_base13_Base_managerISt5_BindIFMN5telux3loc16DgnssManagerImplEFv18QDgnssSourceStatusEPS4_St12_PlaceholderILi1EEEEE10_M_managerERSt9_Any_dataRKSE_St18_Manager_operation=so_stub_for_libtelux_loc
-Wl,--defsym=_ZNSt14_Function_base13_Base_managerISt5_BindIFMN5telux3loc16LocationResponseEFvN15location_client16LocationResponseEESt10shared_ptrIS4_ESt12_PlaceholderILi1EEEEE10_M_managerERSt9_Any_dataRKSG_St18_Manager_operation=so_stub_for_libtelux_loc
-Wl,--defsym=_ZNSt14_Function_base13_Base_managerISt5_BindIFMN5telux3loc19LocationFactoryImplEFvNS2_6common13ServiceStatusEEPS4_St12_PlaceholderILi1EEEEE10_M_managerERSt9_Any_dataRKSF_St18_Manager_operation=so_stub_for_libtelux_loc
-Wl,--defsym=_ZNSt14_Function_base13_Base_managerISt5_BindIFMN5telux3loc19LocationManagerImplEFvmEPS4_St12_PlaceholderILi1EEEEE10_M_managerERSt9_Any_dataRKSD_St18_Manager_operation=so_stub_for_libtelux_loc
-Wl,--defsym=_ZNSt14_Function_base13_Base_managerISt5_BindIFMN5telux3loc19LocationManagerImplEFvmRKNSt7__cxx1112basic_stringIcSt11char_traitsIcESaIcEEEEPS4_St12_PlaceholderILi1EESG_ILi2EEEEE10_M_managerERSt9_Any_dataRKSM_St18_Manager_operation=so_stub_for_libtelux_loc
-Wl,--defsym=_ZNSt14_Function_base13_Base_managerISt5_BindIFMN5telux3loc19LocationManagerImplEFvN15location_client19LocOutputEngineTypeEmRKNSt7__cxx1112basic_stringIcSt11char_traitsIcESaIcEEEEPS4_St12_PlaceholderILi1EESI_ILi2EESI_ILi3EEEEE10_M_managerERSt9_Any_dataRKSP_St18_Manager_operation=so_stub_for_libtelux_loc
-Wl,--defsym=_ZNSt14_Function_base13_Base_managerISt5_BindIFMN5telux3loc19LocationManagerImplEFvRKN15location_client12GnssDcReportEEPS4_St12_PlaceholderILi1EEEEE10_M_managerERSt9_Any_dataRKSH_St18_Manager_operation=so_stub_for_libtelux_loc
-Wl,--defsym=_ZNSt14_Function_base13_Base_managerISt5_BindIFMN5telux3loc19LocationManagerImplEFvRKN15location_client12GnssLocationEEPS4_St12_PlaceholderILi1EEEEE10_M_managerERSt9_Any_dataRKSH_St18_Manager_operation=so_stub_for_libtelux_loc
-Wl,--defsym=_ZNSt14_Function_base13_Base_managerISt5_BindIFMN5telux3loc19LocationManagerImplEFvRKN15location_client13GnssEphemerisEEPS4_St12_PlaceholderILi1EEEEE10_M_managerERSt9_Any_dataRKSH_St18_Manager_operation=so_stub_for_libtelux_loc
-Wl,--defsym=_ZNSt14_Function_base13_Base_managerISt5_BindIFMN5telux3loc19LocationManagerImplEFvRKN15location_client16GnssMeasurementsEEPS4_St12_PlaceholderILi1EEEEE10_M_managerERSt9_Any_dataRKSH_St18_Manager_operation=so_stub_for_libtelux_loc
-Wl,--defsym=_ZNSt14_Function_base13_Base_managerISt5_BindIFMN5telux3loc19LocationManagerImplEFvRKN15location_client18LocationSystemInfoEEPS4_St12_PlaceholderILi1EEEEE10_M_managerERSt9_Any_dataRKSH_St18_Manager_operation=so_stub_for_libtelux_loc
-Wl,--defsym=_ZNSt14_Function_base13_Base_managerISt5_BindIFMN5telux3loc19LocationManagerImplEFvRKN15location_client22GnssEnergyConsumedInfoEEPS4_St12_PlaceholderILi1EEEEE10_M_managerERSt9_Any_dataRKSH_St18_Manager_operation=so_stub_for_libtelux_loc
-Wl,--defsym=_ZNSt14_Function_base13_Base_managerISt5_BindIFMN5telux3loc19LocationManagerImplEFvRKN15location_client8GnssDataEEPS4_St12_PlaceholderILi1EEEEE10_M_managerERSt9_Any_dataRKSH_St18_Manager_operation=so_stub_for_libtelux_loc
-Wl,--defsym=_ZNSt14_Function_base13_Base_managerISt5_BindIFMN5telux3loc19LocationManagerImplEFvRKN15location_client8LocationEEPS4_St12_PlaceholderILi1EEEEE10_M_managerERSt9_Any_dataRKSH_St18_Manager_operation=so_stub_for_libtelux_loc
-Wl,--defsym=_ZNSt14_Function_base13_Base_managerISt5_BindIFMN5telux3loc19LocationManagerImplEFvRKSt6vectorIhSaIhEEEPS4_St12_PlaceholderILi1EEEEE10_M_managerERSt9_Any_dataRKSI_St18_Manager_operation=so_stub_for_libtelux_loc
-Wl,--defsym=_ZNSt14_Function_base13_Base_managerISt5_BindIFMN5telux3loc19LocationManagerImplEFvRKSt6vectorIN15location_client12GnssLocationESaIS7_EEEPS4_St12_PlaceholderILi1EEEEE10_M_managerERSt9_Any_dataRKSK_St18_Manager_operation=so_stub_for_libtelux_loc
-Wl,--defsym=_ZNSt14_Function_base13_Base_managerISt5_BindIFMN5telux3loc19LocationManagerImplEFvRKSt6vectorIN15location_client6GnssSvESaIS7_EEEPS4_St12_PlaceholderILi1EEEEE10_M_managerERSt9_Any_dataRKSK_St18_Manager_operation=so_stub_for_libtelux_loc
-Wl,--defsym=_ZNSt14_Function_base13_Base_managerISt5_BindIFMN5telux3loc24LocationConfiguratorImplEFvhEPS4_St12_PlaceholderILi1EEEEE10_M_managerERSt9_Any_dataRKSD_St18_Manager_operation=so_stub_for_libtelux_loc
-Wl,--defsym=_ZNSt14_Function_base13_Base_managerISt5_BindIFMN5telux3loc24LocationConfiguratorImplEFvN15location_client18GnssSignalTypeMaskEEPS4_St12_PlaceholderILi1EEEEE10_M_managerERSt9_Any_dataRKSF_St18_Manager_operation=so_stub_for_libtelux_loc
-Wl,--defsym=_ZNSt14_Function_base13_Base_managerISt5_BindIFMN5telux3loc24LocationConfiguratorImplEFvN20location_integration17LocConfigTypeEnumENS5_22LocIntegrationResponseEEPS4_St12_PlaceholderILi1EESB_ILi2EEEEE10_M_managerERSt9_Any_dataRKSH_St18_Manager_operation=so_stub_for_libtelux_loc
-Wl,--defsym=_ZNSt14_Function_base13_Base_managerISt5_BindIFMN5telux3loc24LocationConfiguratorImplEFvN20location_integration20RobustLocationConfigEEPS4_St12_PlaceholderILi1EEEEE10_M_managerERSt9_Any_dataRKSF_St18_Manager_operation=so_stub_for_libtelux_loc
-Wl,--defsym=_ZNSt14_Function_base13_Base_managerISt5_BindIFMN5telux3loc24LocationConfiguratorImplEFvN20location_integration23XtraStatusUpdateTriggerERKNS5_10XtraStatusEEPS4_St12_PlaceholderILi1EESD_ILi2EEEEE10_M_managerERSt9_Any_dataRKSJ_St18_Manager_operation=so_stub_for_libtelux_loc
-Wl,--defsym=_ZNSt14_Function_base13_Base_managerISt5_BindIFMN5telux3loc24LocationConfiguratorImplEFvRKSt13unordered_setIN20location_integration21GnssConstellationTypeESt4hashIS7_ESt8equal_toIS7_ESaIS7_EEEPS4_St12_PlaceholderILi1EEEEE10_M_managerERSt9_Any_dataRKSO_St18_Manager_operation=so_stub_for_libtelux_loc
-Wl,--defsym=_ZNSt14_Function_base13_Base_managerISt5_BindIFMN5telux3loc24LocationConfiguratorImplEFvtEPS4_St12_PlaceholderILi1EEEEE10_M_managerERSt9_Any_dataRKSD_St18_Manager_operation=so_stub_for_libtelux_loc
-Wl,--defsym=_ZNSt14_Function_base13_Base_managerISt5_BindIFMN5telux3loc34LocationPowerStateResponseCallbackEFvNS2_6common9ErrorCodeEESt10shared_ptrIS4_ESt12_PlaceholderILi1EEEEE10_M_managerERSt9_Any_dataRKSG_St18_Manager_operation=so_stub_for_libtelux_loc
-Wl,--defsym=_ZNSt14_Function_baseD1Ev=so_stub_for_libtelux_loc
-Wl,--defsym=_ZNSt14_Function_baseD2Ev=so_stub_for_libtelux_loc
-Wl,--defsym=_ZNSt14__shared_countILN9__gnu_cxx12_Lock_policyE2EEaSERKS2_=so_stub_for_libtelux_loc
-Wl,--defsym=_ZNSt14__shared_countILN9__gnu_cxx12_Lock_policyE2EEC1ERKSt12__weak_countILS1_2EESt9nothrow_t=so_stub_for_libtelux_loc
-Wl,--defsym=_ZNSt14__shared_countILN9__gnu_cxx12_Lock_policyE2EEC1IN15location_client17LocationClientApiESaIS5_EJRSt8functionIFvmEEEEERPT_St20_Sp_alloc_shared_tagIT0_EDpOT1_=so_stub_for_libtelux_loc
-Wl,--defsym=_ZNSt14__shared_countILN9__gnu_cxx12_Lock_policyE2EEC1IN5telux3loc10TimeWindowESaIS6_EJRmEEERPT_St20_Sp_alloc_shared_tagIT0_EDpOT1_=so_stub_for_libtelux_loc
-Wl,--defsym=_ZNSt14__shared_countILN9__gnu_cxx12_Lock_policyE2EEC1IN5telux3loc16DgnssManagerImplESaIS6_EJRNS5_15DgnssDataFormatEEEERPT_St20_Sp_alloc_shared_tagIT0_EDpOT1_=so_stub_for_libtelux_loc
-Wl,--defsym=_ZNSt14__shared_countILN9__gnu_cxx12_Lock_policyE2EEC1IN5telux3loc34LocationPowerStateResponseCallbackESaIS6_EJEEERPT_St20_Sp_alloc_shared_tagIT0_EDpOT1_=so_stub_for_libtelux_loc
-Wl,--defsym=_ZNSt14__shared_countILN9__gnu_cxx12_Lock_policyE2EEC1IN5telux6common18FunctionalCallbackIJhNS5_9ErrorCodeEEEESaIS8_EJRSt8functionIFvhS7_EEEEERPT_St20_Sp_alloc_shared_tagIT0_EDpOT1_=so_stub_for_libtelux_loc
-Wl,--defsym=_ZNSt14__shared_countILN9__gnu_cxx12_Lock_policyE2EEC1IN5telux6common18FunctionalCallbackIJNS4_3loc10XtraStatusENS5_9ErrorCodeEEEESaISA_EJRSt8functionIFvS8_S9_EEEEERPT_St20_Sp_alloc_shared_tagIT0_EDpOT1_=so_stub_for_libtelux_loc
-Wl,--defsym=_ZNSt14__shared_countILN9__gnu_cxx12_Lock_policyE2EEC1IN5telux6common18FunctionalCallbackIJNS4_3loc22GnssEnergyConsumedInfoENS5_9ErrorCodeEEEESaISA_EJRSt8functionIFvS8_S9_EEEEERPT_St20_Sp_alloc_shared_tagIT0_EDpOT1_=so_stub_for_libtelux_loc
-Wl,--defsym=_ZNSt14__shared_countILN9__gnu_cxx12_Lock_policyE2EEC1IN5telux6common18FunctionalCallbackIJNS4_3loc27RobustLocationConfigurationENS5_9ErrorCodeEEEESaISA_EJRSt8functionIFvS8_S9_EEEEERPT_St20_Sp_alloc_shared_tagIT0_EDpOT1_=so_stub_for_libtelux_loc
-Wl,--defsym=_ZNSt14__shared_countILN9__gnu_cxx12_Lock_policyE2EEC1IN5telux6common18FunctionalCallbackIJNS5_13ServiceStatusEEEESaIS8_EJRSt8functionIFvS7_EEEEERPT_St20_Sp_alloc_shared_tagIT0_EDpOT1_=so_stub_for_libtelux_loc
-Wl,--defsym=_ZNSt14__shared_countILN9__gnu_cxx12_Lock_policyE2EEC1IN5telux6common18FunctionalCallbackIJSt10shared_ptrINS4_3loc17ILocationInfoBaseEEEEESaISB_EJRSt8functionIFvSA_EEEEERPT_St20_Sp_alloc_shared_tagIT0_EDpOT1_=so_stub_for_libtelux_loc
-Wl,--defsym=_ZNSt14__shared_countILN9__gnu_cxx12_Lock_policyE2EEC1IN5telux6common18FunctionalCallbackIJSt13unordered_setINS4_3loc21GnssConstellationTypeESt4hashIS9_ESt8equal_toIS9_ESaIS9_EENS5_9ErrorCodeEEEESaISH_EJRSt8functionIFvSF_SG_EEEEERPT_St20_Sp_alloc_shared_tagIT0_EDpOT1_=so_stub_for_libtelux_loc
-Wl,--defsym=_ZNSt14__shared_countILN9__gnu_cxx12_Lock_policyE2EEC1IN5telux6common18FunctionalCallbackIJtNS5_9ErrorCodeEEEESaIS8_EJRSt8functionIFvtS7_EEEEERPT_St20_Sp_alloc_shared_tagIT0_EDpOT1_=so_stub_for_libtelux_loc
-Wl,--defsym=_ZNSt14__shared_countILN9__gnu_cxx12_Lock_policyE2EEC2ERKSt12__weak_countILS1_2EESt9nothrow_t=so_stub_for_libtelux_loc
-Wl,--defsym=_ZNSt14__shared_countILN9__gnu_cxx12_Lock_policyE2EEC2IN15location_client17LocationClientApiESaIS5_EJRSt8functionIFvmEEEEERPT_St20_Sp_alloc_shared_tagIT0_EDpOT1_=so_stub_for_libtelux_loc
-Wl,--defsym=_ZNSt14__shared_countILN9__gnu_cxx12_Lock_policyE2EEC2IN5telux3loc10TimeWindowESaIS6_EJRmEEERPT_St20_Sp_alloc_shared_tagIT0_EDpOT1_=so_stub_for_libtelux_loc
-Wl,--defsym=_ZNSt14__shared_countILN9__gnu_cxx12_Lock_policyE2EEC2IN5telux3loc16DgnssManagerImplESaIS6_EJRNS5_15DgnssDataFormatEEEERPT_St20_Sp_alloc_shared_tagIT0_EDpOT1_=so_stub_for_libtelux_loc
-Wl,--defsym=_ZNSt14__shared_countILN9__gnu_cxx12_Lock_policyE2EEC2IN5telux3loc34LocationPowerStateResponseCallbackESaIS6_EJEEERPT_St20_Sp_alloc_shared_tagIT0_EDpOT1_=so_stub_for_libtelux_loc
-Wl,--defsym=_ZNSt14__shared_countILN9__gnu_cxx12_Lock_policyE2EEC2IN5telux6common18FunctionalCallbackIJhNS5_9ErrorCodeEEEESaIS8_EJRSt8functionIFvhS7_EEEEERPT_St20_Sp_alloc_shared_tagIT0_EDpOT1_=so_stub_for_libtelux_loc
-Wl,--defsym=_ZNSt14__shared_countILN9__gnu_cxx12_Lock_policyE2EEC2IN5telux6common18FunctionalCallbackIJNS4_3loc10XtraStatusENS5_9ErrorCodeEEEESaISA_EJRSt8functionIFvS8_S9_EEEEERPT_St20_Sp_alloc_shared_tagIT0_EDpOT1_=so_stub_for_libtelux_loc
-Wl,--defsym=_ZNSt14__shared_countILN9__gnu_cxx12_Lock_policyE2EEC2IN5telux6common18FunctionalCallbackIJNS4_3loc22GnssEnergyConsumedInfoENS5_9ErrorCodeEEEESaISA_EJRSt8functionIFvS8_S9_EEEEERPT_St20_Sp_alloc_shared_tagIT0_EDpOT1_=so_stub_for_libtelux_loc
-Wl,--defsym=_ZNSt14__shared_countILN9__gnu_cxx12_Lock_policyE2EEC2IN5telux6common18FunctionalCallbackIJNS4_3loc27RobustLocationConfigurationENS5_9ErrorCodeEEEESaISA_EJRSt8functionIFvS8_S9_EEEEERPT_St20_Sp_alloc_shared_tagIT0_EDpOT1_=so_stub_for_libtelux_loc
-Wl,--defsym=_ZNSt14__shared_countILN9__gnu_cxx12_Lock_policyE2EEC2IN5telux6common18FunctionalCallbackIJNS5_13ServiceStatusEEEESaIS8_EJRSt8functionIFvS7_EEEEERPT_St20_Sp_alloc_shared_tagIT0_EDpOT1_=so_stub_for_libtelux_loc
-Wl,--defsym=_ZNSt14__shared_countILN9__gnu_cxx12_Lock_policyE2EEC2IN5telux6common18FunctionalCallbackIJSt10shared_ptrINS4_3loc17ILocationInfoBaseEEEEESaISB_EJRSt8functionIFvSA_EEEEERPT_St20_Sp_alloc_shared_tagIT0_EDpOT1_=so_stub_for_libtelux_loc
-Wl,--defsym=_ZNSt14__shared_countILN9__gnu_cxx12_Lock_policyE2EEC2IN5telux6common18FunctionalCallbackIJSt13unordered_setINS4_3loc21GnssConstellationTypeESt4hashIS9_ESt8equal_toIS9_ESaIS9_EENS5_9ErrorCodeEEEESaISH_EJRSt8functionIFvSF_SG_EEEEERPT_St20_Sp_alloc_shared_tagIT0_EDpOT1_=so_stub_for_libtelux_loc
-Wl,--defsym=_ZNSt14__shared_countILN9__gnu_cxx12_Lock_policyE2EEC2IN5telux6common18FunctionalCallbackIJtNS5_9ErrorCodeEEEESaIS8_EJRSt8functionIFvtS7_EEEEERPT_St20_Sp_alloc_shared_tagIT0_EDpOT1_=so_stub_for_libtelux_loc
-Wl,--defsym=_ZNSt15_Deque_iteratorISt13shared_futureIvERKS1_PS2_EpLEl=so_stub_for_libtelux_loc
-Wl,--defsym=_ZNSt15_Deque_iteratorISt13shared_futureIvERS1_PS1_EpLEl=so_stub_for_libtelux_loc
-Wl,--defsym=_ZNSt15__exception_ptr12__dest_thunkISt12future_errorEEvPv=so_stub_for_libtelux_loc
-Wl,--defsym=_ZNSt15__exception_ptr13exception_ptraSEOS0_=so_stub_for_libtelux_loc
-Wl,--defsym=_ZNSt16_Sp_counted_baseILN9__gnu_cxx12_Lock_policyE2EE10_M_releaseEv=so_stub_for_libtelux_loc
-Wl,--defsym=_ZNSt16_Sp_counted_baseILN9__gnu_cxx12_Lock_policyE2EE15_M_weak_releaseEv=so_stub_for_libtelux_loc
-Wl,--defsym=_ZNSt17_Function_handlerIFSt10unique_ptrINSt13__future_base12_Result_baseENS2_8_DeleterEEvENS1_13_State_baseV27_SetterIN15location_client16LocationResponseERKS9_EEE10_M_managerERSt9_Any_dataRKSE_St18_Manager_operation=so_stub_for_libtelux_loc
-Wl,--defsym=_ZNSt17_Function_handlerIFSt10unique_ptrINSt13__future_base12_Result_baseENS2_8_DeleterEEvENS1_13_State_baseV27_SetterIN15location_client16LocationResponseERKS9_EEE9_M_invokeERKSt9_Any_data=so_stub_for_libtelux_loc
-Wl,--defsym=_ZNSt17_Function_handlerIFSt10unique_ptrINSt13__future_base12_Result_baseENS2_8_DeleterEEvENS1_13_State_baseV27_SetterIN5telux6common9ErrorCodeERKSA_EEE10_M_managerERSt9_Any_dataRKSF_St18_Manager_operation=so_stub_for_libtelux_loc
-Wl,--defsym=_ZNSt17_Function_handlerIFSt10unique_ptrINSt13__future_base12_Result_baseENS2_8_DeleterEEvENS1_13_State_baseV27_SetterIN5telux6common9ErrorCodeERKSA_EEE9_M_invokeERKSt9_Any_data=so_stub_for_libtelux_loc
-Wl,--defsym=_ZNSt17_Function_handlerIFv18QDgnssSourceStatusESt5_BindIFMN5telux3loc16DgnssManagerImplEFvS0_EPS5_St12_PlaceholderILi1EEEEE10_M_managerERSt9_Any_dataRKSE_St18_Manager_operation=so_stub_for_libtelux_loc
-Wl,--defsym=_ZNSt17_Function_handlerIFv18QDgnssSourceStatusESt5_BindIFMN5telux3loc16DgnssManagerImplEFvS0_EPS5_St12_PlaceholderILi1EEEEE9_M_invokeERKSt9_Any_dataOS0_=so_stub_for_libtelux_loc
-Wl,--defsym=_ZNSt17_Function_handlerIFvhESt5_BindIFMN5telux3loc24LocationConfiguratorImplEFvhEPS4_St12_PlaceholderILi1EEEEE10_M_managerERSt9_Any_dataRKSD_St18_Manager_operation=so_stub_for_libtelux_loc
-Wl,--defsym=_ZNSt17_Function_handlerIFvhESt5_BindIFMN5telux3loc24LocationConfiguratorImplEFvhEPS4_St12_PlaceholderILi1EEEEE9_M_invokeERKSt9_Any_dataOh=so_stub_for_libtelux_loc
-Wl,--defsym=_ZNSt17_Function_handlerIFvmESt5_BindIFMN5telux3loc19LocationManagerImplEFvmEPS4_St12_PlaceholderILi1EEEEE10_M_managerERSt9_Any_dataRKSD_St18_Manager_operation=so_stub_for_libtelux_loc
-Wl,--defsym=_ZNSt17_Function_handlerIFvmESt5_BindIFMN5telux3loc19LocationManagerImplEFvmEPS4_St12_PlaceholderILi1EEEEE9_M_invokeERKSt9_Any_dataOm=so_stub_for_libtelux_loc
-Wl,--defsym=_ZNSt17_Function_handlerIFvmRKNSt7__cxx1112basic_stringIcSt11char_traitsIcESaIcEEEESt5_BindIFMN5telux3loc19LocationManagerImplEFvmS7_EPSC_St12_PlaceholderILi1EESG_ILi2EEEEE10_M_managerERSt9_Any_dataRKSM_St18_Manager_operation=so_stub_for_libtelux_loc
-Wl,--defsym=_ZNSt17_Function_handlerIFvmRKNSt7__cxx1112basic_stringIcSt11char_traitsIcESaIcEEEESt5_BindIFMN5telux3loc19LocationManagerImplEFvmS7_EPSC_St12_PlaceholderILi1EESG_ILi2EEEEE9_M_invokeERKSt9_Any_dataOmS7_=so_stub_for_libtelux_loc
-Wl,--defsym=_ZNSt17_Function_handlerIFvN15location_client16LocationResponseEESt5_BindIFMN5telux3loc16LocationResponseEFvS1_ESt10shared_ptrIS6_ESt12_PlaceholderILi1EEEEE10_M_managerERSt9_Any_dataRKSG_St18_Manager_operation=so_stub_for_libtelux_loc
-Wl,--defsym=_ZNSt17_Function_handlerIFvN15location_client16LocationResponseEESt5_BindIFMN5telux3loc16LocationResponseEFvS1_ESt10shared_ptrIS6_ESt12_PlaceholderILi1EEEEE9_M_invokeERKSt9_Any_dataOS1_=so_stub_for_libtelux_loc
-Wl,--defsym=_ZNSt17_Function_handlerIFvN15location_client18GnssSignalTypeMaskEESt5_BindIFMN5telux3loc24LocationConfiguratorImplEFvS1_EPS6_St12_PlaceholderILi1EEEEE10_M_managerERSt9_Any_dataRKSF_St18_Manager_operation=so_stub_for_libtelux_loc
-Wl,--defsym=_ZNSt17_Function_handlerIFvN15location_client18GnssSignalTypeMaskEESt5_BindIFMN5telux3loc24LocationConfiguratorImplEFvS1_EPS6_St12_PlaceholderILi1EEEEE9_M_invokeERKSt9_Any_dataOS1_=so_stub_for_libtelux_loc
-Wl,--defsym=_ZNSt17_Function_handlerIFvN15location_client19LocOutputEngineTypeEmRKNSt7__cxx1112basic_stringIcSt11char_traitsIcESaIcEEEESt5_BindIFMN5telux3loc19LocationManagerImplEFvS1_mS9_EPSE_St12_PlaceholderILi1EESI_ILi2EESI_ILi3EEEEE10_M_managerERSt9_Any_dataRKSP_St18_Manager_operation=so_stub_for_libtelux_loc
-Wl,--defsym=_ZNSt17_Function_handlerIFvN15location_client19LocOutputEngineTypeEmRKNSt7__cxx1112basic_stringIcSt11char_traitsIcESaIcEEEESt5_BindIFMN5telux3loc19LocationManagerImplEFvS1_mS9_EPSE_St12_PlaceholderILi1EESI_ILi2EESI_ILi3EEEEE9_M_invokeERKSt9_Any_dataOS1_OmS9_=so_stub_for_libtelux_loc
-Wl,--defsym=_ZNSt17_Function_handlerIFvN20location_integration17LocConfigTypeEnumENS0_22LocIntegrationResponseEESt5_BindIFMN5telux3loc24LocationConfiguratorImplEFvS1_S2_EPS7_St12_PlaceholderILi1EESB_ILi2EEEEE10_M_managerERSt9_Any_dataRKSH_St18_Manager_operation=so_stub_for_libtelux_loc
-Wl,--defsym=_ZNSt17_Function_handlerIFvN20location_integration17LocConfigTypeEnumENS0_22LocIntegrationResponseEESt5_BindIFMN5telux3loc24LocationConfiguratorImplEFvS1_S2_EPS7_St12_PlaceholderILi1EESB_ILi2EEEEE9_M_invokeERKSt9_Any_dataOS1_OS2_=so_stub_for_libtelux_loc
-Wl,--defsym=_ZNSt17_Function_handlerIFvN20location_integration20RobustLocationConfigEESt5_BindIFMN5telux3loc24LocationConfiguratorImplEFvS1_EPS6_St12_PlaceholderILi1EEEEE10_M_managerERSt9_Any_dataRKSF_St18_Manager_operation=so_stub_for_libtelux_loc
-Wl,--defsym=_ZNSt17_Function_handlerIFvN20location_integration20RobustLocationConfigEESt5_BindIFMN5telux3loc24LocationConfiguratorImplEFvS1_EPS6_St12_PlaceholderILi1EEEEE9_M_invokeERKSt9_Any_dataOS1_=so_stub_for_libtelux_loc
-Wl,--defsym=_ZNSt17_Function_handlerIFvN20location_integration23XtraStatusUpdateTriggerERKNS0_10XtraStatusEESt5_BindIFMN5telux3loc24LocationConfiguratorImplEFvS1_S4_EPS9_St12_PlaceholderILi1EESD_ILi2EEEEE10_M_managerERSt9_Any_dataRKSJ_St18_Manager_operation=so_stub_for_libtelux_loc
-Wl,--defsym=_ZNSt17_Function_handlerIFvN20location_integration23XtraStatusUpdateTriggerERKNS0_10XtraStatusEESt5_BindIFMN5telux3loc24LocationConfiguratorImplEFvS1_S4_EPS9_St12_PlaceholderILi1EESD_ILi2EEEEE9_M_invokeERKSt9_Any_dataOS1_S4_=so_stub_for_libtelux_loc
-Wl,--defsym=_ZNSt17_Function_handlerIFvN5telux6common13ServiceStatusEESt5_BindIFMNS0_3loc19LocationFactoryImplEFvS2_EPS6_St12_PlaceholderILi1EEEEE10_M_managerERSt9_Any_dataRKSF_St18_Manager_operation=so_stub_for_libtelux_loc
-Wl,--defsym=_ZNSt17_Function_handlerIFvN5telux6common13ServiceStatusEESt5_BindIFMNS0_3loc19LocationFactoryImplEFvS2_EPS6_St12_PlaceholderILi1EEEEE9_M_invokeERKSt9_Any_dataOS2_=so_stub_for_libtelux_loc
-Wl,--defsym=_ZNSt17_Function_handlerIFvN5telux6common9ErrorCodeEESt5_BindIFMNS0_3loc34LocationPowerStateResponseCallbackEFvS2_ESt10shared_ptrIS6_ESt12_PlaceholderILi1EEEEE10_M_managerERSt9_Any_dataRKSG_St18_Manager_operation=so_stub_for_libtelux_loc
-Wl,--defsym=_ZNSt17_Function_handlerIFvN5telux6common9ErrorCodeEESt5_BindIFMNS0_3loc34LocationPowerStateResponseCallbackEFvS2_ESt10shared_ptrIS6_ESt12_PlaceholderILi1EEEEE9_M_invokeERKSt9_Any_dataOS2_=so_stub_for_libtelux_loc
-Wl,--defsym=_ZNSt17_Function_handlerIFvRKN15location_client12GnssDcReportEESt5_BindIFMN5telux3loc19LocationManagerImplEFvS3_EPS8_St12_PlaceholderILi1EEEEE10_M_managerERSt9_Any_dataRKSH_St18_Manager_operation=so_stub_for_libtelux_loc
-Wl,--defsym=_ZNSt17_Function_handlerIFvRKN15location_client12GnssDcReportEESt5_BindIFMN5telux3loc19LocationManagerImplEFvS3_EPS8_St12_PlaceholderILi1EEEEE9_M_invokeERKSt9_Any_dataS3_=so_stub_for_libtelux_loc
-Wl,--defsym=_ZNSt17_Function_handlerIFvRKN15location_client12GnssLocationEESt5_BindIFMN5telux3loc19LocationManagerImplEFvS3_EPS8_St12_PlaceholderILi1EEEEE10_M_managerERSt9_Any_dataRKSH_St18_Manager_operation=so_stub_for_libtelux_loc
-Wl,--defsym=_ZNSt17_Function_handlerIFvRKN15location_client12GnssLocationEESt5_BindIFMN5telux3loc19LocationManagerImplEFvS3_EPS8_St12_PlaceholderILi1EEEEE9_M_invokeERKSt9_Any_dataS3_=so_stub_for_libtelux_loc
-Wl,--defsym=_ZNSt17_Function_handlerIFvRKN15location_client13GnssEphemerisEESt5_BindIFMN5telux3loc19LocationManagerImplEFvS3_EPS8_St12_PlaceholderILi1EEEEE10_M_managerERSt9_Any_dataRKSH_St18_Manager_operation=so_stub_for_libtelux_loc
-Wl,--defsym=_ZNSt17_Function_handlerIFvRKN15location_client13GnssEphemerisEESt5_BindIFMN5telux3loc19LocationManagerImplEFvS3_EPS8_St12_PlaceholderILi1EEEEE9_M_invokeERKSt9_Any_dataS3_=so_stub_for_libtelux_loc
-Wl,--defsym=_ZNSt17_Function_handlerIFvRKN15location_client16GnssMeasurementsEESt5_BindIFMN5telux3loc19LocationManagerImplEFvS3_EPS8_St12_PlaceholderILi1EEEEE10_M_managerERSt9_Any_dataRKSH_St18_Manager_operation=so_stub_for_libtelux_loc
-Wl,--defsym=_ZNSt17_Function_handlerIFvRKN15location_client16GnssMeasurementsEESt5_BindIFMN5telux3loc19LocationManagerImplEFvS3_EPS8_St12_PlaceholderILi1EEEEE9_M_invokeERKSt9_Any_dataS3_=so_stub_for_libtelux_loc
-Wl,--defsym=_ZNSt17_Function_handlerIFvRKN15location_client18LocationSystemInfoEESt5_BindIFMN5telux3loc19LocationManagerImplEFvS3_EPS8_St12_PlaceholderILi1EEEEE10_M_managerERSt9_Any_dataRKSH_St18_Manager_operation=so_stub_for_libtelux_loc
-Wl,--defsym=_ZNSt17_Function_handlerIFvRKN15location_client18LocationSystemInfoEESt5_BindIFMN5telux3loc19LocationManagerImplEFvS3_EPS8_St12_PlaceholderILi1EEEEE9_M_invokeERKSt9_Any_dataS3_=so_stub_for_libtelux_loc
-Wl,--defsym=_ZNSt17_Function_handlerIFvRKN15location_client22GnssEnergyConsumedInfoEESt5_BindIFMN5telux3loc19LocationManagerImplEFvS3_EPS8_St12_PlaceholderILi1EEEEE10_M_managerERSt9_Any_dataRKSH_St18_Manager_operation=so_stub_for_libtelux_loc
-Wl,--defsym=_ZNSt17_Function_handlerIFvRKN15location_client22GnssEnergyConsumedInfoEESt5_BindIFMN5telux3loc19LocationManagerImplEFvS3_EPS8_St12_PlaceholderILi1EEEEE9_M_invokeERKSt9_Any_dataS3_=so_stub_for_libtelux_loc
-Wl,--defsym=_ZNSt17_Function_handlerIFvRKN15location_client8GnssDataEESt5_BindIFMN5telux3loc19LocationManagerImplEFvS3_EPS8_St12_PlaceholderILi1EEEEE10_M_managerERSt9_Any_dataRKSH_St18_Manager_operation=so_stub_for_libtelux_loc
-Wl,--defsym=_ZNSt17_Function_handlerIFvRKN15location_client8GnssDataEESt5_BindIFMN5telux3loc19LocationManagerImplEFvS3_EPS8_St12_PlaceholderILi1EEEEE9_M_invokeERKSt9_Any_dataS3_=so_stub_for_libtelux_loc
-Wl,--defsym=_ZNSt17_Function_handlerIFvRKN15location_client8LocationEESt5_BindIFMN5telux3loc19LocationManagerImplEFvS3_EPS8_St12_PlaceholderILi1EEEEE10_M_managerERSt9_Any_dataRKSH_St18_Manager_operation=so_stub_for_libtelux_loc
-Wl,--defsym=_ZNSt17_Function_handlerIFvRKN15location_client8LocationEESt5_BindIFMN5telux3loc19LocationManagerImplEFvS3_EPS8_St12_PlaceholderILi1EEEEE9_M_invokeERKSt9_Any_dataS3_=so_stub_for_libtelux_loc
-Wl,--defsym=_ZNSt17_Function_handlerIFvRKSt13unordered_setIN20location_integration21GnssConstellationTypeESt4hashIS2_ESt8equal_toIS2_ESaIS2_EEESt5_BindIFMN5telux3loc24LocationConfiguratorImplEFvSA_EPSF_St12_PlaceholderILi1EEEEE10_M_managerERSt9_Any_dataRKSO_St18_Manager_operation=so_stub_for_libtelux_loc
-Wl,--defsym=_ZNSt17_Function_handlerIFvRKSt13unordered_setIN20location_integration21GnssConstellationTypeESt4hashIS2_ESt8equal_toIS2_ESaIS2_EEESt5_BindIFMN5telux3loc24LocationConfiguratorImplEFvSA_EPSF_St12_PlaceholderILi1EEEEE9_M_invokeERKSt9_Any_dataSA_=so_stub_for_libtelux_loc
-Wl,--defsym=_ZNSt17_Function_handlerIFvRKSt6vectorIhSaIhEEESt5_BindIFMN5telux3loc19LocationManagerImplEFvS4_EPS9_St12_PlaceholderILi1EEEEE10_M_managerERSt9_Any_dataRKSI_St18_Manager_operation=so_stub_for_libtelux_loc
-Wl,--defsym=_ZNSt17_Function_handlerIFvRKSt6vectorIhSaIhEEESt5_BindIFMN5telux3loc19LocationManagerImplEFvS4_EPS9_St12_PlaceholderILi1EEEEE9_M_invokeERKSt9_Any_dataS4_=so_stub_for_libtelux_loc
-Wl,--defsym=_ZNSt17_Function_handlerIFvRKSt6vectorIN15location_client12GnssLocationESaIS2_EEESt5_BindIFMN5telux3loc19LocationManagerImplEFvS6_EPSB_St12_PlaceholderILi1EEEEE10_M_managerERSt9_Any_dataRKSK_St18_Manager_operation=so_stub_for_libtelux_loc
-Wl,--defsym=_ZNSt17_Function_handlerIFvRKSt6vectorIN15location_client12GnssLocationESaIS2_EEESt5_BindIFMN5telux3loc19LocationManagerImplEFvS6_EPSB_St12_PlaceholderILi1EEEEE9_M_invokeERKSt9_Any_dataS6_=so_stub_for_libtelux_loc
-Wl,--defsym=_ZNSt17_Function_handlerIFvRKSt6vectorIN15location_client6GnssSvESaIS2_EEESt5_BindIFMN5telux3loc19LocationManagerImplEFvS6_EPSB_St12_PlaceholderILi1EEEEE10_M_managerERSt9_Any_dataRKSK_St18_Manager_operation=so_stub_for_libtelux_loc
-Wl,--defsym=_ZNSt17_Function_handlerIFvRKSt6vectorIN15location_client6GnssSvESaIS2_EEESt5_BindIFMN5telux3loc19LocationManagerImplEFvS6_EPSB_St12_PlaceholderILi1EEEEE9_M_invokeERKSt9_Any_dataS6_=so_stub_for_libtelux_loc
-Wl,--defsym=_ZNSt17_Function_handlerIFvtESt5_BindIFMN5telux3loc24LocationConfiguratorImplEFvtEPS4_St12_PlaceholderILi1EEEEE10_M_managerERSt9_Any_dataRKSD_St18_Manager_operation=so_stub_for_libtelux_loc
-Wl,--defsym=_ZNSt17_Function_handlerIFvtESt5_BindIFMN5telux3loc24LocationConfiguratorImplEFvtEPS4_St12_PlaceholderILi1EEEEE9_M_invokeERKSt9_Any_dataOt=so_stub_for_libtelux_loc
-Wl,--defsym=_ZNSt18condition_variable4waitIZN5telux6common14AsyncTaskQueueIvE11executeTaskEvEUlvE_EEvRSt11unique_lockISt5mutexET_=so_stub_for_libtelux_loc
-Wl,--defsym=_ZNSt20__uninitialized_copyILb0EE13__uninit_copyIN9__gnu_cxx17__normal_iteratorIPKNSt7__cxx1112basic_stringIcSt11char_traitsIcESaIcEEESt6vectorIS9_SaIS9_EEEEPS9_EET0_T_SI_SH_=so_stub_for_libtelux_loc
-Wl,--defsym=_ZNSt20__uninitialized_copyILb0EE13__uninit_copyIN9__gnu_cxx17__normal_iteratorIPKSt10shared_ptrIN5telux3loc7ISVInfoEESt6vectorIS8_SaIS8_EEEEPS8_EET0_T_SH_SG_=so_stub_for_libtelux_loc
-Wl,--defsym=_ZNSt20__uninitialized_copyILb0EE13__uninit_copyIN9__gnu_cxx17__normal_iteratorIPKSt8functionIFvN5telux6common13ServiceStatusEEESt6vectorIS9_SaIS9_EEEEPS9_EET0_T_SI_SH_=so_stub_for_libtelux_loc
-Wl,--defsym=_ZNSt20__uninitialized_copyILb0EE13__uninit_copyIPSt8functionIFvN5telux6common13ServiceStatusEEES8_EET0_T_SA_S9_=so_stub_for_libtelux_loc
-Wl,--defsym=_ZNSt20__uninitialized_copyILb0EE13__uninit_copyISt15_Deque_iteratorISt13shared_futureIvERKS4_PS5_ES2_IS4_RS4_PS4_EEET0_T_SD_SC_=so_stub_for_libtelux_loc
-Wl,--defsym=_ZNSt23_Sp_counted_ptr_inplaceIN15location_client17LocationClientApiESaIS1_ELN9__gnu_cxx12_Lock_policyE2EE10_M_destroyEv=so_stub_for_libtelux_loc
-Wl,--defsym=_ZNSt23_Sp_counted_ptr_inplaceIN15location_client17LocationClientApiESaIS1_ELN9__gnu_cxx12_Lock_policyE2EE10_M_disposeEv=so_stub_for_libtelux_loc
-Wl,--defsym=_ZNSt23_Sp_counted_ptr_inplaceIN15location_client17LocationClientApiESaIS1_ELN9__gnu_cxx12_Lock_policyE2EE14_M_get_deleterERKSt9type_info=so_stub_for_libtelux_loc
-Wl,--defsym=_ZNSt23_Sp_counted_ptr_inplaceIN15location_client17LocationClientApiESaIS1_ELN9__gnu_cxx12_Lock_policyE2EED0Ev=so_stub_for_libtelux_loc
-Wl,--defsym=_ZNSt23_Sp_counted_ptr_inplaceIN15location_client17LocationClientApiESaIS1_ELN9__gnu_cxx12_Lock_policyE2EED1Ev=so_stub_for_libtelux_loc
-Wl,--defsym=_ZNSt23_Sp_counted_ptr_inplaceIN15location_client17LocationClientApiESaIS1_ELN9__gnu_cxx12_Lock_policyE2EED2Ev=so_stub_for_libtelux_loc
-Wl,--defsym=_ZNSt23_Sp_counted_ptr_inplaceIN20location_integration22LocationIntegrationApiESaIS1_ELN9__gnu_cxx12_Lock_policyE2EE10_M_destroyEv=so_stub_for_libtelux_loc
-Wl,--defsym=_ZNSt23_Sp_counted_ptr_inplaceIN20location_integration22LocationIntegrationApiESaIS1_ELN9__gnu_cxx12_Lock_policyE2EE10_M_disposeEv=so_stub_for_libtelux_loc
-Wl,--defsym=_ZNSt23_Sp_counted_ptr_inplaceIN20location_integration22LocationIntegrationApiESaIS1_ELN9__gnu_cxx12_Lock_policyE2EE14_M_get_deleterERKSt9type_info=so_stub_for_libtelux_loc
-Wl,--defsym=_ZNSt23_Sp_counted_ptr_inplaceIN20location_integration22LocationIntegrationApiESaIS1_ELN9__gnu_cxx12_Lock_policyE2EED0Ev=so_stub_for_libtelux_loc
-Wl,--defsym=_ZNSt23_Sp_counted_ptr_inplaceIN20location_integration22LocationIntegrationApiESaIS1_ELN9__gnu_cxx12_Lock_policyE2EED1Ev=so_stub_for_libtelux_loc
-Wl,--defsym=_ZNSt23_Sp_counted_ptr_inplaceIN20location_integration22LocationIntegrationApiESaIS1_ELN9__gnu_cxx12_Lock_policyE2EED2Ev=so_stub_for_libtelux_loc
-Wl,--defsym=_ZNSt23_Sp_counted_ptr_inplaceIN5telux3loc10SVInfoImplESaIS2_ELN9__gnu_cxx12_Lock_policyE2EE10_M_destroyEv=so_stub_for_libtelux_loc
-Wl,--defsym=_ZNSt23_Sp_counted_ptr_inplaceIN5telux3loc10SVInfoImplESaIS2_ELN9__gnu_cxx12_Lock_policyE2EE10_M_disposeEv=so_stub_for_libtelux_loc
-Wl,--defsym=_ZNSt23_Sp_counted_ptr_inplaceIN5telux3loc10SVInfoImplESaIS2_ELN9__gnu_cxx12_Lock_policyE2EE14_M_get_deleterERKSt9type_info=so_stub_for_libtelux_loc
-Wl,--defsym=_ZNSt23_Sp_counted_ptr_inplaceIN5telux3loc10SVInfoImplESaIS2_ELN9__gnu_cxx12_Lock_policyE2EED0Ev=so_stub_for_libtelux_loc
-Wl,--defsym=_ZNSt23_Sp_counted_ptr_inplaceIN5telux3loc10SVInfoImplESaIS2_ELN9__gnu_cxx12_Lock_policyE2EED1Ev=so_stub_for_libtelux_loc
-Wl,--defsym=_ZNSt23_Sp_counted_ptr_inplaceIN5telux3loc10SVInfoImplESaIS2_ELN9__gnu_cxx12_Lock_policyE2EED2Ev=so_stub_for_libtelux_loc
-Wl,--defsym=_ZNSt23_Sp_counted_ptr_inplaceIN5telux3loc10TimeWindowESaIS2_ELN9__gnu_cxx12_Lock_policyE2EE10_M_destroyEv=so_stub_for_libtelux_loc
-Wl,--defsym=_ZNSt23_Sp_counted_ptr_inplaceIN5telux3loc10TimeWindowESaIS2_ELN9__gnu_cxx12_Lock_policyE2EE10_M_disposeEv=so_stub_for_libtelux_loc
-Wl,--defsym=_ZNSt23_Sp_counted_ptr_inplaceIN5telux3loc10TimeWindowESaIS2_ELN9__gnu_cxx12_Lock_policyE2EE14_M_get_deleterERKSt9type_info=so_stub_for_libtelux_loc
-Wl,--defsym=_ZNSt23_Sp_counted_ptr_inplaceIN5telux3loc10TimeWindowESaIS2_ELN9__gnu_cxx12_Lock_policyE2EED0Ev=so_stub_for_libtelux_loc
-Wl,--defsym=_ZNSt23_Sp_counted_ptr_inplaceIN5telux3loc10TimeWindowESaIS2_ELN9__gnu_cxx12_Lock_policyE2EED1Ev=so_stub_for_libtelux_loc
-Wl,--defsym=_ZNSt23_Sp_counted_ptr_inplaceIN5telux3loc10TimeWindowESaIS2_ELN9__gnu_cxx12_Lock_policyE2EED2Ev=so_stub_for_libtelux_loc
-Wl,--defsym=_ZNSt23_Sp_counted_ptr_inplaceIN5telux3loc14GnssSignalInfoESaIS2_ELN9__gnu_cxx12_Lock_policyE2EE10_M_destroyEv=so_stub_for_libtelux_loc
-Wl,--defsym=_ZNSt23_Sp_counted_ptr_inplaceIN5telux3loc14GnssSignalInfoESaIS2_ELN9__gnu_cxx12_Lock_policyE2EE10_M_disposeEv=so_stub_for_libtelux_loc
-Wl,--defsym=_ZNSt23_Sp_counted_ptr_inplaceIN5telux3loc14GnssSignalInfoESaIS2_ELN9__gnu_cxx12_Lock_policyE2EE14_M_get_deleterERKSt9type_info=so_stub_for_libtelux_loc
-Wl,--defsym=_ZNSt23_Sp_counted_ptr_inplaceIN5telux3loc14GnssSignalInfoESaIS2_ELN9__gnu_cxx12_Lock_policyE2EED0Ev=so_stub_for_libtelux_loc
-Wl,--defsym=_ZNSt23_Sp_counted_ptr_inplaceIN5telux3loc14GnssSignalInfoESaIS2_ELN9__gnu_cxx12_Lock_policyE2EED1Ev=so_stub_for_libtelux_loc
-Wl,--defsym=_ZNSt23_Sp_counted_ptr_inplaceIN5telux3loc14GnssSignalInfoESaIS2_ELN9__gnu_cxx12_Lock_policyE2EED2Ev=so_stub_for_libtelux_loc
-Wl,--defsym=_ZNSt23_Sp_counted_ptr_inplaceIN5telux3loc14GnssSVInfoImplESaIS2_ELN9__gnu_cxx12_Lock_policyE2EE10_M_destroyEv=so_stub_for_libtelux_loc
-Wl,--defsym=_ZNSt23_Sp_counted_ptr_inplaceIN5telux3loc14GnssSVInfoImplESaIS2_ELN9__gnu_cxx12_Lock_policyE2EE10_M_disposeEv=so_stub_for_libtelux_loc
-Wl,--defsym=_ZNSt23_Sp_counted_ptr_inplaceIN5telux3loc14GnssSVInfoImplESaIS2_ELN9__gnu_cxx12_Lock_policyE2EE14_M_get_deleterERKSt9type_info=so_stub_for_libtelux_loc
-Wl,--defsym=_ZNSt23_Sp_counted_ptr_inplaceIN5telux3loc14GnssSVInfoImplESaIS2_ELN9__gnu_cxx12_Lock_policyE2EED0Ev=so_stub_for_libtelux_loc
-Wl,--defsym=_ZNSt23_Sp_counted_ptr_inplaceIN5telux3loc14GnssSVInfoImplESaIS2_ELN9__gnu_cxx12_Lock_policyE2EED1Ev=so_stub_for_libtelux_loc
-Wl,--defsym=_ZNSt23_Sp_counted_ptr_inplaceIN5telux3loc14GnssSVInfoImplESaIS2_ELN9__gnu_cxx12_Lock_policyE2EED2Ev=so_stub_for_libtelux_loc
-Wl,--defsym=_ZNSt23_Sp_counted_ptr_inplaceIN5telux3loc16DgnssManagerImplESaIS2_ELN9__gnu_cxx12_Lock_policyE2EE10_M_destroyEv=so_stub_for_libtelux_loc
-Wl,--defsym=_ZNSt23_Sp_counted_ptr_inplaceIN5telux3loc16DgnssManagerImplESaIS2_ELN9__gnu_cxx12_Lock_policyE2EE10_M_disposeEv=so_stub_for_libtelux_loc
-Wl,--defsym=_ZNSt23_Sp_counted_ptr_inplaceIN5telux3loc16DgnssManagerImplESaIS2_ELN9__gnu_cxx12_Lock_policyE2EE14_M_get_deleterERKSt9type_info=so_stub_for_libtelux_loc
-Wl,--defsym=_ZNSt23_Sp_counted_ptr_inplaceIN5telux3loc16DgnssManagerImplESaIS2_ELN9__gnu_cxx12_Lock_policyE2EED0Ev=so_stub_for_libtelux_loc
-Wl,--defsym=_ZNSt23_Sp_counted_ptr_inplaceIN5telux3loc16DgnssManagerImplESaIS2_ELN9__gnu_cxx12_Lock_policyE2EED1Ev=so_stub_for_libtelux_loc
-Wl,--defsym=_ZNSt23_Sp_counted_ptr_inplaceIN5telux3loc16DgnssManagerImplESaIS2_ELN9__gnu_cxx12_Lock_policyE2EED2Ev=so_stub_for_libtelux_loc
-Wl,--defsym=_ZNSt23_Sp_counted_ptr_inplaceIN5telux3loc16LocationResponseESaIS2_ELN9__gnu_cxx12_Lock_policyE2EE10_M_destroyEv=so_stub_for_libtelux_loc
-Wl,--defsym=_ZNSt23_Sp_counted_ptr_inplaceIN5telux3loc16LocationResponseESaIS2_ELN9__gnu_cxx12_Lock_policyE2EE10_M_disposeEv=so_stub_for_libtelux_loc
-Wl,--defsym=_ZNSt23_Sp_counted_ptr_inplaceIN5telux3loc16LocationResponseESaIS2_ELN9__gnu_cxx12_Lock_policyE2EE14_M_get_deleterERKSt9type_info=so_stub_for_libtelux_loc
-Wl,--defsym=_ZNSt23_Sp_counted_ptr_inplaceIN5telux3loc16LocationResponseESaIS2_ELN9__gnu_cxx12_Lock_policyE2EED0Ev=so_stub_for_libtelux_loc
-Wl,--defsym=_ZNSt23_Sp_counted_ptr_inplaceIN5telux3loc16LocationResponseESaIS2_ELN9__gnu_cxx12_Lock_policyE2EED1Ev=so_stub_for_libtelux_loc
-Wl,--defsym=_ZNSt23_Sp_counted_ptr_inplaceIN5telux3loc16LocationResponseESaIS2_ELN9__gnu_cxx12_Lock_policyE2EED2Ev=so_stub_for_libtelux_loc
-Wl,--defsym=_ZNSt23_Sp_counted_ptr_inplaceIN5telux3loc18LocationInfoImplExESaIS2_ELN9__gnu_cxx12_Lock_policyE2EE10_M_destroyEv=so_stub_for_libtelux_loc
-Wl,--defsym=_ZNSt23_Sp_counted_ptr_inplaceIN5telux3loc18LocationInfoImplExESaIS2_ELN9__gnu_cxx12_Lock_policyE2EE10_M_disposeEv=so_stub_for_libtelux_loc
-Wl,--defsym=_ZNSt23_Sp_counted_ptr_inplaceIN5telux3loc18LocationInfoImplExESaIS2_ELN9__gnu_cxx12_Lock_policyE2EE14_M_get_deleterERKSt9type_info=so_stub_for_libtelux_loc
-Wl,--defsym=_ZNSt23_Sp_counted_ptr_inplaceIN5telux3loc18LocationInfoImplExESaIS2_ELN9__gnu_cxx12_Lock_policyE2EED0Ev=so_stub_for_libtelux_loc
-Wl,--defsym=_ZNSt23_Sp_counted_ptr_inplaceIN5telux3loc18LocationInfoImplExESaIS2_ELN9__gnu_cxx12_Lock_policyE2EED1Ev=so_stub_for_libtelux_loc
-Wl,--defsym=_ZNSt23_Sp_counted_ptr_inplaceIN5telux3loc18LocationInfoImplExESaIS2_ELN9__gnu_cxx12_Lock_policyE2EED2Ev=so_stub_for_libtelux_loc
-Wl,--defsym=_ZNSt23_Sp_counted_ptr_inplaceIN5telux3loc19LocationManagerImplESaIS2_ELN9__gnu_cxx12_Lock_policyE2EE10_M_destroyEv=so_stub_for_libtelux_loc
-Wl,--defsym=_ZNSt23_Sp_counted_ptr_inplaceIN5telux3loc19LocationManagerImplESaIS2_ELN9__gnu_cxx12_Lock_policyE2EE10_M_disposeEv=so_stub_for_libtelux_loc
-Wl,--defsym=_ZNSt23_Sp_counted_ptr_inplaceIN5telux3loc19LocationManagerImplESaIS2_ELN9__gnu_cxx12_Lock_policyE2EE14_M_get_deleterERKSt9type_info=so_stub_for_libtelux_loc
-Wl,--defsym=_ZNSt23_Sp_counted_ptr_inplaceIN5telux3loc19LocationManagerImplESaIS2_ELN9__gnu_cxx12_Lock_policyE2EED0Ev=so_stub_for_libtelux_loc
-Wl,--defsym=_ZNSt23_Sp_counted_ptr_inplaceIN5telux3loc19LocationManagerImplESaIS2_ELN9__gnu_cxx12_Lock_policyE2EED1Ev=so_stub_for_libtelux_loc
-Wl,--defsym=_ZNSt23_Sp_counted_ptr_inplaceIN5telux3loc19LocationManagerImplESaIS2_ELN9__gnu_cxx12_Lock_policyE2EED2Ev=so_stub_for_libtelux_loc
-Wl,--defsym=_ZNSt23_Sp_counted_ptr_inplaceIN5telux3loc20LocationReportFilterESaIS2_ELN9__gnu_cxx12_Lock_policyE2EE10_M_destroyEv=so_stub_for_libtelux_loc
-Wl,--defsym=_ZNSt23_Sp_counted_ptr_inplaceIN5telux3loc20LocationReportFilterESaIS2_ELN9__gnu_cxx12_Lock_policyE2EE10_M_disposeEv=so_stub_for_libtelux_loc
-Wl,--defsym=_ZNSt23_Sp_counted_ptr_inplaceIN5telux3loc20LocationReportFilterESaIS2_ELN9__gnu_cxx12_Lock_policyE2EE14_M_get_deleterERKSt9type_info=so_stub_for_libtelux_loc
-Wl,--defsym=_ZNSt23_Sp_counted_ptr_inplaceIN5telux3loc20LocationReportFilterESaIS2_ELN9__gnu_cxx12_Lock_policyE2EED0Ev=so_stub_for_libtelux_loc
-Wl,--defsym=_ZNSt23_Sp_counted_ptr_inplaceIN5telux3loc20LocationReportFilterESaIS2_ELN9__gnu_cxx12_Lock_policyE2EED1Ev=so_stub_for_libtelux_loc
-Wl,--defsym=_ZNSt23_Sp_counted_ptr_inplaceIN5telux3loc20LocationReportFilterESaIS2_ELN9__gnu_cxx12_Lock_policyE2EED2Ev=so_stub_for_libtelux_loc
-Wl,--defsym=_ZNSt23_Sp_counted_ptr_inplaceIN5telux3loc21LocationInfoImplBasicESaIS2_ELN9__gnu_cxx12_Lock_policyE2EE10_M_destroyEv=so_stub_for_libtelux_loc
-Wl,--defsym=_ZNSt23_Sp_counted_ptr_inplaceIN5telux3loc21LocationInfoImplBasicESaIS2_ELN9__gnu_cxx12_Lock_policyE2EE10_M_disposeEv=so_stub_for_libtelux_loc
-Wl,--defsym=_ZNSt23_Sp_counted_ptr_inplaceIN5telux3loc21LocationInfoImplBasicESaIS2_ELN9__gnu_cxx12_Lock_policyE2EE14_M_get_deleterERKSt9type_info=so_stub_for_libtelux_loc
-Wl,--defsym=_ZNSt23_Sp_counted_ptr_inplaceIN5telux3loc21LocationInfoImplBasicESaIS2_ELN9__gnu_cxx12_Lock_policyE2EED0Ev=so_stub_for_libtelux_loc
-Wl,--defsym=_ZNSt23_Sp_counted_ptr_inplaceIN5telux3loc21LocationInfoImplBasicESaIS2_ELN9__gnu_cxx12_Lock_policyE2EED1Ev=so_stub_for_libtelux_loc
-Wl,--defsym=_ZNSt23_Sp_counted_ptr_inplaceIN5telux3loc21LocationInfoImplBasicESaIS2_ELN9__gnu_cxx12_Lock_policyE2EED2Ev=so_stub_for_libtelux_loc
-Wl,--defsym=_ZNSt23_Sp_counted_ptr_inplaceIN5telux3loc24LocationConfiguratorImplESaIS2_ELN9__gnu_cxx12_Lock_policyE2EE10_M_destroyEv=so_stub_for_libtelux_loc
-Wl,--defsym=_ZNSt23_Sp_counted_ptr_inplaceIN5telux3loc24LocationConfiguratorImplESaIS2_ELN9__gnu_cxx12_Lock_policyE2EE10_M_disposeEv=so_stub_for_libtelux_loc
-Wl,--defsym=_ZNSt23_Sp_counted_ptr_inplaceIN5telux3loc24LocationConfiguratorImplESaIS2_ELN9__gnu_cxx12_Lock_policyE2EE14_M_get_deleterERKSt9type_info=so_stub_for_libtelux_loc
-Wl,--defsym=_ZNSt23_Sp_counted_ptr_inplaceIN5telux3loc24LocationConfiguratorImplESaIS2_ELN9__gnu_cxx12_Lock_policyE2EED0Ev=so_stub_for_libtelux_loc
-Wl,--defsym=_ZNSt23_Sp_counted_ptr_inplaceIN5telux3loc24LocationConfiguratorImplESaIS2_ELN9__gnu_cxx12_Lock_policyE2EED1Ev=so_stub_for_libtelux_loc
-Wl,--defsym=_ZNSt23_Sp_counted_ptr_inplaceIN5telux3loc24LocationConfiguratorImplESaIS2_ELN9__gnu_cxx12_Lock_policyE2EED2Ev=so_stub_for_libtelux_loc
-Wl,--defsym=_ZNSt23_Sp_counted_ptr_inplaceIN5telux3loc34LocationPowerStateResponseCallbackESaIS2_ELN9__gnu_cxx12_Lock_policyE2EE10_M_destroyEv=so_stub_for_libtelux_loc
-Wl,--defsym=_ZNSt23_Sp_counted_ptr_inplaceIN5telux3loc34LocationPowerStateResponseCallbackESaIS2_ELN9__gnu_cxx12_Lock_policyE2EE10_M_disposeEv=so_stub_for_libtelux_loc
-Wl,--defsym=_ZNSt23_Sp_counted_ptr_inplaceIN5telux3loc34LocationPowerStateResponseCallbackESaIS2_ELN9__gnu_cxx12_Lock_policyE2EE14_M_get_deleterERKSt9type_info=so_stub_for_libtelux_loc
-Wl,--defsym=_ZNSt23_Sp_counted_ptr_inplaceIN5telux3loc34LocationPowerStateResponseCallbackESaIS2_ELN9__gnu_cxx12_Lock_policyE2EED0Ev=so_stub_for_libtelux_loc
-Wl,--defsym=_ZNSt23_Sp_counted_ptr_inplaceIN5telux3loc34LocationPowerStateResponseCallbackESaIS2_ELN9__gnu_cxx12_Lock_policyE2EED1Ev=so_stub_for_libtelux_loc
-Wl,--defsym=_ZNSt23_Sp_counted_ptr_inplaceIN5telux3loc34LocationPowerStateResponseCallbackESaIS2_ELN9__gnu_cxx12_Lock_policyE2EED2Ev=so_stub_for_libtelux_loc
-Wl,--defsym=_ZNSt23_Sp_counted_ptr_inplaceIN5telux6common15ListenerManagerESaIS2_ELN9__gnu_cxx12_Lock_policyE2EE10_M_destroyEv=so_stub_for_libtelux_loc
-Wl,--defsym=_ZNSt23_Sp_counted_ptr_inplaceIN5telux6common15ListenerManagerESaIS2_ELN9__gnu_cxx12_Lock_policyE2EE10_M_disposeEv=so_stub_for_libtelux_loc
-Wl,--defsym=_ZNSt23_Sp_counted_ptr_inplaceIN5telux6common15ListenerManagerESaIS2_ELN9__gnu_cxx12_Lock_policyE2EE14_M_get_deleterERKSt9type_info=so_stub_for_libtelux_loc
-Wl,--defsym=_ZNSt23_Sp_counted_ptr_inplaceIN5telux6common15ListenerManagerESaIS2_ELN9__gnu_cxx12_Lock_policyE2EED0Ev=so_stub_for_libtelux_loc
-Wl,--defsym=_ZNSt23_Sp_counted_ptr_inplaceIN5telux6common15ListenerManagerESaIS2_ELN9__gnu_cxx12_Lock_policyE2EED1Ev=so_stub_for_libtelux_loc
-Wl,--defsym=_ZNSt23_Sp_counted_ptr_inplaceIN5telux6common15ListenerManagerESaIS2_ELN9__gnu_cxx12_Lock_policyE2EED2Ev=so_stub_for_libtelux_loc
-Wl,--defsym=_ZNSt23_Sp_counted_ptr_inplaceIN5telux6common18FunctionalCallbackIJhNS1_9ErrorCodeEEEESaIS4_ELN9__gnu_cxx12_Lock_policyE2EE10_M_destroyEv=so_stub_for_libtelux_loc
-Wl,--defsym=_ZNSt23_Sp_counted_ptr_inplaceIN5telux6common18FunctionalCallbackIJhNS1_9ErrorCodeEEEESaIS4_ELN9__gnu_cxx12_Lock_policyE2EE10_M_disposeEv=so_stub_for_libtelux_loc
-Wl,--defsym=_ZNSt23_Sp_counted_ptr_inplaceIN5telux6common18FunctionalCallbackIJhNS1_9ErrorCodeEEEESaIS4_ELN9__gnu_cxx12_Lock_policyE2EE14_M_get_deleterERKSt9type_info=so_stub_for_libtelux_loc
-Wl,--defsym=_ZNSt23_Sp_counted_ptr_inplaceIN5telux6common18FunctionalCallbackIJhNS1_9ErrorCodeEEEESaIS4_ELN9__gnu_cxx12_Lock_policyE2EED0Ev=so_stub_for_libtelux_loc
-Wl,--defsym=_ZNSt23_Sp_counted_ptr_inplaceIN5telux6common18FunctionalCallbackIJhNS1_9ErrorCodeEEEESaIS4_ELN9__gnu_cxx12_Lock_policyE2EED1Ev=so_stub_for_libtelux_loc
-Wl,--defsym=_ZNSt23_Sp_counted_ptr_inplaceIN5telux6common18FunctionalCallbackIJhNS1_9ErrorCodeEEEESaIS4_ELN9__gnu_cxx12_Lock_policyE2EED2Ev=so_stub_for_libtelux_loc
-Wl,--defsym=_ZNSt23_Sp_counted_ptr_inplaceIN5telux6common18FunctionalCallbackIJNS0_3loc10XtraStatusENS1_9ErrorCodeEEEESaIS6_ELN9__gnu_cxx12_Lock_policyE2EE10_M_destroyEv=so_stub_for_libtelux_loc
-Wl,--defsym=_ZNSt23_Sp_counted_ptr_inplaceIN5telux6common18FunctionalCallbackIJNS0_3loc10XtraStatusENS1_9ErrorCodeEEEESaIS6_ELN9__gnu_cxx12_Lock_policyE2EE10_M_disposeEv=so_stub_for_libtelux_loc
-Wl,--defsym=_ZNSt23_Sp_counted_ptr_inplaceIN5telux6common18FunctionalCallbackIJNS0_3loc10XtraStatusENS1_9ErrorCodeEEEESaIS6_ELN9__gnu_cxx12_Lock_policyE2EE14_M_get_deleterERKSt9type_info=so_stub_for_libtelux_loc
-Wl,--defsym=_ZNSt23_Sp_counted_ptr_inplaceIN5telux6common18FunctionalCallbackIJNS0_3loc10XtraStatusENS1_9ErrorCodeEEEESaIS6_ELN9__gnu_cxx12_Lock_policyE2EED0Ev=so_stub_for_libtelux_loc
-Wl,--defsym=_ZNSt23_Sp_counted_ptr_inplaceIN5telux6common18FunctionalCallbackIJNS0_3loc10XtraStatusENS1_9ErrorCodeEEEESaIS6_ELN9__gnu_cxx12_Lock_policyE2EED1Ev=so_stub_for_libtelux_loc
-Wl,--defsym=_ZNSt23_Sp_counted_ptr_inplaceIN5telux6common18FunctionalCallbackIJNS0_3loc10XtraStatusENS1_9ErrorCodeEEEESaIS6_ELN9__gnu_cxx12_Lock_policyE2EED2Ev=so_stub_for_libtelux_loc
-Wl,--defsym=_ZNSt23_Sp_counted_ptr_inplaceIN5telux6common18FunctionalCallbackIJNS0_3loc22GnssEnergyConsumedInfoENS1_9ErrorCodeEEEESaIS6_ELN9__gnu_cxx12_Lock_policyE2EE10_M_destroyEv=so_stub_for_libtelux_loc
-Wl,--defsym=_ZNSt23_Sp_counted_ptr_inplaceIN5telux6common18FunctionalCallbackIJNS0_3loc22GnssEnergyConsumedInfoENS1_9ErrorCodeEEEESaIS6_ELN9__gnu_cxx12_Lock_policyE2EE10_M_disposeEv=so_stub_for_libtelux_loc
-Wl,--defsym=_ZNSt23_Sp_counted_ptr_inplaceIN5telux6common18FunctionalCallbackIJNS0_3loc22GnssEnergyConsumedInfoENS1_9ErrorCodeEEEESaIS6_ELN9__gnu_cxx12_Lock_policyE2EE14_M_get_deleterERKSt9type_info=so_stub_for_libtelux_loc
-Wl,--defsym=_ZNSt23_Sp_counted_ptr_inplaceIN5telux6common18FunctionalCallbackIJNS0_3loc22GnssEnergyConsumedInfoENS1_9ErrorCodeEEEESaIS6_ELN9__gnu_cxx12_Lock_policyE2EED0Ev=so_stub_for_libtelux_loc
-Wl,--defsym=_ZNSt23_Sp_counted_ptr_inplaceIN5telux6common18FunctionalCallbackIJNS0_3loc22GnssEnergyConsumedInfoENS1_9ErrorCodeEEEESaIS6_ELN9__gnu_cxx12_Lock_policyE2EED1Ev=so_stub_for_libtelux_loc
-Wl,--defsym=_ZNSt23_Sp_counted_ptr_inplaceIN5telux6common18FunctionalCallbackIJNS0_3loc22GnssEnergyConsumedInfoENS1_9ErrorCodeEEEESaIS6_ELN9__gnu_cxx12_Lock_policyE2EED2Ev=so_stub_for_libtelux_loc
-Wl,--defsym=_ZNSt23_Sp_counted_ptr_inplaceIN5telux6common18FunctionalCallbackIJNS0_3loc27RobustLocationConfigurationENS1_9ErrorCodeEEEESaIS6_ELN9__gnu_cxx12_Lock_policyE2EE10_M_destroyEv=so_stub_for_libtelux_loc
-Wl,--defsym=_ZNSt23_Sp_counted_ptr_inplaceIN5telux6common18FunctionalCallbackIJNS0_3loc27RobustLocationConfigurationENS1_9ErrorCodeEEEESaIS6_ELN9__gnu_cxx12_Lock_policyE2EE10_M_disposeEv=so_stub_for_libtelux_loc
-Wl,--defsym=_ZNSt23_Sp_counted_ptr_inplaceIN5telux6common18FunctionalCallbackIJNS0_3loc27RobustLocationConfigurationENS1_9ErrorCodeEEEESaIS6_ELN9__gnu_cxx12_Lock_policyE2EE14_M_get_deleterERKSt9type_info=so_stub_for_libtelux_loc
-Wl,--defsym=_ZNSt23_Sp_counted_ptr_inplaceIN5telux6common18FunctionalCallbackIJNS0_3loc27RobustLocationConfigurationENS1_9ErrorCodeEEEESaIS6_ELN9__gnu_cxx12_Lock_policyE2EED0Ev=so_stub_for_libtelux_loc
-Wl,--defsym=_ZNSt23_Sp_counted_ptr_inplaceIN5telux6common18FunctionalCallbackIJNS0_3loc27RobustLocationConfigurationENS1_9ErrorCodeEEEESaIS6_ELN9__gnu_cxx12_Lock_policyE2EED1Ev=so_stub_for_libtelux_loc
-Wl,--defsym=_ZNSt23_Sp_counted_ptr_inplaceIN5telux6common18FunctionalCallbackIJNS0_3loc27RobustLocationConfigurationENS1_9ErrorCodeEEEESaIS6_ELN9__gnu_cxx12_Lock_policyE2EED2Ev=so_stub_for_libtelux_loc
-Wl,--defsym=_ZNSt23_Sp_counted_ptr_inplaceIN5telux6common18FunctionalCallbackIJNS1_13ServiceStatusEEEESaIS4_ELN9__gnu_cxx12_Lock_policyE2EE10_M_destroyEv=so_stub_for_libtelux_loc
-Wl,--defsym=_ZNSt23_Sp_counted_ptr_inplaceIN5telux6common18FunctionalCallbackIJNS1_13ServiceStatusEEEESaIS4_ELN9__gnu_cxx12_Lock_policyE2EE10_M_disposeEv=so_stub_for_libtelux_loc
-Wl,--defsym=_ZNSt23_Sp_counted_ptr_inplaceIN5telux6common18FunctionalCallbackIJNS1_13ServiceStatusEEEESaIS4_ELN9__gnu_cxx12_Lock_policyE2EE14_M_get_deleterERKSt9type_info=so_stub_for_libtelux_loc
-Wl,--defsym=_ZNSt23_Sp_counted_ptr_inplaceIN5telux6common18FunctionalCallbackIJNS1_13ServiceStatusEEEESaIS4_ELN9__gnu_cxx12_Lock_policyE2EED0Ev=so_stub_for_libtelux_loc
-Wl,--defsym=_ZNSt23_Sp_counted_ptr_inplaceIN5telux6common18FunctionalCallbackIJNS1_13ServiceStatusEEEESaIS4_ELN9__gnu_cxx12_Lock_policyE2EED1Ev=so_stub_for_libtelux_loc
-Wl,--defsym=_ZNSt23_Sp_counted_ptr_inplaceIN5telux6common18FunctionalCallbackIJNS1_13ServiceStatusEEEESaIS4_ELN9__gnu_cxx12_Lock_policyE2EED2Ev=so_stub_for_libtelux_loc
-Wl,--defsym=_ZNSt23_Sp_counted_ptr_inplaceIN5telux6common18FunctionalCallbackIJSt10shared_ptrINS0_3loc17ILocationInfoBaseEEEEESaIS7_ELN9__gnu_cxx12_Lock_policyE2EE10_M_destroyEv=so_stub_for_libtelux_loc
-Wl,--defsym=_ZNSt23_Sp_counted_ptr_inplaceIN5telux6common18FunctionalCallbackIJSt10shared_ptrINS0_3loc17ILocationInfoBaseEEEEESaIS7_ELN9__gnu_cxx12_Lock_policyE2EE10_M_disposeEv=so_stub_for_libtelux_loc
-Wl,--defsym=_ZNSt23_Sp_counted_ptr_inplaceIN5telux6common18FunctionalCallbackIJSt10shared_ptrINS0_3loc17ILocationInfoBaseEEEEESaIS7_ELN9__gnu_cxx12_Lock_policyE2EE14_M_get_deleterERKSt9type_info=so_stub_for_libtelux_loc
-Wl,--defsym=_ZNSt23_Sp_counted_ptr_inplaceIN5telux6common18FunctionalCallbackIJSt10shared_ptrINS0_3loc17ILocationInfoBaseEEEEESaIS7_ELN9__gnu_cxx12_Lock_policyE2EED0Ev=so_stub_for_libtelux_loc
-Wl,--defsym=_ZNSt23_Sp_counted_ptr_inplaceIN5telux6common18FunctionalCallbackIJSt10shared_ptrINS0_3loc17ILocationInfoBaseEEEEESaIS7_ELN9__gnu_cxx12_Lock_policyE2EED1Ev=so_stub_for_libtelux_loc
-Wl,--defsym=_ZNSt23_Sp_counted_ptr_inplaceIN5telux6common18FunctionalCallbackIJSt10shared_ptrINS0_3loc17ILocationInfoBaseEEEEESaIS7_ELN9__gnu_cxx12_Lock_policyE2EED2Ev=so_stub_for_libtelux_loc
-Wl,--defsym=_ZNSt23_Sp_counted_ptr_inplaceIN5telux6common18FunctionalCallbackIJSt13unordered_setINS0_3loc21GnssConstellationTypeESt4hashIS5_ESt8equal_toIS5_ESaIS5_EENS1_9ErrorCodeEEEESaISD_ELN9__gnu_cxx12_Lock_policyE2EE10_M_destroyEv=so_stub_for_libtelux_loc
-Wl,--defsym=_ZNSt23_Sp_counted_ptr_inplaceIN5telux6common18FunctionalCallbackIJSt13unordered_setINS0_3loc21GnssConstellationTypeESt4hashIS5_ESt8equal_toIS5_ESaIS5_EENS1_9ErrorCodeEEEESaISD_ELN9__gnu_cxx12_Lock_policyE2EE10_M_disposeEv=so_stub_for_libtelux_loc
-Wl,--defsym=_ZNSt23_Sp_counted_ptr_inplaceIN5telux6common18FunctionalCallbackIJSt13unordered_setINS0_3loc21GnssConstellationTypeESt4hashIS5_ESt8equal_toIS5_ESaIS5_EENS1_9ErrorCodeEEEESaISD_ELN9__gnu_cxx12_Lock_policyE2EE14_M_get_deleterERKSt9type_info=so_stub_for_libtelux_loc
-Wl,--defsym=_ZNSt23_Sp_counted_ptr_inplaceIN5telux6common18FunctionalCallbackIJSt13unordered_setINS0_3loc21GnssConstellationTypeESt4hashIS5_ESt8equal_toIS5_ESaIS5_EENS1_9ErrorCodeEEEESaISD_ELN9__gnu_cxx12_Lock_policyE2EED0Ev=so_stub_for_libtelux_loc
-Wl,--defsym=_ZNSt23_Sp_counted_ptr_inplaceIN5telux6common18FunctionalCallbackIJSt13unordered_setINS0_3loc21GnssConstellationTypeESt4hashIS5_ESt8equal_toIS5_ESaIS5_EENS1_9ErrorCodeEEEESaISD_ELN9__gnu_cxx12_Lock_policyE2EED1Ev=so_stub_for_libtelux_loc
-Wl,--defsym=_ZNSt23_Sp_counted_ptr_inplaceIN5telux6common18FunctionalCallbackIJSt13unordered_setINS0_3loc21GnssConstellationTypeESt4hashIS5_ESt8equal_toIS5_ESaIS5_EENS1_9ErrorCodeEEEESaISD_ELN9__gnu_cxx12_Lock_policyE2EED2Ev=so_stub_for_libtelux_loc
-Wl,--defsym=_ZNSt23_Sp_counted_ptr_inplaceIN5telux6common18FunctionalCallbackIJtNS1_9ErrorCodeEEEESaIS4_ELN9__gnu_cxx12_Lock_policyE2EE10_M_destroyEv=so_stub_for_libtelux_loc
-Wl,--defsym=_ZNSt23_Sp_counted_ptr_inplaceIN5telux6common18FunctionalCallbackIJtNS1_9ErrorCodeEEEESaIS4_ELN9__gnu_cxx12_Lock_policyE2EE10_M_disposeEv=so_stub_for_libtelux_loc
-Wl,--defsym=_ZNSt23_Sp_counted_ptr_inplaceIN5telux6common18FunctionalCallbackIJtNS1_9ErrorCodeEEEESaIS4_ELN9__gnu_cxx12_Lock_policyE2EE14_M_get_deleterERKSt9type_info=so_stub_for_libtelux_loc
-Wl,--defsym=_ZNSt23_Sp_counted_ptr_inplaceIN5telux6common18FunctionalCallbackIJtNS1_9ErrorCodeEEEESaIS4_ELN9__gnu_cxx12_Lock_policyE2EED0Ev=so_stub_for_libtelux_loc
-Wl,--defsym=_ZNSt23_Sp_counted_ptr_inplaceIN5telux6common18FunctionalCallbackIJtNS1_9ErrorCodeEEEESaIS4_ELN9__gnu_cxx12_Lock_policyE2EED1Ev=so_stub_for_libtelux_loc
-Wl,--defsym=_ZNSt23_Sp_counted_ptr_inplaceIN5telux6common18FunctionalCallbackIJtNS1_9ErrorCodeEEEESaIS4_ELN9__gnu_cxx12_Lock_policyE2EED2Ev=so_stub_for_libtelux_loc
-Wl,--defsym=_ZNSt23_Sp_counted_ptr_inplaceINSt13__future_base13_State_baseV2ESaIS1_ELN9__gnu_cxx12_Lock_policyE2EE10_M_destroyEv=so_stub_for_libtelux_loc
-Wl,--defsym=_ZNSt23_Sp_counted_ptr_inplaceINSt13__future_base13_State_baseV2ESaIS1_ELN9__gnu_cxx12_Lock_policyE2EE10_M_disposeEv=so_stub_for_libtelux_loc
-Wl,--defsym=_ZNSt23_Sp_counted_ptr_inplaceINSt13__future_base13_State_baseV2ESaIS1_ELN9__gnu_cxx12_Lock_policyE2EE14_M_get_deleterERKSt9type_info=so_stub_for_libtelux_loc
-Wl,--defsym=_ZNSt23_Sp_counted_ptr_inplaceINSt13__future_base13_State_baseV2ESaIS1_ELN9__gnu_cxx12_Lock_policyE2EED0Ev=so_stub_for_libtelux_loc
-Wl,--defsym=_ZNSt23_Sp_counted_ptr_inplaceINSt13__future_base13_State_baseV2ESaIS1_ELN9__gnu_cxx12_Lock_policyE2EED1Ev=so_stub_for_libtelux_loc
-Wl,--defsym=_ZNSt23_Sp_counted_ptr_inplaceINSt13__future_base13_State_baseV2ESaIS1_ELN9__gnu_cxx12_Lock_policyE2EED2Ev=so_stub_for_libtelux_loc
-Wl,--defsym=_ZNSt23_Sp_counted_ptr_inplaceISt6threadSaIS0_ELN9__gnu_cxx12_Lock_policyE2EE10_M_destroyEv=so_stub_for_libtelux_loc
-Wl,--defsym=_ZNSt23_Sp_counted_ptr_inplaceISt6threadSaIS0_ELN9__gnu_cxx12_Lock_policyE2EE10_M_disposeEv=so_stub_for_libtelux_loc
-Wl,--defsym=_ZNSt23_Sp_counted_ptr_inplaceISt6threadSaIS0_ELN9__gnu_cxx12_Lock_policyE2EE14_M_get_deleterERKSt9type_info=so_stub_for_libtelux_loc
-Wl,--defsym=_ZNSt23_Sp_counted_ptr_inplaceISt6threadSaIS0_ELN9__gnu_cxx12_Lock_policyE2EED0Ev=so_stub_for_libtelux_loc
-Wl,--defsym=_ZNSt23_Sp_counted_ptr_inplaceISt6threadSaIS0_ELN9__gnu_cxx12_Lock_policyE2EED1Ev=so_stub_for_libtelux_loc
-Wl,--defsym=_ZNSt23_Sp_counted_ptr_inplaceISt6threadSaIS0_ELN9__gnu_cxx12_Lock_policyE2EED2Ev=so_stub_for_libtelux_loc
-Wl,--defsym=_ZNSt3mapIjSt3setISt8weak_ptrIN5telux6common12ISDKListenerEENS3_15ListenerManager12SetPredicateESaIS5_EESt4lessIjESaISt4pairIKjS9_EEEixEOj=so_stub_for_libtelux_loc
-Wl,--defsym=_ZNSt3mapIN20location_integration17LocConfigTypeEnumE11RequestInfoSt4lessIS1_ESaISt4pairIKS1_S2_EEEixERS6_=so_stub_for_libtelux_loc
-Wl,--defsym=_ZNSt3mapIN5telux3loc10ReportTypeESt10shared_ptrINS1_10TimeWindowEESt4lessIS2_ESaISt4pairIKS2_S5_EEEixERS9_=so_stub_for_libtelux_loc
-Wl,--defsym=_ZNSt5arrayINSt7__cxx1112basic_stringIcSt11char_traitsIcESaIcEEELm3EED1Ev=so_stub_for_libtelux_loc
-Wl,--defsym=_ZNSt5arrayINSt7__cxx1112basic_stringIcSt11char_traitsIcESaIcEEELm3EED2Ev=so_stub_for_libtelux_loc
-Wl,--defsym=_ZNSt5dequeISt13shared_futureIvESaIS1_EE13_M_insert_auxISt15_Deque_iteratorIS1_RKS1_PS6_EEEvS5_IS1_RS1_PS1_ET_SD_m=so_stub_for_libtelux_loc
-Wl,--defsym=_ZNSt5dequeISt13shared_futureIvESaIS1_EE15_M_erase_at_endESt15_Deque_iteratorIS1_RS1_PS1_E=so_stub_for_libtelux_loc
-Wl,--defsym=_ZNSt5dequeISt13shared_futureIvESaIS1_EE16_M_pop_front_auxEv=so_stub_for_libtelux_loc
-Wl,--defsym=_ZNSt5dequeISt13shared_futureIvESaIS1_EE16_M_push_back_auxIJRKS1_EEEvDpOT_=so_stub_for_libtelux_loc
-Wl,--defsym=_ZNSt5dequeISt13shared_futureIvESaIS1_EE17_M_reallocate_mapEmb=so_stub_for_libtelux_loc
-Wl,--defsym=_ZNSt5dequeISt13shared_futureIvESaIS1_EE19_M_destroy_data_auxESt15_Deque_iteratorIS1_RS1_PS1_ES7_=so_stub_for_libtelux_loc
-Wl,--defsym=_ZNSt5dequeISt13shared_futureIvESaIS1_EE19_M_range_insert_auxISt15_Deque_iteratorIS1_RKS1_PS6_EEEvS5_IS1_RS1_PS1_ET_SD_St20forward_iterator_tag=so_stub_for_libtelux_loc
-Wl,--defsym=_ZNSt5dequeISt13shared_futureIvESaIS1_EE23_M_new_elements_at_backEm=so_stub_for_libtelux_loc
-Wl,--defsym=_ZNSt5dequeISt13shared_futureIvESaIS1_EE24_M_new_elements_at_frontEm=so_stub_for_libtelux_loc
-Wl,--defsym=_ZNSt5dequeISt13shared_futureIvESaIS1_EE8_M_eraseESt15_Deque_iteratorIS1_RS1_PS1_E=so_stub_for_libtelux_loc
-Wl,--defsym=_ZNSt5dequeISt13shared_futureIvESaIS1_EE9push_backERKS1_=so_stub_for_libtelux_loc
-Wl,--defsym=_ZNSt5dequeISt13shared_futureIvESaIS1_EEaSERKS3_=so_stub_for_libtelux_loc
-Wl,--defsym=_ZNSt5dequeISt13shared_futureIvESaIS1_EED1Ev=so_stub_for_libtelux_loc
-Wl,--defsym=_ZNSt5dequeISt13shared_futureIvESaIS1_EED2Ev=so_stub_for_libtelux_loc
-Wl,--defsym=_ZNSt6futureIN15location_client16LocationResponseEE3getEv=so_stub_for_libtelux_loc
-Wl,--defsym=_ZNSt6thread11_State_implINS_8_InvokerISt5tupleIJMN5telux6common14AsyncTaskQueueIvEEFvvEPS6_EEEEE6_M_runEv=so_stub_for_libtelux_loc
-Wl,--defsym=_ZNSt6thread11_State_implINS_8_InvokerISt5tupleIJMN5telux6common14AsyncTaskQueueIvEEFvvEPS6_EEEEED0Ev=so_stub_for_libtelux_loc
-Wl,--defsym=_ZNSt6thread11_State_implINS_8_InvokerISt5tupleIJMN5telux6common14AsyncTaskQueueIvEEFvvEPS6_EEEEED1Ev=so_stub_for_libtelux_loc
-Wl,--defsym=_ZNSt6thread11_State_implINS_8_InvokerISt5tupleIJMN5telux6common14AsyncTaskQueueIvEEFvvEPS6_EEEEED2Ev=so_stub_for_libtelux_loc
-Wl,--defsym=_ZNSt6thread11_State_implINS_8_InvokerISt5tupleIJSt8functionIFvN5telux6common13ServiceStatusEEES6_EEEEE6_M_runEv=so_stub_for_libtelux_loc
-Wl,--defsym=_ZNSt6thread11_State_implINS_8_InvokerISt5tupleIJSt8functionIFvN5telux6common13ServiceStatusEEES6_EEEEED0Ev=so_stub_for_libtelux_loc
-Wl,--defsym=_ZNSt6thread11_State_implINS_8_InvokerISt5tupleIJSt8functionIFvN5telux6common13ServiceStatusEEES6_EEEEED1Ev=so_stub_for_libtelux_loc
-Wl,--defsym=_ZNSt6thread11_State_implINS_8_InvokerISt5tupleIJSt8functionIFvN5telux6common13ServiceStatusEEES6_EEEEED2Ev=so_stub_for_libtelux_loc
-Wl,--defsym=_ZNSt6threadC1IMN5telux6common14AsyncTaskQueueIvEEFvvEJPS4_EvEEOT_DpOT0_=so_stub_for_libtelux_loc
-Wl,--defsym=_ZNSt6threadC1IRSt8functionIFvN5telux6common13ServiceStatusEEEJRS4_EvEEOT_DpOT0_=so_stub_for_libtelux_loc
-Wl,--defsym=_ZNSt6threadC2IMN5telux6common14AsyncTaskQueueIvEEFvvEJPS4_EvEEOT_DpOT0_=so_stub_for_libtelux_loc
-Wl,--defsym=_ZNSt6threadC2IRSt8functionIFvN5telux6common13ServiceStatusEEEJRS4_EvEEOT_DpOT0_=so_stub_for_libtelux_loc
-Wl,--defsym=_ZNSt6vectorIfSaIfEE17_M_realloc_insertIJRKfEEEvN9__gnu_cxx17__normal_iteratorIPfS1_EEDpOT_=so_stub_for_libtelux_loc
-Wl,--defsym=_ZNSt6vectorIfSaIfEEaSERKS1_=so_stub_for_libtelux_loc
-Wl,--defsym=_ZNSt6vectorIhSaIhEEaSERKS1_=so_stub_for_libtelux_loc
-Wl,--defsym=_ZNSt6vectorIhSaIhEEC1ERKS1_=so_stub_for_libtelux_loc
-Wl,--defsym=_ZNSt6vectorIhSaIhEEC2ERKS1_=so_stub_for_libtelux_loc
-Wl,--defsym=_ZNSt6vectorIN15location_client17GnssMeasUsageInfoESaIS1_EEC1ERKS3_=so_stub_for_libtelux_loc
-Wl,--defsym=_ZNSt6vectorIN15location_client17GnssMeasUsageInfoESaIS1_EEC2ERKS3_=so_stub_for_libtelux_loc
-Wl,--defsym=_ZNSt6vectorIN20location_integration12GnssSvIdInfoESaIS1_EE17_M_realloc_insertIJRKS1_EEEvN9__gnu_cxx17__normal_iteratorIPS1_S3_EEDpOT_=so_stub_for_libtelux_loc
-Wl,--defsym=_ZNSt6vectorIN5telux3loc10ReportTypeESaIS2_EE12emplace_backIJS2_EEEvDpOT_=so_stub_for_libtelux_loc
-Wl,--defsym=_ZNSt6vectorIN5telux3loc10ReportTypeESaIS2_EE17_M_realloc_insertIJS2_EEEvN9__gnu_cxx17__normal_iteratorIPS2_S4_EEDpOT_=so_stub_for_libtelux_loc
-Wl,--defsym=_ZNSt6vectorIN5telux3loc12BdsEphemerisESaIS2_EE17_M_realloc_insertIJRKS2_EEEvN9__gnu_cxx17__normal_iteratorIPS2_S4_EEDpOT_=so_stub_for_libtelux_loc
-Wl,--defsym=_ZNSt6vectorIN5telux3loc13QzssEphemerisESaIS2_EE17_M_realloc_insertIJRKS2_EEEvN9__gnu_cxx17__normal_iteratorIPS2_S4_EEDpOT_=so_stub_for_libtelux_loc
-Wl,--defsym=_ZNSt6vectorIN5telux3loc14NavicEphemerisESaIS2_EE17_M_realloc_insertIJRKS2_EEEvN9__gnu_cxx17__normal_iteratorIPS2_S4_EEDpOT_=so_stub_for_libtelux_loc
-Wl,--defsym=_ZNSt6vectorIN5telux3loc15SvBlackListInfoESaIS2_EEC1ERKS4_=so_stub_for_libtelux_loc
-Wl,--defsym=_ZNSt6vectorIN5telux3loc15SvBlackListInfoESaIS2_EEC2ERKS4_=so_stub_for_libtelux_loc
-Wl,--defsym=_ZNSt6vectorIN5telux3loc16GalileoEphemerisESaIS2_EE17_M_realloc_insertIJRKS2_EEEvN9__gnu_cxx17__normal_iteratorIPS2_S4_EEDpOT_=so_stub_for_libtelux_loc
-Wl,--defsym=_ZNSt6vectorIN5telux3loc16GlonassEphemerisESaIS2_EE17_M_realloc_insertIJRKS2_EEEvN9__gnu_cxx17__normal_iteratorIPS2_S4_EEDpOT_=so_stub_for_libtelux_loc
-Wl,--defsym=_ZNSt6vectorIN5telux3loc16GpsQzssEphemerisESaIS2_EE17_M_realloc_insertIJRKS2_EEEvN9__gnu_cxx17__normal_iteratorIPS2_S4_EEDpOT_=so_stub_for_libtelux_loc
-Wl,--defsym=_ZNSt6vectorIN5telux3loc19GnssMeasurementInfoESaIS2_EE17_M_realloc_insertIJRKS2_EEEvN9__gnu_cxx17__normal_iteratorIPS2_S4_EEDpOT_=so_stub_for_libtelux_loc
-Wl,--defsym=_ZNSt6vectorIN5telux3loc19GnssMeasurementInfoESaIS2_EEaSERKS4_=so_stub_for_libtelux_loc
-Wl,--defsym=_ZNSt6vectorIN5telux3loc19GnssMeasurementInfoESaIS2_EEC1ERKS4_=so_stub_for_libtelux_loc
-Wl,--defsym=_ZNSt6vectorIN5telux3loc19GnssMeasurementInfoESaIS2_EEC2ERKS4_=so_stub_for_libtelux_loc
-Wl,--defsym=_ZNSt6vectorIN5telux3loc20GnssMeasurementsDataESaIS2_EE17_M_realloc_insertIJRKS2_EEEvN9__gnu_cxx17__normal_iteratorIPS2_S4_EEDpOT_=so_stub_for_libtelux_loc
-Wl,--defsym=_ZNSt6vectorINSt7__cxx1112basic_stringIcSt11char_traitsIcESaIcEEESaIS5_EEC1ERKS7_=so_stub_for_libtelux_loc
-Wl,--defsym=_ZNSt6vectorINSt7__cxx1112basic_stringIcSt11char_traitsIcESaIcEEESaIS5_EEC2ERKS7_=so_stub_for_libtelux_loc
-Wl,--defsym=_ZNSt6vectorINSt7__cxx1112basic_stringIcSt11char_traitsIcESaIcEEESaIS5_EED1Ev=so_stub_for_libtelux_loc
-Wl,--defsym=_ZNSt6vectorINSt7__cxx1112basic_stringIcSt11char_traitsIcESaIcEEESaIS5_EED2Ev=so_stub_for_libtelux_loc
-Wl,--defsym=_ZNSt6vectorISt10shared_ptrIN5telux3loc15ILocationInfoExEESaIS4_EE17_M_realloc_insertIJS4_EEEvN9__gnu_cxx17__normal_iteratorIPS4_S6_EEDpOT_=so_stub_for_libtelux_loc
-Wl,--defsym=_ZNSt6vectorISt10shared_ptrIN5telux3loc15ILocationInfoExEESaIS4_EED1Ev=so_stub_for_libtelux_loc
-Wl,--defsym=_ZNSt6vectorISt10shared_ptrIN5telux3loc15ILocationInfoExEESaIS4_EED2Ev=so_stub_for_libtelux_loc
-Wl,--defsym=_ZNSt6vectorISt10shared_ptrIN5telux3loc7ISVInfoEESaIS4_EE17_M_realloc_insertIJS4_EEEvN9__gnu_cxx17__normal_iteratorIPS4_S6_EEDpOT_=so_stub_for_libtelux_loc
-Wl,--defsym=_ZNSt6vectorISt10shared_ptrIN5telux3loc7ISVInfoEESaIS4_EEaSERKS6_=so_stub_for_libtelux_loc
-Wl,--defsym=_ZNSt6vectorISt10shared_ptrIN5telux3loc7ISVInfoEESaIS4_EEC1ERKS6_=so_stub_for_libtelux_loc
-Wl,--defsym=_ZNSt6vectorISt10shared_ptrIN5telux3loc7ISVInfoEESaIS4_EEC2ERKS6_=so_stub_for_libtelux_loc
-Wl,--defsym=_ZNSt6vectorISt10shared_ptrIN5telux3loc7ISVInfoEESaIS4_EED1Ev=so_stub_for_libtelux_loc
-Wl,--defsym=_ZNSt6vectorISt10shared_ptrIN5telux3loc7ISVInfoEESaIS4_EED2Ev=so_stub_for_libtelux_loc
-Wl,--defsym=_ZNSt6vectorISt10shared_ptrIN5telux6common12ISDKListenerEESaIS4_EE12emplace_backIJRS0_INS1_3loc17ILocationListenerEEEEEvDpOT_=so_stub_for_libtelux_loc
-Wl,--defsym=_ZNSt6vectorISt10shared_ptrIN5telux6common12ISDKListenerEESaIS4_EE17_M_realloc_insertIJRS0_INS1_3loc17ILocationListenerEEEEEvN9__gnu_cxx17__normal_iteratorIPS4_S6_EEDpOT_=so_stub_for_libtelux_loc
-Wl,--defsym=_ZNSt6vectorISt10shared_ptrIN5telux6common12ISDKListenerEESaIS4_EED1Ev=so_stub_for_libtelux_loc
-Wl,--defsym=_ZNSt6vectorISt10shared_ptrIN5telux6common12ISDKListenerEESaIS4_EED2Ev=so_stub_for_libtelux_loc
-Wl,--defsym=_ZNSt6vectorISt8functionIFvN5telux6common13ServiceStatusEEESaIS5_EE17_M_realloc_insertIJRKS5_EEEvN9__gnu_cxx17__normal_iteratorIPS5_S7_EEDpOT_=so_stub_for_libtelux_loc
-Wl,--defsym=_ZNSt6vectorISt8functionIFvN5telux6common13ServiceStatusEEESaIS5_EE20_M_allocate_and_copyIN9__gnu_cxx17__normal_iteratorIPKS5_S7_EEEEPS5_mT_SF_=so_stub_for_libtelux_loc
-Wl,--defsym=_ZNSt6vectorISt8functionIFvN5telux6common13ServiceStatusEEESaIS5_EE9push_backERKS5_=so_stub_for_libtelux_loc
-Wl,--defsym=_ZNSt6vectorISt8functionIFvN5telux6common13ServiceStatusEEESaIS5_EEaSERKS7_=so_stub_for_libtelux_loc
-Wl,--defsym=_ZNSt6vectorISt8functionIFvN5telux6common13ServiceStatusEEESaIS5_EED1Ev=so_stub_for_libtelux_loc
-Wl,--defsym=_ZNSt6vectorISt8functionIFvN5telux6common13ServiceStatusEEESaIS5_EED2Ev=so_stub_for_libtelux_loc
-Wl,--defsym=_ZNSt6vectorISt8weak_ptrIN5telux3loc17ILocationListenerEESaIS4_EE12emplace_backIJRS4_EEEvDpOT_=so_stub_for_libtelux_loc
-Wl,--defsym=_ZNSt6vectorISt8weak_ptrIN5telux3loc17ILocationListenerEESaIS4_EE17_M_realloc_insertIJRS4_EEEvN9__gnu_cxx17__normal_iteratorIPS4_S6_EEDpOT_=so_stub_for_libtelux_loc
-Wl,--defsym=_ZNSt6vectorISt8weak_ptrIN5telux3loc17ILocationListenerEESaIS4_EE8_M_eraseEN9__gnu_cxx17__normal_iteratorIPS4_S6_EE=so_stub_for_libtelux_loc
-Wl,--defsym=_ZNSt6vectorISt8weak_ptrIN5telux3loc17ILocationListenerEESaIS4_EED1Ev=so_stub_for_libtelux_loc
-Wl,--defsym=_ZNSt6vectorISt8weak_ptrIN5telux3loc17ILocationListenerEESaIS4_EED2Ev=so_stub_for_libtelux_loc
-Wl,--defsym=_ZNSt6vectorISt8weak_ptrIN5telux6common12ISDKListenerEESaIS4_EE12emplace_backIJRS4_EEEvDpOT_=so_stub_for_libtelux_loc
-Wl,--defsym=_ZNSt6vectorISt8weak_ptrIN5telux6common12ISDKListenerEESaIS4_EE12emplace_backIJRSt10shared_ptrIS3_EEEEvDpOT_=so_stub_for_libtelux_loc
-Wl,--defsym=_ZNSt6vectorISt8weak_ptrIN5telux6common12ISDKListenerEESaIS4_EE17_M_realloc_insertIJRS4_EEEvN9__gnu_cxx17__normal_iteratorIPS4_S6_EEDpOT_=so_stub_for_libtelux_loc
-Wl,--defsym=_ZNSt6vectorISt8weak_ptrIN5telux6common12ISDKListenerEESaIS4_EE17_M_realloc_insertIJRSt10shared_ptrIS3_EEEEvN9__gnu_cxx17__normal_iteratorIPS4_S6_EEDpOT_=so_stub_for_libtelux_loc
-Wl,--defsym=_ZNSt6vectorISt8weak_ptrIN5telux6common12ISDKListenerEESaIS4_EE8_M_eraseEN9__gnu_cxx17__normal_iteratorIPS4_S6_EE=so_stub_for_libtelux_loc
-Wl,--defsym=_ZNSt6vectorISt8weak_ptrIN5telux6common12ISDKListenerEESaIS4_EED1Ev=so_stub_for_libtelux_loc
-Wl,--defsym=_ZNSt6vectorISt8weak_ptrIN5telux6common12ISDKListenerEESaIS4_EED2Ev=so_stub_for_libtelux_loc
-Wl,--defsym=_ZNSt6vectorItSaItEE17_M_realloc_insertIJRtEEEvN9__gnu_cxx17__normal_iteratorIPtS1_EEDpOT_=so_stub_for_libtelux_loc
-Wl,--defsym=_ZNSt6vectorItSaItEEaSERKS1_=so_stub_for_libtelux_loc
-Wl,--defsym=_ZNSt6vectorItSaItEEC1ERKS1_=so_stub_for_libtelux_loc
-Wl,--defsym=_ZNSt6vectorItSaItEEC2ERKS1_=so_stub_for_libtelux_loc
-Wl,--defsym=_ZNSt7__cxx1112basic_stringIcSt11char_traitsIcESaIcEE12_M_constructIPcEEvT_S7_St20forward_iterator_tag=so_stub_for_libtelux_loc
-Wl,--defsym=_ZNSt7__cxx1112basic_stringIcSt11char_traitsIcESaIcEE12_M_constructIPKcEEvT_S8_St20forward_iterator_tag=so_stub_for_libtelux_loc
-Wl,--defsym=_ZNSt7__cxx1115basic_stringbufIcSt11char_traitsIcESaIcEED0Ev=so_stub_for_libtelux_loc
-Wl,--defsym=_ZNSt7__cxx1115basic_stringbufIcSt11char_traitsIcESaIcEED1Ev=so_stub_for_libtelux_loc
-Wl,--defsym=_ZNSt7__cxx1115basic_stringbufIcSt11char_traitsIcESaIcEED2Ev=so_stub_for_libtelux_loc
-Wl,--defsym=_ZNSt7promiseIN15location_client16LocationResponseEE9set_valueERKS1_=so_stub_for_libtelux_loc
-Wl,--defsym=_ZNSt7promiseIN15location_client16LocationResponseEEC1Ev=so_stub_for_libtelux_loc
-Wl,--defsym=_ZNSt7promiseIN15location_client16LocationResponseEEC2Ev=so_stub_for_libtelux_loc
-Wl,--defsym=_ZNSt7promiseIN15location_client16LocationResponseEED1Ev=so_stub_for_libtelux_loc
-Wl,--defsym=_ZNSt7promiseIN15location_client16LocationResponseEED2Ev=so_stub_for_libtelux_loc
-Wl,--defsym=_ZNSt7promiseIN5telux6common9ErrorCodeEE9set_valueERKS2_=so_stub_for_libtelux_loc
-Wl,--defsym=_ZNSt7promiseIN5telux6common9ErrorCodeEEC1Ev=so_stub_for_libtelux_loc
-Wl,--defsym=_ZNSt7promiseIN5telux6common9ErrorCodeEEC2Ev=so_stub_for_libtelux_loc
-Wl,--defsym=_ZNSt7promiseIN5telux6common9ErrorCodeEED1Ev=so_stub_for_libtelux_loc
-Wl,--defsym=_ZNSt7promiseIN5telux6common9ErrorCodeEED2Ev=so_stub_for_libtelux_loc
-Wl,--defsym=_ZNSt8__detail16_Hashtable_allocISaINS_10_Hash_nodeIN20location_integration21GnssConstellationTypeELb0EEEEE18_M_deallocate_nodeEPS4_=so_stub_for_libtelux_loc
-Wl,--defsym=_ZNSt8__detail16_Hashtable_allocISaINS_10_Hash_nodeIN20location_integration21GnssConstellationTypeELb0EEEEE19_M_deallocate_nodesEPS4_=so_stub_for_libtelux_loc
-Wl,--defsym=_ZNSt8__detail16_Hashtable_allocISaINS_10_Hash_nodeIN5telux3loc21GnssConstellationTypeELb0EEEEE16_M_allocate_nodeIJRKS4_EEEPS5_DpOT_=so_stub_for_libtelux_loc
-Wl,--defsym=_ZNSt8__detail16_Hashtable_allocISaINS_10_Hash_nodeIN5telux3loc21GnssConstellationTypeELb0EEEEE18_M_deallocate_nodeEPS5_=so_stub_for_libtelux_loc
-Wl,--defsym=_ZNSt8__detail16_Hashtable_allocISaINS_10_Hash_nodeISt4pairIKN20location_integration12LeverArmTypeENS3_14LeverArmParamsEELb0EEEEE18_M_deallocate_nodeEPS8_=so_stub_for_libtelux_loc
-Wl,--defsym=_ZNSt8__detail9_Map_baseIiSt4pairIKiSt10shared_ptrIN5telux6common16ICommandCallbackEEESaIS8_ENS_10_Select1stESt8equal_toIiESt4hashIiENS_18_Mod_range_hashingENS_20_Default_ranged_hashENS_20_Prime_rehash_policyENS_17_Hashtable_traitsILb0ELb0ELb1EEELb1EEixERS2_=so_stub_for_libtelux_loc
-Wl,--defsym=_ZNSt8functionIFvhEEaSISt5_BindIFMN5telux3loc24LocationConfiguratorImplEFvhEPS6_St12_PlaceholderILi1EEEEEENSt9enable_ifIXsrNS1_9_CallableIT_NSE_IXntsrSt7is_sameINSt9remove_cvINSt16remove_referenceISG_E4typeEE4typeES1_E5valueESt5decayISG_EE4type4typeESt15__invoke_resultIRST_JhEEEE5valueERS1_E4typeEOSG_=so_stub_for_libtelux_loc
-Wl,--defsym=_ZNSt8functionIFvmRKNSt7__cxx1112basic_stringIcSt11char_traitsIcESaIcEEEEEaSISt5_BindIFMN5telux3loc19LocationManagerImplEFvmS7_EPSE_St12_PlaceholderILi1EESI_ILi2EEEEEENSt9enable_ifIXsrNS9_9_CallableIT_NSN_IXntsrSt7is_sameINSt9remove_cvINSt16remove_referenceISP_E4typeEE4typeES9_E5valueESt5decayISP_EE4type4typeESt15__invoke_resultIRS12_JmS7_EEEE5valueERS9_E4typeEOSP_=so_stub_for_libtelux_loc
-Wl,--defsym=_ZNSt8functionIFvN15location_client16LocationResponseEEEC1IRSt5_BindIFMN5telux3loc16LocationResponseEFvS1_ESt10shared_ptrIS8_ESt12_PlaceholderILi1EEEEvEEOT_=so_stub_for_libtelux_loc
-Wl,--defsym=_ZNSt8functionIFvN15location_client16LocationResponseEEEC2IRSt5_BindIFMN5telux3loc16LocationResponseEFvS1_ESt10shared_ptrIS8_ESt12_PlaceholderILi1EEEEvEEOT_=so_stub_for_libtelux_loc
-Wl,--defsym=_ZNSt8functionIFvN15location_client18GnssSignalTypeMaskEEEaSISt5_BindIFMN5telux3loc24LocationConfiguratorImplEFvS1_EPS8_St12_PlaceholderILi1EEEEEENSt9enable_ifIXsrNS3_9_CallableIT_NSG_IXntsrSt7is_sameINSt9remove_cvINSt16remove_referenceISI_E4typeEE4typeES3_E5valueESt5decayISI_EE4type4typeESt15__invoke_resultIRSV_JS1_EEEE5valueERS3_E4typeEOSI_=so_stub_for_libtelux_loc
-Wl,--defsym=_ZNSt8functionIFvN15location_client19LocOutputEngineTypeEmRKNSt7__cxx1112basic_stringIcSt11char_traitsIcESaIcEEEEEaSISt5_BindIFMN5telux3loc19LocationManagerImplEFvS1_mS9_EPSG_St12_PlaceholderILi1EESK_ILi2EESK_ILi3EEEEEENSt9enable_ifIXsrNSB_9_CallableIT_NSQ_IXntsrSt7is_sameINSt9remove_cvINSt16remove_referenceISS_E4typeEE4typeESB_E5valueESt5decayISS_EE4type4typeESt15__invoke_resultIRS15_JS1_mS9_EEEE5valueERSB_E4typeEOSS_=so_stub_for_libtelux_loc
-Wl,--defsym=_ZNSt8functionIFvN20location_integration17LocConfigTypeEnumENS0_22LocIntegrationResponseEEEaSISt5_BindIFMN5telux3loc24LocationConfiguratorImplEFvS1_S2_EPS9_St12_PlaceholderILi1EESD_ILi2EEEEEENSt9enable_ifIXsrNS4_9_CallableIT_NSI_IXntsrSt7is_sameINSt9remove_cvINSt16remove_referenceISK_E4typeEE4typeES4_E5valueESt5decayISK_EE4type4typeESt15__invoke_resultIRSX_JS1_S2_EEEE5valueERS4_E4typeEOSK_=so_stub_for_libtelux_loc
-Wl,--defsym=_ZNSt8functionIFvN20location_integration20RobustLocationConfigEEEaSISt5_BindIFMN5telux3loc24LocationConfiguratorImplEFvS1_EPS8_St12_PlaceholderILi1EEEEEENSt9enable_ifIXsrNS3_9_CallableIT_NSG_IXntsrSt7is_sameINSt9remove_cvINSt16remove_referenceISI_E4typeEE4typeES3_E5valueESt5decayISI_EE4type4typeESt15__invoke_resultIRSV_JS1_EEEE5valueERS3_E4typeEOSI_=so_stub_for_libtelux_loc
-Wl,--defsym=_ZNSt8functionIFvN20location_integration23XtraStatusUpdateTriggerERKNS0_10XtraStatusEEEaSISt5_BindIFMN5telux3loc24LocationConfiguratorImplEFvS1_S4_EPSB_St12_PlaceholderILi1EESF_ILi2EEEEEENSt9enable_ifIXsrNS6_9_CallableIT_NSK_IXntsrSt7is_sameINSt9remove_cvINSt16remove_referenceISM_E4typeEE4typeES6_E5valueESt5decayISM_EE4type4typeESt15__invoke_resultIRSZ_JS1_S4_EEEE5valueERS6_E4typeEOSM_=so_stub_for_libtelux_loc
-Wl,--defsym=_ZNSt8functionIFvN5telux6common9ErrorCodeEEEC1ISt5_BindIFMNS0_3loc34LocationPowerStateResponseCallbackEFvS2_ESt10shared_ptrIS8_ESt12_PlaceholderILi1EEEEvEEOT_=so_stub_for_libtelux_loc
-Wl,--defsym=_ZNSt8functionIFvN5telux6common9ErrorCodeEEEC2ISt5_BindIFMNS0_3loc34LocationPowerStateResponseCallbackEFvS2_ESt10shared_ptrIS8_ESt12_PlaceholderILi1EEEEvEEOT_=so_stub_for_libtelux_loc
-Wl,--defsym=_ZNSt8functionIFvRKN15location_client12GnssDcReportEEEaSISt5_BindIFMN5telux3loc19LocationManagerImplEFvS3_EPSA_St12_PlaceholderILi1EEEEEENSt9enable_ifIXsrNS5_9_CallableIT_NSI_IXntsrSt7is_sameINSt9remove_cvINSt16remove_referenceISK_E4typeEE4typeES5_E5valueESt5decayISK_EE4type4typeESt15__invoke_resultIRSX_JS3_EEEE5valueERS5_E4typeEOSK_=so_stub_for_libtelux_loc
-Wl,--defsym=_ZNSt8functionIFvRKN15location_client12GnssLocationEEEaSISt5_BindIFMN5telux3loc19LocationManagerImplEFvS3_EPSA_St12_PlaceholderILi1EEEEEENSt9enable_ifIXsrNS5_9_CallableIT_NSI_IXntsrSt7is_sameINSt9remove_cvINSt16remove_referenceISK_E4typeEE4typeES5_E5valueESt5decayISK_EE4type4typeESt15__invoke_resultIRSX_JS3_EEEE5valueERS5_E4typeEOSK_=so_stub_for_libtelux_loc
-Wl,--defsym=_ZNSt8functionIFvRKN15location_client13GnssEphemerisEEEaSISt5_BindIFMN5telux3loc19LocationManagerImplEFvS3_EPSA_St12_PlaceholderILi1EEEEEENSt9enable_ifIXsrNS5_9_CallableIT_NSI_IXntsrSt7is_sameINSt9remove_cvINSt16remove_referenceISK_E4typeEE4typeES5_E5valueESt5decayISK_EE4type4typeESt15__invoke_resultIRSX_JS3_EEEE5valueERS5_E4typeEOSK_=so_stub_for_libtelux_loc
-Wl,--defsym=_ZNSt8functionIFvRKN15location_client16GnssMeasurementsEEEaSEOS5_=so_stub_for_libtelux_loc
-Wl,--defsym=_ZNSt8functionIFvRKN15location_client16GnssMeasurementsEEEaSISt5_BindIFMN5telux3loc19LocationManagerImplEFvS3_EPSA_St12_PlaceholderILi1EEEEEENSt9enable_ifIXsrNS5_9_CallableIT_NSI_IXntsrSt7is_sameINSt9remove_cvINSt16remove_referenceISK_E4typeEE4typeES5_E5valueESt5decayISK_EE4type4typeESt15__invoke_resultIRSX_JS3_EEEE5valueERS5_E4typeEOSK_=so_stub_for_libtelux_loc
-Wl,--defsym=_ZNSt8functionIFvRKN15location_client18LocationSystemInfoEEEaSISt5_BindIFMN5telux3loc19LocationManagerImplEFvS3_EPSA_St12_PlaceholderILi1EEEEEENSt9enable_ifIXsrNS5_9_CallableIT_NSI_IXntsrSt7is_sameINSt9remove_cvINSt16remove_referenceISK_E4typeEE4typeES5_E5valueESt5decayISK_EE4type4typeESt15__invoke_resultIRSX_JS3_EEEE5valueERS5_E4typeEOSK_=so_stub_for_libtelux_loc
-Wl,--defsym=_ZNSt8functionIFvRKN15location_client22GnssEnergyConsumedInfoEEEaSISt5_BindIFMN5telux3loc19LocationManagerImplEFvS3_EPSA_St12_PlaceholderILi1EEEEEENSt9enable_ifIXsrNS5_9_CallableIT_NSI_IXntsrSt7is_sameINSt9remove_cvINSt16remove_referenceISK_E4typeEE4typeES5_E5valueESt5decayISK_EE4type4typeESt15__invoke_resultIRSX_JS3_EEEE5valueERS5_E4typeEOSK_=so_stub_for_libtelux_loc
-Wl,--defsym=_ZNSt8functionIFvRKN15location_client8GnssDataEEEaSISt5_BindIFMN5telux3loc19LocationManagerImplEFvS3_EPSA_St12_PlaceholderILi1EEEEEENSt9enable_ifIXsrNS5_9_CallableIT_NSI_IXntsrSt7is_sameINSt9remove_cvINSt16remove_referenceISK_E4typeEE4typeES5_E5valueESt5decayISK_EE4type4typeESt15__invoke_resultIRSX_JS3_EEEE5valueERS5_E4typeEOSK_=so_stub_for_libtelux_loc
-Wl,--defsym=_ZNSt8functionIFvRKN15location_client8LocationEEEaSISt5_BindIFMN5telux3loc19LocationManagerImplEFvS3_EPSA_St12_PlaceholderILi1EEEEEENSt9enable_ifIXsrNS5_9_CallableIT_NSI_IXntsrSt7is_sameINSt9remove_cvINSt16remove_referenceISK_E4typeEE4typeES5_E5valueESt5decayISK_EE4type4typeESt15__invoke_resultIRSX_JS3_EEEE5valueERS5_E4typeEOSK_=so_stub_for_libtelux_loc
-Wl,--defsym=_ZNSt8functionIFvRKSt13unordered_setIN20location_integration21GnssConstellationTypeESt4hashIS2_ESt8equal_toIS2_ESaIS2_EEEEaSISt5_BindIFMN5telux3loc24LocationConfiguratorImplEFvSA_EPSH_St12_PlaceholderILi1EEEEEENSt9enable_ifIXsrNSC_9_CallableIT_NSP_IXntsrSt7is_sameINSt9remove_cvINSt16remove_referenceISR_E4typeEE4typeESC_E5valueESt5decayISR_EE4type4typeESt15__invoke_resultIRS14_JSA_EEEE5valueERSC_E4typeEOSR_=so_stub_for_libtelux_loc
-Wl,--defsym=_ZNSt8functionIFvRKSt6vectorIhSaIhEEEEaSISt5_BindIFMN5telux3loc19LocationManagerImplEFvS4_EPSB_St12_PlaceholderILi1EEEEEENSt9enable_ifIXsrNS6_9_CallableIT_NSJ_IXntsrSt7is_sameINSt9remove_cvINSt16remove_referenceISL_E4typeEE4typeES6_E5valueESt5decayISL_EE4type4typeESt15__invoke_resultIRSY_JS4_EEEE5valueERS6_E4typeEOSL_=so_stub_for_libtelux_loc
-Wl,--defsym=_ZNSt8functionIFvRKSt6vectorIN15location_client12GnssLocationESaIS2_EEEEaSISt5_BindIFMN5telux3loc19LocationManagerImplEFvS6_EPSD_St12_PlaceholderILi1EEEEEENSt9enable_ifIXsrNS8_9_CallableIT_NSL_IXntsrSt7is_sameINSt9remove_cvINSt16remove_referenceISN_E4typeEE4typeES8_E5valueESt5decayISN_EE4type4typeESt15__invoke_resultIRS10_JS6_EEEE5valueERS8_E4typeEOSN_=so_stub_for_libtelux_loc
-Wl,--defsym=_ZNSt8functionIFvRKSt6vectorIN15location_client6GnssSvESaIS2_EEEEaSISt5_BindIFMN5telux3loc19LocationManagerImplEFvS6_EPSD_St12_PlaceholderILi1EEEEEENSt9enable_ifIXsrNS8_9_CallableIT_NSL_IXntsrSt7is_sameINSt9remove_cvINSt16remove_referenceISN_E4typeEE4typeES8_E5valueESt5decayISN_EE4type4typeESt15__invoke_resultIRS10_JS6_EEEE5valueERS8_E4typeEOSN_=so_stub_for_libtelux_loc
-Wl,--defsym=_ZNSt8functionIFvtEEaSISt5_BindIFMN5telux3loc24LocationConfiguratorImplEFvtEPS6_St12_PlaceholderILi1EEEEEENSt9enable_ifIXsrNS1_9_CallableIT_NSE_IXntsrSt7is_sameINSt9remove_cvINSt16remove_referenceISG_E4typeEE4typeES1_E5valueESt5decayISG_EE4type4typeESt15__invoke_resultIRST_JtEEEE5valueERS1_E4typeEOSG_=so_stub_for_libtelux_loc
-Wl,--defsym=_ZNSt8_Rb_treeIjSt4pairIKjSt3setISt8weak_ptrIN5telux6common12ISDKListenerEENS5_15ListenerManager12SetPredicateESaIS7_EEESt10_Select1stISC_ESt4lessIjESaISC_EE14_M_lower_boundEPSt13_Rb_tree_nodeISC_EPSt18_Rb_tree_node_baseRS1_=so_stub_for_libtelux_loc
-Wl,--defsym=_ZNSt8_Rb_treeIjSt4pairIKjSt3setISt8weak_ptrIN5telux6common12ISDKListenerEENS5_15ListenerManager12SetPredicateESaIS7_EEESt10_Select1stISC_ESt4lessIjESaISC_EE22_M_emplace_hint_uniqueIJRKSt21piecewise_construct_tSt5tupleIJOjEESN_IJEEEEESt17_Rb_tree_iteratorISC_ESt23_Rb_tree_const_iteratorISC_EDpOT_=so_stub_for_libtelux_loc
-Wl,--defsym=_ZNSt8_Rb_treeIjSt4pairIKjSt3setISt8weak_ptrIN5telux6common12ISDKListenerEENS5_15ListenerManager12SetPredicateESaIS7_EEESt10_Select1stISC_ESt4lessIjESaISC_EE24_M_get_insert_unique_posERS1_=so_stub_for_libtelux_loc
-Wl,--defsym=_ZNSt8_Rb_treeIjSt4pairIKjSt3setISt8weak_ptrIN5telux6common12ISDKListenerEENS5_15ListenerManager12SetPredicateESaIS7_EEESt10_Select1stISC_ESt4lessIjESaISC_EE29_M_get_insert_hint_unique_posESt23_Rb_tree_const_iteratorISC_ERS1_=so_stub_for_libtelux_loc
-Wl,--defsym=_ZNSt8_Rb_treeIjSt4pairIKjSt3setISt8weak_ptrIN5telux6common12ISDKListenerEENS5_15ListenerManager12SetPredicateESaIS7_EEESt10_Select1stISC_ESt4lessIjESaISC_EE4findERS1_=so_stub_for_libtelux_loc
-Wl,--defsym=_ZNSt8_Rb_treeIjSt4pairIKjSt3setISt8weak_ptrIN5telux6common12ISDKListenerEENS5_15ListenerManager12SetPredicateESaIS7_EEESt10_Select1stISC_ESt4lessIjESaISC_EE8_M_eraseEPSt13_Rb_tree_nodeISC_E=so_stub_for_libtelux_loc
-Wl,--defsym=_ZNSt8_Rb_treeIN20location_integration17LocConfigTypeEnumESt4pairIKS1_11RequestInfoESt10_Select1stIS5_ESt4lessIS1_ESaIS5_EE11equal_rangeERS3_=so_stub_for_libtelux_loc
-Wl,--defsym=_ZNSt8_Rb_treeIN20location_integration17LocConfigTypeEnumESt4pairIKS1_11RequestInfoESt10_Select1stIS5_ESt4lessIS1_ESaIS5_EE12_M_erase_auxESt23_Rb_tree_const_iteratorIS5_ESD_=so_stub_for_libtelux_loc
-Wl,--defsym=_ZNSt8_Rb_treeIN20location_integration17LocConfigTypeEnumESt4pairIKS1_11RequestInfoESt10_Select1stIS5_ESt4lessIS1_ESaIS5_EE14_M_insert_nodeEPSt18_Rb_tree_node_baseSD_PSt13_Rb_tree_nodeIS5_E=so_stub_for_libtelux_loc
-Wl,--defsym=_ZNSt8_Rb_treeIN20location_integration17LocConfigTypeEnumESt4pairIKS1_11RequestInfoESt10_Select1stIS5_ESt4lessIS1_ESaIS5_EE14_M_lower_boundEPSt13_Rb_tree_nodeIS5_EPSt18_Rb_tree_node_baseRS3_=so_stub_for_libtelux_loc
-Wl,--defsym=_ZNSt8_Rb_treeIN20location_integration17LocConfigTypeEnumESt4pairIKS1_11RequestInfoESt10_Select1stIS5_ESt4lessIS1_ESaIS5_EE17_M_emplace_uniqueIJS2_IS1_S4_EEEES2_ISt17_Rb_tree_iteratorIS5_EbEDpOT_=so_stub_for_libtelux_loc
-Wl,--defsym=_ZNSt8_Rb_treeIN20location_integration17LocConfigTypeEnumESt4pairIKS1_11RequestInfoESt10_Select1stIS5_ESt4lessIS1_ESaIS5_EE22_M_emplace_hint_uniqueIJRKSt21piecewise_construct_tSt5tupleIJRS3_EESG_IJEEEEESt17_Rb_tree_iteratorIS5_ESt23_Rb_tree_const_iteratorIS5_EDpOT_=so_stub_for_libtelux_loc
-Wl,--defsym=_ZNSt8_Rb_treeIN20location_integration17LocConfigTypeEnumESt4pairIKS1_11RequestInfoESt10_Select1stIS5_ESt4lessIS1_ESaIS5_EE24_M_get_insert_unique_posERS3_=so_stub_for_libtelux_loc
-Wl,--defsym=_ZNSt8_Rb_treeIN20location_integration17LocConfigTypeEnumESt4pairIKS1_11RequestInfoESt10_Select1stIS5_ESt4lessIS1_ESaIS5_EE29_M_get_insert_hint_unique_posESt23_Rb_tree_const_iteratorIS5_ERS3_=so_stub_for_libtelux_loc
-Wl,--defsym=_ZNSt8_Rb_treeIN20location_integration17LocConfigTypeEnumESt4pairIKS1_11RequestInfoESt10_Select1stIS5_ESt4lessIS1_ESaIS5_EE5eraseERS3_=so_stub_for_libtelux_loc
-Wl,--defsym=_ZNSt8_Rb_treeIN20location_integration17LocConfigTypeEnumESt4pairIKS1_11RequestInfoESt10_Select1stIS5_ESt4lessIS1_ESaIS5_EE8_M_eraseEPSt13_Rb_tree_nodeIS5_E=so_stub_for_libtelux_loc
-Wl,--defsym=_ZNSt8_Rb_treeIN5telux3loc10ReportTypeESt4pairIKS2_St10shared_ptrINS1_10TimeWindowEEESt10_Select1stIS8_ESt4lessIS2_ESaIS8_EE14_M_lower_boundEPSt13_Rb_tree_nodeIS8_EPSt18_Rb_tree_node_baseRS4_=so_stub_for_libtelux_loc
-Wl,--defsym=_ZNSt8_Rb_treeIN5telux3loc10ReportTypeESt4pairIKS2_St10shared_ptrINS1_10TimeWindowEEESt10_Select1stIS8_ESt4lessIS2_ESaIS8_EE22_M_emplace_hint_uniqueIJRKSt21piecewise_construct_tSt5tupleIJRS4_EESJ_IJEEEEESt17_Rb_tree_iteratorIS8_ESt23_Rb_tree_const_iteratorIS8_EDpOT_=so_stub_for_libtelux_loc
-Wl,--defsym=_ZNSt8_Rb_treeIN5telux3loc10ReportTypeESt4pairIKS2_St10shared_ptrINS1_10TimeWindowEEESt10_Select1stIS8_ESt4lessIS2_ESaIS8_EE24_M_get_insert_unique_posERS4_=so_stub_for_libtelux_loc
-Wl,--defsym=_ZNSt8_Rb_treeIN5telux3loc10ReportTypeESt4pairIKS2_St10shared_ptrINS1_10TimeWindowEEESt10_Select1stIS8_ESt4lessIS2_ESaIS8_EE29_M_get_insert_hint_unique_posESt23_Rb_tree_const_iteratorIS8_ERS4_=so_stub_for_libtelux_loc
-Wl,--defsym=_ZNSt8_Rb_treeIN5telux3loc10ReportTypeESt4pairIKS2_St10shared_ptrINS1_10TimeWindowEEESt10_Select1stIS8_ESt4lessIS2_ESaIS8_EE4findERS4_=so_stub_for_libtelux_loc
-Wl,--defsym=_ZNSt8_Rb_treeIN5telux3loc10ReportTypeESt4pairIKS2_St10shared_ptrINS1_10TimeWindowEEESt10_Select1stIS8_ESt4lessIS2_ESaIS8_EE8_M_eraseEPSt13_Rb_tree_nodeIS8_E=so_stub_for_libtelux_loc
-Wl,--defsym=_ZNSt8_Rb_treeISt8weak_ptrIN5telux6common12ISDKListenerEES4_St9_IdentityIS4_ENS2_15ListenerManager12SetPredicateESaIS4_EE10_M_insert_IS4_NSA_11_Alloc_nodeEEESt17_Rb_tree_iteratorIS4_EPSt18_Rb_tree_node_baseSG_OT_RT0_=so_stub_for_libtelux_loc
-Wl,--defsym=_ZNSt8_Rb_treeISt8weak_ptrIN5telux6common12ISDKListenerEES4_St9_IdentityIS4_ENS2_15ListenerManager12SetPredicateESaIS4_EE11equal_rangeERKS4_=so_stub_for_libtelux_loc
-Wl,--defsym=_ZNSt8_Rb_treeISt8weak_ptrIN5telux6common12ISDKListenerEES4_St9_IdentityIS4_ENS2_15ListenerManager12SetPredicateESaIS4_EE12_M_erase_auxESt23_Rb_tree_const_iteratorIS4_E=so_stub_for_libtelux_loc
-Wl,--defsym=_ZNSt8_Rb_treeISt8weak_ptrIN5telux6common12ISDKListenerEES4_St9_IdentityIS4_ENS2_15ListenerManager12SetPredicateESaIS4_EE16_M_insert_uniqueIS4_EESt4pairISt17_Rb_tree_iteratorIS4_EbEOT_=so_stub_for_libtelux_loc
-Wl,--defsym=_ZNSt8_Rb_treeISt8weak_ptrIN5telux6common12ISDKListenerEES4_St9_IdentityIS4_ENS2_15ListenerManager12SetPredicateESaIS4_EE24_M_get_insert_unique_posERKS4_=so_stub_for_libtelux_loc
-Wl,--defsym=_ZNSt8_Rb_treeISt8weak_ptrIN5telux6common12ISDKListenerEES4_St9_IdentityIS4_ENS2_15ListenerManager12SetPredicateESaIS4_EE5eraseERKS4_=so_stub_for_libtelux_loc
-Wl,--defsym=_ZNSt8_Rb_treeISt8weak_ptrIN5telux6common12ISDKListenerEES4_St9_IdentityIS4_ENS2_15ListenerManager12SetPredicateESaIS4_EE8_M_eraseEPSt13_Rb_tree_nodeIS4_E=so_stub_for_libtelux_loc
-Wl,--defsym=_ZSt10__invoke_rIvRSt5_BindIFMN5telux3loc16DgnssManagerImplEFv18QDgnssSourceStatusEPS3_St12_PlaceholderILi1EEEEJS4_EENSt9enable_ifIXsrSt6__and_IJSt7is_voidIT_ESt14__is_invocableIT0_JDpT1_EEEE5valueESG_E4typeEOSJ_DpOSK_=so_stub_for_libtelux_loc
-Wl,--defsym=_ZSt10__invoke_rIvRSt5_BindIFMN5telux3loc16LocationResponseEFvN15location_client16LocationResponseEESt10shared_ptrIS3_ESt12_PlaceholderILi1EEEEJS5_EENSt9enable_ifIXsrSt6__and_IJSt7is_voidIT_ESt14__is_invocableIT0_JDpT1_EEEE5valueESI_E4typeEOSL_DpOSM_=so_stub_for_libtelux_loc
-Wl,--defsym=_ZSt10__invoke_rIvRSt5_BindIFMN5telux3loc19LocationFactoryImplEFvNS1_6common13ServiceStatusEEPS3_St12_PlaceholderILi1EEEEJS5_EENSt9enable_ifIXsrSt6__and_IJSt7is_voidIT_ESt14__is_invocableIT0_JDpT1_EEEE5valueESH_E4typeEOSK_DpOSL_=so_stub_for_libtelux_loc
-Wl,--defsym=_ZSt10__invoke_rIvRSt5_BindIFMN5telux3loc19LocationManagerImplEFvmEPS3_St12_PlaceholderILi1EEEEJmEENSt9enable_ifIXsrSt6__and_IJSt7is_voidIT_ESt14__is_invocableIT0_JDpT1_EEEE5valueESF_E4typeEOSI_DpOSJ_=so_stub_for_libtelux_loc
-Wl,--defsym=_ZSt10__invoke_rIvRSt5_BindIFMN5telux3loc19LocationManagerImplEFvN15location_client19LocOutputEngineTypeEmRKNSt7__cxx1112basic_stringIcSt11char_traitsIcESaIcEEEEPS3_St12_PlaceholderILi1EESH_ILi2EESH_ILi3EEEEJS5_mSD_EENSt9enable_ifIXsrSt6__and_IJSt7is_voidIT_ESt14__is_invocableIT0_JDpT1_EEEE5valueESR_E4typeEOSU_DpOSV_=so_stub_for_libtelux_loc
-Wl,--defsym=_ZSt10__invoke_rIvRSt5_BindIFMN5telux3loc19LocationManagerImplEFvRKN15location_client12GnssDcReportEEPS3_St12_PlaceholderILi1EEEEJS7_EENSt9enable_ifIXsrSt6__and_IJSt7is_voidIT_ESt14__is_invocableIT0_JDpT1_EEEE5valueESJ_E4typeEOSM_DpOSN_=so_stub_for_libtelux_loc
-Wl,--defsym=_ZSt10__invoke_rIvRSt5_BindIFMN5telux3loc19LocationManagerImplEFvRKN15location_client12GnssLocationEEPS3_St12_PlaceholderILi1EEEEJS7_EENSt9enable_ifIXsrSt6__and_IJSt7is_voidIT_ESt14__is_invocableIT0_JDpT1_EEEE5valueESJ_E4typeEOSM_DpOSN_=so_stub_for_libtelux_loc
-Wl,--defsym=_ZSt10__invoke_rIvRSt5_BindIFMN5telux3loc19LocationManagerImplEFvRKN15location_client13GnssEphemerisEEPS3_St12_PlaceholderILi1EEEEJS7_EENSt9enable_ifIXsrSt6__and_IJSt7is_voidIT_ESt14__is_invocableIT0_JDpT1_EEEE5valueESJ_E4typeEOSM_DpOSN_=so_stub_for_libtelux_loc
-Wl,--defsym=_ZSt10__invoke_rIvRSt5_BindIFMN5telux3loc19LocationManagerImplEFvRKN15location_client16GnssMeasurementsEEPS3_St12_PlaceholderILi1EEEEJS7_EENSt9enable_ifIXsrSt6__and_IJSt7is_voidIT_ESt14__is_invocableIT0_JDpT1_EEEE5valueESJ_E4typeEOSM_DpOSN_=so_stub_for_libtelux_loc
-Wl,--defsym=_ZSt10__invoke_rIvRSt5_BindIFMN5telux3loc19LocationManagerImplEFvRKN15location_client18LocationSystemInfoEEPS3_St12_PlaceholderILi1EEEEJS7_EENSt9enable_ifIXsrSt6__and_IJSt7is_voidIT_ESt14__is_invocableIT0_JDpT1_EEEE5valueESJ_E4typeEOSM_DpOSN_=so_stub_for_libtelux_loc
-Wl,--defsym=_ZSt10__invoke_rIvRSt5_BindIFMN5telux3loc19LocationManagerImplEFvRKN15location_client22GnssEnergyConsumedInfoEEPS3_St12_PlaceholderILi1EEEEJS7_EENSt9enable_ifIXsrSt6__and_IJSt7is_voidIT_ESt14__is_invocableIT0_JDpT1_EEEE5valueESJ_E4typeEOSM_DpOSN_=so_stub_for_libtelux_loc
-Wl,--defsym=_ZSt10__invoke_rIvRSt5_BindIFMN5telux3loc19LocationManagerImplEFvRKN15location_client8GnssDataEEPS3_St12_PlaceholderILi1EEEEJS7_EENSt9enable_ifIXsrSt6__and_IJSt7is_voidIT_ESt14__is_invocableIT0_JDpT1_EEEE5valueESJ_E4typeEOSM_DpOSN_=so_stub_for_libtelux_loc
-Wl,--defsym=_ZSt10__invoke_rIvRSt5_BindIFMN5telux3loc19LocationManagerImplEFvRKN15location_client8LocationEEPS3_St12_PlaceholderILi1EEEEJS7_EENSt9enable_ifIXsrSt6__and_IJSt7is_voidIT_ESt14__is_invocableIT0_JDpT1_EEEE5valueESJ_E4typeEOSM_DpOSN_=so_stub_for_libtelux_loc
-Wl,--defsym=_ZSt10__invoke_rIvRSt5_BindIFMN5telux3loc19LocationManagerImplEFvRKSt6vectorIhSaIhEEEPS3_St12_PlaceholderILi1EEEEJS8_EENSt9enable_ifIXsrSt6__and_IJSt7is_voidIT_ESt14__is_invocableIT0_JDpT1_EEEE5valueESK_E4typeEOSN_DpOSO_=so_stub_for_libtelux_loc
-Wl,--defsym=_ZSt10__invoke_rIvRSt5_BindIFMN5telux3loc19LocationManagerImplEFvRKSt6vectorIN15location_client12GnssLocationESaIS6_EEEPS3_St12_PlaceholderILi1EEEEJSA_EENSt9enable_ifIXsrSt6__and_IJSt7is_voidIT_ESt14__is_invocableIT0_JDpT1_EEEE5valueESM_E4typeEOSP_DpOSQ_=so_stub_for_libtelux_loc
-Wl,--defsym=_ZSt10__invoke_rIvRSt5_BindIFMN5telux3loc19LocationManagerImplEFvRKSt6vectorIN15location_client6GnssSvESaIS6_EEEPS3_St12_PlaceholderILi1EEEEJSA_EENSt9enable_ifIXsrSt6__and_IJSt7is_voidIT_ESt14__is_invocableIT0_JDpT1_EEEE5valueESM_E4typeEOSP_DpOSQ_=so_stub_for_libtelux_loc
-Wl,--defsym=_ZSt10__invoke_rIvRSt5_BindIFMN5telux3loc24LocationConfiguratorImplEFvhEPS3_St12_PlaceholderILi1EEEEJhEENSt9enable_ifIXsrSt6__and_IJSt7is_voidIT_ESt14__is_invocableIT0_JDpT1_EEEE5valueESF_E4typeEOSI_DpOSJ_=so_stub_for_libtelux_loc
-Wl,--defsym=_ZSt10__invoke_rIvRSt5_BindIFMN5telux3loc24LocationConfiguratorImplEFvN15location_client18GnssSignalTypeMaskEEPS3_St12_PlaceholderILi1EEEEJS5_EENSt9enable_ifIXsrSt6__and_IJSt7is_voidIT_ESt14__is_invocableIT0_JDpT1_EEEE5valueESH_E4typeEOSK_DpOSL_=so_stub_for_libtelux_loc
-Wl,--defsym=_ZSt10__invoke_rIvRSt5_BindIFMN5telux3loc24LocationConfiguratorImplEFvN20location_integration20RobustLocationConfigEEPS3_St12_PlaceholderILi1EEEEJS5_EENSt9enable_ifIXsrSt6__and_IJSt7is_voidIT_ESt14__is_invocableIT0_JDpT1_EEEE5valueESH_E4typeEOSK_DpOSL_=so_stub_for_libtelux_loc
-Wl,--defsym=_ZSt10__invoke_rIvRSt5_BindIFMN5telux3loc24LocationConfiguratorImplEFvRKSt13unordered_setIN20location_integration21GnssConstellationTypeESt4hashIS6_ESt8equal_toIS6_ESaIS6_EEEPS3_St12_PlaceholderILi1EEEEJSE_EENSt9enable_ifIXsrSt6__and_IJSt7is_voidIT_ESt14__is_invocableIT0_JDpT1_EEEE5valueESQ_E4typeEOST_DpOSU_=so_stub_for_libtelux_loc
-Wl,--defsym=_ZSt10__invoke_rIvRSt5_BindIFMN5telux3loc24LocationConfiguratorImplEFvtEPS3_St12_PlaceholderILi1EEEEJtEENSt9enable_ifIXsrSt6__and_IJSt7is_voidIT_ESt14__is_invocableIT0_JDpT1_EEEE5valueESF_E4typeEOSI_DpOSJ_=so_stub_for_libtelux_loc
-Wl,--defsym=_ZSt10__invoke_rIvRSt5_BindIFMN5telux3loc34LocationPowerStateResponseCallbackEFvNS1_6common9ErrorCodeEESt10shared_ptrIS3_ESt12_PlaceholderILi1EEEEJS5_EENSt9enable_ifIXsrSt6__and_IJSt7is_voidIT_ESt14__is_invocableIT0_JDpT1_EEEE5valueESI_E4typeEOSL_DpOSM_=so_stub_for_libtelux_loc
-Wl,--defsym=_ZSt13__copy_move_aILb0EN9__gnu_cxx17__normal_iteratorIPKSt10shared_ptrIN5telux3loc7ISVInfoEESt6vectorIS6_SaIS6_EEEENS1_IPS6_SB_EEET1_T0_SG_SF_=so_stub_for_libtelux_loc
-Wl,--defsym=_ZSt13__copy_move_aILb0EN9__gnu_cxx17__normal_iteratorIPKSt8functionIFvN5telux6common13ServiceStatusEEESt6vectorIS7_SaIS7_EEEENS1_IPS7_SC_EEET1_T0_SH_SG_=so_stub_for_libtelux_loc
-Wl,--defsym=_ZSt13__copy_move_aILb1EN9__gnu_cxx17__normal_iteratorIPSt8weak_ptrIN5telux3loc17ILocationListenerEESt6vectorIS6_SaIS6_EEEESB_ET1_T0_SD_SC_=so_stub_for_libtelux_loc
-Wl,--defsym=_ZSt13__copy_move_aILb1EN9__gnu_cxx17__normal_iteratorIPSt8weak_ptrIN5telux6common12ISDKListenerEESt6vectorIS6_SaIS6_EEEESB_ET1_T0_SD_SC_=so_stub_for_libtelux_loc
-Wl,--defsym=_ZSt13move_backwardISt15_Deque_iteratorISt13shared_futureIvERS2_PS2_ES5_ET0_T_S7_S6_=so_stub_for_libtelux_loc
-Wl,--defsym=_ZSt14__copy_move_a1ILb0EPSt13shared_futureIvES1_EN9__gnu_cxx11__enable_ifIXsrSt23__is_random_access_iterIT0_NSt15iterator_traitsIS6_E17iterator_categoryEE7__valueESt15_Deque_iteratorIT1_RSC_PSC_EE6__typeES6_S6_SF_=so_stub_for_libtelux_loc
-Wl,--defsym=_ZSt14__copy_move_a1ILb0ESt13shared_futureIvERKS1_PS2_S1_ESt15_Deque_iteratorIT3_RS6_PS6_ES5_IT0_T1_T2_ESD_S9_=so_stub_for_libtelux_loc
-Wl,--defsym=_ZSt14__copy_move_a1ILb1EPSt13shared_futureIvES1_EN9__gnu_cxx11__enable_ifIXsrSt23__is_random_access_iterIT0_NSt15iterator_traitsIS6_E17iterator_categoryEE7__valueESt15_Deque_iteratorIT1_RSC_PSC_EE6__typeES6_S6_SF_=so_stub_for_libtelux_loc
-Wl,--defsym=_ZSt14__copy_move_a1ILb1ESt13shared_futureIvERS1_PS1_S1_ESt15_Deque_iteratorIT3_RS5_PS5_ES4_IT0_T1_T2_ESC_S8_=so_stub_for_libtelux_loc
-Wl,--defsym=_ZSt18__allocate_guardedISaISt23_Sp_counted_ptr_inplaceINSt13__future_base13_State_baseV2ESaIS2_ELN9__gnu_cxx12_Lock_policyE2EEEESt15__allocated_ptrIT_ERS9_=so_stub_for_libtelux_loc
-Wl,--defsym=_ZSt18make_exception_ptrISt12future_errorENSt15__exception_ptr13exception_ptrET_=so_stub_for_libtelux_loc
-Wl,--defsym=_ZSt18uninitialized_copyISt13move_iteratorISt15_Deque_iteratorISt13shared_futureIvERS3_PS3_EES6_ET0_T_S9_S8_=so_stub_for_libtelux_loc
-Wl,--defsym=_ZSt20dynamic_pointer_castIN5telux3loc17ILocationListenerENS0_6common12ISDKListenerEESt10shared_ptrIT_ERKS5_IT0_E=so_stub_for_libtelux_loc
-Wl,--defsym=_ZSt22__uninitialized_copy_aISt15_Deque_iteratorISt13shared_futureIvERKS2_PS3_ES0_IS2_RS2_PS2_ES2_ET0_T_SB_SA_RSaIT1_E=so_stub_for_libtelux_loc
-Wl,--defsym=_ZSt22__uninitialized_move_aISt15_Deque_iteratorISt13shared_futureIvERS2_PS2_ES5_SaIS2_EET0_T_S8_S7_RT1_=so_stub_for_libtelux_loc
-Wl,--defsym=_ZSt23__copy_move_backward_a1ILb1EPSt13shared_futureIvES1_EN9__gnu_cxx11__enable_ifIXsrSt23__is_random_access_iterIT0_NSt15iterator_traitsIS6_E17iterator_categoryEE7__valueESt15_Deque_iteratorIT1_RSC_PSC_EE6__typeES6_S6_SF_=so_stub_for_libtelux_loc
-Wl,--defsym=_ZSt23__copy_move_backward_a1ILb1ESt13shared_futureIvERS1_PS1_S1_ESt15_Deque_iteratorIT3_RS5_PS5_ES4_IT0_T1_T2_ESC_S8_=so_stub_for_libtelux_loc
-Wl,--defsym=_ZSt4copyISt15_Deque_iteratorISt13shared_futureIvERKS2_PS3_ES0_IS2_RS2_PS2_EET0_T_SB_SA_=so_stub_for_libtelux_loc
-Wl,--defsym=_ZSt4moveISt15_Deque_iteratorISt13shared_futureIvERS2_PS2_ES5_ET0_T_S7_S6_=so_stub_for_libtelux_loc
-Wl,--defsym=_ZSt7find_ifIN9__gnu_cxx17__normal_iteratorIPSt8weak_ptrIN5telux6common12ISDKListenerEESt6vectorIS6_SaIS6_EEEEZNS4_15ListenerManager16registerListenerES6_EUlS6_E_ET_SE_SE_T0_=so_stub_for_libtelux_loc
-Wl,--defsym=_ZSt7find_ifISt23_Rb_tree_const_iteratorISt8weak_ptrIN5telux6common12ISDKListenerEEEZNS3_15ListenerManager16registerListenerISt6bitsetILm32EEEENS3_6StatusES5_T_RSC_EUlS5_E_ESC_SC_SC_T0_=so_stub_for_libtelux_loc
-Wl,--defsym=_ZSt9__advanceISt15_Deque_iteratorISt13shared_futureIvERKS2_PS3_ElEvRT_T0_St26random_access_iterator_tag=so_stub_for_libtelux_loc
-Wl,--defsym=_ZSt9__find_ifIN9__gnu_cxx17__normal_iteratorIPSt8weak_ptrIN5telux6common12ISDKListenerEESt6vectorIS6_SaIS6_EEEENS0_5__ops10_Iter_predIZNS4_15ListenerManager16registerListenerES6_EUlS6_E_EEET_SH_SH_T0_St26random_access_iterator_tag=so_stub_for_libtelux_loc
-Wl,--defsym=_ZSt9__find_ifISt23_Rb_tree_const_iteratorISt8weak_ptrIN5telux6common12ISDKListenerEEEN9__gnu_cxx5__ops10_Iter_predIZNS3_15ListenerManager16registerListenerISt6bitsetILm32EEEENS3_6StatusES5_T_RSF_EUlS5_E_EEESF_SF_SF_T0_St18input_iterator_tag=so_stub_for_libtelux_loc
-Wl,--defsym=_ZSteqRKSt10error_codeRKSt15error_condition=so_stub_for_libtelux_loc
-Wl,--defsym=_ZThn8_N5telux3loc19LocationManagerImpl16onSysPowerChangeENS_3qmi8PwrStateE=so_stub_for_libtelux_loc
-Wl,--defsym=_ZThn8_N5telux3loc19LocationManagerImplD0Ev=so_stub_for_libtelux_loc
-Wl,--defsym=_ZThn8_N5telux3loc19LocationManagerImplD1Ev=so_stub_for_libtelux_loc
-Wl,--defsym=_ZTIN5telux3loc10SVInfoImplE=so_stub_for_libtelux_loc
-Wl,--defsym=_ZTIN5telux3loc11IGnssSVInfoE=so_stub_for_libtelux_loc
-Wl,--defsym=_ZTIN5telux3loc13IDgnssManagerE=so_stub_for_libtelux_loc
-Wl,--defsym=_ZTIN5telux3loc14GnssSignalInfoE=so_stub_for_libtelux_loc
-Wl,--defsym=_ZTIN5telux3loc14GnssSVInfoImplE=so_stub_for_libtelux_loc
-Wl,--defsym=_ZTIN5telux3loc15IGnssSignalInfoE=so_stub_for_libtelux_loc
-Wl,--defsym=_ZTIN5telux3loc15ILocationInfoExE=so_stub_for_libtelux_loc
-Wl,--defsym=_ZTIN5telux3loc15LocationFactoryE=so_stub_for_libtelux_loc
-Wl,--defsym=_ZTIN5telux3loc16DgnssManagerImplE=so_stub_for_libtelux_loc
-Wl,--defsym=_ZTIN5telux3loc16ILocationManagerE=so_stub_for_libtelux_loc
-Wl,--defsym=_ZTIN5telux3loc17ILocationInfoBaseE=so_stub_for_libtelux_loc
-Wl,--defsym=_ZTIN5telux3loc17ILocationListenerE=so_stub_for_libtelux_loc
-Wl,--defsym=_ZTIN5telux3loc18LocationInfoImplExE=so_stub_for_libtelux_loc
-Wl,--defsym=_ZTIN5telux3loc19LocationFactoryImplE=so_stub_for_libtelux_loc
-Wl,--defsym=_ZTIN5telux3loc19LocationManagerImplE=so_stub_for_libtelux_loc
-Wl,--defsym=_ZTIN5telux3loc21ILocationConfiguratorE=so_stub_for_libtelux_loc
-Wl,--defsym=_ZTIN5telux3loc21LocationInfoImplBasicE=so_stub_for_libtelux_loc
-Wl,--defsym=_ZTIN5telux3loc23ILocationConfigListenerE=so_stub_for_libtelux_loc
-Wl,--defsym=_ZTIN5telux3loc24LocationConfiguratorImplE=so_stub_for_libtelux_loc
-Wl,--defsym=_ZTIN5telux3loc27ILocationSystemInfoListenerE=so_stub_for_libtelux_loc
-Wl,--defsym=_ZTIN5telux3loc7ISVInfoE=so_stub_for_libtelux_loc
-Wl,--defsym=_ZTIN5telux3qmi17ISysPowerListenerE=so_stub_for_libtelux_loc
-Wl,--defsym=_ZTIN5telux6common12ISDKListenerE=so_stub_for_libtelux_loc
-Wl,--defsym=_ZTIN5telux6common16ICommandCallbackE=so_stub_for_libtelux_loc
-Wl,--defsym=_ZTIN5telux6common18FunctionalCallbackIJhNS0_9ErrorCodeEEEE=so_stub_for_libtelux_loc
-Wl,--defsym=_ZTIN5telux6common18FunctionalCallbackIJNS0_13ServiceStatusEEEE=so_stub_for_libtelux_loc
-Wl,--defsym=_ZTIN5telux6common18FunctionalCallbackIJNS_3loc10XtraStatusENS0_9ErrorCodeEEEE=so_stub_for_libtelux_loc
-Wl,--defsym=_ZTIN5telux6common18FunctionalCallbackIJNS_3loc22GnssEnergyConsumedInfoENS0_9ErrorCodeEEEE=so_stub_for_libtelux_loc
-Wl,--defsym=_ZTIN5telux6common18FunctionalCallbackIJNS_3loc27RobustLocationConfigurationENS0_9ErrorCodeEEEE=so_stub_for_libtelux_loc
-Wl,--defsym=_ZTIN5telux6common18FunctionalCallbackIJSt10shared_ptrINS_3loc17ILocationInfoBaseEEEEE=so_stub_for_libtelux_loc
-Wl,--defsym=_ZTIN5telux6common18FunctionalCallbackIJSt13unordered_setINS_3loc21GnssConstellationTypeESt4hashIS4_ESt8equal_toIS4_ESaIS4_EENS0_9ErrorCodeEEEE=so_stub_for_libtelux_loc
-Wl,--defsym=_ZTIN5telux6common18FunctionalCallbackIJtNS0_9ErrorCodeEEEE=so_stub_for_libtelux_loc
-Wl,--defsym=_ZTINSt13__future_base13_State_baseV27_SetterIN15location_client16LocationResponseERKS3_EE=so_stub_for_libtelux_loc
-Wl,--defsym=_ZTINSt13__future_base13_State_baseV27_SetterIN5telux6common9ErrorCodeERKS4_EE=so_stub_for_libtelux_loc
-Wl,--defsym=_ZTINSt13__future_base13_State_baseV2E=so_stub_for_libtelux_loc
-Wl,--defsym=_ZTINSt13__future_base21_Async_state_commonV2E=so_stub_for_libtelux_loc
-Wl,--defsym=_ZTINSt13__future_base7_ResultIbEE=so_stub_for_libtelux_loc
-Wl,--defsym=_ZTINSt13__future_base7_ResultIN15location_client16LocationResponseEEE=so_stub_for_libtelux_loc
-Wl,--defsym=_ZTINSt13__future_base7_ResultIN5telux6common9ErrorCodeEEE=so_stub_for_libtelux_loc
-Wl,--defsym=_ZTINSt13__future_base7_ResultIvEE=so_stub_for_libtelux_loc
-Wl,--defsym=_ZTINSt6thread11_State_implINS_8_InvokerISt5tupleIJMN5telux6common14AsyncTaskQueueIvEEFvvEPS6_EEEEEE=so_stub_for_libtelux_loc
-Wl,--defsym=_ZTINSt6thread11_State_implINS_8_InvokerISt5tupleIJSt8functionIFvN5telux6common13ServiceStatusEEES6_EEEEEE=so_stub_for_libtelux_loc
-Wl,--defsym=_ZTISt11_Mutex_baseILN9__gnu_cxx12_Lock_policyE2EE=so_stub_for_libtelux_loc
-Wl,--defsym=_ZTISt16_Sp_counted_baseILN9__gnu_cxx12_Lock_policyE2EE=so_stub_for_libtelux_loc
-Wl,--defsym=_ZTISt17_Weak_result_typeIMN5telux3loc16DgnssManagerImplEFv18QDgnssSourceStatusEE=so_stub_for_libtelux_loc
-Wl,--defsym=_ZTISt17_Weak_result_typeIMN5telux3loc16LocationResponseEFvN15location_client16LocationResponseEEE=so_stub_for_libtelux_loc
-Wl,--defsym=_ZTISt17_Weak_result_typeIMN5telux3loc19LocationFactoryImplEFvNS0_6common13ServiceStatusEEE=so_stub_for_libtelux_loc
-Wl,--defsym=_ZTISt17_Weak_result_typeIMN5telux3loc19LocationManagerImplEFvmEE=so_stub_for_libtelux_loc
-Wl,--defsym=_ZTISt17_Weak_result_typeIMN5telux3loc19LocationManagerImplEFvmRKNSt7__cxx1112basic_stringIcSt11char_traitsIcESaIcEEEEE=so_stub_for_libtelux_loc
-Wl,--defsym=_ZTISt17_Weak_result_typeIMN5telux3loc19LocationManagerImplEFvN15location_client19LocOutputEngineTypeEmRKNSt7__cxx1112basic_stringIcSt11char_traitsIcESaIcEEEEE=so_stub_for_libtelux_loc
-Wl,--defsym=_ZTISt17_Weak_result_typeIMN5telux3loc19LocationManagerImplEFvRKN15location_client12GnssDcReportEEE=so_stub_for_libtelux_loc
-Wl,--defsym=_ZTISt17_Weak_result_typeIMN5telux3loc19LocationManagerImplEFvRKN15location_client12GnssLocationEEE=so_stub_for_libtelux_loc
-Wl,--defsym=_ZTISt17_Weak_result_typeIMN5telux3loc19LocationManagerImplEFvRKN15location_client13GnssEphemerisEEE=so_stub_for_libtelux_loc
-Wl,--defsym=_ZTISt17_Weak_result_typeIMN5telux3loc19LocationManagerImplEFvRKN15location_client16GnssMeasurementsEEE=so_stub_for_libtelux_loc
-Wl,--defsym=_ZTISt17_Weak_result_typeIMN5telux3loc19LocationManagerImplEFvRKN15location_client18LocationSystemInfoEEE=so_stub_for_libtelux_loc
-Wl,--defsym=_ZTISt17_Weak_result_typeIMN5telux3loc19LocationManagerImplEFvRKN15location_client22GnssEnergyConsumedInfoEEE=so_stub_for_libtelux_loc
-Wl,--defsym=_ZTISt17_Weak_result_typeIMN5telux3loc19LocationManagerImplEFvRKN15location_client8GnssDataEEE=so_stub_for_libtelux_loc
-Wl,--defsym=_ZTISt17_Weak_result_typeIMN5telux3loc19LocationManagerImplEFvRKN15location_client8LocationEEE=so_stub_for_libtelux_loc
-Wl,--defsym=_ZTISt17_Weak_result_typeIMN5telux3loc19LocationManagerImplEFvRKSt6vectorIhSaIhEEEE=so_stub_for_libtelux_loc
-Wl,--defsym=_ZTISt17_Weak_result_typeIMN5telux3loc19LocationManagerImplEFvRKSt6vectorIN15location_client12GnssLocationESaIS5_EEEE=so_stub_for_libtelux_loc
-Wl,--defsym=_ZTISt17_Weak_result_typeIMN5telux3loc19LocationManagerImplEFvRKSt6vectorIN15location_client6GnssSvESaIS5_EEEE=so_stub_for_libtelux_loc
-Wl,--defsym=_ZTISt17_Weak_result_typeIMN5telux3loc24LocationConfiguratorImplEFvhEE=so_stub_for_libtelux_loc
-Wl,--defsym=_ZTISt17_Weak_result_typeIMN5telux3loc24LocationConfiguratorImplEFvN15location_client18GnssSignalTypeMaskEEE=so_stub_for_libtelux_loc
-Wl,--defsym=_ZTISt17_Weak_result_typeIMN5telux3loc24LocationConfiguratorImplEFvN20location_integration17LocConfigTypeEnumENS3_22LocIntegrationResponseEEE=so_stub_for_libtelux_loc
-Wl,--defsym=_ZTISt17_Weak_result_typeIMN5telux3loc24LocationConfiguratorImplEFvN20location_integration20RobustLocationConfigEEE=so_stub_for_libtelux_loc
-Wl,--defsym=_ZTISt17_Weak_result_typeIMN5telux3loc24LocationConfiguratorImplEFvN20location_integration23XtraStatusUpdateTriggerERKNS3_10XtraStatusEEE=so_stub_for_libtelux_loc
-Wl,--defsym=_ZTISt17_Weak_result_typeIMN5telux3loc24LocationConfiguratorImplEFvRKSt13unordered_setIN20location_integration21GnssConstellationTypeESt4hashIS5_ESt8equal_toIS5_ESaIS5_EEEE=so_stub_for_libtelux_loc
-Wl,--defsym=_ZTISt17_Weak_result_typeIMN5telux3loc24LocationConfiguratorImplEFvtEE=so_stub_for_libtelux_loc
-Wl,--defsym=_ZTISt17_Weak_result_typeIMN5telux3loc34LocationPowerStateResponseCallbackEFvNS0_6common9ErrorCodeEEE=so_stub_for_libtelux_loc
-Wl,--defsym=_ZTISt23enable_shared_from_thisIN5telux3loc16DgnssManagerImplEE=so_stub_for_libtelux_loc
-Wl,--defsym=_ZTISt23enable_shared_from_thisIN5telux3loc19LocationManagerImplEE=so_stub_for_libtelux_loc
-Wl,--defsym=_ZTISt23enable_shared_from_thisIN5telux3loc24LocationConfiguratorImplEE=so_stub_for_libtelux_loc
-Wl,--defsym=_ZTISt23_Sp_counted_ptr_inplaceIN15location_client17LocationClientApiESaIS1_ELN9__gnu_cxx12_Lock_policyE2EE=so_stub_for_libtelux_loc
-Wl,--defsym=_ZTISt23_Sp_counted_ptr_inplaceIN20location_integration22LocationIntegrationApiESaIS1_ELN9__gnu_cxx12_Lock_policyE2EE=so_stub_for_libtelux_loc
-Wl,--defsym=_ZTISt23_Sp_counted_ptr_inplaceIN5telux3loc10SVInfoImplESaIS2_ELN9__gnu_cxx12_Lock_policyE2EE=so_stub_for_libtelux_loc
-Wl,--defsym=_ZTISt23_Sp_counted_ptr_inplaceIN5telux3loc10TimeWindowESaIS2_ELN9__gnu_cxx12_Lock_policyE2EE=so_stub_for_libtelux_loc
-Wl,--defsym=_ZTISt23_Sp_counted_ptr_inplaceIN5telux3loc14GnssSignalInfoESaIS2_ELN9__gnu_cxx12_Lock_policyE2EE=so_stub_for_libtelux_loc
-Wl,--defsym=_ZTISt23_Sp_counted_ptr_inplaceIN5telux3loc14GnssSVInfoImplESaIS2_ELN9__gnu_cxx12_Lock_policyE2EE=so_stub_for_libtelux_loc
-Wl,--defsym=_ZTISt23_Sp_counted_ptr_inplaceIN5telux3loc16DgnssManagerImplESaIS2_ELN9__gnu_cxx12_Lock_policyE2EE=so_stub_for_libtelux_loc
-Wl,--defsym=_ZTISt23_Sp_counted_ptr_inplaceIN5telux3loc16LocationResponseESaIS2_ELN9__gnu_cxx12_Lock_policyE2EE=so_stub_for_libtelux_loc
-Wl,--defsym=_ZTISt23_Sp_counted_ptr_inplaceIN5telux3loc18LocationInfoImplExESaIS2_ELN9__gnu_cxx12_Lock_policyE2EE=so_stub_for_libtelux_loc
-Wl,--defsym=_ZTISt23_Sp_counted_ptr_inplaceIN5telux3loc19LocationManagerImplESaIS2_ELN9__gnu_cxx12_Lock_policyE2EE=so_stub_for_libtelux_loc
-Wl,--defsym=_ZTISt23_Sp_counted_ptr_inplaceIN5telux3loc20LocationReportFilterESaIS2_ELN9__gnu_cxx12_Lock_policyE2EE=so_stub_for_libtelux_loc
-Wl,--defsym=_ZTISt23_Sp_counted_ptr_inplaceIN5telux3loc21LocationInfoImplBasicESaIS2_ELN9__gnu_cxx12_Lock_policyE2EE=so_stub_for_libtelux_loc
-Wl,--defsym=_ZTISt23_Sp_counted_ptr_inplaceIN5telux3loc24LocationConfiguratorImplESaIS2_ELN9__gnu_cxx12_Lock_policyE2EE=so_stub_for_libtelux_loc
-Wl,--defsym=_ZTISt23_Sp_counted_ptr_inplaceIN5telux3loc34LocationPowerStateResponseCallbackESaIS2_ELN9__gnu_cxx12_Lock_policyE2EE=so_stub_for_libtelux_loc
-Wl,--defsym=_ZTISt23_Sp_counted_ptr_inplaceIN5telux6common15ListenerManagerESaIS2_ELN9__gnu_cxx12_Lock_policyE2EE=so_stub_for_libtelux_loc
-Wl,--defsym=_ZTISt23_Sp_counted_ptr_inplaceIN5telux6common18FunctionalCallbackIJhNS1_9ErrorCodeEEEESaIS4_ELN9__gnu_cxx12_Lock_policyE2EE=so_stub_for_libtelux_loc
-Wl,--defsym=_ZTISt23_Sp_counted_ptr_inplaceIN5telux6common18FunctionalCallbackIJNS0_3loc10XtraStatusENS1_9ErrorCodeEEEESaIS6_ELN9__gnu_cxx12_Lock_policyE2EE=so_stub_for_libtelux_loc
-Wl,--defsym=_ZTISt23_Sp_counted_ptr_inplaceIN5telux6common18FunctionalCallbackIJNS0_3loc22GnssEnergyConsumedInfoENS1_9ErrorCodeEEEESaIS6_ELN9__gnu_cxx12_Lock_policyE2EE=so_stub_for_libtelux_loc
-Wl,--defsym=_ZTISt23_Sp_counted_ptr_inplaceIN5telux6common18FunctionalCallbackIJNS0_3loc27RobustLocationConfigurationENS1_9ErrorCodeEEEESaIS6_ELN9__gnu_cxx12_Lock_policyE2EE=so_stub_for_libtelux_loc
-Wl,--defsym=_ZTISt23_Sp_counted_ptr_inplaceIN5telux6common18FunctionalCallbackIJNS1_13ServiceStatusEEEESaIS4_ELN9__gnu_cxx12_Lock_policyE2EE=so_stub_for_libtelux_loc
-Wl,--defsym=_ZTISt23_Sp_counted_ptr_inplaceIN5telux6common18FunctionalCallbackIJSt10shared_ptrINS0_3loc17ILocationInfoBaseEEEEESaIS7_ELN9__gnu_cxx12_Lock_policyE2EE=so_stub_for_libtelux_loc
-Wl,--defsym=_ZTISt23_Sp_counted_ptr_inplaceIN5telux6common18FunctionalCallbackIJSt13unordered_setINS0_3loc21GnssConstellationTypeESt4hashIS5_ESt8equal_toIS5_ESaIS5_EENS1_9ErrorCodeEEEESaISD_ELN9__gnu_cxx12_Lock_policyE2EE=so_stub_for_libtelux_loc
-Wl,--defsym=_ZTISt23_Sp_counted_ptr_inplaceIN5telux6common18FunctionalCallbackIJtNS1_9ErrorCodeEEEESaIS4_ELN9__gnu_cxx12_Lock_policyE2EE=so_stub_for_libtelux_loc
-Wl,--defsym=_ZTISt23_Sp_counted_ptr_inplaceINSt13__future_base13_State_baseV2ESaIS1_ELN9__gnu_cxx12_Lock_policyE2EE=so_stub_for_libtelux_loc
-Wl,--defsym=_ZTISt23_Sp_counted_ptr_inplaceISt6threadSaIS0_ELN9__gnu_cxx12_Lock_policyE2EE=so_stub_for_libtelux_loc
-Wl,--defsym=_ZTISt24_Weak_result_type_memfunIMN5telux3loc16DgnssManagerImplEFv18QDgnssSourceStatusELb1EE=so_stub_for_libtelux_loc
-Wl,--defsym=_ZTISt24_Weak_result_type_memfunIMN5telux3loc16LocationResponseEFvN15location_client16LocationResponseEELb1EE=so_stub_for_libtelux_loc
-Wl,--defsym=_ZTISt24_Weak_result_type_memfunIMN5telux3loc19LocationFactoryImplEFvNS0_6common13ServiceStatusEELb1EE=so_stub_for_libtelux_loc
-Wl,--defsym=_ZTISt24_Weak_result_type_memfunIMN5telux3loc19LocationManagerImplEFvmELb1EE=so_stub_for_libtelux_loc
-Wl,--defsym=_ZTISt24_Weak_result_type_memfunIMN5telux3loc19LocationManagerImplEFvmRKNSt7__cxx1112basic_stringIcSt11char_traitsIcESaIcEEEELb1EE=so_stub_for_libtelux_loc
-Wl,--defsym=_ZTISt24_Weak_result_type_memfunIMN5telux3loc19LocationManagerImplEFvN15location_client19LocOutputEngineTypeEmRKNSt7__cxx1112basic_stringIcSt11char_traitsIcESaIcEEEELb1EE=so_stub_for_libtelux_loc
-Wl,--defsym=_ZTISt24_Weak_result_type_memfunIMN5telux3loc19LocationManagerImplEFvRKN15location_client12GnssDcReportEELb1EE=so_stub_for_libtelux_loc
-Wl,--defsym=_ZTISt24_Weak_result_type_memfunIMN5telux3loc19LocationManagerImplEFvRKN15location_client12GnssLocationEELb1EE=so_stub_for_libtelux_loc
-Wl,--defsym=_ZTISt24_Weak_result_type_memfunIMN5telux3loc19LocationManagerImplEFvRKN15location_client13GnssEphemerisEELb1EE=so_stub_for_libtelux_loc
-Wl,--defsym=_ZTISt24_Weak_result_type_memfunIMN5telux3loc19LocationManagerImplEFvRKN15location_client16GnssMeasurementsEELb1EE=so_stub_for_libtelux_loc
-Wl,--defsym=_ZTISt24_Weak_result_type_memfunIMN5telux3loc19LocationManagerImplEFvRKN15location_client18LocationSystemInfoEELb1EE=so_stub_for_libtelux_loc
-Wl,--defsym=_ZTISt24_Weak_result_type_memfunIMN5telux3loc19LocationManagerImplEFvRKN15location_client22GnssEnergyConsumedInfoEELb1EE=so_stub_for_libtelux_loc
-Wl,--defsym=_ZTISt24_Weak_result_type_memfunIMN5telux3loc19LocationManagerImplEFvRKN15location_client8GnssDataEELb1EE=so_stub_for_libtelux_loc
-Wl,--defsym=_ZTISt24_Weak_result_type_memfunIMN5telux3loc19LocationManagerImplEFvRKN15location_client8LocationEELb1EE=so_stub_for_libtelux_loc
-Wl,--defsym=_ZTISt24_Weak_result_type_memfunIMN5telux3loc19LocationManagerImplEFvRKSt6vectorIhSaIhEEELb1EE=so_stub_for_libtelux_loc
-Wl,--defsym=_ZTISt24_Weak_result_type_memfunIMN5telux3loc19LocationManagerImplEFvRKSt6vectorIN15location_client12GnssLocationESaIS5_EEELb1EE=so_stub_for_libtelux_loc
-Wl,--defsym=_ZTISt24_Weak_result_type_memfunIMN5telux3loc19LocationManagerImplEFvRKSt6vectorIN15location_client6GnssSvESaIS5_EEELb1EE=so_stub_for_libtelux_loc
-Wl,--defsym=_ZTISt24_Weak_result_type_memfunIMN5telux3loc24LocationConfiguratorImplEFvhELb1EE=so_stub_for_libtelux_loc
-Wl,--defsym=_ZTISt24_Weak_result_type_memfunIMN5telux3loc24LocationConfiguratorImplEFvN15location_client18GnssSignalTypeMaskEELb1EE=so_stub_for_libtelux_loc
-Wl,--defsym=_ZTISt24_Weak_result_type_memfunIMN5telux3loc24LocationConfiguratorImplEFvN20location_integration17LocConfigTypeEnumENS3_22LocIntegrationResponseEELb1EE=so_stub_for_libtelux_loc
-Wl,--defsym=_ZTISt24_Weak_result_type_memfunIMN5telux3loc24LocationConfiguratorImplEFvN20location_integration20RobustLocationConfigEELb1EE=so_stub_for_libtelux_loc
-Wl,--defsym=_ZTISt24_Weak_result_type_memfunIMN5telux3loc24LocationConfiguratorImplEFvN20location_integration23XtraStatusUpdateTriggerERKNS3_10XtraStatusEELb1EE=so_stub_for_libtelux_loc
-Wl,--defsym=_ZTISt24_Weak_result_type_memfunIMN5telux3loc24LocationConfiguratorImplEFvRKSt13unordered_setIN20location_integration21GnssConstellationTypeESt4hashIS5_ESt8equal_toIS5_ESaIS5_EEELb1EE=so_stub_for_libtelux_loc
-Wl,--defsym=_ZTISt24_Weak_result_type_memfunIMN5telux3loc24LocationConfiguratorImplEFvtELb1EE=so_stub_for_libtelux_loc
-Wl,--defsym=_ZTISt24_Weak_result_type_memfunIMN5telux3loc34LocationPowerStateResponseCallbackEFvNS0_6common9ErrorCodeEELb1EE=so_stub_for_libtelux_loc
-Wl,--defsym=_ZTISt5_BindIFMN5telux3loc16DgnssManagerImplEFv18QDgnssSourceStatusEPS2_St12_PlaceholderILi1EEEE=so_stub_for_libtelux_loc
-Wl,--defsym=_ZTISt5_BindIFMN5telux3loc16LocationResponseEFvN15location_client16LocationResponseEESt10shared_ptrIS2_ESt12_PlaceholderILi1EEEE=so_stub_for_libtelux_loc
-Wl,--defsym=_ZTISt5_BindIFMN5telux3loc19LocationFactoryImplEFvNS0_6common13ServiceStatusEEPS2_St12_PlaceholderILi1EEEE=so_stub_for_libtelux_loc
-Wl,--defsym=_ZTISt5_BindIFMN5telux3loc19LocationManagerImplEFvmEPS2_St12_PlaceholderILi1EEEE=so_stub_for_libtelux_loc
-Wl,--defsym=_ZTISt5_BindIFMN5telux3loc19LocationManagerImplEFvmRKNSt7__cxx1112basic_stringIcSt11char_traitsIcESaIcEEEEPS2_St12_PlaceholderILi1EESE_ILi2EEEE=so_stub_for_libtelux_loc
-Wl,--defsym=_ZTISt5_BindIFMN5telux3loc19LocationManagerImplEFvN15location_client19LocOutputEngineTypeEmRKNSt7__cxx1112basic_stringIcSt11char_traitsIcESaIcEEEEPS2_St12_PlaceholderILi1EESG_ILi2EESG_ILi3EEEE=so_stub_for_libtelux_loc
-Wl,--defsym=_ZTISt5_BindIFMN5telux3loc19LocationManagerImplEFvRKN15location_client12GnssDcReportEEPS2_St12_PlaceholderILi1EEEE=so_stub_for_libtelux_loc
-Wl,--defsym=_ZTISt5_BindIFMN5telux3loc19LocationManagerImplEFvRKN15location_client12GnssLocationEEPS2_St12_PlaceholderILi1EEEE=so_stub_for_libtelux_loc
-Wl,--defsym=_ZTISt5_BindIFMN5telux3loc19LocationManagerImplEFvRKN15location_client13GnssEphemerisEEPS2_St12_PlaceholderILi1EEEE=so_stub_for_libtelux_loc
-Wl,--defsym=_ZTISt5_BindIFMN5telux3loc19LocationManagerImplEFvRKN15location_client16GnssMeasurementsEEPS2_St12_PlaceholderILi1EEEE=so_stub_for_libtelux_loc
-Wl,--defsym=_ZTISt5_BindIFMN5telux3loc19LocationManagerImplEFvRKN15location_client18LocationSystemInfoEEPS2_St12_PlaceholderILi1EEEE=so_stub_for_libtelux_loc
-Wl,--defsym=_ZTISt5_BindIFMN5telux3loc19LocationManagerImplEFvRKN15location_client22GnssEnergyConsumedInfoEEPS2_St12_PlaceholderILi1EEEE=so_stub_for_libtelux_loc
-Wl,--defsym=_ZTISt5_BindIFMN5telux3loc19LocationManagerImplEFvRKN15location_client8GnssDataEEPS2_St12_PlaceholderILi1EEEE=so_stub_for_libtelux_loc
-Wl,--defsym=_ZTISt5_BindIFMN5telux3loc19LocationManagerImplEFvRKN15location_client8LocationEEPS2_St12_PlaceholderILi1EEEE=so_stub_for_libtelux_loc
-Wl,--defsym=_ZTISt5_BindIFMN5telux3loc19LocationManagerImplEFvRKSt6vectorIhSaIhEEEPS2_St12_PlaceholderILi1EEEE=so_stub_for_libtelux_loc
-Wl,--defsym=_ZTISt5_BindIFMN5telux3loc19LocationManagerImplEFvRKSt6vectorIN15location_client12GnssLocationESaIS5_EEEPS2_St12_PlaceholderILi1EEEE=so_stub_for_libtelux_loc
-Wl,--defsym=_ZTISt5_BindIFMN5telux3loc19LocationManagerImplEFvRKSt6vectorIN15location_client6GnssSvESaIS5_EEEPS2_St12_PlaceholderILi1EEEE=so_stub_for_libtelux_loc
-Wl,--defsym=_ZTISt5_BindIFMN5telux3loc24LocationConfiguratorImplEFvhEPS2_St12_PlaceholderILi1EEEE=so_stub_for_libtelux_loc
-Wl,--defsym=_ZTISt5_BindIFMN5telux3loc24LocationConfiguratorImplEFvN15location_client18GnssSignalTypeMaskEEPS2_St12_PlaceholderILi1EEEE=so_stub_for_libtelux_loc
-Wl,--defsym=_ZTISt5_BindIFMN5telux3loc24LocationConfiguratorImplEFvN20location_integration17LocConfigTypeEnumENS3_22LocIntegrationResponseEEPS2_St12_PlaceholderILi1EES9_ILi2EEEE=so_stub_for_libtelux_loc
-Wl,--defsym=_ZTISt5_BindIFMN5telux3loc24LocationConfiguratorImplEFvN20location_integration20RobustLocationConfigEEPS2_St12_PlaceholderILi1EEEE=so_stub_for_libtelux_loc
-Wl,--defsym=_ZTISt5_BindIFMN5telux3loc24LocationConfiguratorImplEFvN20location_integration23XtraStatusUpdateTriggerERKNS3_10XtraStatusEEPS2_St12_PlaceholderILi1EESB_ILi2EEEE=so_stub_for_libtelux_loc
-Wl,--defsym=_ZTISt5_BindIFMN5telux3loc24LocationConfiguratorImplEFvRKSt13unordered_setIN20location_integration21GnssConstellationTypeESt4hashIS5_ESt8equal_toIS5_ESaIS5_EEEPS2_St12_PlaceholderILi1EEEE=so_stub_for_libtelux_loc
-Wl,--defsym=_ZTISt5_BindIFMN5telux3loc24LocationConfiguratorImplEFvtEPS2_St12_PlaceholderILi1EEEE=so_stub_for_libtelux_loc
-Wl,--defsym=_ZTISt5_BindIFMN5telux3loc34LocationPowerStateResponseCallbackEFvNS0_6common9ErrorCodeEESt10shared_ptrIS2_ESt12_PlaceholderILi1EEEE=so_stub_for_libtelux_loc
-Wl,--defsym=_ZTSN5telux3loc10SVInfoImplE=so_stub_for_libtelux_loc
-Wl,--defsym=_ZTSN5telux3loc11IGnssSVInfoE=so_stub_for_libtelux_loc
-Wl,--defsym=_ZTSN5telux3loc13IDgnssManagerE=so_stub_for_libtelux_loc
-Wl,--defsym=_ZTSN5telux3loc14GnssSignalInfoE=so_stub_for_libtelux_loc
-Wl,--defsym=_ZTSN5telux3loc14GnssSVInfoImplE=so_stub_for_libtelux_loc
-Wl,--defsym=_ZTSN5telux3loc15IGnssSignalInfoE=so_stub_for_libtelux_loc
-Wl,--defsym=_ZTSN5telux3loc15ILocationInfoExE=so_stub_for_libtelux_loc
-Wl,--defsym=_ZTSN5telux3loc15LocationFactoryE=so_stub_for_libtelux_loc
-Wl,--defsym=_ZTSN5telux3loc16DgnssManagerImplE=so_stub_for_libtelux_loc
-Wl,--defsym=_ZTSN5telux3loc16ILocationManagerE=so_stub_for_libtelux_loc
-Wl,--defsym=_ZTSN5telux3loc17ILocationInfoBaseE=so_stub_for_libtelux_loc
-Wl,--defsym=_ZTSN5telux3loc17ILocationListenerE=so_stub_for_libtelux_loc
-Wl,--defsym=_ZTSN5telux3loc18LocationInfoImplExE=so_stub_for_libtelux_loc
-Wl,--defsym=_ZTSN5telux3loc19LocationFactoryImplE=so_stub_for_libtelux_loc
-Wl,--defsym=_ZTSN5telux3loc19LocationManagerImplE=so_stub_for_libtelux_loc
-Wl,--defsym=_ZTSN5telux3loc21ILocationConfiguratorE=so_stub_for_libtelux_loc
-Wl,--defsym=_ZTSN5telux3loc21LocationInfoImplBasicE=so_stub_for_libtelux_loc
-Wl,--defsym=_ZTSN5telux3loc23ILocationConfigListenerE=so_stub_for_libtelux_loc
-Wl,--defsym=_ZTSN5telux3loc24LocationConfiguratorImplE=so_stub_for_libtelux_loc
-Wl,--defsym=_ZTSN5telux3loc27ILocationSystemInfoListenerE=so_stub_for_libtelux_loc
-Wl,--defsym=_ZTSN5telux3loc7ISVInfoE=so_stub_for_libtelux_loc
-Wl,--defsym=_ZTSN5telux3qmi17ISysPowerListenerE=so_stub_for_libtelux_loc
-Wl,--defsym=_ZTSN5telux6common12ISDKListenerE=so_stub_for_libtelux_loc
-Wl,--defsym=_ZTSN5telux6common16ICommandCallbackE=so_stub_for_libtelux_loc
-Wl,--defsym=_ZTSN5telux6common18FunctionalCallbackIJhNS0_9ErrorCodeEEEE=so_stub_for_libtelux_loc
-Wl,--defsym=_ZTSN5telux6common18FunctionalCallbackIJNS0_13ServiceStatusEEEE=so_stub_for_libtelux_loc
-Wl,--defsym=_ZTSN5telux6common18FunctionalCallbackIJNS_3loc10XtraStatusENS0_9ErrorCodeEEEE=so_stub_for_libtelux_loc
-Wl,--defsym=_ZTSN5telux6common18FunctionalCallbackIJNS_3loc22GnssEnergyConsumedInfoENS0_9ErrorCodeEEEE=so_stub_for_libtelux_loc
-Wl,--defsym=_ZTSN5telux6common18FunctionalCallbackIJNS_3loc27RobustLocationConfigurationENS0_9ErrorCodeEEEE=so_stub_for_libtelux_loc
-Wl,--defsym=_ZTSN5telux6common18FunctionalCallbackIJSt10shared_ptrINS_3loc17ILocationInfoBaseEEEEE=so_stub_for_libtelux_loc
-Wl,--defsym=_ZTSN5telux6common18FunctionalCallbackIJSt13unordered_setINS_3loc21GnssConstellationTypeESt4hashIS4_ESt8equal_toIS4_ESaIS4_EENS0_9ErrorCodeEEEE=so_stub_for_libtelux_loc
-Wl,--defsym=_ZTSN5telux6common18FunctionalCallbackIJtNS0_9ErrorCodeEEEE=so_stub_for_libtelux_loc
-Wl,--defsym=_ZTSNSt13__future_base13_State_baseV27_SetterIN15location_client16LocationResponseERKS3_EE=so_stub_for_libtelux_loc
-Wl,--defsym=_ZTSNSt13__future_base13_State_baseV27_SetterIN5telux6common9ErrorCodeERKS4_EE=so_stub_for_libtelux_loc
-Wl,--defsym=_ZTSNSt13__future_base13_State_baseV2E=so_stub_for_libtelux_loc
-Wl,--defsym=_ZTSNSt13__future_base21_Async_state_commonV2E=so_stub_for_libtelux_loc
-Wl,--defsym=_ZTSNSt13__future_base7_ResultIbEE=so_stub_for_libtelux_loc
-Wl,--defsym=_ZTSNSt13__future_base7_ResultIN15location_client16LocationResponseEEE=so_stub_for_libtelux_loc
-Wl,--defsym=_ZTSNSt13__future_base7_ResultIN5telux6common9ErrorCodeEEE=so_stub_for_libtelux_loc
-Wl,--defsym=_ZTSNSt13__future_base7_ResultIvEE=so_stub_for_libtelux_loc
-Wl,--defsym=_ZTSNSt6thread11_State_implINS_8_InvokerISt5tupleIJMN5telux6common14AsyncTaskQueueIvEEFvvEPS6_EEEEEE=so_stub_for_libtelux_loc
-Wl,--defsym=_ZTSNSt6thread11_State_implINS_8_InvokerISt5tupleIJSt8functionIFvN5telux6common13ServiceStatusEEES6_EEEEEE=so_stub_for_libtelux_loc
-Wl,--defsym=_ZTSSt11_Mutex_baseILN9__gnu_cxx12_Lock_policyE2EE=so_stub_for_libtelux_loc
-Wl,--defsym=_ZTSSt16_Sp_counted_baseILN9__gnu_cxx12_Lock_policyE2EE=so_stub_for_libtelux_loc
-Wl,--defsym=_ZTSSt17_Weak_result_typeIMN5telux3loc16DgnssManagerImplEFv18QDgnssSourceStatusEE=so_stub_for_libtelux_loc
-Wl,--defsym=_ZTSSt17_Weak_result_typeIMN5telux3loc16LocationResponseEFvN15location_client16LocationResponseEEE=so_stub_for_libtelux_loc
-Wl,--defsym=_ZTSSt17_Weak_result_typeIMN5telux3loc19LocationFactoryImplEFvNS0_6common13ServiceStatusEEE=so_stub_for_libtelux_loc
-Wl,--defsym=_ZTSSt17_Weak_result_typeIMN5telux3loc19LocationManagerImplEFvmEE=so_stub_for_libtelux_loc
-Wl,--defsym=_ZTSSt17_Weak_result_typeIMN5telux3loc19LocationManagerImplEFvmRKNSt7__cxx1112basic_stringIcSt11char_traitsIcESaIcEEEEE=so_stub_for_libtelux_loc
-Wl,--defsym=_ZTSSt17_Weak_result_typeIMN5telux3loc19LocationManagerImplEFvN15location_client19LocOutputEngineTypeEmRKNSt7__cxx1112basic_stringIcSt11char_traitsIcESaIcEEEEE=so_stub_for_libtelux_loc
-Wl,--defsym=_ZTSSt17_Weak_result_typeIMN5telux3loc19LocationManagerImplEFvRKN15location_client12GnssDcReportEEE=so_stub_for_libtelux_loc
-Wl,--defsym=_ZTSSt17_Weak_result_typeIMN5telux3loc19LocationManagerImplEFvRKN15location_client12GnssLocationEEE=so_stub_for_libtelux_loc
-Wl,--defsym=_ZTSSt17_Weak_result_typeIMN5telux3loc19LocationManagerImplEFvRKN15location_client13GnssEphemerisEEE=so_stub_for_libtelux_loc
-Wl,--defsym=_ZTSSt17_Weak_result_typeIMN5telux3loc19LocationManagerImplEFvRKN15location_client16GnssMeasurementsEEE=so_stub_for_libtelux_loc
-Wl,--defsym=_ZTSSt17_Weak_result_typeIMN5telux3loc19LocationManagerImplEFvRKN15location_client18LocationSystemInfoEEE=so_stub_for_libtelux_loc
-Wl,--defsym=_ZTSSt17_Weak_result_typeIMN5telux3loc19LocationManagerImplEFvRKN15location_client22GnssEnergyConsumedInfoEEE=so_stub_for_libtelux_loc
-Wl,--defsym=_ZTSSt17_Weak_result_typeIMN5telux3loc19LocationManagerImplEFvRKN15location_client8GnssDataEEE=so_stub_for_libtelux_loc
-Wl,--defsym=_ZTSSt17_Weak_result_typeIMN5telux3loc19LocationManagerImplEFvRKN15location_client8LocationEEE=so_stub_for_libtelux_loc
-Wl,--defsym=_ZTSSt17_Weak_result_typeIMN5telux3loc19LocationManagerImplEFvRKSt6vectorIhSaIhEEEE=so_stub_for_libtelux_loc
-Wl,--defsym=_ZTSSt17_Weak_result_typeIMN5telux3loc19LocationManagerImplEFvRKSt6vectorIN15location_client12GnssLocationESaIS5_EEEE=so_stub_for_libtelux_loc
-Wl,--defsym=_ZTSSt17_Weak_result_typeIMN5telux3loc19LocationManagerImplEFvRKSt6vectorIN15location_client6GnssSvESaIS5_EEEE=so_stub_for_libtelux_loc
-Wl,--defsym=_ZTSSt17_Weak_result_typeIMN5telux3loc24LocationConfiguratorImplEFvhEE=so_stub_for_libtelux_loc
-Wl,--defsym=_ZTSSt17_Weak_result_typeIMN5telux3loc24LocationConfiguratorImplEFvN15location_client18GnssSignalTypeMaskEEE=so_stub_for_libtelux_loc
-Wl,--defsym=_ZTSSt17_Weak_result_typeIMN5telux3loc24LocationConfiguratorImplEFvN20location_integration17LocConfigTypeEnumENS3_22LocIntegrationResponseEEE=so_stub_for_libtelux_loc
-Wl,--defsym=_ZTSSt17_Weak_result_typeIMN5telux3loc24LocationConfiguratorImplEFvN20location_integration20RobustLocationConfigEEE=so_stub_for_libtelux_loc
-Wl,--defsym=_ZTSSt17_Weak_result_typeIMN5telux3loc24LocationConfiguratorImplEFvN20location_integration23XtraStatusUpdateTriggerERKNS3_10XtraStatusEEE=so_stub_for_libtelux_loc
-Wl,--defsym=_ZTSSt17_Weak_result_typeIMN5telux3loc24LocationConfiguratorImplEFvRKSt13unordered_setIN20location_integration21GnssConstellationTypeESt4hashIS5_ESt8equal_toIS5_ESaIS5_EEEE=so_stub_for_libtelux_loc
-Wl,--defsym=_ZTSSt17_Weak_result_typeIMN5telux3loc24LocationConfiguratorImplEFvtEE=so_stub_for_libtelux_loc
-Wl,--defsym=_ZTSSt17_Weak_result_typeIMN5telux3loc34LocationPowerStateResponseCallbackEFvNS0_6common9ErrorCodeEEE=so_stub_for_libtelux_loc
-Wl,--defsym=_ZTSSt19_Sp_make_shared_tag=so_stub_for_libtelux_loc
-Wl,--defsym=_ZTSSt23enable_shared_from_thisIN5telux3loc16DgnssManagerImplEE=so_stub_for_libtelux_loc
-Wl,--defsym=_ZTSSt23enable_shared_from_thisIN5telux3loc19LocationManagerImplEE=so_stub_for_libtelux_loc
-Wl,--defsym=_ZTSSt23enable_shared_from_thisIN5telux3loc24LocationConfiguratorImplEE=so_stub_for_libtelux_loc
-Wl,--defsym=_ZTSSt23_Sp_counted_ptr_inplaceIN15location_client17LocationClientApiESaIS1_ELN9__gnu_cxx12_Lock_policyE2EE=so_stub_for_libtelux_loc
-Wl,--defsym=_ZTSSt23_Sp_counted_ptr_inplaceIN20location_integration22LocationIntegrationApiESaIS1_ELN9__gnu_cxx12_Lock_policyE2EE=so_stub_for_libtelux_loc
-Wl,--defsym=_ZTSSt23_Sp_counted_ptr_inplaceIN5telux3loc10SVInfoImplESaIS2_ELN9__gnu_cxx12_Lock_policyE2EE=so_stub_for_libtelux_loc
-Wl,--defsym=_ZTSSt23_Sp_counted_ptr_inplaceIN5telux3loc10TimeWindowESaIS2_ELN9__gnu_cxx12_Lock_policyE2EE=so_stub_for_libtelux_loc
-Wl,--defsym=_ZTSSt23_Sp_counted_ptr_inplaceIN5telux3loc14GnssSignalInfoESaIS2_ELN9__gnu_cxx12_Lock_policyE2EE=so_stub_for_libtelux_loc
-Wl,--defsym=_ZTSSt23_Sp_counted_ptr_inplaceIN5telux3loc14GnssSVInfoImplESaIS2_ELN9__gnu_cxx12_Lock_policyE2EE=so_stub_for_libtelux_loc
-Wl,--defsym=_ZTSSt23_Sp_counted_ptr_inplaceIN5telux3loc16DgnssManagerImplESaIS2_ELN9__gnu_cxx12_Lock_policyE2EE=so_stub_for_libtelux_loc
-Wl,--defsym=_ZTSSt23_Sp_counted_ptr_inplaceIN5telux3loc16LocationResponseESaIS2_ELN9__gnu_cxx12_Lock_policyE2EE=so_stub_for_libtelux_loc
-Wl,--defsym=_ZTSSt23_Sp_counted_ptr_inplaceIN5telux3loc18LocationInfoImplExESaIS2_ELN9__gnu_cxx12_Lock_policyE2EE=so_stub_for_libtelux_loc
-Wl,--defsym=_ZTSSt23_Sp_counted_ptr_inplaceIN5telux3loc19LocationManagerImplESaIS2_ELN9__gnu_cxx12_Lock_policyE2EE=so_stub_for_libtelux_loc
-Wl,--defsym=_ZTSSt23_Sp_counted_ptr_inplaceIN5telux3loc20LocationReportFilterESaIS2_ELN9__gnu_cxx12_Lock_policyE2EE=so_stub_for_libtelux_loc
-Wl,--defsym=_ZTSSt23_Sp_counted_ptr_inplaceIN5telux3loc21LocationInfoImplBasicESaIS2_ELN9__gnu_cxx12_Lock_policyE2EE=so_stub_for_libtelux_loc
-Wl,--defsym=_ZTSSt23_Sp_counted_ptr_inplaceIN5telux3loc24LocationConfiguratorImplESaIS2_ELN9__gnu_cxx12_Lock_policyE2EE=so_stub_for_libtelux_loc
-Wl,--defsym=_ZTSSt23_Sp_counted_ptr_inplaceIN5telux3loc34LocationPowerStateResponseCallbackESaIS2_ELN9__gnu_cxx12_Lock_policyE2EE=so_stub_for_libtelux_loc
-Wl,--defsym=_ZTSSt23_Sp_counted_ptr_inplaceIN5telux6common15ListenerManagerESaIS2_ELN9__gnu_cxx12_Lock_policyE2EE=so_stub_for_libtelux_loc
-Wl,--defsym=_ZTSSt23_Sp_counted_ptr_inplaceIN5telux6common18FunctionalCallbackIJhNS1_9ErrorCodeEEEESaIS4_ELN9__gnu_cxx12_Lock_policyE2EE=so_stub_for_libtelux_loc
-Wl,--defsym=_ZTSSt23_Sp_counted_ptr_inplaceIN5telux6common18FunctionalCallbackIJNS0_3loc10XtraStatusENS1_9ErrorCodeEEEESaIS6_ELN9__gnu_cxx12_Lock_policyE2EE=so_stub_for_libtelux_loc
-Wl,--defsym=_ZTSSt23_Sp_counted_ptr_inplaceIN5telux6common18FunctionalCallbackIJNS0_3loc22GnssEnergyConsumedInfoENS1_9ErrorCodeEEEESaIS6_ELN9__gnu_cxx12_Lock_policyE2EE=so_stub_for_libtelux_loc
-Wl,--defsym=_ZTSSt23_Sp_counted_ptr_inplaceIN5telux6common18FunctionalCallbackIJNS0_3loc27RobustLocationConfigurationENS1_9ErrorCodeEEEESaIS6_ELN9__gnu_cxx12_Lock_policyE2EE=so_stub_for_libtelux_loc
-Wl,--defsym=_ZTSSt23_Sp_counted_ptr_inplaceIN5telux6common18FunctionalCallbackIJNS1_13ServiceStatusEEEESaIS4_ELN9__gnu_cxx12_Lock_policyE2EE=so_stub_for_libtelux_loc
-Wl,--defsym=_ZTSSt23_Sp_counted_ptr_inplaceIN5telux6common18FunctionalCallbackIJSt10shared_ptrINS0_3loc17ILocationInfoBaseEEEEESaIS7_ELN9__gnu_cxx12_Lock_policyE2EE=so_stub_for_libtelux_loc
-Wl,--defsym=_ZTSSt23_Sp_counted_ptr_inplaceIN5telux6common18FunctionalCallbackIJSt13unordered_setINS0_3loc21GnssConstellationTypeESt4hashIS5_ESt8equal_toIS5_ESaIS5_EENS1_9ErrorCodeEEEESaISD_ELN9__gnu_cxx12_Lock_policyE2EE=so_stub_for_libtelux_loc
-Wl,--defsym=_ZTSSt23_Sp_counted_ptr_inplaceIN5telux6common18FunctionalCallbackIJtNS1_9ErrorCodeEEEESaIS4_ELN9__gnu_cxx12_Lock_policyE2EE=so_stub_for_libtelux_loc
-Wl,--defsym=_ZTSSt23_Sp_counted_ptr_inplaceINSt13__future_base13_State_baseV2ESaIS1_ELN9__gnu_cxx12_Lock_policyE2EE=so_stub_for_libtelux_loc
-Wl,--defsym=_ZTSSt23_Sp_counted_ptr_inplaceISt6threadSaIS0_ELN9__gnu_cxx12_Lock_policyE2EE=so_stub_for_libtelux_loc
-Wl,--defsym=_ZTSSt24_Weak_result_type_memfunIMN5telux3loc16DgnssManagerImplEFv18QDgnssSourceStatusELb1EE=so_stub_for_libtelux_loc
-Wl,--defsym=_ZTSSt24_Weak_result_type_memfunIMN5telux3loc16LocationResponseEFvN15location_client16LocationResponseEELb1EE=so_stub_for_libtelux_loc
-Wl,--defsym=_ZTSSt24_Weak_result_type_memfunIMN5telux3loc19LocationFactoryImplEFvNS0_6common13ServiceStatusEELb1EE=so_stub_for_libtelux_loc
-Wl,--defsym=_ZTSSt24_Weak_result_type_memfunIMN5telux3loc19LocationManagerImplEFvmELb1EE=so_stub_for_libtelux_loc
-Wl,--defsym=_ZTSSt24_Weak_result_type_memfunIMN5telux3loc19LocationManagerImplEFvmRKNSt7__cxx1112basic_stringIcSt11char_traitsIcESaIcEEEELb1EE=so_stub_for_libtelux_loc
-Wl,--defsym=_ZTSSt24_Weak_result_type_memfunIMN5telux3loc19LocationManagerImplEFvN15location_client19LocOutputEngineTypeEmRKNSt7__cxx1112basic_stringIcSt11char_traitsIcESaIcEEEELb1EE=so_stub_for_libtelux_loc
-Wl,--defsym=_ZTSSt24_Weak_result_type_memfunIMN5telux3loc19LocationManagerImplEFvRKN15location_client12GnssDcReportEELb1EE=so_stub_for_libtelux_loc
-Wl,--defsym=_ZTSSt24_Weak_result_type_memfunIMN5telux3loc19LocationManagerImplEFvRKN15location_client12GnssLocationEELb1EE=so_stub_for_libtelux_loc
-Wl,--defsym=_ZTSSt24_Weak_result_type_memfunIMN5telux3loc19LocationManagerImplEFvRKN15location_client13GnssEphemerisEELb1EE=so_stub_for_libtelux_loc
-Wl,--defsym=_ZTSSt24_Weak_result_type_memfunIMN5telux3loc19LocationManagerImplEFvRKN15location_client16GnssMeasurementsEELb1EE=so_stub_for_libtelux_loc
-Wl,--defsym=_ZTSSt24_Weak_result_type_memfunIMN5telux3loc19LocationManagerImplEFvRKN15location_client18LocationSystemInfoEELb1EE=so_stub_for_libtelux_loc
-Wl,--defsym=_ZTSSt24_Weak_result_type_memfunIMN5telux3loc19LocationManagerImplEFvRKN15location_client22GnssEnergyConsumedInfoEELb1EE=so_stub_for_libtelux_loc
-Wl,--defsym=_ZTSSt24_Weak_result_type_memfunIMN5telux3loc19LocationManagerImplEFvRKN15location_client8GnssDataEELb1EE=so_stub_for_libtelux_loc
-Wl,--defsym=_ZTSSt24_Weak_result_type_memfunIMN5telux3loc19LocationManagerImplEFvRKN15location_client8LocationEELb1EE=so_stub_for_libtelux_loc
-Wl,--defsym=_ZTSSt24_Weak_result_type_memfunIMN5telux3loc19LocationManagerImplEFvRKSt6vectorIhSaIhEEELb1EE=so_stub_for_libtelux_loc
-Wl,--defsym=_ZTSSt24_Weak_result_type_memfunIMN5telux3loc19LocationManagerImplEFvRKSt6vectorIN15location_client12GnssLocationESaIS5_EEELb1EE=so_stub_for_libtelux_loc
-Wl,--defsym=_ZTSSt24_Weak_result_type_memfunIMN5telux3loc19LocationManagerImplEFvRKSt6vectorIN15location_client6GnssSvESaIS5_EEELb1EE=so_stub_for_libtelux_loc
-Wl,--defsym=_ZTSSt24_Weak_result_type_memfunIMN5telux3loc24LocationConfiguratorImplEFvhELb1EE=so_stub_for_libtelux_loc
-Wl,--defsym=_ZTSSt24_Weak_result_type_memfunIMN5telux3loc24LocationConfiguratorImplEFvN15location_client18GnssSignalTypeMaskEELb1EE=so_stub_for_libtelux_loc
-Wl,--defsym=_ZTSSt24_Weak_result_type_memfunIMN5telux3loc24LocationConfiguratorImplEFvN20location_integration17LocConfigTypeEnumENS3_22LocIntegrationResponseEELb1EE=so_stub_for_libtelux_loc
-Wl,--defsym=_ZTSSt24_Weak_result_type_memfunIMN5telux3loc24LocationConfiguratorImplEFvN20location_integration20RobustLocationConfigEELb1EE=so_stub_for_libtelux_loc
-Wl,--defsym=_ZTSSt24_Weak_result_type_memfunIMN5telux3loc24LocationConfiguratorImplEFvN20location_integration23XtraStatusUpdateTriggerERKNS3_10XtraStatusEELb1EE=so_stub_for_libtelux_loc
-Wl,--defsym=_ZTSSt24_Weak_result_type_memfunIMN5telux3loc24LocationConfiguratorImplEFvRKSt13unordered_setIN20location_integration21GnssConstellationTypeESt4hashIS5_ESt8equal_toIS5_ESaIS5_EEELb1EE=so_stub_for_libtelux_loc
-Wl,--defsym=_ZTSSt24_Weak_result_type_memfunIMN5telux3loc24LocationConfiguratorImplEFvtELb1EE=so_stub_for_libtelux_loc
-Wl,--defsym=_ZTSSt24_Weak_result_type_memfunIMN5telux3loc34LocationPowerStateResponseCallbackEFvNS0_6common9ErrorCodeEELb1EE=so_stub_for_libtelux_loc
-Wl,--defsym=_ZTSSt5_BindIFMN5telux3loc16DgnssManagerImplEFv18QDgnssSourceStatusEPS2_St12_PlaceholderILi1EEEE=so_stub_for_libtelux_loc
-Wl,--defsym=_ZTSSt5_BindIFMN5telux3loc16LocationResponseEFvN15location_client16LocationResponseEESt10shared_ptrIS2_ESt12_PlaceholderILi1EEEE=so_stub_for_libtelux_loc
-Wl,--defsym=_ZTSSt5_BindIFMN5telux3loc19LocationFactoryImplEFvNS0_6common13ServiceStatusEEPS2_St12_PlaceholderILi1EEEE=so_stub_for_libtelux_loc
-Wl,--defsym=_ZTSSt5_BindIFMN5telux3loc19LocationManagerImplEFvmEPS2_St12_PlaceholderILi1EEEE=so_stub_for_libtelux_loc
-Wl,--defsym=_ZTSSt5_BindIFMN5telux3loc19LocationManagerImplEFvmRKNSt7__cxx1112basic_stringIcSt11char_traitsIcESaIcEEEEPS2_St12_PlaceholderILi1EESE_ILi2EEEE=so_stub_for_libtelux_loc
-Wl,--defsym=_ZTSSt5_BindIFMN5telux3loc19LocationManagerImplEFvN15location_client19LocOutputEngineTypeEmRKNSt7__cxx1112basic_stringIcSt11char_traitsIcESaIcEEEEPS2_St12_PlaceholderILi1EESG_ILi2EESG_ILi3EEEE=so_stub_for_libtelux_loc
-Wl,--defsym=_ZTSSt5_BindIFMN5telux3loc19LocationManagerImplEFvRKN15location_client12GnssDcReportEEPS2_St12_PlaceholderILi1EEEE=so_stub_for_libtelux_loc
-Wl,--defsym=_ZTSSt5_BindIFMN5telux3loc19LocationManagerImplEFvRKN15location_client12GnssLocationEEPS2_St12_PlaceholderILi1EEEE=so_stub_for_libtelux_loc
-Wl,--defsym=_ZTSSt5_BindIFMN5telux3loc19LocationManagerImplEFvRKN15location_client13GnssEphemerisEEPS2_St12_PlaceholderILi1EEEE=so_stub_for_libtelux_loc
-Wl,--defsym=_ZTSSt5_BindIFMN5telux3loc19LocationManagerImplEFvRKN15location_client16GnssMeasurementsEEPS2_St12_PlaceholderILi1EEEE=so_stub_for_libtelux_loc
-Wl,--defsym=_ZTSSt5_BindIFMN5telux3loc19LocationManagerImplEFvRKN15location_client18LocationSystemInfoEEPS2_St12_PlaceholderILi1EEEE=so_stub_for_libtelux_loc
-Wl,--defsym=_ZTSSt5_BindIFMN5telux3loc19LocationManagerImplEFvRKN15location_client22GnssEnergyConsumedInfoEEPS2_St12_PlaceholderILi1EEEE=so_stub_for_libtelux_loc
-Wl,--defsym=_ZTSSt5_BindIFMN5telux3loc19LocationManagerImplEFvRKN15location_client8GnssDataEEPS2_St12_PlaceholderILi1EEEE=so_stub_for_libtelux_loc
-Wl,--defsym=_ZTSSt5_BindIFMN5telux3loc19LocationManagerImplEFvRKN15location_client8LocationEEPS2_St12_PlaceholderILi1EEEE=so_stub_for_libtelux_loc
-Wl,--defsym=_ZTSSt5_BindIFMN5telux3loc19LocationManagerImplEFvRKSt6vectorIhSaIhEEEPS2_St12_PlaceholderILi1EEEE=so_stub_for_libtelux_loc
-Wl,--defsym=_ZTSSt5_BindIFMN5telux3loc19LocationManagerImplEFvRKSt6vectorIN15location_client12GnssLocationESaIS5_EEEPS2_St12_PlaceholderILi1EEEE=so_stub_for_libtelux_loc
-Wl,--defsym=_ZTSSt5_BindIFMN5telux3loc19LocationManagerImplEFvRKSt6vectorIN15location_client6GnssSvESaIS5_EEEPS2_St12_PlaceholderILi1EEEE=so_stub_for_libtelux_loc
-Wl,--defsym=_ZTSSt5_BindIFMN5telux3loc24LocationConfiguratorImplEFvhEPS2_St12_PlaceholderILi1EEEE=so_stub_for_libtelux_loc
-Wl,--defsym=_ZTSSt5_BindIFMN5telux3loc24LocationConfiguratorImplEFvN15location_client18GnssSignalTypeMaskEEPS2_St12_PlaceholderILi1EEEE=so_stub_for_libtelux_loc
-Wl,--defsym=_ZTSSt5_BindIFMN5telux3loc24LocationConfiguratorImplEFvN20location_integration17LocConfigTypeEnumENS3_22LocIntegrationResponseEEPS2_St12_PlaceholderILi1EES9_ILi2EEEE=so_stub_for_libtelux_loc
-Wl,--defsym=_ZTSSt5_BindIFMN5telux3loc24LocationConfiguratorImplEFvN20location_integration20RobustLocationConfigEEPS2_St12_PlaceholderILi1EEEE=so_stub_for_libtelux_loc
-Wl,--defsym=_ZTSSt5_BindIFMN5telux3loc24LocationConfiguratorImplEFvN20location_integration23XtraStatusUpdateTriggerERKNS3_10XtraStatusEEPS2_St12_PlaceholderILi1EESB_ILi2EEEE=so_stub_for_libtelux_loc
-Wl,--defsym=_ZTSSt5_BindIFMN5telux3loc24LocationConfiguratorImplEFvRKSt13unordered_setIN20location_integration21GnssConstellationTypeESt4hashIS5_ESt8equal_toIS5_ESaIS5_EEEPS2_St12_PlaceholderILi1EEEE=so_stub_for_libtelux_loc
-Wl,--defsym=_ZTSSt5_BindIFMN5telux3loc24LocationConfiguratorImplEFvtEPS2_St12_PlaceholderILi1EEEE=so_stub_for_libtelux_loc
-Wl,--defsym=_ZTSSt5_BindIFMN5telux3loc34LocationPowerStateResponseCallbackEFvNS0_6common9ErrorCodeEESt10shared_ptrIS2_ESt12_PlaceholderILi1EEEE=so_stub_for_libtelux_loc
-Wl,--defsym=_ZTVN5telux3loc10SVInfoImplE=so_stub_for_libtelux_loc
-Wl,--defsym=_ZTVN5telux3loc14GnssSignalInfoE=so_stub_for_libtelux_loc
-Wl,--defsym=_ZTVN5telux3loc14GnssSVInfoImplE=so_stub_for_libtelux_loc
-Wl,--defsym=_ZTVN5telux3loc15LocationFactoryE=so_stub_for_libtelux_loc
-Wl,--defsym=_ZTVN5telux3loc16DgnssManagerImplE=so_stub_for_libtelux_loc
-Wl,--defsym=_ZTVN5telux3loc18LocationInfoImplExE=so_stub_for_libtelux_loc
-Wl,--defsym=_ZTVN5telux3loc19LocationFactoryImplE=so_stub_for_libtelux_loc
-Wl,--defsym=_ZTVN5telux3loc19LocationManagerImplE=so_stub_for_libtelux_loc
-Wl,--defsym=_ZTVN5telux3loc21LocationInfoImplBasicE=so_stub_for_libtelux_loc
-Wl,--defsym=_ZTVN5telux3loc24LocationConfiguratorImplE=so_stub_for_libtelux_loc
-Wl,--defsym=_ZTVN5telux6common18FunctionalCallbackIJhNS0_9ErrorCodeEEEE=so_stub_for_libtelux_loc
-Wl,--defsym=_ZTVN5telux6common18FunctionalCallbackIJNS0_13ServiceStatusEEEE=so_stub_for_libtelux_loc
-Wl,--defsym=_ZTVN5telux6common18FunctionalCallbackIJNS_3loc10XtraStatusENS0_9ErrorCodeEEEE=so_stub_for_libtelux_loc
-Wl,--defsym=_ZTVN5telux6common18FunctionalCallbackIJNS_3loc22GnssEnergyConsumedInfoENS0_9ErrorCodeEEEE=so_stub_for_libtelux_loc
-Wl,--defsym=_ZTVN5telux6common18FunctionalCallbackIJNS_3loc27RobustLocationConfigurationENS0_9ErrorCodeEEEE=so_stub_for_libtelux_loc
-Wl,--defsym=_ZTVN5telux6common18FunctionalCallbackIJSt10shared_ptrINS_3loc17ILocationInfoBaseEEEEE=so_stub_for_libtelux_loc
-Wl,--defsym=_ZTVN5telux6common18FunctionalCallbackIJSt13unordered_setINS_3loc21GnssConstellationTypeESt4hashIS4_ESt8equal_toIS4_ESaIS4_EENS0_9ErrorCodeEEEE=so_stub_for_libtelux_loc
-Wl,--defsym=_ZTVN5telux6common18FunctionalCallbackIJtNS0_9ErrorCodeEEEE=so_stub_for_libtelux_loc
-Wl,--defsym=_ZTVNSt13__future_base13_State_baseV2E=so_stub_for_libtelux_loc
-Wl,--defsym=_ZTVNSt13__future_base21_Async_state_commonV2E=so_stub_for_libtelux_loc
-Wl,--defsym=_ZTVNSt13__future_base7_ResultIbEE=so_stub_for_libtelux_loc
-Wl,--defsym=_ZTVNSt13__future_base7_ResultIN15location_client16LocationResponseEEE=so_stub_for_libtelux_loc
-Wl,--defsym=_ZTVNSt13__future_base7_ResultIN5telux6common9ErrorCodeEEE=so_stub_for_libtelux_loc
-Wl,--defsym=_ZTVNSt13__future_base7_ResultIvEE=so_stub_for_libtelux_loc
-Wl,--defsym=_ZTVNSt6thread11_State_implINS_8_InvokerISt5tupleIJMN5telux6common14AsyncTaskQueueIvEEFvvEPS6_EEEEEE=so_stub_for_libtelux_loc
-Wl,--defsym=_ZTVNSt6thread11_State_implINS_8_InvokerISt5tupleIJSt8functionIFvN5telux6common13ServiceStatusEEES6_EEEEEE=so_stub_for_libtelux_loc
-Wl,--defsym=_ZTVSt23_Sp_counted_ptr_inplaceIN15location_client17LocationClientApiESaIS1_ELN9__gnu_cxx12_Lock_policyE2EE=so_stub_for_libtelux_loc
-Wl,--defsym=_ZTVSt23_Sp_counted_ptr_inplaceIN20location_integration22LocationIntegrationApiESaIS1_ELN9__gnu_cxx12_Lock_policyE2EE=so_stub_for_libtelux_loc
-Wl,--defsym=_ZTVSt23_Sp_counted_ptr_inplaceIN5telux3loc10SVInfoImplESaIS2_ELN9__gnu_cxx12_Lock_policyE2EE=so_stub_for_libtelux_loc
-Wl,--defsym=_ZTVSt23_Sp_counted_ptr_inplaceIN5telux3loc10TimeWindowESaIS2_ELN9__gnu_cxx12_Lock_policyE2EE=so_stub_for_libtelux_loc
-Wl,--defsym=_ZTVSt23_Sp_counted_ptr_inplaceIN5telux3loc14GnssSignalInfoESaIS2_ELN9__gnu_cxx12_Lock_policyE2EE=so_stub_for_libtelux_loc
-Wl,--defsym=_ZTVSt23_Sp_counted_ptr_inplaceIN5telux3loc14GnssSVInfoImplESaIS2_ELN9__gnu_cxx12_Lock_policyE2EE=so_stub_for_libtelux_loc
-Wl,--defsym=_ZTVSt23_Sp_counted_ptr_inplaceIN5telux3loc16DgnssManagerImplESaIS2_ELN9__gnu_cxx12_Lock_policyE2EE=so_stub_for_libtelux_loc
-Wl,--defsym=_ZTVSt23_Sp_counted_ptr_inplaceIN5telux3loc16LocationResponseESaIS2_ELN9__gnu_cxx12_Lock_policyE2EE=so_stub_for_libtelux_loc
-Wl,--defsym=_ZTVSt23_Sp_counted_ptr_inplaceIN5telux3loc18LocationInfoImplExESaIS2_ELN9__gnu_cxx12_Lock_policyE2EE=so_stub_for_libtelux_loc
-Wl,--defsym=_ZTVSt23_Sp_counted_ptr_inplaceIN5telux3loc19LocationManagerImplESaIS2_ELN9__gnu_cxx12_Lock_policyE2EE=so_stub_for_libtelux_loc
-Wl,--defsym=_ZTVSt23_Sp_counted_ptr_inplaceIN5telux3loc20LocationReportFilterESaIS2_ELN9__gnu_cxx12_Lock_policyE2EE=so_stub_for_libtelux_loc
-Wl,--defsym=_ZTVSt23_Sp_counted_ptr_inplaceIN5telux3loc21LocationInfoImplBasicESaIS2_ELN9__gnu_cxx12_Lock_policyE2EE=so_stub_for_libtelux_loc
-Wl,--defsym=_ZTVSt23_Sp_counted_ptr_inplaceIN5telux3loc24LocationConfiguratorImplESaIS2_ELN9__gnu_cxx12_Lock_policyE2EE=so_stub_for_libtelux_loc
-Wl,--defsym=_ZTVSt23_Sp_counted_ptr_inplaceIN5telux3loc34LocationPowerStateResponseCallbackESaIS2_ELN9__gnu_cxx12_Lock_policyE2EE=so_stub_for_libtelux_loc
-Wl,--defsym=_ZTVSt23_Sp_counted_ptr_inplaceIN5telux6common15ListenerManagerESaIS2_ELN9__gnu_cxx12_Lock_policyE2EE=so_stub_for_libtelux_loc
-Wl,--defsym=_ZTVSt23_Sp_counted_ptr_inplaceIN5telux6common18FunctionalCallbackIJhNS1_9ErrorCodeEEEESaIS4_ELN9__gnu_cxx12_Lock_policyE2EE=so_stub_for_libtelux_loc
-Wl,--defsym=_ZTVSt23_Sp_counted_ptr_inplaceIN5telux6common18FunctionalCallbackIJNS0_3loc10XtraStatusENS1_9ErrorCodeEEEESaIS6_ELN9__gnu_cxx12_Lock_policyE2EE=so_stub_for_libtelux_loc
-Wl,--defsym=_ZTVSt23_Sp_counted_ptr_inplaceIN5telux6common18FunctionalCallbackIJNS0_3loc22GnssEnergyConsumedInfoENS1_9ErrorCodeEEEESaIS6_ELN9__gnu_cxx12_Lock_policyE2EE=so_stub_for_libtelux_loc
-Wl,--defsym=_ZTVSt23_Sp_counted_ptr_inplaceIN5telux6common18FunctionalCallbackIJNS0_3loc27RobustLocationConfigurationENS1_9ErrorCodeEEEESaIS6_ELN9__gnu_cxx12_Lock_policyE2EE=so_stub_for_libtelux_loc
-Wl,--defsym=_ZTVSt23_Sp_counted_ptr_inplaceIN5telux6common18FunctionalCallbackIJNS1_13ServiceStatusEEEESaIS4_ELN9__gnu_cxx12_Lock_policyE2EE=so_stub_for_libtelux_loc
-Wl,--defsym=_ZTVSt23_Sp_counted_ptr_inplaceIN5telux6common18FunctionalCallbackIJSt10shared_ptrINS0_3loc17ILocationInfoBaseEEEEESaIS7_ELN9__gnu_cxx12_Lock_policyE2EE=so_stub_for_libtelux_loc
-Wl,--defsym=_ZTVSt23_Sp_counted_ptr_inplaceIN5telux6common18FunctionalCallbackIJSt13unordered_setINS0_3loc21GnssConstellationTypeESt4hashIS5_ESt8equal_toIS5_ESaIS5_EENS1_9ErrorCodeEEEESaISD_ELN9__gnu_cxx12_Lock_policyE2EE=so_stub_for_libtelux_loc
-Wl,--defsym=_ZTVSt23_Sp_counted_ptr_inplaceIN5telux6common18FunctionalCallbackIJtNS1_9ErrorCodeEEEESaIS4_ELN9__gnu_cxx12_Lock_policyE2EE=so_stub_for_libtelux_loc
-Wl,--defsym=_ZTVSt23_Sp_counted_ptr_inplaceINSt13__future_base13_State_baseV2ESaIS1_ELN9__gnu_cxx12_Lock_policyE2EE=so_stub_for_libtelux_loc
-Wl,--defsym=_ZTVSt23_Sp_counted_ptr_inplaceISt6threadSaIS0_ELN9__gnu_cxx12_Lock_policyE2EE=so_stub_for_libtelux_loc
-Wl,--defsym=_ZZNSt19_Sp_make_shared_tag5_S_tiEvE5__tag=so_stub_for_libtelux_loc
-Wl,--defsym=_ZZNSt9once_flag18_Prepare_executionC4IZSt9call_onceIMNSt13__future_base13_State_baseV2EFvPSt8functionIFSt10unique_ptrINS3_12_Result_baseENS7_8_DeleterEEvEEPbEJPS4_SC_SD_EEvRS_OT_DpOT0_EUlvE_EERSI_ENUlvE_4_FUNEv=so_stub_for_libtelux_loc
-Wl,--defsym=_ZZNSt9once_flag18_Prepare_executionC4IZSt9call_onceIMSt6threadFvvEJPS3_EEvRS_OT_DpOT0_EUlvE_EERS8_ENUlvE_4_FUNEv=so_stub_for_libtelux_loc
