-Wl,--defsym=__gcov_error_file=so_stub_for_libtelux_sec_con
-Wl,--defsym=__gcov_kvp_dynamic_pool=so_stub_for_libtelux_sec_con
-Wl,--defsym=__gcov_kvp_dynamic_pool_index=so_stub_for_libtelux_sec_con
-Wl,--defsym=__gcov_kvp_dynamic_pool_size=so_stub_for_libtelux_sec_con
-Wl,--defsym=__gcov_master=so_stub_for_libtelux_sec_con
-Wl,--defsym=__gcov_var=so_stub_for_libtelux_sec_con
-Wl,--defsym=mangle_path=so_stub_for_libtelux_sec_con
-Wl,--defsym=_ZN5telux3qmi15IQmiSecListener29onSecurityServiceStatusChangeENS_6common13ServiceStatusE=so_stub_for_libtelux_sec_con
-Wl,--defsym=_ZN5telux3sec19IWiFiReportListener11isTrustedAPENS0_6ApInfoERb=so_stub_for_libtelux_sec_con
-Wl,--defsym=_ZN5telux3sec19IWiFiReportListener17onReportAvailableENS0_18WiFiSecurityReportE=so_stub_for_libtelux_sec_con
-Wl,--defsym=_ZN5telux3sec19IWiFiReportListener24onDeauthenticationAttackENS0_20DeauthenticationInfoE=so_stub_for_libtelux_sec_con
-Wl,--defsym=_ZN5telux3sec19IWiFiReportListenerD0Ev=so_stub_for_libtelux_sec_con
-Wl,--defsym=_ZN5telux3sec19IWiFiReportListenerD1Ev=so_stub_for_libtelux_sec_con
-Wl,--defsym=_ZN5telux3sec19IWiFiReportListenerD2Ev=so_stub_for_libtelux_sec_con
-Wl,--defsym=_ZN5telux3sec22CellularSecurityReportC1ERKS1_=so_stub_for_libtelux_sec_con
-Wl,--defsym=_ZN5telux3sec22CellularSecurityReportC2ERKS1_=so_stub_for_libtelux_sec_con
-Wl,--defsym=_ZN5telux3sec22CellularSecurityReportD1Ev=so_stub_for_libtelux_sec_con
-Wl,--defsym=_ZN5telux3sec22CellularSecurityReportD2Ev=so_stub_for_libtelux_sec_con
-Wl,--defsym=_ZN5telux3sec23ConnectionSecurityUtils19ccsToTeluxErrorCodeE26ssg_connsec_client_error_t=so_stub_for_libtelux_sec_con
-Wl,--defsym=_ZN5telux3sec23WiFiSecurityManagerImpl11isTrustedAPENS0_6ApInfoERb=so_stub_for_libtelux_sec_con
-Wl,--defsym=_ZN5telux3sec23WiFiSecurityManagerImpl15operationGuard_E=so_stub_for_libtelux_sec_con
-Wl,--defsym=_ZN5telux3sec23WiFiSecurityManagerImpl16getServiceStatusEv=so_stub_for_libtelux_sec_con
-Wl,--defsym=_ZN5telux3sec23WiFiSecurityManagerImpl16getTrustedApListERSt6vectorINS0_6ApInfoESaIS3_EE=so_stub_for_libtelux_sec_con
-Wl,--defsym=_ZN5telux3sec23WiFiSecurityManagerImpl16registerListenerESt8weak_ptrINS0_19IWiFiReportListenerEE=so_stub_for_libtelux_sec_con
-Wl,--defsym=_ZN5telux3sec23WiFiSecurityManagerImpl16registerListenerESt8weak_ptrINS_6common22IServiceStatusListenerEE=so_stub_for_libtelux_sec_con
-Wl,--defsym=_ZN5telux3sec23WiFiSecurityManagerImpl16setServiceStatusENS_6common13ServiceStatusE=so_stub_for_libtelux_sec_con
-Wl,--defsym=_ZN5telux3sec23WiFiSecurityManagerImpl17onReportAvailableENS0_18WiFiSecurityReportE=so_stub_for_libtelux_sec_con
-Wl,--defsym=_ZN5telux3sec23WiFiSecurityManagerImpl18deregisterListenerESt8weak_ptrINS0_19IWiFiReportListenerEE=so_stub_for_libtelux_sec_con
-Wl,--defsym=_ZN5telux3sec23WiFiSecurityManagerImpl18deregisterListenerESt8weak_ptrINS_6common22IServiceStatusListenerEE=so_stub_for_libtelux_sec_con
-Wl,--defsym=_ZN5telux3sec23WiFiSecurityManagerImpl20convertServiceStatusEv=so_stub_for_libtelux_sec_con
-Wl,--defsym=_ZN5telux3sec23WiFiSecurityManagerImpl23removeApFromTrustedListENS0_6ApInfoE=so_stub_for_libtelux_sec_con
-Wl,--defsym=_ZN5telux3sec23WiFiSecurityManagerImpl24onDeauthenticationAttackENS0_20DeauthenticationInfoE=so_stub_for_libtelux_sec_con
-Wl,--defsym=_ZN5telux3sec23WiFiSecurityManagerImpl29onSecurityServiceStatusChangeENS_6common13ServiceStatusE=so_stub_for_libtelux_sec_con
-Wl,--defsym=_ZN5telux3sec23WiFiSecurityManagerImpl4initESt8functionIFvNS_6common13ServiceStatusEEE=so_stub_for_libtelux_sec_con
-Wl,--defsym=_ZN5telux3sec23WiFiSecurityManagerImpl7cleanupEv=so_stub_for_libtelux_sec_con
-Wl,--defsym=_ZN5telux3sec23WiFiSecurityManagerImpl8initSyncEv=so_stub_for_libtelux_sec_con
-Wl,--defsym=_ZN5telux3sec23WiFiSecurityManagerImplC1Ev=so_stub_for_libtelux_sec_con
-Wl,--defsym=_ZN5telux3sec23WiFiSecurityManagerImplC2Ev=so_stub_for_libtelux_sec_con
-Wl,--defsym=_ZN5telux3sec23WiFiSecurityManagerImplD0Ev=so_stub_for_libtelux_sec_con
-Wl,--defsym=_ZN5telux3sec23WiFiSecurityManagerImplD1Ev=so_stub_for_libtelux_sec_con
-Wl,--defsym=_ZN5telux3sec23WiFiSecurityManagerImplD2Ev=so_stub_for_libtelux_sec_con
-Wl,--defsym=_ZN5telux3sec25ConnectionSecurityFactory11getInstanceEv=so_stub_for_libtelux_sec_con
-Wl,--defsym=_ZN5telux3sec25ConnectionSecurityFactoryC1Ev=so_stub_for_libtelux_sec_con
-Wl,--defsym=_ZN5telux3sec25ConnectionSecurityFactoryC2Ev=so_stub_for_libtelux_sec_con
-Wl,--defsym=_ZN5telux3sec25ConnectionSecurityFactoryD0Ev=so_stub_for_libtelux_sec_con
-Wl,--defsym=_ZN5telux3sec25ConnectionSecurityFactoryD1Ev=so_stub_for_libtelux_sec_con
-Wl,--defsym=_ZN5telux3sec25ConnectionSecurityFactoryD2Ev=so_stub_for_libtelux_sec_con
-Wl,--defsym=_ZN5telux3sec27CellularSecurityManagerImpl10ssrHandlerE14ssgccs_state_tPv=so_stub_for_libtelux_sec_con
-Wl,--defsym=_ZN5telux3sec27CellularSecurityManagerImpl11populateRATE10radio_enumRNS0_7RATTypeE=so_stub_for_libtelux_sec_con
-Wl,--defsym=_ZN5telux3sec27CellularSecurityManagerImpl12reconnectCCSEv=so_stub_for_libtelux_sec_con
-Wl,--defsym=_ZN5telux3sec27CellularSecurityManagerImpl14populatePolicyEjRNS0_10ActionTypeE=so_stub_for_libtelux_sec_con
-Wl,--defsym=_ZN5telux3sec27CellularSecurityManagerImpl15operationGuard_E=so_stub_for_libtelux_sec_con
-Wl,--defsym=_ZN5telux3sec27CellularSecurityManagerImpl16rawReportHandlerENSt7__cxx1112basic_stringIcSt11char_traitsIcESaIcEEEPv=so_stub_for_libtelux_sec_con
-Wl,--defsym=_ZN5telux3sec27CellularSecurityManagerImpl16registerListenerESt8weak_ptrINS0_27ICellularScanReportListenerEE=so_stub_for_libtelux_sec_con
-Wl,--defsym=_ZN5telux3sec27CellularSecurityManagerImpl18deRegisterListenerESt8weak_ptrINS0_27ICellularScanReportListenerEE=so_stub_for_libtelux_sec_con
-Wl,--defsym=_ZN5telux3sec27CellularSecurityManagerImpl19populateThreatTypesEjRSt6vectorINS0_18CellularThreatTypeESaIS3_EE=so_stub_for_libtelux_sec_con
-Wl,--defsym=_ZN5telux3sec27CellularSecurityManagerImpl22getCurrentSessionStatsERNS0_12SessionStatsE=so_stub_for_libtelux_sec_con
-Wl,--defsym=_ZN5telux3sec27CellularSecurityManagerImpl23deliverReportOrSSREventEbNS_6common13ServiceStatusENS0_22CellularSecurityReportENS0_15EnvironmentInfoEPv=so_stub_for_libtelux_sec_con
-Wl,--defsym=_ZN5telux3sec27CellularSecurityManagerImpl24populateEnvironmentStateE19environmental_stateRNS0_16EnvironmentStateE=so_stub_for_libtelux_sec_con
-Wl,--defsym=_ZN5telux3sec27CellularSecurityManagerImpl8exitNow_E=so_stub_for_libtelux_sec_con
-Wl,--defsym=_ZN5telux3sec27CellularSecurityManagerImplC1Ev=so_stub_for_libtelux_sec_con
-Wl,--defsym=_ZN5telux3sec27CellularSecurityManagerImplC2Ev=so_stub_for_libtelux_sec_con
-Wl,--defsym=_ZN5telux3sec27CellularSecurityManagerImplD0Ev=so_stub_for_libtelux_sec_con
-Wl,--defsym=_ZN5telux3sec27CellularSecurityManagerImplD1Ev=so_stub_for_libtelux_sec_con
-Wl,--defsym=_ZN5telux3sec27CellularSecurityManagerImplD2Ev=so_stub_for_libtelux_sec_con
-Wl,--defsym=_ZN5telux3sec29ConnectionSecurityFactoryImpl11getInstanceEv=so_stub_for_libtelux_sec_con
-Wl,--defsym=_ZN5telux3sec29ConnectionSecurityFactoryImpl22getWiFiSecurityManagerERNS_6common9ErrorCodeE=so_stub_for_libtelux_sec_con
-Wl,--defsym=_ZN5telux3sec29ConnectionSecurityFactoryImpl22getWiFiSecurityManagerESt8functionIFvNS_6common13ServiceStatusEEE=so_stub_for_libtelux_sec_con
-Wl,--defsym=_ZN5telux3sec29ConnectionSecurityFactoryImpl26getCellularSecurityManagerERNS_6common9ErrorCodeE=so_stub_for_libtelux_sec_con
-Wl,--defsym=_ZN5telux3sec29ConnectionSecurityFactoryImplC1Ev=so_stub_for_libtelux_sec_con
-Wl,--defsym=_ZN5telux3sec29ConnectionSecurityFactoryImplC2Ev=so_stub_for_libtelux_sec_con
-Wl,--defsym=_ZN5telux3sec29ConnectionSecurityFactoryImplD0Ev=so_stub_for_libtelux_sec_con
-Wl,--defsym=_ZN5telux3sec29ConnectionSecurityFactoryImplD1Ev=so_stub_for_libtelux_sec_con
-Wl,--defsym=_ZN5telux3sec29ConnectionSecurityFactoryImplD2Ev=so_stub_for_libtelux_sec_con
-Wl,--defsym=_ZN5telux3sec6ApInfoC1ERKS1_=so_stub_for_libtelux_sec_con
-Wl,--defsym=_ZN5telux3sec6ApInfoC2ERKS1_=so_stub_for_libtelux_sec_con
-Wl,--defsym=_ZN5telux3sec6ApInfoD1Ev=so_stub_for_libtelux_sec_con
-Wl,--defsym=_ZN5telux3sec6ApInfoD2Ev=so_stub_for_libtelux_sec_con
-Wl,--defsym=_ZN5telux6common13FactoryHelper10getManagerINS_3sec20IWiFiSecurityManagerEEESt10shared_ptrIT_ENSt7__cxx1112basic_stringIcSt11char_traitsIcESaIcEEERSt8weak_ptrIS6_ERSt6vectorISt8functionIFvNS0_13ServiceStatusEEESaISL_EESL_SI_IFS7_SL_EE=so_stub_for_libtelux_sec_con
-Wl,--defsym=_ZN5telux6common13FactoryHelper20initCompleteNotifierENSt7__cxx1112basic_stringIcSt11char_traitsIcESaIcEEERSt6vectorISt8functionIFvNS0_13ServiceStatusEEESaISC_EESA_=so_stub_for_libtelux_sec_con
-Wl,--defsym=_ZN5telux6common14AsyncTaskQueueIvE11executeTaskEv=so_stub_for_libtelux_sec_con
-Wl,--defsym=_ZN5telux6common14AsyncTaskQueueIvE14purgeCompletedEv=so_stub_for_libtelux_sec_con
-Wl,--defsym=_ZN5telux6common14AsyncTaskQueueIvE3addERSt13shared_futureIvE=so_stub_for_libtelux_sec_con
-Wl,--defsym=_ZN5telux6common14AsyncTaskQueueIvE8shutdownEb=so_stub_for_libtelux_sec_con
-Wl,--defsym=_ZN5telux6common14AsyncTaskQueueIvEC1Ev=so_stub_for_libtelux_sec_con
-Wl,--defsym=_ZN5telux6common14AsyncTaskQueueIvEC2Ev=so_stub_for_libtelux_sec_con
-Wl,--defsym=_ZN5telux6common14AsyncTaskQueueIvED1Ev=so_stub_for_libtelux_sec_con
-Wl,--defsym=_ZN5telux6common14AsyncTaskQueueIvED2Ev=so_stub_for_libtelux_sec_con
-Wl,--defsym=_ZN5telux6common15ListenerManager16registerListenerESt8weak_ptrINS0_12ISDKListenerEE=so_stub_for_libtelux_sec_con
-Wl,--defsym=_ZN5telux6common15ListenerManager18deRegisterListenerESt8weak_ptrINS0_12ISDKListenerEE=so_stub_for_libtelux_sec_con
-Wl,--defsym=_ZN5telux6common15ListenerManager21getAvailableListenersERSt6vectorISt8weak_ptrINS0_12ISDKListenerEESaIS5_EE=so_stub_for_libtelux_sec_con
-Wl,--defsym=_ZN5telux6common15ListenerManager5purgeEv=so_stub_for_libtelux_sec_con
-Wl,--defsym=_ZN5telux6common15ListenerManager7cleanupEv=so_stub_for_libtelux_sec_con
-Wl,--defsym=_ZN5telux6common15ListenerManagerC1Ev=so_stub_for_libtelux_sec_con
-Wl,--defsym=_ZN5telux6common15ListenerManagerC2Ev=so_stub_for_libtelux_sec_con
-Wl,--defsym=_ZN5telux6common15ListenerManagerD1Ev=so_stub_for_libtelux_sec_con
-Wl,--defsym=_ZN5telux6common15ListenerManagerD2Ev=so_stub_for_libtelux_sec_con
-Wl,--defsym=_ZN5telux6common3Log10logMessageIJNSt7__cxx1112basic_stringIcSt11char_traitsIcESaIcEEEPKcmSA_PNS_3sec20IWiFiSecurityManagerESA_iEEEvNS0_8LogLevelERKS8_SG_RKiDpT_=so_stub_for_libtelux_sec_con
-Wl,--defsym=_ZN5telux6common3Log10logMessageIJNSt7__cxx1112basic_stringIcSt11char_traitsIcESaIcEEEPKcPNS_3sec20IWiFiSecurityManagerEEEEvNS0_8LogLevelERKS8_SG_RKiDpT_=so_stub_for_libtelux_sec_con
-Wl,--defsym=_ZN5telux6common3Log10logMessageIJNSt7__cxx1112basic_stringIcSt11char_traitsIcESaIcEEEPKcPNS_3sec20IWiFiSecurityManagerESA_EEEvNS0_8LogLevelERKS8_SG_RKiDpT_=so_stub_for_libtelux_sec_con
-Wl,--defsym=_ZN5telux6common3Log10logMessageIJNSt7__cxx1112basic_stringIcSt11char_traitsIcESaIcEEEPKcPNS_3sec20IWiFiSecurityManagerESA_iEEEvNS0_8LogLevelERKS8_SG_RKiDpT_=so_stub_for_libtelux_sec_con
-Wl,--defsym=_ZN5telux6common3Log10logMessageIJPKcEEEvNS0_8LogLevelERKNSt7__cxx1112basic_stringIcSt11char_traitsIcESaIcEEESD_RKiDpT_=so_stub_for_libtelux_sec_con
-Wl,--defsym=_ZN5telux6common3Log10logMessageIJPKcmEEEvNS0_8LogLevelERKNSt7__cxx1112basic_stringIcSt11char_traitsIcESaIcEEESD_RKiDpT_=so_stub_for_libtelux_sec_con
-Wl,--defsym=_ZN5telux6common3Log10logMessageIJPKcNSt7__cxx1112basic_stringIcSt11char_traitsIcESaIcEEES4_PNS_3sec20IWiFiSecurityManagerEEEEvNS0_8LogLevelERKSA_SG_RKiDpT_=so_stub_for_libtelux_sec_con
-Wl,--defsym=_ZN5telux6common3Log10logMessageIJPKcS4_bEEEvNS0_8LogLevelERKNSt7__cxx1112basic_stringIcSt11char_traitsIcESaIcEEESD_RKiDpT_=so_stub_for_libtelux_sec_con
-Wl,--defsym=_ZN5telux6common3Log10logMessageIJPKcS4_EEEvNS0_8LogLevelERKNSt7__cxx1112basic_stringIcSt11char_traitsIcESaIcEEESD_RKiDpT_=so_stub_for_libtelux_sec_con
-Wl,--defsym=_ZN5telux6common3Log10logMessageIJPKcS4_iEEEvNS0_8LogLevelERKNSt7__cxx1112basic_stringIcSt11char_traitsIcESaIcEEESD_RKiDpT_=so_stub_for_libtelux_sec_con
-Wl,--defsym=_ZN5telux6common3Log10logMessageIJPKcS4_mEEEvNS0_8LogLevelERKNSt7__cxx1112basic_stringIcSt11char_traitsIcESaIcEEESD_RKiDpT_=so_stub_for_libtelux_sec_con
-Wl,--defsym=_ZN5telux6common3Log10logMessageIJPKcS4_NSt7__cxx1112basic_stringIcSt11char_traitsIcESaIcEEES4_iS4_PSt6vectorISt8functionIFvNS0_13ServiceStatusEEESaISF_EEEEEvNS0_8LogLevelERKSA_SL_RKiDpT_=so_stub_for_libtelux_sec_con
-Wl,--defsym=_ZN5telux6common3Log10logMessageIJPKcS4_NSt7__cxx1112basic_stringIcSt11char_traitsIcESaIcEEES4_PNS_3sec20IWiFiSecurityManagerEEEEvNS0_8LogLevelERKSA_SG_RKiDpT_=so_stub_for_libtelux_sec_con
-Wl,--defsym=_ZN5telux6common3Log10logMessageIJPKcS4_NSt7__cxx1112basic_stringIcSt11char_traitsIcESaIcEEES4_S4_EEEvNS0_8LogLevelERKSA_SD_RKiDpT_=so_stub_for_libtelux_sec_con
-Wl,--defsym=_ZN5telux6common3Log10logMessageIJPKcS4_PSt8functionIFvNS0_13ServiceStatusEEEEEEvNS0_8LogLevelERKNSt7__cxx1112basic_stringIcSt11char_traitsIcESaIcEEESI_RKiDpT_=so_stub_for_libtelux_sec_con
-Wl,--defsym=_ZN5telux6common3Log10logMessageIJPKcS4_S4_S4_PSt6vectorISt8functionIFvNS0_13ServiceStatusEEESaIS9_EEEEEvNS0_8LogLevelERKNSt7__cxx1112basic_stringIcSt11char_traitsIcESaIcEEESL_RKiDpT_=so_stub_for_libtelux_sec_con
-Wl,--defsym=_ZN5telux6common3Log16constructMessageINSt7__cxx1119basic_ostringstreamIcSt11char_traitsIcESaIcEEENS3_12basic_stringIcS6_S7_EEJPKciSC_PSt6vectorISt8functionIFvNS0_13ServiceStatusEEESaISH_EEEEEvRT_T0_DpT1_=so_stub_for_libtelux_sec_con
-Wl,--defsym=_ZN5telux6common3Log16constructMessageINSt7__cxx1119basic_ostringstreamIcSt11char_traitsIcESaIcEEENS3_12basic_stringIcS6_S7_EEJPKcmSC_PNS_3sec20IWiFiSecurityManagerESC_iEEEvRT_T0_DpT1_=so_stub_for_libtelux_sec_con
-Wl,--defsym=_ZN5telux6common3Log16constructMessageINSt7__cxx1119basic_ostringstreamIcSt11char_traitsIcESaIcEEEPKcJNS3_12basic_stringIcS6_S7_EESA_iSA_PSt6vectorISt8functionIFvNS0_13ServiceStatusEEESaISH_EEEEEvRT_T0_DpT1_=so_stub_for_libtelux_sec_con
-Wl,--defsym=_ZN5telux6common3Log16constructMessageINSt7__cxx1119basic_ostringstreamIcSt11char_traitsIcESaIcEEEPKcJNS3_12basic_stringIcS6_S7_EESA_PNS_3sec20IWiFiSecurityManagerEEEEvRT_T0_DpT1_=so_stub_for_libtelux_sec_con
-Wl,--defsym=_ZN5telux6common3Log16constructMessageINSt7__cxx1119basic_ostringstreamIcSt11char_traitsIcESaIcEEEPKcJNS3_12basic_stringIcS6_S7_EESA_SA_EEEvRT_T0_DpT1_=so_stub_for_libtelux_sec_con
-Wl,--defsym=_ZN5telux6common3Log16constructMessageINSt7__cxx1119basic_ostringstreamIcSt11char_traitsIcESaIcEEEPKcJSA_NS3_12basic_stringIcS6_S7_EESA_iSA_PSt6vectorISt8functionIFvNS0_13ServiceStatusEEESaISH_EEEEEvRT_T0_DpT1_=so_stub_for_libtelux_sec_con
-Wl,--defsym=_ZN5telux6common3Log16constructMessageINSt7__cxx1119basic_ostringstreamIcSt11char_traitsIcESaIcEEEPKcJSA_NS3_12basic_stringIcS6_S7_EESA_PNS_3sec20IWiFiSecurityManagerEEEEvRT_T0_DpT1_=so_stub_for_libtelux_sec_con
-Wl,--defsym=_ZN5telux6common3Log16constructMessageINSt7__cxx1119basic_ostringstreamIcSt11char_traitsIcESaIcEEEPKcJSA_NS3_12basic_stringIcS6_S7_EESA_SA_EEEvRT_T0_DpT1_=so_stub_for_libtelux_sec_con
-Wl,--defsym=_ZN5telux6common3Log16constructMessageINSt7__cxx1119basic_ostringstreamIcSt11char_traitsIcESaIcEEEPKcJSA_SA_SA_PSt6vectorISt8functionIFvNS0_13ServiceStatusEEESaISF_EEEEEvRT_T0_DpT1_=so_stub_for_libtelux_sec_con
-Wl,--defsym=_ZN9__gnu_cxx5__ops10_Iter_predIZN5telux6common15ListenerManager16registerListenerESt8weak_ptrINS3_12ISDKListenerEEEUlS7_E_EclINS_17__normal_iteratorIPS7_St6vectorIS7_SaIS7_EEEEEEbT_=so_stub_for_libtelux_sec_con
-Wl,--defsym=_ZNKSt13__future_base13_State_baseV221_M_is_deferred_futureEv=so_stub_for_libtelux_sec_con
-Wl,--defsym=_ZNKSt14__basic_futureIbE13_M_get_resultEv=so_stub_for_libtelux_sec_con
-Wl,--defsym=_ZNKSt14__basic_futureIN5telux6common13ServiceStatusEE13_M_get_resultEv=so_stub_for_libtelux_sec_con
-Wl,--defsym=_ZNKSt14__basic_futureIvE13_M_get_resultEv=so_stub_for_libtelux_sec_con
-Wl,--defsym=_ZNSt10shared_ptrIN5telux6common14TaskDispatcherEEC1ISaIS2_EJEEESt20_Sp_alloc_shared_tagIT_EDpOT0_=so_stub_for_libtelux_sec_con
-Wl,--defsym=_ZNSt10shared_ptrIN5telux6common14TaskDispatcherEEC2ISaIS2_EJEEESt20_Sp_alloc_shared_tagIT_EDpOT0_=so_stub_for_libtelux_sec_con
-Wl,--defsym=_ZNSt10shared_ptrIN5telux6common15ListenerManagerEEC1ISaIS2_EJEEESt20_Sp_alloc_shared_tagIT_EDpOT0_=so_stub_for_libtelux_sec_con
-Wl,--defsym=_ZNSt10shared_ptrIN5telux6common15ListenerManagerEEC2ISaIS2_EJEEESt20_Sp_alloc_shared_tagIT_EDpOT0_=so_stub_for_libtelux_sec_con
-Wl,--defsym=_ZNSt10shared_ptrISt6threadEC1ISaIS0_EJMN5telux6common14AsyncTaskQueueIvEEFvvEPS7_EEESt20_Sp_alloc_shared_tagIT_EDpOT0_=so_stub_for_libtelux_sec_con
-Wl,--defsym=_ZNSt10shared_ptrISt6threadEC2ISaIS0_EJMN5telux6common14AsyncTaskQueueIvEEFvvEPS7_EEESt20_Sp_alloc_shared_tagIT_EDpOT0_=so_stub_for_libtelux_sec_con
-Wl,--defsym=_ZNSt10unique_ptrINSt13__future_base12_Result_baseENS1_8_DeleterEED1Ev=so_stub_for_libtelux_sec_con
-Wl,--defsym=_ZNSt10unique_ptrINSt13__future_base12_Result_baseENS1_8_DeleterEED2Ev=so_stub_for_libtelux_sec_con
-Wl,--defsym=_ZNSt10unique_ptrINSt13__future_base13_State_baseV211_Make_readyESt14default_deleteIS2_EED1Ev=so_stub_for_libtelux_sec_con
-Wl,--defsym=_ZNSt10unique_ptrINSt13__future_base13_State_baseV211_Make_readyESt14default_deleteIS2_EED2Ev=so_stub_for_libtelux_sec_con
-Wl,--defsym=_ZNSt10unique_ptrINSt13__future_base7_ResultIvEENS0_12_Result_base8_DeleterEED1Ev=so_stub_for_libtelux_sec_con
-Wl,--defsym=_ZNSt10unique_ptrINSt13__future_base7_ResultIvEENS0_12_Result_base8_DeleterEED2Ev=so_stub_for_libtelux_sec_con
-Wl,--defsym=_ZNSt10unique_ptrINSt6thread6_StateESt14default_deleteIS1_EED1Ev=so_stub_for_libtelux_sec_con
-Wl,--defsym=_ZNSt10unique_ptrINSt6thread6_StateESt14default_deleteIS1_EED2Ev=so_stub_for_libtelux_sec_con
-Wl,--defsym=_ZNSt10__weak_ptrIN5telux6common12ISDKListenerELN9__gnu_cxx12_Lock_policyE2EEC1INS0_3sec19IWiFiReportListenerEvEERKS_IT_LS4_2EE=so_stub_for_libtelux_sec_con
-Wl,--defsym=_ZNSt10__weak_ptrIN5telux6common12ISDKListenerELN9__gnu_cxx12_Lock_policyE2EEC1INS0_3sec27ICellularScanReportListenerEvEERKS_IT_LS4_2EE=so_stub_for_libtelux_sec_con
-Wl,--defsym=_ZNSt10__weak_ptrIN5telux6common12ISDKListenerELN9__gnu_cxx12_Lock_policyE2EEC1INS1_22IServiceStatusListenerEvEERKS_IT_LS4_2EE=so_stub_for_libtelux_sec_con
-Wl,--defsym=_ZNSt10__weak_ptrIN5telux6common12ISDKListenerELN9__gnu_cxx12_Lock_policyE2EEC2INS0_3sec19IWiFiReportListenerEvEERKS_IT_LS4_2EE=so_stub_for_libtelux_sec_con
-Wl,--defsym=_ZNSt10__weak_ptrIN5telux6common12ISDKListenerELN9__gnu_cxx12_Lock_policyE2EEC2INS0_3sec27ICellularScanReportListenerEvEERKS_IT_LS4_2EE=so_stub_for_libtelux_sec_con
-Wl,--defsym=_ZNSt10__weak_ptrIN5telux6common12ISDKListenerELN9__gnu_cxx12_Lock_policyE2EEC2INS1_22IServiceStatusListenerEvEERKS_IT_LS4_2EE=so_stub_for_libtelux_sec_con
-Wl,--defsym=_ZNSt11_Deque_baseISt13shared_futureIvESaIS1_EE15_M_create_nodesEPPS1_S5_=so_stub_for_libtelux_sec_con
-Wl,--defsym=_ZNSt11_Deque_baseISt13shared_futureIvESaIS1_EE16_M_destroy_nodesEPPS1_S5_=so_stub_for_libtelux_sec_con
-Wl,--defsym=_ZNSt11_Deque_baseISt13shared_futureIvESaIS1_EE17_M_initialize_mapEm=so_stub_for_libtelux_sec_con
-Wl,--defsym=_ZNSt12future_errorC1ESt10error_code=so_stub_for_libtelux_sec_con
-Wl,--defsym=_ZNSt12future_errorC2ESt10error_code=so_stub_for_libtelux_sec_con
-Wl,--defsym=_ZNSt12__shared_ptrIN5telux3sec23WiFiSecurityManagerImplELN9__gnu_cxx12_Lock_policyE2EEC1ISaIS2_EJEEESt20_Sp_alloc_shared_tagIT_EDpOT0_=so_stub_for_libtelux_sec_con
-Wl,--defsym=_ZNSt12__shared_ptrIN5telux3sec23WiFiSecurityManagerImplELN9__gnu_cxx12_Lock_policyE2EEC2ISaIS2_EJEEESt20_Sp_alloc_shared_tagIT_EDpOT0_=so_stub_for_libtelux_sec_con
-Wl,--defsym=_ZNSt12__shared_ptrIN5telux3sec27CellularSecurityManagerImplELN9__gnu_cxx12_Lock_policyE2EEC1ISaIS2_EJEEESt20_Sp_alloc_shared_tagIT_EDpOT0_=so_stub_for_libtelux_sec_con
-Wl,--defsym=_ZNSt12__shared_ptrIN5telux3sec27CellularSecurityManagerImplELN9__gnu_cxx12_Lock_policyE2EEC2ISaIS2_EJEEESt20_Sp_alloc_shared_tagIT_EDpOT0_=so_stub_for_libtelux_sec_con
-Wl,--defsym=_ZNSt12__weak_countILN9__gnu_cxx12_Lock_policyE2EEaSERKSt14__shared_countILS1_2EE=so_stub_for_libtelux_sec_con
-Wl,--defsym=_ZNSt13__future_base13_State_baseV210wait_untilINSt6chrono3_V212system_clockENS2_8durationIlSt5ratioILl1ELl1000000000EEEEEESt13future_statusRKNS2_10time_pointIT_T0_EE=so_stub_for_libtelux_sec_con
-Wl,--defsym=_ZNSt13__future_base13_State_baseV213_M_set_resultESt8functionIFSt10unique_ptrINS_12_Result_baseENS3_8_DeleterEEvEEb=so_stub_for_libtelux_sec_con
-Wl,--defsym=_ZNSt13__future_base13_State_baseV216_M_break_promiseESt10unique_ptrINS_12_Result_baseENS2_8_DeleterEE=so_stub_for_libtelux_sec_con
-Wl,--defsym=_ZNSt13__future_base13_State_baseV217_M_complete_asyncEv=so_stub_for_libtelux_sec_con
-Wl,--defsym=_ZNSt13__future_base13_State_baseV221_M_set_delayed_resultESt8functionIFSt10unique_ptrINS_12_Result_baseENS3_8_DeleterEEvEESt8weak_ptrIS0_E=so_stub_for_libtelux_sec_con
-Wl,--defsym=_ZNSt13__future_base13_State_baseV24waitEv=so_stub_for_libtelux_sec_con
-Wl,--defsym=_ZNSt13__future_base13_State_baseV29_M_do_setEPSt8functionIFSt10unique_ptrINS_12_Result_baseENS3_8_DeleterEEvEEPb=so_stub_for_libtelux_sec_con
-Wl,--defsym=_ZNSt13__future_base13_State_baseV2D0Ev=so_stub_for_libtelux_sec_con
-Wl,--defsym=_ZNSt13__future_base13_State_baseV2D1Ev=so_stub_for_libtelux_sec_con
-Wl,--defsym=_ZNSt13__future_base13_State_baseV2D2Ev=so_stub_for_libtelux_sec_con
-Wl,--defsym=_ZNSt13__future_base16_Task_state_baseIFvvEEC1ISaIiEEERKT_=so_stub_for_libtelux_sec_con
-Wl,--defsym=_ZNSt13__future_base16_Task_state_baseIFvvEEC2ISaIiEEERKT_=so_stub_for_libtelux_sec_con
-Wl,--defsym=_ZNSt13__future_base16_Task_state_baseIFvvEED0Ev=so_stub_for_libtelux_sec_con
-Wl,--defsym=_ZNSt13__future_base16_Task_state_baseIFvvEED1Ev=so_stub_for_libtelux_sec_con
-Wl,--defsym=_ZNSt13__future_base16_Task_state_baseIFvvEED2Ev=so_stub_for_libtelux_sec_con
-Wl,--defsym=_ZNSt13__future_base21_Async_state_commonV217_M_complete_asyncEv=so_stub_for_libtelux_sec_con
-Wl,--defsym=_ZNSt13__future_base21_Async_state_commonV2D0Ev=so_stub_for_libtelux_sec_con
-Wl,--defsym=_ZNSt13__future_base21_Async_state_commonV2D1Ev=so_stub_for_libtelux_sec_con
-Wl,--defsym=_ZNSt13__future_base21_Async_state_commonV2D2Ev=so_stub_for_libtelux_sec_con
-Wl,--defsym=_ZNSt13__future_base7_ResultIN5telux6common13ServiceStatusEE10_M_destroyEv=so_stub_for_libtelux_sec_con
-Wl,--defsym=_ZNSt13__future_base7_ResultIN5telux6common13ServiceStatusEED0Ev=so_stub_for_libtelux_sec_con
-Wl,--defsym=_ZNSt13__future_base7_ResultIN5telux6common13ServiceStatusEED1Ev=so_stub_for_libtelux_sec_con
-Wl,--defsym=_ZNSt13__future_base7_ResultIN5telux6common13ServiceStatusEED2Ev=so_stub_for_libtelux_sec_con
-Wl,--defsym=_ZNSt13__future_base7_ResultIvE10_M_destroyEv=so_stub_for_libtelux_sec_con
-Wl,--defsym=_ZNSt13__future_base7_ResultIvED0Ev=so_stub_for_libtelux_sec_con
-Wl,--defsym=_ZNSt13__future_base7_ResultIvED1Ev=so_stub_for_libtelux_sec_con
-Wl,--defsym=_ZNSt13__future_base7_ResultIvED2Ev=so_stub_for_libtelux_sec_con
-Wl,--defsym=_ZNSt13packaged_taskIFvvEE10get_futureEv=so_stub_for_libtelux_sec_con
-Wl,--defsym=_ZNSt13packaged_taskIFvvEED1Ev=so_stub_for_libtelux_sec_con
-Wl,--defsym=_ZNSt13packaged_taskIFvvEED2Ev=so_stub_for_libtelux_sec_con
-Wl,--defsym=_ZNSt14__basic_futureIN5telux6common13ServiceStatusEEC1ERKSt10shared_ptrINSt13__future_base13_State_baseV2EE=so_stub_for_libtelux_sec_con
-Wl,--defsym=_ZNSt14__basic_futureIN5telux6common13ServiceStatusEEC2ERKSt10shared_ptrINSt13__future_base13_State_baseV2EE=so_stub_for_libtelux_sec_con
-Wl,--defsym=_ZNSt14__basic_futureIvEC1ERKSt10shared_ptrINSt13__future_base13_State_baseV2EE=so_stub_for_libtelux_sec_con
-Wl,--defsym=_ZNSt14__basic_futureIvEC2ERKSt10shared_ptrINSt13__future_base13_State_baseV2EE=so_stub_for_libtelux_sec_con
-Wl,--defsym=_ZNSt14_Function_base13_Base_managerIZN5telux6common13FactoryHelper10getManagerINS1_3sec20IWiFiSecurityManagerEEESt10shared_ptrIT_ENSt7__cxx1112basic_stringIcSt11char_traitsIcESaIcEEERSt8weak_ptrIS8_ERSt6vectorISt8functionIFvNS2_13ServiceStatusEEESaISN_EESN_SK_IFS9_SN_EEEUlSL_E0_E10_M_managerERSt9_Any_dataRKSV_St18_Manager_operation=so_stub_for_libtelux_sec_con
-Wl,--defsym=_ZNSt14_Function_baseD1Ev=so_stub_for_libtelux_sec_con
-Wl,--defsym=_ZNSt14_Function_baseD2Ev=so_stub_for_libtelux_sec_con
-Wl,--defsym=_ZNSt14__shared_countILN9__gnu_cxx12_Lock_policyE2EEC1ERKSt12__weak_countILS1_2EE=so_stub_for_libtelux_sec_con
-Wl,--defsym=_ZNSt14__shared_countILN9__gnu_cxx12_Lock_policyE2EEC1ERKSt12__weak_countILS1_2EESt9nothrow_t=so_stub_for_libtelux_sec_con
-Wl,--defsym=_ZNSt14__shared_countILN9__gnu_cxx12_Lock_policyE2EEC2ERKSt12__weak_countILS1_2EE=so_stub_for_libtelux_sec_con
-Wl,--defsym=_ZNSt14__shared_countILN9__gnu_cxx12_Lock_policyE2EEC2ERKSt12__weak_countILS1_2EESt9nothrow_t=so_stub_for_libtelux_sec_con
-Wl,--defsym=_ZNSt15_Deque_iteratorISt13shared_futureIvERKS1_PS2_EpLEl=so_stub_for_libtelux_sec_con
-Wl,--defsym=_ZNSt15_Deque_iteratorISt13shared_futureIvERS1_PS1_EpLEl=so_stub_for_libtelux_sec_con
-Wl,--defsym=_ZNSt15__exception_ptr12__dest_thunkISt12future_errorEEvPv=so_stub_for_libtelux_sec_con
-Wl,--defsym=_ZNSt15__exception_ptr13exception_ptraSEOS0_=so_stub_for_libtelux_sec_con
-Wl,--defsym=_ZNSt16_Sp_counted_baseILN9__gnu_cxx12_Lock_policyE2EE10_M_releaseEv=so_stub_for_libtelux_sec_con
-Wl,--defsym=_ZNSt16_Sp_counted_baseILN9__gnu_cxx12_Lock_policyE2EE15_M_weak_releaseEv=so_stub_for_libtelux_sec_con
-Wl,--defsym=_ZNSt17_Function_handlerIFSt10unique_ptrINSt13__future_base12_Result_baseENS2_8_DeleterEEvENS1_13_State_baseV27_SetterIN5telux6common13ServiceStatusERKSA_EEE10_M_managerERSt9_Any_dataRKSF_St18_Manager_operation=so_stub_for_libtelux_sec_con
-Wl,--defsym=_ZNSt17_Function_handlerIFSt10unique_ptrINSt13__future_base12_Result_baseENS2_8_DeleterEEvENS1_13_State_baseV27_SetterIN5telux6common13ServiceStatusERKSA_EEE9_M_invokeERKSt9_Any_data=so_stub_for_libtelux_sec_con
-Wl,--defsym=_ZNSt17_Function_handlerIFvN5telux6common13ServiceStatusEEZNS1_13FactoryHelper10getManagerINS0_3sec20IWiFiSecurityManagerEEESt10shared_ptrIT_ENSt7__cxx1112basic_stringIcSt11char_traitsIcESaIcEEERSt8weak_ptrIS9_ERSt6vectorISt8functionIS3_ESaISM_EESM_SL_IFSA_SM_EEEUlS2_E0_E10_M_managerERSt9_Any_dataRKSU_St18_Manager_operation=so_stub_for_libtelux_sec_con
-Wl,--defsym=_ZNSt17_Function_handlerIFvN5telux6common13ServiceStatusEEZNS1_13FactoryHelper10getManagerINS0_3sec20IWiFiSecurityManagerEEESt10shared_ptrIT_ENSt7__cxx1112basic_stringIcSt11char_traitsIcESaIcEEERSt8weak_ptrIS9_ERSt6vectorISt8functionIS3_ESaISM_EESM_SL_IFSA_SM_EEEUlS2_E0_E9_M_invokeERKSt9_Any_dataOS2_=so_stub_for_libtelux_sec_con
-Wl,--defsym=_ZNSt18condition_variable4waitIZN5telux6common14AsyncTaskQueueIvE11executeTaskEvEUlvE_EEvRSt11unique_lockISt5mutexET_=so_stub_for_libtelux_sec_con
-Wl,--defsym=_ZNSt20__uninitialized_copyILb0EE13__uninit_copyIN9__gnu_cxx17__normal_iteratorIPKSt8functionIFvN5telux6common13ServiceStatusEEESt6vectorIS9_SaIS9_EEEEPS9_EET0_T_SI_SH_=so_stub_for_libtelux_sec_con
-Wl,--defsym=_ZNSt20__uninitialized_copyILb0EE13__uninit_copyIPSt8functionIFvN5telux6common13ServiceStatusEEES8_EET0_T_SA_S9_=so_stub_for_libtelux_sec_con
-Wl,--defsym=_ZNSt20__uninitialized_copyILb0EE13__uninit_copyISt15_Deque_iteratorISt13shared_futureIvERKS4_PS5_ES2_IS4_RS4_PS4_EEET0_T_SD_SC_=so_stub_for_libtelux_sec_con
-Wl,--defsym=_ZNSt23_Sp_counted_ptr_inplaceIN5telux3sec23WiFiSecurityManagerImplESaIS2_ELN9__gnu_cxx12_Lock_policyE2EE10_M_destroyEv=so_stub_for_libtelux_sec_con
-Wl,--defsym=_ZNSt23_Sp_counted_ptr_inplaceIN5telux3sec23WiFiSecurityManagerImplESaIS2_ELN9__gnu_cxx12_Lock_policyE2EE10_M_disposeEv=so_stub_for_libtelux_sec_con
-Wl,--defsym=_ZNSt23_Sp_counted_ptr_inplaceIN5telux3sec23WiFiSecurityManagerImplESaIS2_ELN9__gnu_cxx12_Lock_policyE2EE14_M_get_deleterERKSt9type_info=so_stub_for_libtelux_sec_con
-Wl,--defsym=_ZNSt23_Sp_counted_ptr_inplaceIN5telux3sec23WiFiSecurityManagerImplESaIS2_ELN9__gnu_cxx12_Lock_policyE2EED0Ev=so_stub_for_libtelux_sec_con
-Wl,--defsym=_ZNSt23_Sp_counted_ptr_inplaceIN5telux3sec23WiFiSecurityManagerImplESaIS2_ELN9__gnu_cxx12_Lock_policyE2EED1Ev=so_stub_for_libtelux_sec_con
-Wl,--defsym=_ZNSt23_Sp_counted_ptr_inplaceIN5telux3sec23WiFiSecurityManagerImplESaIS2_ELN9__gnu_cxx12_Lock_policyE2EED2Ev=so_stub_for_libtelux_sec_con
-Wl,--defsym=_ZNSt23_Sp_counted_ptr_inplaceIN5telux3sec27CellularSecurityManagerImplESaIS2_ELN9__gnu_cxx12_Lock_policyE2EE10_M_destroyEv=so_stub_for_libtelux_sec_con
-Wl,--defsym=_ZNSt23_Sp_counted_ptr_inplaceIN5telux3sec27CellularSecurityManagerImplESaIS2_ELN9__gnu_cxx12_Lock_policyE2EE10_M_disposeEv=so_stub_for_libtelux_sec_con
-Wl,--defsym=_ZNSt23_Sp_counted_ptr_inplaceIN5telux3sec27CellularSecurityManagerImplESaIS2_ELN9__gnu_cxx12_Lock_policyE2EE14_M_get_deleterERKSt9type_info=so_stub_for_libtelux_sec_con
-Wl,--defsym=_ZNSt23_Sp_counted_ptr_inplaceIN5telux3sec27CellularSecurityManagerImplESaIS2_ELN9__gnu_cxx12_Lock_policyE2EED0Ev=so_stub_for_libtelux_sec_con
-Wl,--defsym=_ZNSt23_Sp_counted_ptr_inplaceIN5telux3sec27CellularSecurityManagerImplESaIS2_ELN9__gnu_cxx12_Lock_policyE2EED1Ev=so_stub_for_libtelux_sec_con
-Wl,--defsym=_ZNSt23_Sp_counted_ptr_inplaceIN5telux3sec27CellularSecurityManagerImplESaIS2_ELN9__gnu_cxx12_Lock_policyE2EED2Ev=so_stub_for_libtelux_sec_con
-Wl,--defsym=_ZNSt23_Sp_counted_ptr_inplaceIN5telux6common14TaskDispatcherESaIS2_ELN9__gnu_cxx12_Lock_policyE2EE10_M_destroyEv=so_stub_for_libtelux_sec_con
-Wl,--defsym=_ZNSt23_Sp_counted_ptr_inplaceIN5telux6common14TaskDispatcherESaIS2_ELN9__gnu_cxx12_Lock_policyE2EE10_M_disposeEv=so_stub_for_libtelux_sec_con
-Wl,--defsym=_ZNSt23_Sp_counted_ptr_inplaceIN5telux6common14TaskDispatcherESaIS2_ELN9__gnu_cxx12_Lock_policyE2EE14_M_get_deleterERKSt9type_info=so_stub_for_libtelux_sec_con
-Wl,--defsym=_ZNSt23_Sp_counted_ptr_inplaceIN5telux6common14TaskDispatcherESaIS2_ELN9__gnu_cxx12_Lock_policyE2EED0Ev=so_stub_for_libtelux_sec_con
-Wl,--defsym=_ZNSt23_Sp_counted_ptr_inplaceIN5telux6common14TaskDispatcherESaIS2_ELN9__gnu_cxx12_Lock_policyE2EED1Ev=so_stub_for_libtelux_sec_con
-Wl,--defsym=_ZNSt23_Sp_counted_ptr_inplaceIN5telux6common14TaskDispatcherESaIS2_ELN9__gnu_cxx12_Lock_policyE2EED2Ev=so_stub_for_libtelux_sec_con
-Wl,--defsym=_ZNSt23_Sp_counted_ptr_inplaceIN5telux6common15ListenerManagerESaIS2_ELN9__gnu_cxx12_Lock_policyE2EE10_M_destroyEv=so_stub_for_libtelux_sec_con
-Wl,--defsym=_ZNSt23_Sp_counted_ptr_inplaceIN5telux6common15ListenerManagerESaIS2_ELN9__gnu_cxx12_Lock_policyE2EE10_M_disposeEv=so_stub_for_libtelux_sec_con
-Wl,--defsym=_ZNSt23_Sp_counted_ptr_inplaceIN5telux6common15ListenerManagerESaIS2_ELN9__gnu_cxx12_Lock_policyE2EE14_M_get_deleterERKSt9type_info=so_stub_for_libtelux_sec_con
-Wl,--defsym=_ZNSt23_Sp_counted_ptr_inplaceIN5telux6common15ListenerManagerESaIS2_ELN9__gnu_cxx12_Lock_policyE2EED0Ev=so_stub_for_libtelux_sec_con
-Wl,--defsym=_ZNSt23_Sp_counted_ptr_inplaceIN5telux6common15ListenerManagerESaIS2_ELN9__gnu_cxx12_Lock_policyE2EED1Ev=so_stub_for_libtelux_sec_con
-Wl,--defsym=_ZNSt23_Sp_counted_ptr_inplaceIN5telux6common15ListenerManagerESaIS2_ELN9__gnu_cxx12_Lock_policyE2EED2Ev=so_stub_for_libtelux_sec_con
-Wl,--defsym=_ZNSt23_Sp_counted_ptr_inplaceINSt13__future_base13_State_baseV2ESaIS1_ELN9__gnu_cxx12_Lock_policyE2EE10_M_destroyEv=so_stub_for_libtelux_sec_con
-Wl,--defsym=_ZNSt23_Sp_counted_ptr_inplaceINSt13__future_base13_State_baseV2ESaIS1_ELN9__gnu_cxx12_Lock_policyE2EE10_M_disposeEv=so_stub_for_libtelux_sec_con
-Wl,--defsym=_ZNSt23_Sp_counted_ptr_inplaceINSt13__future_base13_State_baseV2ESaIS1_ELN9__gnu_cxx12_Lock_policyE2EE14_M_get_deleterERKSt9type_info=so_stub_for_libtelux_sec_con
-Wl,--defsym=_ZNSt23_Sp_counted_ptr_inplaceINSt13__future_base13_State_baseV2ESaIS1_ELN9__gnu_cxx12_Lock_policyE2EED0Ev=so_stub_for_libtelux_sec_con
-Wl,--defsym=_ZNSt23_Sp_counted_ptr_inplaceINSt13__future_base13_State_baseV2ESaIS1_ELN9__gnu_cxx12_Lock_policyE2EED1Ev=so_stub_for_libtelux_sec_con
-Wl,--defsym=_ZNSt23_Sp_counted_ptr_inplaceINSt13__future_base13_State_baseV2ESaIS1_ELN9__gnu_cxx12_Lock_policyE2EED2Ev=so_stub_for_libtelux_sec_con
-Wl,--defsym=_ZNSt23_Sp_counted_ptr_inplaceISt6threadSaIS0_ELN9__gnu_cxx12_Lock_policyE2EE10_M_destroyEv=so_stub_for_libtelux_sec_con
-Wl,--defsym=_ZNSt23_Sp_counted_ptr_inplaceISt6threadSaIS0_ELN9__gnu_cxx12_Lock_policyE2EE10_M_disposeEv=so_stub_for_libtelux_sec_con
-Wl,--defsym=_ZNSt23_Sp_counted_ptr_inplaceISt6threadSaIS0_ELN9__gnu_cxx12_Lock_policyE2EE14_M_get_deleterERKSt9type_info=so_stub_for_libtelux_sec_con
-Wl,--defsym=_ZNSt23_Sp_counted_ptr_inplaceISt6threadSaIS0_ELN9__gnu_cxx12_Lock_policyE2EED0Ev=so_stub_for_libtelux_sec_con
-Wl,--defsym=_ZNSt23_Sp_counted_ptr_inplaceISt6threadSaIS0_ELN9__gnu_cxx12_Lock_policyE2EED1Ev=so_stub_for_libtelux_sec_con
-Wl,--defsym=_ZNSt23_Sp_counted_ptr_inplaceISt6threadSaIS0_ELN9__gnu_cxx12_Lock_policyE2EED2Ev=so_stub_for_libtelux_sec_con
-Wl,--defsym=_ZNSt5dequeISt13packaged_taskIFvvEESaIS2_EE12emplace_backIJS2_EEEvDpOT_=so_stub_for_libtelux_sec_con
-Wl,--defsym=_ZNSt5dequeISt13packaged_taskIFvvEESaIS2_EE16_M_push_back_auxIJS2_EEEvDpOT_=so_stub_for_libtelux_sec_con
-Wl,--defsym=_ZNSt5dequeISt13packaged_taskIFvvEESaIS2_EE17_M_reallocate_mapEmb=so_stub_for_libtelux_sec_con
-Wl,--defsym=_ZNSt5dequeISt13shared_futureIvESaIS1_EE13_M_insert_auxISt15_Deque_iteratorIS1_RKS1_PS6_EEEvS5_IS1_RS1_PS1_ET_SD_m=so_stub_for_libtelux_sec_con
-Wl,--defsym=_ZNSt5dequeISt13shared_futureIvESaIS1_EE15_M_erase_at_endESt15_Deque_iteratorIS1_RS1_PS1_E=so_stub_for_libtelux_sec_con
-Wl,--defsym=_ZNSt5dequeISt13shared_futureIvESaIS1_EE16_M_pop_front_auxEv=so_stub_for_libtelux_sec_con
-Wl,--defsym=_ZNSt5dequeISt13shared_futureIvESaIS1_EE16_M_push_back_auxIJRKS1_EEEvDpOT_=so_stub_for_libtelux_sec_con
-Wl,--defsym=_ZNSt5dequeISt13shared_futureIvESaIS1_EE17_M_reallocate_mapEmb=so_stub_for_libtelux_sec_con
-Wl,--defsym=_ZNSt5dequeISt13shared_futureIvESaIS1_EE19_M_destroy_data_auxESt15_Deque_iteratorIS1_RS1_PS1_ES7_=so_stub_for_libtelux_sec_con
-Wl,--defsym=_ZNSt5dequeISt13shared_futureIvESaIS1_EE19_M_range_insert_auxISt15_Deque_iteratorIS1_RKS1_PS6_EEEvS5_IS1_RS1_PS1_ET_SD_St20forward_iterator_tag=so_stub_for_libtelux_sec_con
-Wl,--defsym=_ZNSt5dequeISt13shared_futureIvESaIS1_EE23_M_new_elements_at_backEm=so_stub_for_libtelux_sec_con
-Wl,--defsym=_ZNSt5dequeISt13shared_futureIvESaIS1_EE24_M_new_elements_at_frontEm=so_stub_for_libtelux_sec_con
-Wl,--defsym=_ZNSt5dequeISt13shared_futureIvESaIS1_EE8_M_eraseESt15_Deque_iteratorIS1_RS1_PS1_E=so_stub_for_libtelux_sec_con
-Wl,--defsym=_ZNSt5dequeISt13shared_futureIvESaIS1_EEaSERKS3_=so_stub_for_libtelux_sec_con
-Wl,--defsym=_ZNSt5dequeISt13shared_futureIvESaIS1_EED1Ev=so_stub_for_libtelux_sec_con
-Wl,--defsym=_ZNSt5dequeISt13shared_futureIvESaIS1_EED2Ev=so_stub_for_libtelux_sec_con
-Wl,--defsym=_ZNSt6thread11_State_implINS_8_InvokerISt5tupleIJMN5telux6common14AsyncTaskQueueIvEEFvvEPS6_EEEEE6_M_runEv=so_stub_for_libtelux_sec_con
-Wl,--defsym=_ZNSt6thread11_State_implINS_8_InvokerISt5tupleIJMN5telux6common14AsyncTaskQueueIvEEFvvEPS6_EEEEED0Ev=so_stub_for_libtelux_sec_con
-Wl,--defsym=_ZNSt6thread11_State_implINS_8_InvokerISt5tupleIJMN5telux6common14AsyncTaskQueueIvEEFvvEPS6_EEEEED1Ev=so_stub_for_libtelux_sec_con
-Wl,--defsym=_ZNSt6thread11_State_implINS_8_InvokerISt5tupleIJMN5telux6common14AsyncTaskQueueIvEEFvvEPS6_EEEEED2Ev=so_stub_for_libtelux_sec_con
-Wl,--defsym=_ZNSt6thread11_State_implINS_8_InvokerISt5tupleIJZN5telux6common13FactoryHelper10getManagerINS3_3sec20IWiFiSecurityManagerEEESt10shared_ptrIT_ENSt7__cxx1112basic_stringIcSt11char_traitsIcESaIcEEERSt8weak_ptrISA_ERSt6vectorISt8functionIFvNS4_13ServiceStatusEEESaISP_EESP_SM_IFSB_SP_EEEUlvE_EEEEE6_M_runEv=so_stub_for_libtelux_sec_con
-Wl,--defsym=_ZNSt6thread11_State_implINS_8_InvokerISt5tupleIJZN5telux6common13FactoryHelper10getManagerINS3_3sec20IWiFiSecurityManagerEEESt10shared_ptrIT_ENSt7__cxx1112basic_stringIcSt11char_traitsIcESaIcEEERSt8weak_ptrISA_ERSt6vectorISt8functionIFvNS4_13ServiceStatusEEESaISP_EESP_SM_IFSB_SP_EEEUlvE_EEEEED0Ev=so_stub_for_libtelux_sec_con
-Wl,--defsym=_ZNSt6thread11_State_implINS_8_InvokerISt5tupleIJZN5telux6common13FactoryHelper10getManagerINS3_3sec20IWiFiSecurityManagerEEESt10shared_ptrIT_ENSt7__cxx1112basic_stringIcSt11char_traitsIcESaIcEEERSt8weak_ptrISA_ERSt6vectorISt8functionIFvNS4_13ServiceStatusEEESaISP_EESP_SM_IFSB_SP_EEEUlvE_EEEEED1Ev=so_stub_for_libtelux_sec_con
-Wl,--defsym=_ZNSt6thread11_State_implINS_8_InvokerISt5tupleIJZN5telux6common13FactoryHelper10getManagerINS3_3sec20IWiFiSecurityManagerEEESt10shared_ptrIT_ENSt7__cxx1112basic_stringIcSt11char_traitsIcESaIcEEERSt8weak_ptrISA_ERSt6vectorISt8functionIFvNS4_13ServiceStatusEEESaISP_EESP_SM_IFSB_SP_EEEUlvE_EEEEED2Ev=so_stub_for_libtelux_sec_con
-Wl,--defsym=_ZNSt6threadC1IMN5telux6common14AsyncTaskQueueIvEEFvvEJPS4_EvEEOT_DpOT0_=so_stub_for_libtelux_sec_con
-Wl,--defsym=_ZNSt6threadC1IZN5telux6common13FactoryHelper10getManagerINS1_3sec20IWiFiSecurityManagerEEESt10shared_ptrIT_ENSt7__cxx1112basic_stringIcSt11char_traitsIcESaIcEEERSt8weak_ptrIS8_ERSt6vectorISt8functionIFvNS2_13ServiceStatusEEESaISN_EESN_SK_IFS9_SN_EEEUlvE_JEvEEOS8_DpOT0_=so_stub_for_libtelux_sec_con
-Wl,--defsym=_ZNSt6threadC2IMN5telux6common14AsyncTaskQueueIvEEFvvEJPS4_EvEEOT_DpOT0_=so_stub_for_libtelux_sec_con
-Wl,--defsym=_ZNSt6threadC2IZN5telux6common13FactoryHelper10getManagerINS1_3sec20IWiFiSecurityManagerEEESt10shared_ptrIT_ENSt7__cxx1112basic_stringIcSt11char_traitsIcESaIcEEERSt8weak_ptrIS8_ERSt6vectorISt8functionIFvNS2_13ServiceStatusEEESaISN_EESN_SK_IFS9_SN_EEEUlvE_JEvEEOS8_DpOT0_=so_stub_for_libtelux_sec_con
-Wl,--defsym=_ZNSt6vectorIN5telux3sec18CellularThreatTypeESaIS2_EE12emplace_backIJS2_EEEvDpOT_=so_stub_for_libtelux_sec_con
-Wl,--defsym=_ZNSt6vectorIN5telux3sec18CellularThreatTypeESaIS2_EE17_M_realloc_insertIJS2_EEEvN9__gnu_cxx17__normal_iteratorIPS2_S4_EEDpOT_=so_stub_for_libtelux_sec_con
-Wl,--defsym=_ZNSt6vectorIN5telux3sec18CellularThreatTypeESaIS2_EEC1ERKS4_=so_stub_for_libtelux_sec_con
-Wl,--defsym=_ZNSt6vectorIN5telux3sec18CellularThreatTypeESaIS2_EEC2ERKS4_=so_stub_for_libtelux_sec_con
-Wl,--defsym=_ZNSt6vectorISt8functionIFvN5telux6common13ServiceStatusEEESaIS5_EE15_M_erase_at_endEPS5_=so_stub_for_libtelux_sec_con
-Wl,--defsym=_ZNSt6vectorISt8functionIFvN5telux6common13ServiceStatusEEESaIS5_EE17_M_realloc_insertIJRKS5_EEEvN9__gnu_cxx17__normal_iteratorIPS5_S7_EEDpOT_=so_stub_for_libtelux_sec_con
-Wl,--defsym=_ZNSt6vectorISt8functionIFvN5telux6common13ServiceStatusEEESaIS5_EE20_M_allocate_and_copyIN9__gnu_cxx17__normal_iteratorIPKS5_S7_EEEEPS5_mT_SF_=so_stub_for_libtelux_sec_con
-Wl,--defsym=_ZNSt6vectorISt8functionIFvN5telux6common13ServiceStatusEEESaIS5_EEaSERKS7_=so_stub_for_libtelux_sec_con
-Wl,--defsym=_ZNSt6vectorISt8functionIFvN5telux6common13ServiceStatusEEESaIS5_EED1Ev=so_stub_for_libtelux_sec_con
-Wl,--defsym=_ZNSt6vectorISt8functionIFvN5telux6common13ServiceStatusEEESaIS5_EED2Ev=so_stub_for_libtelux_sec_con
-Wl,--defsym=_ZNSt6vectorISt8weak_ptrIN5telux6common12ISDKListenerEESaIS4_EE12emplace_backIJRS4_EEEvDpOT_=so_stub_for_libtelux_sec_con
-Wl,--defsym=_ZNSt6vectorISt8weak_ptrIN5telux6common12ISDKListenerEESaIS4_EE12emplace_backIJRSt10shared_ptrIS3_EEEEvDpOT_=so_stub_for_libtelux_sec_con
-Wl,--defsym=_ZNSt6vectorISt8weak_ptrIN5telux6common12ISDKListenerEESaIS4_EE17_M_realloc_insertIJRS4_EEEvN9__gnu_cxx17__normal_iteratorIPS4_S6_EEDpOT_=so_stub_for_libtelux_sec_con
-Wl,--defsym=_ZNSt6vectorISt8weak_ptrIN5telux6common12ISDKListenerEESaIS4_EE17_M_realloc_insertIJRSt10shared_ptrIS3_EEEEvN9__gnu_cxx17__normal_iteratorIPS4_S6_EEDpOT_=so_stub_for_libtelux_sec_con
-Wl,--defsym=_ZNSt6vectorISt8weak_ptrIN5telux6common12ISDKListenerEESaIS4_EE8_M_eraseEN9__gnu_cxx17__normal_iteratorIPS4_S6_EE=so_stub_for_libtelux_sec_con
-Wl,--defsym=_ZNSt6vectorISt8weak_ptrIN5telux6common12ISDKListenerEESaIS4_EED1Ev=so_stub_for_libtelux_sec_con
-Wl,--defsym=_ZNSt6vectorISt8weak_ptrIN5telux6common12ISDKListenerEESaIS4_EED2Ev=so_stub_for_libtelux_sec_con
-Wl,--defsym=_ZNSt7__cxx1112basic_stringIcSt11char_traitsIcESaIcEE12_M_constructIPcEEvT_S7_St20forward_iterator_tag=so_stub_for_libtelux_sec_con
-Wl,--defsym=_ZNSt7__cxx1112basic_stringIcSt11char_traitsIcESaIcEE12_M_constructIPKcEEvT_S8_St20forward_iterator_tag=so_stub_for_libtelux_sec_con
-Wl,--defsym=_ZNSt7__cxx1115basic_stringbufIcSt11char_traitsIcESaIcEED0Ev=so_stub_for_libtelux_sec_con
-Wl,--defsym=_ZNSt7__cxx1115basic_stringbufIcSt11char_traitsIcESaIcEED1Ev=so_stub_for_libtelux_sec_con
-Wl,--defsym=_ZNSt7__cxx1115basic_stringbufIcSt11char_traitsIcESaIcEED2Ev=so_stub_for_libtelux_sec_con
-Wl,--defsym=_ZNSt7promiseIN5telux6common13ServiceStatusEE9set_valueERKS2_=so_stub_for_libtelux_sec_con
-Wl,--defsym=_ZNSt7promiseIN5telux6common13ServiceStatusEEC1Ev=so_stub_for_libtelux_sec_con
-Wl,--defsym=_ZNSt7promiseIN5telux6common13ServiceStatusEEC2Ev=so_stub_for_libtelux_sec_con
-Wl,--defsym=_ZNSt7promiseIN5telux6common13ServiceStatusEED1Ev=so_stub_for_libtelux_sec_con
-Wl,--defsym=_ZNSt7promiseIN5telux6common13ServiceStatusEED2Ev=so_stub_for_libtelux_sec_con
-Wl,--defsym=_ZNSt8__detail14__to_chars_lenIjEEjT_i=so_stub_for_libtelux_sec_con
-Wl,--defsym=_ZNSt8__detail18__to_chars_10_implIjEEvPcjT_=so_stub_for_libtelux_sec_con
-Wl,--defsym=_ZNSt8functionIFvN5telux6common13ServiceStatusEEEaSERKS4_=so_stub_for_libtelux_sec_con
-Wl,--defsym=_ZNSt8functionIFvN5telux6common13ServiceStatusEEEC1IRZNS1_13FactoryHelper10getManagerINS0_3sec20IWiFiSecurityManagerEEESt10shared_ptrIT_ENSt7__cxx1112basic_stringIcSt11char_traitsIcESaIcEEERSt8weak_ptrISB_ERSt6vectorIS4_SaIS4_EES4_S_IFSC_S4_EEEUlS2_E0_vEEOSB_=so_stub_for_libtelux_sec_con
-Wl,--defsym=_ZNSt8functionIFvN5telux6common13ServiceStatusEEEC2IRZNS1_13FactoryHelper10getManagerINS0_3sec20IWiFiSecurityManagerEEESt10shared_ptrIT_ENSt7__cxx1112basic_stringIcSt11char_traitsIcESaIcEEERSt8weak_ptrISB_ERSt6vectorIS4_SaIS4_EES4_S_IFSC_S4_EEEUlS2_E0_vEEOSB_=so_stub_for_libtelux_sec_con
-Wl,--defsym=_ZNSt8_Rb_treeIjSt4pairIKjSt3setISt8weak_ptrIN5telux6common12ISDKListenerEENS5_15ListenerManager12SetPredicateESaIS7_EEESt10_Select1stISC_ESt4lessIjESaISC_EE8_M_eraseEPSt13_Rb_tree_nodeISC_E=so_stub_for_libtelux_sec_con
-Wl,--defsym=_ZNSt8_Rb_treeISt8weak_ptrIN5telux6common12ISDKListenerEES4_St9_IdentityIS4_ENS2_15ListenerManager12SetPredicateESaIS4_EE8_M_eraseEPSt13_Rb_tree_nodeIS4_E=so_stub_for_libtelux_sec_con
-Wl,--defsym=_ZSt13__copy_move_aILb0EN9__gnu_cxx17__normal_iteratorIPKSt8functionIFvN5telux6common13ServiceStatusEEESt6vectorIS7_SaIS7_EEEENS1_IPS7_SC_EEET1_T0_SH_SG_=so_stub_for_libtelux_sec_con
-Wl,--defsym=_ZSt13__copy_move_aILb1EN9__gnu_cxx17__normal_iteratorIPSt8weak_ptrIN5telux6common12ISDKListenerEESt6vectorIS6_SaIS6_EEEESB_ET1_T0_SD_SC_=so_stub_for_libtelux_sec_con
-Wl,--defsym=_ZSt13move_backwardISt15_Deque_iteratorISt13shared_futureIvERS2_PS2_ES5_ET0_T_S7_S6_=so_stub_for_libtelux_sec_con
-Wl,--defsym=_ZSt14__copy_move_a1ILb0EPSt13shared_futureIvES1_EN9__gnu_cxx11__enable_ifIXsrSt23__is_random_access_iterIT0_NSt15iterator_traitsIS6_E17iterator_categoryEE7__valueESt15_Deque_iteratorIT1_RSC_PSC_EE6__typeES6_S6_SF_=so_stub_for_libtelux_sec_con
-Wl,--defsym=_ZSt14__copy_move_a1ILb0ESt13shared_futureIvERKS1_PS2_S1_ESt15_Deque_iteratorIT3_RS6_PS6_ES5_IT0_T1_T2_ESD_S9_=so_stub_for_libtelux_sec_con
-Wl,--defsym=_ZSt14__copy_move_a1ILb1EPSt13shared_futureIvES1_EN9__gnu_cxx11__enable_ifIXsrSt23__is_random_access_iterIT0_NSt15iterator_traitsIS6_E17iterator_categoryEE7__valueESt15_Deque_iteratorIT1_RSC_PSC_EE6__typeES6_S6_SF_=so_stub_for_libtelux_sec_con
-Wl,--defsym=_ZSt14__copy_move_a1ILb1ESt13shared_futureIvERS1_PS1_S1_ESt15_Deque_iteratorIT3_RS5_PS5_ES4_IT0_T1_T2_ESC_S8_=so_stub_for_libtelux_sec_con
-Wl,--defsym=_ZSt18make_exception_ptrISt12future_errorENSt15__exception_ptr13exception_ptrET_=so_stub_for_libtelux_sec_con
-Wl,--defsym=_ZSt18uninitialized_copyISt13move_iteratorISt15_Deque_iteratorISt13shared_futureIvERS3_PS3_EES6_ET0_T_S9_S8_=so_stub_for_libtelux_sec_con
-Wl,--defsym=_ZSt22__uninitialized_copy_aISt15_Deque_iteratorISt13shared_futureIvERKS2_PS3_ES0_IS2_RS2_PS2_ES2_ET0_T_SB_SA_RSaIT1_E=so_stub_for_libtelux_sec_con
-Wl,--defsym=_ZSt22__uninitialized_move_aISt15_Deque_iteratorISt13shared_futureIvERS2_PS2_ES5_SaIS2_EET0_T_S8_S7_RT1_=so_stub_for_libtelux_sec_con
-Wl,--defsym=_ZSt23__copy_move_backward_a1ILb1EPSt13shared_futureIvES1_EN9__gnu_cxx11__enable_ifIXsrSt23__is_random_access_iterIT0_NSt15iterator_traitsIS6_E17iterator_categoryEE7__valueESt15_Deque_iteratorIT1_RSC_PSC_EE6__typeES6_S6_SF_=so_stub_for_libtelux_sec_con
-Wl,--defsym=_ZSt23__copy_move_backward_a1ILb1ESt13shared_futureIvERS1_PS1_S1_ESt15_Deque_iteratorIT3_RS5_PS5_ES4_IT0_T1_T2_ESC_S8_=so_stub_for_libtelux_sec_con
-Wl,--defsym=_ZSt4copyISt15_Deque_iteratorISt13shared_futureIvERKS2_PS3_ES0_IS2_RS2_PS2_EET0_T_SB_SA_=so_stub_for_libtelux_sec_con
-Wl,--defsym=_ZSt4moveISt15_Deque_iteratorISt13shared_futureIvERS2_PS2_ES5_ET0_T_S7_S6_=so_stub_for_libtelux_sec_con
-Wl,--defsym=_ZSt7find_ifIN9__gnu_cxx17__normal_iteratorIPSt8weak_ptrIN5telux6common12ISDKListenerEESt6vectorIS6_SaIS6_EEEEZNS4_15ListenerManager16registerListenerES6_EUlS6_E_ET_SE_SE_T0_=so_stub_for_libtelux_sec_con
-Wl,--defsym=_ZSt9__advanceISt15_Deque_iteratorISt13shared_futureIvERKS2_PS3_ElEvRT_T0_St26random_access_iterator_tag=so_stub_for_libtelux_sec_con
-Wl,--defsym=_ZSt9call_onceIMNSt13__future_base13_State_baseV2EFvPSt8functionIFSt10unique_ptrINS0_12_Result_baseENS4_8_DeleterEEvEEPbEJPS1_S9_SA_EEvRSt9once_flagOT_DpOT0_=so_stub_for_libtelux_sec_con
-Wl,--defsym=_ZSt9__find_ifIN9__gnu_cxx17__normal_iteratorIPSt8weak_ptrIN5telux6common12ISDKListenerEESt6vectorIS6_SaIS6_EEEENS0_5__ops10_Iter_predIZNS4_15ListenerManager16registerListenerES6_EUlS6_E_EEET_SH_SH_T0_St26random_access_iterator_tag=so_stub_for_libtelux_sec_con
-Wl,--defsym=_ZSteqRKSt10error_codeRKSt15error_condition=so_stub_for_libtelux_sec_con
-Wl,--defsym=_ZThn16_N5telux3sec23WiFiSecurityManagerImpl11isTrustedAPENS0_6ApInfoERb=so_stub_for_libtelux_sec_con
-Wl,--defsym=_ZThn16_N5telux3sec23WiFiSecurityManagerImpl17onReportAvailableENS0_18WiFiSecurityReportE=so_stub_for_libtelux_sec_con
-Wl,--defsym=_ZThn16_N5telux3sec23WiFiSecurityManagerImpl24onDeauthenticationAttackENS0_20DeauthenticationInfoE=so_stub_for_libtelux_sec_con
-Wl,--defsym=_ZThn16_N5telux3sec23WiFiSecurityManagerImplD0Ev=so_stub_for_libtelux_sec_con
-Wl,--defsym=_ZThn16_N5telux3sec23WiFiSecurityManagerImplD1Ev=so_stub_for_libtelux_sec_con
-Wl,--defsym=_ZThn8_N5telux3sec23WiFiSecurityManagerImpl29onSecurityServiceStatusChangeENS_6common13ServiceStatusE=so_stub_for_libtelux_sec_con
-Wl,--defsym=_ZThn8_N5telux3sec23WiFiSecurityManagerImplD0Ev=so_stub_for_libtelux_sec_con
-Wl,--defsym=_ZThn8_N5telux3sec23WiFiSecurityManagerImplD1Ev=so_stub_for_libtelux_sec_con
-Wl,--defsym=_ZTIN5telux3qmi12IQmiListenerE=so_stub_for_libtelux_sec_con
-Wl,--defsym=_ZTIN5telux3qmi15IQmiSecListenerE=so_stub_for_libtelux_sec_con
-Wl,--defsym=_ZTIN5telux3sec19IWiFiReportListenerE=so_stub_for_libtelux_sec_con
-Wl,--defsym=_ZTIN5telux3sec20IWiFiSecurityManagerE=so_stub_for_libtelux_sec_con
-Wl,--defsym=_ZTIN5telux3sec23WiFiSecurityManagerImplE=so_stub_for_libtelux_sec_con
-Wl,--defsym=_ZTIN5telux3sec24ICellularSecurityManagerE=so_stub_for_libtelux_sec_con
-Wl,--defsym=_ZTIN5telux3sec25ConnectionSecurityFactoryE=so_stub_for_libtelux_sec_con
-Wl,--defsym=_ZTIN5telux3sec27CellularSecurityManagerImplE=so_stub_for_libtelux_sec_con
-Wl,--defsym=_ZTIN5telux3sec27ICellularScanReportListenerE=so_stub_for_libtelux_sec_con
-Wl,--defsym=_ZTIN5telux3sec29ConnectionSecurityFactoryImplE=so_stub_for_libtelux_sec_con
-Wl,--defsym=_ZTIN5telux6common12ISDKListenerE=so_stub_for_libtelux_sec_con
-Wl,--defsym=_ZTIN5telux6common13FactoryHelperE=so_stub_for_libtelux_sec_con
-Wl,--defsym=_ZTIN5telux6common22IServiceStatusListenerE=so_stub_for_libtelux_sec_con
-Wl,--defsym=_ZTINSt13__future_base13_State_baseV27_SetterIN5telux6common13ServiceStatusERKS4_EE=so_stub_for_libtelux_sec_con
-Wl,--defsym=_ZTINSt13__future_base13_State_baseV2E=so_stub_for_libtelux_sec_con
-Wl,--defsym=_ZTINSt13__future_base16_Task_state_baseIFvvEEE=so_stub_for_libtelux_sec_con
-Wl,--defsym=_ZTINSt13__future_base21_Async_state_commonV2E=so_stub_for_libtelux_sec_con
-Wl,--defsym=_ZTINSt13__future_base7_ResultIN5telux6common13ServiceStatusEEE=so_stub_for_libtelux_sec_con
-Wl,--defsym=_ZTINSt13__future_base7_ResultIvEE=so_stub_for_libtelux_sec_con
-Wl,--defsym=_ZTINSt6thread11_State_implINS_8_InvokerISt5tupleIJMN5telux6common14AsyncTaskQueueIvEEFvvEPS6_EEEEEE=so_stub_for_libtelux_sec_con
-Wl,--defsym=_ZTINSt6thread11_State_implINS_8_InvokerISt5tupleIJZN5telux6common13FactoryHelper10getManagerINS3_3sec20IWiFiSecurityManagerEEESt10shared_ptrIT_ENSt7__cxx1112basic_stringIcSt11char_traitsIcESaIcEEERSt8weak_ptrISA_ERSt6vectorISt8functionIFvNS4_13ServiceStatusEEESaISP_EESP_SM_IFSB_SP_EEEUlvE_EEEEEE=so_stub_for_libtelux_sec_con
-Wl,--defsym=_ZTISt11_Mutex_baseILN9__gnu_cxx12_Lock_policyE2EE=so_stub_for_libtelux_sec_con
-Wl,--defsym=_ZTISt16_Sp_counted_baseILN9__gnu_cxx12_Lock_policyE2EE=so_stub_for_libtelux_sec_con
-Wl,--defsym=_ZTISt23enable_shared_from_thisIN5telux3sec23WiFiSecurityManagerImplEE=so_stub_for_libtelux_sec_con
-Wl,--defsym=_ZTISt23enable_shared_from_thisIN5telux3sec27CellularSecurityManagerImplEE=so_stub_for_libtelux_sec_con
-Wl,--defsym=_ZTISt23_Sp_counted_ptr_inplaceIN5telux3sec23WiFiSecurityManagerImplESaIS2_ELN9__gnu_cxx12_Lock_policyE2EE=so_stub_for_libtelux_sec_con
-Wl,--defsym=_ZTISt23_Sp_counted_ptr_inplaceIN5telux3sec27CellularSecurityManagerImplESaIS2_ELN9__gnu_cxx12_Lock_policyE2EE=so_stub_for_libtelux_sec_con
-Wl,--defsym=_ZTISt23_Sp_counted_ptr_inplaceIN5telux6common14TaskDispatcherESaIS2_ELN9__gnu_cxx12_Lock_policyE2EE=so_stub_for_libtelux_sec_con
-Wl,--defsym=_ZTISt23_Sp_counted_ptr_inplaceIN5telux6common15ListenerManagerESaIS2_ELN9__gnu_cxx12_Lock_policyE2EE=so_stub_for_libtelux_sec_con
-Wl,--defsym=_ZTISt23_Sp_counted_ptr_inplaceINSt13__future_base13_State_baseV2ESaIS1_ELN9__gnu_cxx12_Lock_policyE2EE=so_stub_for_libtelux_sec_con
-Wl,--defsym=_ZTISt23_Sp_counted_ptr_inplaceISt6threadSaIS0_ELN9__gnu_cxx12_Lock_policyE2EE=so_stub_for_libtelux_sec_con
-Wl,--defsym=_ZTIZN5telux6common13FactoryHelper10getManagerINS_3sec20IWiFiSecurityManagerEEESt10shared_ptrIT_ENSt7__cxx1112basic_stringIcSt11char_traitsIcESaIcEEERSt8weak_ptrIS6_ERSt6vectorISt8functionIFvNS0_13ServiceStatusEEESaISL_EESL_SI_IFS7_SL_EEEUlSJ_E0_=so_stub_for_libtelux_sec_con
-Wl,--defsym=_ZTSN5telux3qmi12IQmiListenerE=so_stub_for_libtelux_sec_con
-Wl,--defsym=_ZTSN5telux3qmi15IQmiSecListenerE=so_stub_for_libtelux_sec_con
-Wl,--defsym=_ZTSN5telux3sec19IWiFiReportListenerE=so_stub_for_libtelux_sec_con
-Wl,--defsym=_ZTSN5telux3sec20IWiFiSecurityManagerE=so_stub_for_libtelux_sec_con
-Wl,--defsym=_ZTSN5telux3sec23WiFiSecurityManagerImplE=so_stub_for_libtelux_sec_con
-Wl,--defsym=_ZTSN5telux3sec24ICellularSecurityManagerE=so_stub_for_libtelux_sec_con
-Wl,--defsym=_ZTSN5telux3sec25ConnectionSecurityFactoryE=so_stub_for_libtelux_sec_con
-Wl,--defsym=_ZTSN5telux3sec27CellularSecurityManagerImplE=so_stub_for_libtelux_sec_con
-Wl,--defsym=_ZTSN5telux3sec27ICellularScanReportListenerE=so_stub_for_libtelux_sec_con
-Wl,--defsym=_ZTSN5telux3sec29ConnectionSecurityFactoryImplE=so_stub_for_libtelux_sec_con
-Wl,--defsym=_ZTSN5telux6common12ISDKListenerE=so_stub_for_libtelux_sec_con
-Wl,--defsym=_ZTSN5telux6common13FactoryHelperE=so_stub_for_libtelux_sec_con
-Wl,--defsym=_ZTSN5telux6common22IServiceStatusListenerE=so_stub_for_libtelux_sec_con
-Wl,--defsym=_ZTSNSt13__future_base13_State_baseV27_SetterIN5telux6common13ServiceStatusERKS4_EE=so_stub_for_libtelux_sec_con
-Wl,--defsym=_ZTSNSt13__future_base13_State_baseV2E=so_stub_for_libtelux_sec_con
-Wl,--defsym=_ZTSNSt13__future_base16_Task_state_baseIFvvEEE=so_stub_for_libtelux_sec_con
-Wl,--defsym=_ZTSNSt13__future_base21_Async_state_commonV2E=so_stub_for_libtelux_sec_con
-Wl,--defsym=_ZTSNSt13__future_base7_ResultIN5telux6common13ServiceStatusEEE=so_stub_for_libtelux_sec_con
-Wl,--defsym=_ZTSNSt13__future_base7_ResultIvEE=so_stub_for_libtelux_sec_con
-Wl,--defsym=_ZTSNSt6thread11_State_implINS_8_InvokerISt5tupleIJMN5telux6common14AsyncTaskQueueIvEEFvvEPS6_EEEEEE=so_stub_for_libtelux_sec_con
-Wl,--defsym=_ZTSNSt6thread11_State_implINS_8_InvokerISt5tupleIJZN5telux6common13FactoryHelper10getManagerINS3_3sec20IWiFiSecurityManagerEEESt10shared_ptrIT_ENSt7__cxx1112basic_stringIcSt11char_traitsIcESaIcEEERSt8weak_ptrISA_ERSt6vectorISt8functionIFvNS4_13ServiceStatusEEESaISP_EESP_SM_IFSB_SP_EEEUlvE_EEEEEE=so_stub_for_libtelux_sec_con
-Wl,--defsym=_ZTSSt11_Mutex_baseILN9__gnu_cxx12_Lock_policyE2EE=so_stub_for_libtelux_sec_con
-Wl,--defsym=_ZTSSt16_Sp_counted_baseILN9__gnu_cxx12_Lock_policyE2EE=so_stub_for_libtelux_sec_con
-Wl,--defsym=_ZTSSt19_Sp_make_shared_tag=so_stub_for_libtelux_sec_con
-Wl,--defsym=_ZTSSt23enable_shared_from_thisIN5telux3sec23WiFiSecurityManagerImplEE=so_stub_for_libtelux_sec_con
-Wl,--defsym=_ZTSSt23enable_shared_from_thisIN5telux3sec27CellularSecurityManagerImplEE=so_stub_for_libtelux_sec_con
-Wl,--defsym=_ZTSSt23_Sp_counted_ptr_inplaceIN5telux3sec23WiFiSecurityManagerImplESaIS2_ELN9__gnu_cxx12_Lock_policyE2EE=so_stub_for_libtelux_sec_con
-Wl,--defsym=_ZTSSt23_Sp_counted_ptr_inplaceIN5telux3sec27CellularSecurityManagerImplESaIS2_ELN9__gnu_cxx12_Lock_policyE2EE=so_stub_for_libtelux_sec_con
-Wl,--defsym=_ZTSSt23_Sp_counted_ptr_inplaceIN5telux6common14TaskDispatcherESaIS2_ELN9__gnu_cxx12_Lock_policyE2EE=so_stub_for_libtelux_sec_con
-Wl,--defsym=_ZTSSt23_Sp_counted_ptr_inplaceIN5telux6common15ListenerManagerESaIS2_ELN9__gnu_cxx12_Lock_policyE2EE=so_stub_for_libtelux_sec_con
-Wl,--defsym=_ZTSSt23_Sp_counted_ptr_inplaceINSt13__future_base13_State_baseV2ESaIS1_ELN9__gnu_cxx12_Lock_policyE2EE=so_stub_for_libtelux_sec_con
-Wl,--defsym=_ZTSSt23_Sp_counted_ptr_inplaceISt6threadSaIS0_ELN9__gnu_cxx12_Lock_policyE2EE=so_stub_for_libtelux_sec_con
-Wl,--defsym=_ZTSZN5telux6common13FactoryHelper10getManagerINS_3sec20IWiFiSecurityManagerEEESt10shared_ptrIT_ENSt7__cxx1112basic_stringIcSt11char_traitsIcESaIcEEERSt8weak_ptrIS6_ERSt6vectorISt8functionIFvNS0_13ServiceStatusEEESaISL_EESL_SI_IFS7_SL_EEEUlSJ_E0_=so_stub_for_libtelux_sec_con
-Wl,--defsym=_ZTTN5telux3sec23WiFiSecurityManagerImplE=so_stub_for_libtelux_sec_con
-Wl,--defsym=_ZTv0_n24_N5telux3sec23WiFiSecurityManagerImplD0Ev=so_stub_for_libtelux_sec_con
-Wl,--defsym=_ZTv0_n24_N5telux3sec23WiFiSecurityManagerImplD1Ev=so_stub_for_libtelux_sec_con
-Wl,--defsym=_ZTVN5telux3sec19IWiFiReportListenerE=so_stub_for_libtelux_sec_con
-Wl,--defsym=_ZTVN5telux3sec20IWiFiSecurityManagerE=so_stub_for_libtelux_sec_con
-Wl,--defsym=_ZTVN5telux3sec23WiFiSecurityManagerImplE=so_stub_for_libtelux_sec_con
-Wl,--defsym=_ZTVN5telux3sec25ConnectionSecurityFactoryE=so_stub_for_libtelux_sec_con
-Wl,--defsym=_ZTVN5telux3sec27CellularSecurityManagerImplE=so_stub_for_libtelux_sec_con
-Wl,--defsym=_ZTVN5telux3sec29ConnectionSecurityFactoryImplE=so_stub_for_libtelux_sec_con
-Wl,--defsym=_ZTVNSt13__future_base13_State_baseV2E=so_stub_for_libtelux_sec_con
-Wl,--defsym=_ZTVNSt13__future_base16_Task_state_baseIFvvEEE=so_stub_for_libtelux_sec_con
-Wl,--defsym=_ZTVNSt13__future_base21_Async_state_commonV2E=so_stub_for_libtelux_sec_con
-Wl,--defsym=_ZTVNSt13__future_base7_ResultIN5telux6common13ServiceStatusEEE=so_stub_for_libtelux_sec_con
-Wl,--defsym=_ZTVNSt13__future_base7_ResultIvEE=so_stub_for_libtelux_sec_con
-Wl,--defsym=_ZTVNSt6thread11_State_implINS_8_InvokerISt5tupleIJMN5telux6common14AsyncTaskQueueIvEEFvvEPS6_EEEEEE=so_stub_for_libtelux_sec_con
-Wl,--defsym=_ZTVNSt6thread11_State_implINS_8_InvokerISt5tupleIJZN5telux6common13FactoryHelper10getManagerINS3_3sec20IWiFiSecurityManagerEEESt10shared_ptrIT_ENSt7__cxx1112basic_stringIcSt11char_traitsIcESaIcEEERSt8weak_ptrISA_ERSt6vectorISt8functionIFvNS4_13ServiceStatusEEESaISP_EESP_SM_IFSB_SP_EEEUlvE_EEEEEE=so_stub_for_libtelux_sec_con
-Wl,--defsym=_ZTVSt23_Sp_counted_ptr_inplaceIN5telux3sec23WiFiSecurityManagerImplESaIS2_ELN9__gnu_cxx12_Lock_policyE2EE=so_stub_for_libtelux_sec_con
-Wl,--defsym=_ZTVSt23_Sp_counted_ptr_inplaceIN5telux3sec27CellularSecurityManagerImplESaIS2_ELN9__gnu_cxx12_Lock_policyE2EE=so_stub_for_libtelux_sec_con
-Wl,--defsym=_ZTVSt23_Sp_counted_ptr_inplaceIN5telux6common14TaskDispatcherESaIS2_ELN9__gnu_cxx12_Lock_policyE2EE=so_stub_for_libtelux_sec_con
-Wl,--defsym=_ZTVSt23_Sp_counted_ptr_inplaceIN5telux6common15ListenerManagerESaIS2_ELN9__gnu_cxx12_Lock_policyE2EE=so_stub_for_libtelux_sec_con
-Wl,--defsym=_ZTVSt23_Sp_counted_ptr_inplaceINSt13__future_base13_State_baseV2ESaIS1_ELN9__gnu_cxx12_Lock_policyE2EE=so_stub_for_libtelux_sec_con
-Wl,--defsym=_ZTVSt23_Sp_counted_ptr_inplaceISt6threadSaIS0_ELN9__gnu_cxx12_Lock_policyE2EE=so_stub_for_libtelux_sec_con
-Wl,--defsym=_ZZN5telux6common13FactoryHelper10getManagerINS_3sec20IWiFiSecurityManagerEEESt10shared_ptrIT_ENSt7__cxx1112basic_stringIcSt11char_traitsIcESaIcEEERSt8weak_ptrIS6_ERSt6vectorISt8functionIFvNS0_13ServiceStatusEEESaISL_EESL_SI_IFS7_SL_EEENKUlSJ_E0_clESJ_=so_stub_for_libtelux_sec_con
-Wl,--defsym=_ZZNSt19_Sp_make_shared_tag5_S_tiEvE5__tag=so_stub_for_libtelux_sec_con
-Wl,--defsym=_ZZNSt8__detail18__to_chars_10_implIjEEvPcjT_E8__digits=so_stub_for_libtelux_sec_con
-Wl,--defsym=_ZZNSt9once_flag18_Prepare_executionC4IZSt9call_onceIMNSt13__future_base13_State_baseV2EFvPSt8functionIFSt10unique_ptrINS3_12_Result_baseENS7_8_DeleterEEvEEPbEJPS4_SC_SD_EEvRS_OT_DpOT0_EUlvE_EERSI_ENUlvE_4_FUNEv=so_stub_for_libtelux_sec_con
-Wl,--defsym=_ZZNSt9once_flag18_Prepare_executionC4IZSt9call_onceIMSt6threadFvvEJPS3_EEvRS_OT_DpOT0_EUlvE_EERS8_ENUlvE_4_FUNEv=so_stub_for_libtelux_sec_con
