-Wl,--defsym=__gcov_error_file=so_stub_for_libtelux_platform
-Wl,--defsym=__gcov_kvp_dynamic_pool=so_stub_for_libtelux_platform
-Wl,--defsym=__gcov_kvp_dynamic_pool_index=so_stub_for_libtelux_platform
-Wl,--defsym=__gcov_kvp_dynamic_pool_size=so_stub_for_libtelux_platform
-Wl,--defsym=__gcov_master=so_stub_for_libtelux_platform
-Wl,--defsym=__gcov_var=so_stub_for_libtelux_platform
-Wl,--defsym=mangle_path=so_stub_for_libtelux_platform
-Wl,--defsym=_ZN5telux3loc17ILocationListener12onGnssSVInfoERKSt10shared_ptrINS0_11IGnssSVInfoEE=so_stub_for_libtelux_platform
-Wl,--defsym=_ZN5telux3loc17ILocationListener14onGnssNmeaInfoEmRKNSt7__cxx1112basic_stringIcSt11char_traitsIcESaIcEEE=so_stub_for_libtelux_platform
-Wl,--defsym=_ZN5telux3loc17ILocationListener16onEngineNmeaInfoENS0_23LocationAggregationTypeEmRKNSt7__cxx1112basic_stringIcSt11char_traitsIcESaIcEEE=so_stub_for_libtelux_platform
-Wl,--defsym=_ZN5telux3loc17ILocationListener16onGnssSignalInfoERKSt10shared_ptrINS0_15IGnssSignalInfoEE=so_stub_for_libtelux_platform
-Wl,--defsym=_ZN5telux3loc17ILocationListener18onCapabilitiesInfoEj=so_stub_for_libtelux_platform
-Wl,--defsym=_ZN5telux3loc17ILocationListener19onGnssEphemerisInfoERKNS0_13GnssEphemerisE=so_stub_for_libtelux_platform
-Wl,--defsym=_ZN5telux3loc17ILocationListener21onBasicLocationUpdateERKSt10shared_ptrINS0_17ILocationInfoBaseEE=so_stub_for_libtelux_platform
-Wl,--defsym=_ZN5telux3loc17ILocationListener22onGnssExtendedDataInfoERKSt6vectorIhSaIhEE=so_stub_for_libtelux_platform
-Wl,--defsym=_ZN5telux3loc17ILocationListener22onGnssMeasurementsInfoERKNS0_16GnssMeasurementsE=so_stub_for_libtelux_platform
-Wl,--defsym=_ZN5telux3loc17ILocationListener24onDetailedLocationUpdateERKSt10shared_ptrINS0_15ILocationInfoExEE=so_stub_for_libtelux_platform
-Wl,--defsym=_ZN5telux3loc17ILocationListener24onGnssDisasterCrisisInfoERKNS0_24GnssDisasterCrisisReportE=so_stub_for_libtelux_platform
-Wl,--defsym=_ZN5telux3loc17ILocationListener30onDetailedEngineLocationUpdateERKSt6vectorISt10shared_ptrINS0_15ILocationInfoExEESaIS5_EE=so_stub_for_libtelux_platform
-Wl,--defsym=_ZN5telux3loc17ILocationListenerD0Ev=so_stub_for_libtelux_platform
-Wl,--defsym=_ZN5telux3loc17ILocationListenerD1Ev=so_stub_for_libtelux_platform
-Wl,--defsym=_ZN5telux3loc17ILocationListenerD2Ev=so_stub_for_libtelux_platform
-Wl,--defsym=_ZN5telux3qmi15IQmiAsiListener21onActiveAntennaChangeEP31antswitch_config_change_ind_v01=so_stub_for_libtelux_platform
-Wl,--defsym=_ZN5telux3qmi15IQmiAsiListener24onAsiServiceStatusChangeENS_6common13ServiceStatusE=so_stub_for_libtelux_platform
-Wl,--defsym=_ZN5telux3qmi15IQmiDmsListener21onOperatingModeChangeEi=so_stub_for_libtelux_platform
-Wl,--defsym=_ZN5telux3qmi15IQmiDmsListener21onRFBandCapabilityIndEPK34dms_band_capability_ex_ind_msg_v01=so_stub_for_libtelux_platform
-Wl,--defsym=_ZN5telux3qmi15IQmiDmsListener24onDmsServiceStatusChangeENS_6common13ServiceStatusEi=so_stub_for_libtelux_platform
-Wl,--defsym=_ZN5telux3qmi15IQmiDmsListener26onModemActivityClientReadyEb=so_stub_for_libtelux_platform
-Wl,--defsym=_ZN5telux3qmi16ICv2xQmiListener15onCv2xStatusIndERKNS0_13Cv2xStatusIndE=so_stub_for_libtelux_platform
-Wl,--defsym=_ZN5telux3qmi16ICv2xQmiListener15onSlssRxInfoIndERKNS0_14Cv2xSlssRxInfoE=so_stub_for_libtelux_platform
-Wl,--defsym=_ZN5telux3qmi16ICv2xQmiListener16onSrcIdCollisionEj=so_stub_for_libtelux_platform
-Wl,--defsym=_ZN5telux3qmi16ICv2xQmiListener16onTxStatusReportERKNS0_21Cv2xTxStatusReportIndE=so_stub_for_libtelux_platform
-Wl,--defsym=_ZN5telux3qmi16ICv2xQmiListener19onCv2xUtcTimeReportERNS0_17Cv2xUtcTimeReportE=so_stub_for_libtelux_platform
-Wl,--defsym=_ZN5telux3qmi16ICv2xQmiListener22onCv2xQmiServiceChangeENS_6common13ServiceStatusE=so_stub_for_libtelux_platform
-Wl,--defsym=_ZN5telux6common13FactoryHelper10getManagerINS_8platform10IFsManagerEEESt10shared_ptrIT_ENSt7__cxx1112basic_stringIcSt11char_traitsIcESaIcEEERSt8weak_ptrIS6_ERSt6vectorISt8functionIFvNS0_13ServiceStatusEEESaISL_EESL_SI_IFS7_SL_EE=so_stub_for_libtelux_platform
-Wl,--defsym=_ZN5telux6common13FactoryHelper10getManagerINS_8platform12ITimeManagerEEESt10shared_ptrIT_ENSt7__cxx1112basic_stringIcSt11char_traitsIcESaIcEEERSt8weak_ptrIS6_ERSt6vectorISt8functionIFvNS0_13ServiceStatusEEESaISL_EESL_SI_IFS7_SL_EE=so_stub_for_libtelux_platform
-Wl,--defsym=_ZN5telux6common13FactoryHelper10getManagerINS_8platform17ISubsystemManagerEEESt10shared_ptrIT_ENSt7__cxx1112basic_stringIcSt11char_traitsIcESaIcEEERSt8weak_ptrIS6_ERSt6vectorISt8functionIFvNS0_13ServiceStatusEEESaISL_EESL_SI_IFS7_SL_EE=so_stub_for_libtelux_platform
-Wl,--defsym=_ZN5telux6common13FactoryHelper10getManagerINS_8platform18IDeviceInfoManagerEEESt10shared_ptrIT_ENSt7__cxx1112basic_stringIcSt11char_traitsIcESaIcEEERSt8weak_ptrIS6_ERSt6vectorISt8functionIFvNS0_13ServiceStatusEEESaISL_EESL_SI_IFS7_SL_EE=so_stub_for_libtelux_platform
-Wl,--defsym=_ZN5telux6common13FactoryHelper10getManagerINS_8platform8hardware15IAntennaManagerEEESt10shared_ptrIT_ENSt7__cxx1112basic_stringIcSt11char_traitsIcESaIcEEERSt8weak_ptrIS7_ERSt6vectorISt8functionIFvNS0_13ServiceStatusEEESaISM_EESM_SJ_IFS8_SM_EE=so_stub_for_libtelux_platform
-Wl,--defsym=_ZN5telux6common13FactoryHelper20initCompleteNotifierENSt7__cxx1112basic_stringIcSt11char_traitsIcESaIcEEERSt6vectorISt8functionIFvNS0_13ServiceStatusEEESaISC_EESA_=so_stub_for_libtelux_platform
-Wl,--defsym=_ZN5telux6common14AsyncTaskQueueIvE11executeTaskEv=so_stub_for_libtelux_platform
-Wl,--defsym=_ZN5telux6common14AsyncTaskQueueIvE14purgeCompletedEv=so_stub_for_libtelux_platform
-Wl,--defsym=_ZN5telux6common14AsyncTaskQueueIvE3addERSt13shared_futureIvE=so_stub_for_libtelux_platform
-Wl,--defsym=_ZN5telux6common14AsyncTaskQueueIvE8shutdownEb=so_stub_for_libtelux_platform
-Wl,--defsym=_ZN5telux6common14AsyncTaskQueueIvEC1Ev=so_stub_for_libtelux_platform
-Wl,--defsym=_ZN5telux6common14AsyncTaskQueueIvEC2Ev=so_stub_for_libtelux_platform
-Wl,--defsym=_ZN5telux6common14AsyncTaskQueueIvED1Ev=so_stub_for_libtelux_platform
-Wl,--defsym=_ZN5telux6common14AsyncTaskQueueIvED2Ev=so_stub_for_libtelux_platform
-Wl,--defsym=_ZN5telux6common15ListenerManager16registerListenerESt8weak_ptrINS0_12ISDKListenerEE=so_stub_for_libtelux_platform
-Wl,--defsym=_ZN5telux6common15ListenerManager16registerListenerISt6bitsetILm2EEEENS0_6StatusESt8weak_ptrINS0_12ISDKListenerEET_RS9_=so_stub_for_libtelux_platform
-Wl,--defsym=_ZN5telux6common15ListenerManager18deRegisterListenerESt8weak_ptrINS0_12ISDKListenerEE=so_stub_for_libtelux_platform
-Wl,--defsym=_ZN5telux6common15ListenerManager18deRegisterListenerISt6bitsetILm2EEEENS0_6StatusESt8weak_ptrINS0_12ISDKListenerEET_RS9_=so_stub_for_libtelux_platform
-Wl,--defsym=_ZN5telux6common15ListenerManager21getAvailableListenersEjRSt6vectorISt8weak_ptrINS0_12ISDKListenerEESaIS5_EE=so_stub_for_libtelux_platform
-Wl,--defsym=_ZN5telux6common15ListenerManager21getAvailableListenersERSt6vectorISt8weak_ptrINS0_12ISDKListenerEESaIS5_EE=so_stub_for_libtelux_platform
-Wl,--defsym=_ZN5telux6common15ListenerManager5purgeEv=so_stub_for_libtelux_platform
-Wl,--defsym=_ZN5telux6common15ListenerManager7cleanupEv=so_stub_for_libtelux_platform
-Wl,--defsym=_ZN5telux6common15ListenerManagerC1Ev=so_stub_for_libtelux_platform
-Wl,--defsym=_ZN5telux6common15ListenerManagerC2Ev=so_stub_for_libtelux_platform
-Wl,--defsym=_ZN5telux6common15ListenerManagerD1Ev=so_stub_for_libtelux_platform
-Wl,--defsym=_ZN5telux6common15ListenerManagerD2Ev=so_stub_for_libtelux_platform
-Wl,--defsym=_ZN5telux6common18FunctionalCallbackIJiNS0_9ErrorCodeEEED0Ev=so_stub_for_libtelux_platform
-Wl,--defsym=_ZN5telux6common18FunctionalCallbackIJiNS0_9ErrorCodeEEED1Ev=so_stub_for_libtelux_platform
-Wl,--defsym=_ZN5telux6common18FunctionalCallbackIJiNS0_9ErrorCodeEEED2Ev=so_stub_for_libtelux_platform
-Wl,--defsym=_ZN5telux6common18FunctionalCallbackIJNS0_9ErrorCodeEEED0Ev=so_stub_for_libtelux_platform
-Wl,--defsym=_ZN5telux6common18FunctionalCallbackIJNS0_9ErrorCodeEEED1Ev=so_stub_for_libtelux_platform
-Wl,--defsym=_ZN5telux6common18FunctionalCallbackIJNS0_9ErrorCodeEEED2Ev=so_stub_for_libtelux_platform
-Wl,--defsym=_ZN5telux6common22CommandCallbackManager11addCallbackIJiNS0_9ErrorCodeEEEEiSt8functionIFvDpT_EE=so_stub_for_libtelux_platform
-Wl,--defsym=_ZN5telux6common22CommandCallbackManager11addCallbackIJNS0_9ErrorCodeEEEEiSt8functionIFvDpT_EE=so_stub_for_libtelux_platform
-Wl,--defsym=_ZN5telux6common22CommandCallbackManager15executeCallbackIJRiRNS0_9ErrorCodeEEEEvSt10shared_ptrINS0_16ICommandCallbackEEDpOT_=so_stub_for_libtelux_platform
-Wl,--defsym=_ZN5telux6common22CommandCallbackManager15executeCallbackIJRNS0_9ErrorCodeEEEEvSt10shared_ptrINS0_16ICommandCallbackEEDpOT_=so_stub_for_libtelux_platform
-Wl,--defsym=_ZN5telux6common3Log10logMessageIJNSt7__cxx1112basic_stringIcSt11char_traitsIcESaIcEEEPKcmSA_PNS_8platform10IFsManagerESA_iEEEvNS0_8LogLevelERKS8_SG_RKiDpT_=so_stub_for_libtelux_platform
-Wl,--defsym=_ZN5telux6common3Log10logMessageIJNSt7__cxx1112basic_stringIcSt11char_traitsIcESaIcEEEPKcmSA_PNS_8platform12ITimeManagerESA_iEEEvNS0_8LogLevelERKS8_SG_RKiDpT_=so_stub_for_libtelux_platform
-Wl,--defsym=_ZN5telux6common3Log10logMessageIJNSt7__cxx1112basic_stringIcSt11char_traitsIcESaIcEEEPKcmSA_PNS_8platform17ISubsystemManagerESA_iEEEvNS0_8LogLevelERKS8_SG_RKiDpT_=so_stub_for_libtelux_platform
-Wl,--defsym=_ZN5telux6common3Log10logMessageIJNSt7__cxx1112basic_stringIcSt11char_traitsIcESaIcEEEPKcmSA_PNS_8platform18IDeviceInfoManagerESA_iEEEvNS0_8LogLevelERKS8_SG_RKiDpT_=so_stub_for_libtelux_platform
-Wl,--defsym=_ZN5telux6common3Log10logMessageIJNSt7__cxx1112basic_stringIcSt11char_traitsIcESaIcEEEPKcmSA_PNS_8platform8hardware15IAntennaManagerESA_iEEEvNS0_8LogLevelERKS8_SH_RKiDpT_=so_stub_for_libtelux_platform
-Wl,--defsym=_ZN5telux6common3Log10logMessageIJNSt7__cxx1112basic_stringIcSt11char_traitsIcESaIcEEEPKcPNS_8platform10IFsManagerEEEEvNS0_8LogLevelERKS8_SG_RKiDpT_=so_stub_for_libtelux_platform
-Wl,--defsym=_ZN5telux6common3Log10logMessageIJNSt7__cxx1112basic_stringIcSt11char_traitsIcESaIcEEEPKcPNS_8platform10IFsManagerESA_EEEvNS0_8LogLevelERKS8_SG_RKiDpT_=so_stub_for_libtelux_platform
-Wl,--defsym=_ZN5telux6common3Log10logMessageIJNSt7__cxx1112basic_stringIcSt11char_traitsIcESaIcEEEPKcPNS_8platform10IFsManagerESA_iEEEvNS0_8LogLevelERKS8_SG_RKiDpT_=so_stub_for_libtelux_platform
-Wl,--defsym=_ZN5telux6common3Log10logMessageIJNSt7__cxx1112basic_stringIcSt11char_traitsIcESaIcEEEPKcPNS_8platform12ITimeManagerEEEEvNS0_8LogLevelERKS8_SG_RKiDpT_=so_stub_for_libtelux_platform
-Wl,--defsym=_ZN5telux6common3Log10logMessageIJNSt7__cxx1112basic_stringIcSt11char_traitsIcESaIcEEEPKcPNS_8platform12ITimeManagerESA_EEEvNS0_8LogLevelERKS8_SG_RKiDpT_=so_stub_for_libtelux_platform
-Wl,--defsym=_ZN5telux6common3Log10logMessageIJNSt7__cxx1112basic_stringIcSt11char_traitsIcESaIcEEEPKcPNS_8platform12ITimeManagerESA_iEEEvNS0_8LogLevelERKS8_SG_RKiDpT_=so_stub_for_libtelux_platform
-Wl,--defsym=_ZN5telux6common3Log10logMessageIJNSt7__cxx1112basic_stringIcSt11char_traitsIcESaIcEEEPKcPNS_8platform17ISubsystemManagerEEEEvNS0_8LogLevelERKS8_SG_RKiDpT_=so_stub_for_libtelux_platform
-Wl,--defsym=_ZN5telux6common3Log10logMessageIJNSt7__cxx1112basic_stringIcSt11char_traitsIcESaIcEEEPKcPNS_8platform17ISubsystemManagerESA_EEEvNS0_8LogLevelERKS8_SG_RKiDpT_=so_stub_for_libtelux_platform
-Wl,--defsym=_ZN5telux6common3Log10logMessageIJNSt7__cxx1112basic_stringIcSt11char_traitsIcESaIcEEEPKcPNS_8platform17ISubsystemManagerESA_iEEEvNS0_8LogLevelERKS8_SG_RKiDpT_=so_stub_for_libtelux_platform
-Wl,--defsym=_ZN5telux6common3Log10logMessageIJNSt7__cxx1112basic_stringIcSt11char_traitsIcESaIcEEEPKcPNS_8platform18IDeviceInfoManagerEEEEvNS0_8LogLevelERKS8_SG_RKiDpT_=so_stub_for_libtelux_platform
-Wl,--defsym=_ZN5telux6common3Log10logMessageIJNSt7__cxx1112basic_stringIcSt11char_traitsIcESaIcEEEPKcPNS_8platform18IDeviceInfoManagerESA_EEEvNS0_8LogLevelERKS8_SG_RKiDpT_=so_stub_for_libtelux_platform
-Wl,--defsym=_ZN5telux6common3Log10logMessageIJNSt7__cxx1112basic_stringIcSt11char_traitsIcESaIcEEEPKcPNS_8platform18IDeviceInfoManagerESA_iEEEvNS0_8LogLevelERKS8_SG_RKiDpT_=so_stub_for_libtelux_platform
-Wl,--defsym=_ZN5telux6common3Log10logMessageIJNSt7__cxx1112basic_stringIcSt11char_traitsIcESaIcEEEPKcPNS_8platform8hardware15IAntennaManagerEEEEvNS0_8LogLevelERKS8_SH_RKiDpT_=so_stub_for_libtelux_platform
-Wl,--defsym=_ZN5telux6common3Log10logMessageIJNSt7__cxx1112basic_stringIcSt11char_traitsIcESaIcEEEPKcPNS_8platform8hardware15IAntennaManagerESA_EEEvNS0_8LogLevelERKS8_SH_RKiDpT_=so_stub_for_libtelux_platform
-Wl,--defsym=_ZN5telux6common3Log10logMessageIJNSt7__cxx1112basic_stringIcSt11char_traitsIcESaIcEEEPKcPNS_8platform8hardware15IAntennaManagerESA_iEEEvNS0_8LogLevelERKS8_SH_RKiDpT_=so_stub_for_libtelux_platform
-Wl,--defsym=_ZN5telux6common3Log10logMessageIJPKcEEEvNS0_8LogLevelERKNSt7__cxx1112basic_stringIcSt11char_traitsIcESaIcEEESD_RKiDpT_=so_stub_for_libtelux_platform
-Wl,--defsym=_ZN5telux6common3Log10logMessageIJPKcmEEEvNS0_8LogLevelERKNSt7__cxx1112basic_stringIcSt11char_traitsIcESaIcEEESD_RKiDpT_=so_stub_for_libtelux_platform
-Wl,--defsym=_ZN5telux6common3Log10logMessageIJPKcNSt7__cxx1112basic_stringIcSt11char_traitsIcESaIcEEES4_PNS_8platform10IFsManagerEEEEvNS0_8LogLevelERKSA_SG_RKiDpT_=so_stub_for_libtelux_platform
-Wl,--defsym=_ZN5telux6common3Log10logMessageIJPKcNSt7__cxx1112basic_stringIcSt11char_traitsIcESaIcEEES4_PNS_8platform12ITimeManagerEEEEvNS0_8LogLevelERKSA_SG_RKiDpT_=so_stub_for_libtelux_platform
-Wl,--defsym=_ZN5telux6common3Log10logMessageIJPKcNSt7__cxx1112basic_stringIcSt11char_traitsIcESaIcEEES4_PNS_8platform17ISubsystemManagerEEEEvNS0_8LogLevelERKSA_SG_RKiDpT_=so_stub_for_libtelux_platform
-Wl,--defsym=_ZN5telux6common3Log10logMessageIJPKcNSt7__cxx1112basic_stringIcSt11char_traitsIcESaIcEEES4_PNS_8platform18IDeviceInfoManagerEEEEvNS0_8LogLevelERKSA_SG_RKiDpT_=so_stub_for_libtelux_platform
-Wl,--defsym=_ZN5telux6common3Log10logMessageIJPKcNSt7__cxx1112basic_stringIcSt11char_traitsIcESaIcEEES4_PNS_8platform8hardware15IAntennaManagerEEEEvNS0_8LogLevelERKSA_SH_RKiDpT_=so_stub_for_libtelux_platform
-Wl,--defsym=_ZN5telux6common3Log10logMessageIJPKcS4_bEEEvNS0_8LogLevelERKNSt7__cxx1112basic_stringIcSt11char_traitsIcESaIcEEESD_RKiDpT_=so_stub_for_libtelux_platform
-Wl,--defsym=_ZN5telux6common3Log10logMessageIJPKcS4_EEEvNS0_8LogLevelERKNSt7__cxx1112basic_stringIcSt11char_traitsIcESaIcEEESD_RKiDpT_=so_stub_for_libtelux_platform
-Wl,--defsym=_ZN5telux6common3Log10logMessageIJPKcS4_iEEEvNS0_8LogLevelERKNSt7__cxx1112basic_stringIcSt11char_traitsIcESaIcEEESD_RKiDpT_=so_stub_for_libtelux_platform
-Wl,--defsym=_ZN5telux6common3Log10logMessageIJPKcS4_iS4_mEEEvNS0_8LogLevelERKNSt7__cxx1112basic_stringIcSt11char_traitsIcESaIcEEESD_RKiDpT_=so_stub_for_libtelux_platform
-Wl,--defsym=_ZN5telux6common3Log10logMessageIJPKcS4_mEEEvNS0_8LogLevelERKNSt7__cxx1112basic_stringIcSt11char_traitsIcESaIcEEESD_RKiDpT_=so_stub_for_libtelux_platform
-Wl,--defsym=_ZN5telux6common3Log10logMessageIJPKcS4_NSt7__cxx1112basic_stringIcSt11char_traitsIcESaIcEEEEEEvNS0_8LogLevelERKSA_SD_RKiDpT_=so_stub_for_libtelux_platform
-Wl,--defsym=_ZN5telux6common3Log10logMessageIJPKcS4_NSt7__cxx1112basic_stringIcSt11char_traitsIcESaIcEEES4_iS4_PSt6vectorISt8functionIFvNS0_13ServiceStatusEEESaISF_EEEEEvNS0_8LogLevelERKSA_SL_RKiDpT_=so_stub_for_libtelux_platform
-Wl,--defsym=_ZN5telux6common3Log10logMessageIJPKcS4_NSt7__cxx1112basic_stringIcSt11char_traitsIcESaIcEEES4_PNS_8platform10IFsManagerEEEEvNS0_8LogLevelERKSA_SG_RKiDpT_=so_stub_for_libtelux_platform
-Wl,--defsym=_ZN5telux6common3Log10logMessageIJPKcS4_NSt7__cxx1112basic_stringIcSt11char_traitsIcESaIcEEES4_PNS_8platform12ITimeManagerEEEEvNS0_8LogLevelERKSA_SG_RKiDpT_=so_stub_for_libtelux_platform
-Wl,--defsym=_ZN5telux6common3Log10logMessageIJPKcS4_NSt7__cxx1112basic_stringIcSt11char_traitsIcESaIcEEES4_PNS_8platform17ISubsystemManagerEEEEvNS0_8LogLevelERKSA_SG_RKiDpT_=so_stub_for_libtelux_platform
-Wl,--defsym=_ZN5telux6common3Log10logMessageIJPKcS4_NSt7__cxx1112basic_stringIcSt11char_traitsIcESaIcEEES4_PNS_8platform18IDeviceInfoManagerEEEEvNS0_8LogLevelERKSA_SG_RKiDpT_=so_stub_for_libtelux_platform
-Wl,--defsym=_ZN5telux6common3Log10logMessageIJPKcS4_NSt7__cxx1112basic_stringIcSt11char_traitsIcESaIcEEES4_PNS_8platform8hardware15IAntennaManagerEEEEvNS0_8LogLevelERKSA_SH_RKiDpT_=so_stub_for_libtelux_platform
-Wl,--defsym=_ZN5telux6common3Log10logMessageIJPKcS4_NSt7__cxx1112basic_stringIcSt11char_traitsIcESaIcEEES4_S4_EEEvNS0_8LogLevelERKSA_SD_RKiDpT_=so_stub_for_libtelux_platform
-Wl,--defsym=_ZN5telux6common3Log10logMessageIJPKcS4_PSt8functionIFvNS0_13ServiceStatusEEEEEEvNS0_8LogLevelERKNSt7__cxx1112basic_stringIcSt11char_traitsIcESaIcEEESI_RKiDpT_=so_stub_for_libtelux_platform
-Wl,--defsym=_ZN5telux6common3Log10logMessageIJPKcS4_S4_EEEvNS0_8LogLevelERKNSt7__cxx1112basic_stringIcSt11char_traitsIcESaIcEEESD_RKiDpT_=so_stub_for_libtelux_platform
-Wl,--defsym=_ZN5telux6common3Log10logMessageIJPKcS4_S4_S4_PSt6vectorISt8functionIFvNS0_13ServiceStatusEEESaIS9_EEEEEvNS0_8LogLevelERKNSt7__cxx1112basic_stringIcSt11char_traitsIcESaIcEEESL_RKiDpT_=so_stub_for_libtelux_platform
-Wl,--defsym=_ZN5telux6common3Log10logMessageIJPKcS4_St6bitsetILm2EEEEEvNS0_8LogLevelERKNSt7__cxx1112basic_stringIcSt11char_traitsIcESaIcEEESF_RKiDpT_=so_stub_for_libtelux_platform
-Wl,--defsym=_ZN5telux6common3Log16constructMessageINSt7__cxx1119basic_ostringstreamIcSt11char_traitsIcESaIcEEENS3_12basic_stringIcS6_S7_EEJPKciSC_PSt6vectorISt8functionIFvNS0_13ServiceStatusEEESaISH_EEEEEvRT_T0_DpT1_=so_stub_for_libtelux_platform
-Wl,--defsym=_ZN5telux6common3Log16constructMessageINSt7__cxx1119basic_ostringstreamIcSt11char_traitsIcESaIcEEENS3_12basic_stringIcS6_S7_EEJPKcmSC_PNS_8platform10IFsManagerESC_iEEEvRT_T0_DpT1_=so_stub_for_libtelux_platform
-Wl,--defsym=_ZN5telux6common3Log16constructMessageINSt7__cxx1119basic_ostringstreamIcSt11char_traitsIcESaIcEEENS3_12basic_stringIcS6_S7_EEJPKcmSC_PNS_8platform12ITimeManagerESC_iEEEvRT_T0_DpT1_=so_stub_for_libtelux_platform
-Wl,--defsym=_ZN5telux6common3Log16constructMessageINSt7__cxx1119basic_ostringstreamIcSt11char_traitsIcESaIcEEENS3_12basic_stringIcS6_S7_EEJPKcmSC_PNS_8platform17ISubsystemManagerESC_iEEEvRT_T0_DpT1_=so_stub_for_libtelux_platform
-Wl,--defsym=_ZN5telux6common3Log16constructMessageINSt7__cxx1119basic_ostringstreamIcSt11char_traitsIcESaIcEEENS3_12basic_stringIcS6_S7_EEJPKcmSC_PNS_8platform18IDeviceInfoManagerESC_iEEEvRT_T0_DpT1_=so_stub_for_libtelux_platform
-Wl,--defsym=_ZN5telux6common3Log16constructMessageINSt7__cxx1119basic_ostringstreamIcSt11char_traitsIcESaIcEEENS3_12basic_stringIcS6_S7_EEJPKcmSC_PNS_8platform8hardware15IAntennaManagerESC_iEEEvRT_T0_DpT1_=so_stub_for_libtelux_platform
-Wl,--defsym=_ZN5telux6common3Log16constructMessageINSt7__cxx1119basic_ostringstreamIcSt11char_traitsIcESaIcEEEPKcJNS3_12basic_stringIcS6_S7_EEEEEvRT_T0_DpT1_=so_stub_for_libtelux_platform
-Wl,--defsym=_ZN5telux6common3Log16constructMessageINSt7__cxx1119basic_ostringstreamIcSt11char_traitsIcESaIcEEEPKcJNS3_12basic_stringIcS6_S7_EESA_iSA_PSt6vectorISt8functionIFvNS0_13ServiceStatusEEESaISH_EEEEEvRT_T0_DpT1_=so_stub_for_libtelux_platform
-Wl,--defsym=_ZN5telux6common3Log16constructMessageINSt7__cxx1119basic_ostringstreamIcSt11char_traitsIcESaIcEEEPKcJNS3_12basic_stringIcS6_S7_EESA_PNS_8platform10IFsManagerEEEEvRT_T0_DpT1_=so_stub_for_libtelux_platform
-Wl,--defsym=_ZN5telux6common3Log16constructMessageINSt7__cxx1119basic_ostringstreamIcSt11char_traitsIcESaIcEEEPKcJNS3_12basic_stringIcS6_S7_EESA_PNS_8platform12ITimeManagerEEEEvRT_T0_DpT1_=so_stub_for_libtelux_platform
-Wl,--defsym=_ZN5telux6common3Log16constructMessageINSt7__cxx1119basic_ostringstreamIcSt11char_traitsIcESaIcEEEPKcJNS3_12basic_stringIcS6_S7_EESA_PNS_8platform17ISubsystemManagerEEEEvRT_T0_DpT1_=so_stub_for_libtelux_platform
-Wl,--defsym=_ZN5telux6common3Log16constructMessageINSt7__cxx1119basic_ostringstreamIcSt11char_traitsIcESaIcEEEPKcJNS3_12basic_stringIcS6_S7_EESA_PNS_8platform18IDeviceInfoManagerEEEEvRT_T0_DpT1_=so_stub_for_libtelux_platform
-Wl,--defsym=_ZN5telux6common3Log16constructMessageINSt7__cxx1119basic_ostringstreamIcSt11char_traitsIcESaIcEEEPKcJNS3_12basic_stringIcS6_S7_EESA_PNS_8platform8hardware15IAntennaManagerEEEEvRT_T0_DpT1_=so_stub_for_libtelux_platform
-Wl,--defsym=_ZN5telux6common3Log16constructMessageINSt7__cxx1119basic_ostringstreamIcSt11char_traitsIcESaIcEEEPKcJNS3_12basic_stringIcS6_S7_EESA_SA_EEEvRT_T0_DpT1_=so_stub_for_libtelux_platform
-Wl,--defsym=_ZN5telux6common3Log16constructMessageINSt7__cxx1119basic_ostringstreamIcSt11char_traitsIcESaIcEEEPKcJSA_iSA_mEEEvRT_T0_DpT1_=so_stub_for_libtelux_platform
-Wl,--defsym=_ZN5telux6common3Log16constructMessageINSt7__cxx1119basic_ostringstreamIcSt11char_traitsIcESaIcEEEPKcJSA_NS3_12basic_stringIcS6_S7_EEEEEvRT_T0_DpT1_=so_stub_for_libtelux_platform
-Wl,--defsym=_ZN5telux6common3Log16constructMessageINSt7__cxx1119basic_ostringstreamIcSt11char_traitsIcESaIcEEEPKcJSA_NS3_12basic_stringIcS6_S7_EESA_iSA_PSt6vectorISt8functionIFvNS0_13ServiceStatusEEESaISH_EEEEEvRT_T0_DpT1_=so_stub_for_libtelux_platform
-Wl,--defsym=_ZN5telux6common3Log16constructMessageINSt7__cxx1119basic_ostringstreamIcSt11char_traitsIcESaIcEEEPKcJSA_NS3_12basic_stringIcS6_S7_EESA_PNS_8platform10IFsManagerEEEEvRT_T0_DpT1_=so_stub_for_libtelux_platform
-Wl,--defsym=_ZN5telux6common3Log16constructMessageINSt7__cxx1119basic_ostringstreamIcSt11char_traitsIcESaIcEEEPKcJSA_NS3_12basic_stringIcS6_S7_EESA_PNS_8platform12ITimeManagerEEEEvRT_T0_DpT1_=so_stub_for_libtelux_platform
-Wl,--defsym=_ZN5telux6common3Log16constructMessageINSt7__cxx1119basic_ostringstreamIcSt11char_traitsIcESaIcEEEPKcJSA_NS3_12basic_stringIcS6_S7_EESA_PNS_8platform17ISubsystemManagerEEEEvRT_T0_DpT1_=so_stub_for_libtelux_platform
-Wl,--defsym=_ZN5telux6common3Log16constructMessageINSt7__cxx1119basic_ostringstreamIcSt11char_traitsIcESaIcEEEPKcJSA_NS3_12basic_stringIcS6_S7_EESA_PNS_8platform18IDeviceInfoManagerEEEEvRT_T0_DpT1_=so_stub_for_libtelux_platform
-Wl,--defsym=_ZN5telux6common3Log16constructMessageINSt7__cxx1119basic_ostringstreamIcSt11char_traitsIcESaIcEEEPKcJSA_NS3_12basic_stringIcS6_S7_EESA_PNS_8platform8hardware15IAntennaManagerEEEEvRT_T0_DpT1_=so_stub_for_libtelux_platform
-Wl,--defsym=_ZN5telux6common3Log16constructMessageINSt7__cxx1119basic_ostringstreamIcSt11char_traitsIcESaIcEEEPKcJSA_NS3_12basic_stringIcS6_S7_EESA_SA_EEEvRT_T0_DpT1_=so_stub_for_libtelux_platform
-Wl,--defsym=_ZN5telux6common3Log16constructMessageINSt7__cxx1119basic_ostringstreamIcSt11char_traitsIcESaIcEEEPKcJSA_SA_SA_PSt6vectorISt8functionIFvNS0_13ServiceStatusEEESaISF_EEEEEvRT_T0_DpT1_=so_stub_for_libtelux_platform
-Wl,--defsym=_ZN5telux8platform13FsManagerImpl11startAbSyncESt8functionIFvNS_6common9ErrorCodeEEE=so_stub_for_libtelux_platform
-Wl,--defsym=_ZN5telux8platform13FsManagerImpl12otaCompletedENS0_15OperationStatusESt8functionIFvNS_6common9ErrorCodeEEE=so_stub_for_libtelux_platform
-Wl,--defsym=_ZN5telux8platform13FsManagerImpl13prepareForOtaENS0_12OtaOperationESt8functionIFvNS_6common9ErrorCodeEEE=so_stub_for_libtelux_platform
-Wl,--defsym=_ZN5telux8platform13FsManagerImpl14eCallCompletedEv=so_stub_for_libtelux_platform
-Wl,--defsym=_ZN5telux8platform13FsManagerImpl14startEfsBackupEv=so_stub_for_libtelux_platform
-Wl,--defsym=_ZN5telux8platform13FsManagerImpl15prepareForEcallEv=so_stub_for_libtelux_platform
-Wl,--defsym=_ZN5telux8platform13FsManagerImpl16getServiceStatusEv=so_stub_for_libtelux_platform
-Wl,--defsym=_ZN5telux8platform13FsManagerImpl16registerListenerESt8weak_ptrINS0_11IFsListenerEE=so_stub_for_libtelux_platform
-Wl,--defsym=_ZN5telux8platform13FsManagerImpl16setServiceStatusENS_6common13ServiceStatusE=so_stub_for_libtelux_platform
-Wl,--defsym=_ZN5telux8platform13FsManagerImpl18deregisterListenerESt8weak_ptrINS0_11IFsListenerEE=so_stub_for_libtelux_platform
-Wl,--defsym=_ZN5telux8platform13FsManagerImpl22registerForIndicationsEv=so_stub_for_libtelux_platform
-Wl,--defsym=_ZN5telux8platform13FsManagerImpl25deregisterFromIndicationsEb=so_stub_for_libtelux_platform
-Wl,--defsym=_ZN5telux8platform13FsManagerImpl4initESt8functionIFvNS_6common13ServiceStatusEEE=so_stub_for_libtelux_platform
-Wl,--defsym=_ZN5telux8platform13FsManagerImpl7cleanupEv=so_stub_for_libtelux_platform
-Wl,--defsym=_ZN5telux8platform13FsManagerImpl8initSyncEv=so_stub_for_libtelux_platform
-Wl,--defsym=_ZN5telux8platform13FsManagerImplC1Ev=so_stub_for_libtelux_platform
-Wl,--defsym=_ZN5telux8platform13FsManagerImplC2Ev=so_stub_for_libtelux_platform
-Wl,--defsym=_ZN5telux8platform13FsManagerImplD0Ev=so_stub_for_libtelux_platform
-Wl,--defsym=_ZN5telux8platform13FsManagerImplD1Ev=so_stub_for_libtelux_platform
-Wl,--defsym=_ZN5telux8platform13FsManagerImplD2Ev=so_stub_for_libtelux_platform
-Wl,--defsym=_ZN5telux8platform15checkFileExistsERKNSt7__cxx1112basic_stringIcSt11char_traitsIcESaIcEEE=so_stub_for_libtelux_platform
-Wl,--defsym=_ZN5telux8platform15PlatformFactory11getInstanceEv=so_stub_for_libtelux_platform
-Wl,--defsym=_ZN5telux8platform15PlatformFactoryC1Ev=so_stub_for_libtelux_platform
-Wl,--defsym=_ZN5telux8platform15PlatformFactoryC2Ev=so_stub_for_libtelux_platform
-Wl,--defsym=_ZN5telux8platform15PlatformFactoryD0Ev=so_stub_for_libtelux_platform
-Wl,--defsym=_ZN5telux8platform15PlatformFactoryD1Ev=so_stub_for_libtelux_platform
-Wl,--defsym=_ZN5telux8platform15PlatformFactoryD2Ev=so_stub_for_libtelux_platform
-Wl,--defsym=_ZN5telux8platform15TimeManagerImpl16getServiceStatusEv=so_stub_for_libtelux_platform
-Wl,--defsym=_ZN5telux8platform15TimeManagerImpl16registerListenerESt8weak_ptrINS0_13ITimeListenerEESt6bitsetILm2EE=so_stub_for_libtelux_platform
-Wl,--defsym=_ZN5telux8platform15TimeManagerImpl17stopCv2xUtcReportEv=so_stub_for_libtelux_platform
-Wl,--defsym=_ZN5telux8platform15TimeManagerImpl17stopGnssUtcReportEv=so_stub_for_libtelux_platform
-Wl,--defsym=_ZN5telux8platform15TimeManagerImpl18deregisterListenerESt8weak_ptrINS0_13ITimeListenerEESt6bitsetILm2EE=so_stub_for_libtelux_platform
-Wl,--defsym=_ZN5telux8platform15TimeManagerImpl18onCapabilitiesInfoEj=so_stub_for_libtelux_platform
-Wl,--defsym=_ZN5telux8platform15TimeManagerImpl18startCv2xUtcReportEv=so_stub_for_libtelux_platform
-Wl,--defsym=_ZN5telux8platform15TimeManagerImpl18startGnssUtcReportEv=so_stub_for_libtelux_platform
-Wl,--defsym=_ZN5telux8platform15TimeManagerImpl19onCv2xUtcTimeReportERNS_3qmi17Cv2xUtcTimeReportE=so_stub_for_libtelux_platform
-Wl,--defsym=_ZN5telux8platform15TimeManagerImpl21onBasicLocationUpdateERKSt10shared_ptrINS_3loc17ILocationInfoBaseEE=so_stub_for_libtelux_platform
-Wl,--defsym=_ZN5telux8platform15TimeManagerImpl4initESt8weak_ptrINS_6common14AsyncTaskQueueIvEEESt8functionIFvNS3_13ServiceStatusEEE=so_stub_for_libtelux_platform
-Wl,--defsym=_ZN5telux8platform15TimeManagerImpl8initSyncESt8functionIFvNS_6common13ServiceStatusEEE=so_stub_for_libtelux_platform
-Wl,--defsym=_ZN5telux8platform15TimeManagerImplC1Ev=so_stub_for_libtelux_platform
-Wl,--defsym=_ZN5telux8platform15TimeManagerImplC2Ev=so_stub_for_libtelux_platform
-Wl,--defsym=_ZN5telux8platform15TimeManagerImplD0Ev=so_stub_for_libtelux_platform
-Wl,--defsym=_ZN5telux8platform15TimeManagerImplD1Ev=so_stub_for_libtelux_platform
-Wl,--defsym=_ZN5telux8platform15TimeManagerImplD2Ev=so_stub_for_libtelux_platform
-Wl,--defsym=_ZN5telux8platform16SubsystemFactory11getInstanceEv=so_stub_for_libtelux_platform
-Wl,--defsym=_ZN5telux8platform16SubsystemFactoryC1Ev=so_stub_for_libtelux_platform
-Wl,--defsym=_ZN5telux8platform16SubsystemFactoryC2Ev=so_stub_for_libtelux_platform
-Wl,--defsym=_ZN5telux8platform16SubsystemFactoryD0Ev=so_stub_for_libtelux_platform
-Wl,--defsym=_ZN5telux8platform16SubsystemFactoryD1Ev=so_stub_for_libtelux_platform
-Wl,--defsym=_ZN5telux8platform16SubsystemFactoryD2Ev=so_stub_for_libtelux_platform
-Wl,--defsym=_ZN5telux8platform19PlatformFactoryImpl11getInstanceEv=so_stub_for_libtelux_platform
-Wl,--defsym=_ZN5telux8platform19PlatformFactoryImpl12getFsManagerESt8functionIFvNS_6common13ServiceStatusEEE=so_stub_for_libtelux_platform
-Wl,--defsym=_ZN5telux8platform19PlatformFactoryImpl14getTimeManagerESt8functionIFvNS_6common13ServiceStatusEEE=so_stub_for_libtelux_platform
-Wl,--defsym=_ZN5telux8platform19PlatformFactoryImpl17getAntennaManagerESt8functionIFvNS_6common13ServiceStatusEEE=so_stub_for_libtelux_platform
-Wl,--defsym=_ZN5telux8platform19PlatformFactoryImpl20getDeviceInfoManagerESt8functionIFvNS_6common13ServiceStatusEEE=so_stub_for_libtelux_platform
-Wl,--defsym=_ZN5telux8platform19PlatformFactoryImpl20initCompleteNotifierERSt6vectorISt8functionIFvNS_6common13ServiceStatusEEESaIS7_EES5_=so_stub_for_libtelux_platform
-Wl,--defsym=_ZN5telux8platform19PlatformFactoryImplC1Ev=so_stub_for_libtelux_platform
-Wl,--defsym=_ZN5telux8platform19PlatformFactoryImplC2Ev=so_stub_for_libtelux_platform
-Wl,--defsym=_ZN5telux8platform19PlatformFactoryImplD0Ev=so_stub_for_libtelux_platform
-Wl,--defsym=_ZN5telux8platform19PlatformFactoryImplD1Ev=so_stub_for_libtelux_platform
-Wl,--defsym=_ZN5telux8platform19PlatformFactoryImplD2Ev=so_stub_for_libtelux_platform
-Wl,--defsym=_ZN5telux8platform20SubsystemFactoryImpl11getInstanceEv=so_stub_for_libtelux_platform
-Wl,--defsym=_ZN5telux8platform20SubsystemFactoryImpl19getSubsystemManagerESt8functionIFvNS_6common13ServiceStatusEEE=so_stub_for_libtelux_platform
-Wl,--defsym=_ZN5telux8platform20SubsystemFactoryImplC1Ev=so_stub_for_libtelux_platform
-Wl,--defsym=_ZN5telux8platform20SubsystemFactoryImplC2Ev=so_stub_for_libtelux_platform
-Wl,--defsym=_ZN5telux8platform20SubsystemFactoryImplD0Ev=so_stub_for_libtelux_platform
-Wl,--defsym=_ZN5telux8platform20SubsystemFactoryImplD1Ev=so_stub_for_libtelux_platform
-Wl,--defsym=_ZN5telux8platform20SubsystemFactoryImplD2Ev=so_stub_for_libtelux_platform
-Wl,--defsym=_ZN5telux8platform20SubsystemManagerImpl11initSyncDMSEv=so_stub_for_libtelux_platform
-Wl,--defsym=_ZN5telux8platform20SubsystemManagerImpl15registerForApssESt8weak_ptrINS0_18ISubsystemListenerEENS_6common8ProcTypeE=so_stub_for_libtelux_platform
-Wl,--defsym=_ZN5telux8platform20SubsystemManagerImpl15registerForMpssESt8weak_ptrINS0_18ISubsystemListenerEENS_6common8ProcTypeE=so_stub_for_libtelux_platform
-Wl,--defsym=_ZN5telux8platform20SubsystemManagerImpl16getServiceStatusEv=so_stub_for_libtelux_platform
-Wl,--defsym=_ZN5telux8platform20SubsystemManagerImpl16registerListenerESt8weak_ptrINS0_18ISubsystemListenerEESt6vectorINS_6common13SubsystemInfoESaIS7_EE=so_stub_for_libtelux_platform
-Wl,--defsym=_ZN5telux8platform20SubsystemManagerImpl18deRegisterListenerESt8weak_ptrINS0_18ISubsystemListenerEE=so_stub_for_libtelux_platform
-Wl,--defsym=_ZN5telux8platform20SubsystemManagerImpl22sendNewStatusToClientsENS_6common13ServiceStatusENS2_9SubsystemE=so_stub_for_libtelux_platform
-Wl,--defsym=_ZN5telux8platform20SubsystemManagerImpl24onDmsServiceStatusChangeENS_6common13ServiceStatusEi=so_stub_for_libtelux_platform
-Wl,--defsym=_ZN5telux8platform20SubsystemManagerImpl4initESt8functionIFvNS_6common13ServiceStatusEEE=so_stub_for_libtelux_platform
-Wl,--defsym=_ZN5telux8platform20SubsystemManagerImpl8initSyncEv=so_stub_for_libtelux_platform
-Wl,--defsym=_ZN5telux8platform20SubsystemManagerImplC1Ev=so_stub_for_libtelux_platform
-Wl,--defsym=_ZN5telux8platform20SubsystemManagerImplC2Ev=so_stub_for_libtelux_platform
-Wl,--defsym=_ZN5telux8platform20SubsystemManagerImplD0Ev=so_stub_for_libtelux_platform
-Wl,--defsym=_ZN5telux8platform20SubsystemManagerImplD1Ev=so_stub_for_libtelux_platform
-Wl,--defsym=_ZN5telux8platform20SubsystemManagerImplD2Ev=so_stub_for_libtelux_platform
-Wl,--defsym=_ZN5telux8platform21DeviceInfoManagerImpl16getServiceStatusEv=so_stub_for_libtelux_platform
-Wl,--defsym=_ZN5telux8platform21DeviceInfoManagerImpl16registerListenerESt8weak_ptrINS0_19IDeviceInfoListenerEE=so_stub_for_libtelux_platform
-Wl,--defsym=_ZN5telux8platform21DeviceInfoManagerImpl16setServiceStatusENS_6common13ServiceStatusE=so_stub_for_libtelux_platform
-Wl,--defsym=_ZN5telux8platform21DeviceInfoManagerImpl18deregisterListenerESt8weak_ptrINS0_19IDeviceInfoListenerEE=so_stub_for_libtelux_platform
-Wl,--defsym=_ZN5telux8platform21DeviceInfoManagerImpl18getPlatformVersionERNS0_15PlatformVersionE=so_stub_for_libtelux_platform
-Wl,--defsym=_ZN5telux8platform21DeviceInfoManagerImpl18getVersionFilePathB5cxx11Ev=so_stub_for_libtelux_platform
-Wl,--defsym=_ZN5telux8platform21DeviceInfoManagerImpl24onDmsServiceStatusChangeENS_6common13ServiceStatusEi=so_stub_for_libtelux_platform
-Wl,--defsym=_ZN5telux8platform21DeviceInfoManagerImpl26getPlatformVersionFromFileERSt14basic_ifstreamIcSt11char_traitsIcEENSt7__cxx1112basic_stringIcS4_SaIcEEE=so_stub_for_libtelux_platform
-Wl,--defsym=_ZN5telux8platform21DeviceInfoManagerImpl4initESt8functionIFvNS_6common13ServiceStatusEEE=so_stub_for_libtelux_platform
-Wl,--defsym=_ZN5telux8platform21DeviceInfoManagerImpl7cleanupEv=so_stub_for_libtelux_platform
-Wl,--defsym=_ZN5telux8platform21DeviceInfoManagerImpl7getIMEIERNSt7__cxx1112basic_stringIcSt11char_traitsIcESaIcEEE=so_stub_for_libtelux_platform
-Wl,--defsym=_ZN5telux8platform21DeviceInfoManagerImpl8initSyncEv=so_stub_for_libtelux_platform
-Wl,--defsym=_ZN5telux8platform21DeviceInfoManagerImplC1Ev=so_stub_for_libtelux_platform
-Wl,--defsym=_ZN5telux8platform21DeviceInfoManagerImplC2Ev=so_stub_for_libtelux_platform
-Wl,--defsym=_ZN5telux8platform21DeviceInfoManagerImplD0Ev=so_stub_for_libtelux_platform
-Wl,--defsym=_ZN5telux8platform21DeviceInfoManagerImplD1Ev=so_stub_for_libtelux_platform
-Wl,--defsym=_ZN5telux8platform21DeviceInfoManagerImplD2Ev=so_stub_for_libtelux_platform
-Wl,--defsym=_ZN5telux8platform24DeviceInfoManagerWrapper16getServiceStatusEv=so_stub_for_libtelux_platform
-Wl,--defsym=_ZN5telux8platform24DeviceInfoManagerWrapper16registerListenerESt8weak_ptrINS0_19IDeviceInfoListenerEE=so_stub_for_libtelux_platform
-Wl,--defsym=_ZN5telux8platform24DeviceInfoManagerWrapper18deregisterListenerESt8weak_ptrINS0_19IDeviceInfoListenerEE=so_stub_for_libtelux_platform
-Wl,--defsym=_ZN5telux8platform24DeviceInfoManagerWrapper18getPlatformVersionERNS0_15PlatformVersionE=so_stub_for_libtelux_platform
-Wl,--defsym=_ZN5telux8platform24DeviceInfoManagerWrapper4initEv=so_stub_for_libtelux_platform
-Wl,--defsym=_ZN5telux8platform24DeviceInfoManagerWrapper7cleanupEv=so_stub_for_libtelux_platform
-Wl,--defsym=_ZN5telux8platform24DeviceInfoManagerWrapper7getIMEIERNSt7__cxx1112basic_stringIcSt11char_traitsIcESaIcEEE=so_stub_for_libtelux_platform
-Wl,--defsym=_ZN5telux8platform24DeviceInfoManagerWrapperC1Ev=so_stub_for_libtelux_platform
-Wl,--defsym=_ZN5telux8platform24DeviceInfoManagerWrapperC2Ev=so_stub_for_libtelux_platform
-Wl,--defsym=_ZN5telux8platform24DeviceInfoManagerWrapperD0Ev=so_stub_for_libtelux_platform
-Wl,--defsym=_ZN5telux8platform24DeviceInfoManagerWrapperD1Ev=so_stub_for_libtelux_platform
-Wl,--defsym=_ZN5telux8platform24DeviceInfoManagerWrapperD2Ev=so_stub_for_libtelux_platform
-Wl,--defsym=_ZN5telux8platform8FsHelper19getTeluxErrorFrmQmiE17fs_hms_status_v01=so_stub_for_libtelux_platform
-Wl,--defsym=_ZN5telux8platform8hardware18AntennaManagerImpl16getActiveAntennaESt8functionIFviNS_6common9ErrorCodeEEE=so_stub_for_libtelux_platform
-Wl,--defsym=_ZN5telux8platform8hardware18AntennaManagerImpl16getServiceStatusEv=so_stub_for_libtelux_platform
-Wl,--defsym=_ZN5telux8platform8hardware18AntennaManagerImpl16registerListenerESt8weak_ptrINS1_16IAntennaListenerEE=so_stub_for_libtelux_platform
-Wl,--defsym=_ZN5telux8platform8hardware18AntennaManagerImpl16setActiveAntennaEiSt8functionIFvNS_6common9ErrorCodeEEE=so_stub_for_libtelux_platform
-Wl,--defsym=_ZN5telux8platform8hardware18AntennaManagerImpl18deregisterListenerESt8weak_ptrINS1_16IAntennaListenerEE=so_stub_for_libtelux_platform
-Wl,--defsym=_ZN5telux8platform8hardware18AntennaManagerImpl21onActiveAntennaChangeEP31antswitch_config_change_ind_v01=so_stub_for_libtelux_platform
-Wl,--defsym=_ZN5telux8platform8hardware18AntennaManagerImpl22onGetAntConfigResponseEP33antswitch_get_config_resp_msg_v01Pvi=so_stub_for_libtelux_platform
-Wl,--defsym=_ZN5telux8platform8hardware18AntennaManagerImpl22onSetAntConfigResponseEiPvi=so_stub_for_libtelux_platform
-Wl,--defsym=_ZN5telux8platform8hardware18AntennaManagerImpl24handleServiceStateChangeENS_6common13ServiceStatusE=so_stub_for_libtelux_platform
-Wl,--defsym=_ZN5telux8platform8hardware18AntennaManagerImpl24onAsiServiceStatusChangeENS_6common13ServiceStatusE=so_stub_for_libtelux_platform
-Wl,--defsym=_ZN5telux8platform8hardware18AntennaManagerImpl25setServiceStatusAndNotifyENS_6common13ServiceStatusE=so_stub_for_libtelux_platform
-Wl,--defsym=_ZN5telux8platform8hardware18AntennaManagerImpl4initESt8functionIFvNS_6common13ServiceStatusEEE=so_stub_for_libtelux_platform
-Wl,--defsym=_ZN5telux8platform8hardware18AntennaManagerImpl7cleanupEv=so_stub_for_libtelux_platform
-Wl,--defsym=_ZN5telux8platform8hardware18AntennaManagerImpl8initSyncEv=so_stub_for_libtelux_platform
-Wl,--defsym=_ZN5telux8platform8hardware18AntennaManagerImplC1Ev=so_stub_for_libtelux_platform
-Wl,--defsym=_ZN5telux8platform8hardware18AntennaManagerImplC2Ev=so_stub_for_libtelux_platform
-Wl,--defsym=_ZN5telux8platform8hardware18AntennaManagerImplD0Ev=so_stub_for_libtelux_platform
-Wl,--defsym=_ZN5telux8platform8hardware18AntennaManagerImplD1Ev=so_stub_for_libtelux_platform
-Wl,--defsym=_ZN5telux8platform8hardware18AntennaManagerImplD2Ev=so_stub_for_libtelux_platform
-Wl,--defsym=_ZN9__gnu_cxx5__ops10_Iter_predIZN5telux6common15ListenerManager16registerListenerESt8weak_ptrINS3_12ISDKListenerEEEUlS7_E_EclINS_17__normal_iteratorIPS7_St6vectorIS7_SaIS7_EEEEEEbT_=so_stub_for_libtelux_platform
-Wl,--defsym=_ZNK5telux6common15ListenerManager12SetPredicateclERKSt8weak_ptrINS0_12ISDKListenerEES7_=so_stub_for_libtelux_platform
-Wl,--defsym=_ZNKSt13__future_base13_State_baseV221_M_is_deferred_futureEv=so_stub_for_libtelux_platform
-Wl,--defsym=_ZNKSt14__basic_futureIbE13_M_get_resultEv=so_stub_for_libtelux_platform
-Wl,--defsym=_ZNKSt14__basic_futureIN5telux6common9ErrorCodeEE13_M_get_resultEv=so_stub_for_libtelux_platform
-Wl,--defsym=_ZNKSt14__basic_futureIvE13_M_get_resultEv=so_stub_for_libtelux_platform
-Wl,--defsym=_ZNSt10_HashtableIiSt4pairIKiSt10shared_ptrIN5telux6common16ICommandCallbackEEESaIS7_ENSt8__detail10_Select1stESt8equal_toIiESt4hashIiENS9_18_Mod_range_hashingENS9_20_Default_ranged_hashENS9_20_Prime_rehash_policyENS9_17_Hashtable_traitsILb0ELb0ELb1EEEE13_M_rehash_auxEmSt17integral_constantIbLb1EE=so_stub_for_libtelux_platform
-Wl,--defsym=_ZNSt10_HashtableIiSt4pairIKiSt10shared_ptrIN5telux6common16ICommandCallbackEEESaIS7_ENSt8__detail10_Select1stESt8equal_toIiESt4hashIiENS9_18_Mod_range_hashingENS9_20_Default_ranged_hashENS9_20_Prime_rehash_policyENS9_17_Hashtable_traitsILb0ELb0ELb1EEEE21_M_insert_unique_nodeEmmPNS9_10_Hash_nodeIS7_Lb0EEEm=so_stub_for_libtelux_platform
-Wl,--defsym=_ZNSt10_HashtableIiSt4pairIKiSt10shared_ptrIN5telux6common16ICommandCallbackEEESaIS7_ENSt8__detail10_Select1stESt8equal_toIiESt4hashIiENS9_18_Mod_range_hashingENS9_20_Default_ranged_hashENS9_20_Prime_rehash_policyENS9_17_Hashtable_traitsILb0ELb0ELb1EEEE9_M_rehashEmRKm=so_stub_for_libtelux_platform
-Wl,--defsym=_ZNSt10shared_ptrIN5telux6common14AsyncTaskQueueIvEEEC1ISaIS3_EJEEESt20_Sp_alloc_shared_tagIT_EDpOT0_=so_stub_for_libtelux_platform
-Wl,--defsym=_ZNSt10shared_ptrIN5telux6common14AsyncTaskQueueIvEEEC2ISaIS3_EJEEESt20_Sp_alloc_shared_tagIT_EDpOT0_=so_stub_for_libtelux_platform
-Wl,--defsym=_ZNSt10shared_ptrIN5telux6common15ListenerManagerEEC1ISaIS2_EJEEESt20_Sp_alloc_shared_tagIT_EDpOT0_=so_stub_for_libtelux_platform
-Wl,--defsym=_ZNSt10shared_ptrIN5telux6common15ListenerManagerEEC2ISaIS2_EJEEESt20_Sp_alloc_shared_tagIT_EDpOT0_=so_stub_for_libtelux_platform
-Wl,--defsym=_ZNSt10shared_ptrISt6threadEC1ISaIS0_EJMN5telux6common14AsyncTaskQueueIvEEFvvEPS7_EEESt20_Sp_alloc_shared_tagIT_EDpOT0_=so_stub_for_libtelux_platform
-Wl,--defsym=_ZNSt10shared_ptrISt6threadEC2ISaIS0_EJMN5telux6common14AsyncTaskQueueIvEEFvvEPS7_EEESt20_Sp_alloc_shared_tagIT_EDpOT0_=so_stub_for_libtelux_platform
-Wl,--defsym=_ZNSt10unique_ptrINSt13__future_base12_Result_baseENS1_8_DeleterEED1Ev=so_stub_for_libtelux_platform
-Wl,--defsym=_ZNSt10unique_ptrINSt13__future_base12_Result_baseENS1_8_DeleterEED2Ev=so_stub_for_libtelux_platform
-Wl,--defsym=_ZNSt10unique_ptrINSt13__future_base7_ResultIvEENS0_12_Result_base8_DeleterEED1Ev=so_stub_for_libtelux_platform
-Wl,--defsym=_ZNSt10unique_ptrINSt13__future_base7_ResultIvEENS0_12_Result_base8_DeleterEED2Ev=so_stub_for_libtelux_platform
-Wl,--defsym=_ZNSt10unique_ptrINSt6thread6_StateESt14default_deleteIS1_EED1Ev=so_stub_for_libtelux_platform
-Wl,--defsym=_ZNSt10unique_ptrINSt6thread6_StateESt14default_deleteIS1_EED2Ev=so_stub_for_libtelux_platform
-Wl,--defsym=_ZNSt10__weak_ptrIN5telux3qmi12IQmiListenerELN9__gnu_cxx12_Lock_policyE2EEC1INS0_8platform20SubsystemManagerImplEvEERKSt12__shared_ptrIT_LS4_2EE=so_stub_for_libtelux_platform
-Wl,--defsym=_ZNSt10__weak_ptrIN5telux3qmi12IQmiListenerELN9__gnu_cxx12_Lock_policyE2EEC1INS0_8platform8hardware18AntennaManagerImplEvEERKS_IT_LS4_2EE=so_stub_for_libtelux_platform
-Wl,--defsym=_ZNSt10__weak_ptrIN5telux3qmi12IQmiListenerELN9__gnu_cxx12_Lock_policyE2EEC2INS0_8platform20SubsystemManagerImplEvEERKSt12__shared_ptrIT_LS4_2EE=so_stub_for_libtelux_platform
-Wl,--defsym=_ZNSt10__weak_ptrIN5telux3qmi12IQmiListenerELN9__gnu_cxx12_Lock_policyE2EEC2INS0_8platform8hardware18AntennaManagerImplEvEERKS_IT_LS4_2EE=so_stub_for_libtelux_platform
-Wl,--defsym=_ZNSt10__weak_ptrIN5telux6common12ISDKListenerELN9__gnu_cxx12_Lock_policyE2EEC1INS0_8platform11IFsListenerEvEERKS_IT_LS4_2EE=so_stub_for_libtelux_platform
-Wl,--defsym=_ZNSt10__weak_ptrIN5telux6common12ISDKListenerELN9__gnu_cxx12_Lock_policyE2EEC1INS0_8platform13ITimeListenerEvEERKS_IT_LS4_2EE=so_stub_for_libtelux_platform
-Wl,--defsym=_ZNSt10__weak_ptrIN5telux6common12ISDKListenerELN9__gnu_cxx12_Lock_policyE2EEC1INS0_8platform19IDeviceInfoListenerEvEERKS_IT_LS4_2EE=so_stub_for_libtelux_platform
-Wl,--defsym=_ZNSt10__weak_ptrIN5telux6common12ISDKListenerELN9__gnu_cxx12_Lock_policyE2EEC1INS0_8platform8hardware16IAntennaListenerEvEERKS_IT_LS4_2EE=so_stub_for_libtelux_platform
-Wl,--defsym=_ZNSt10__weak_ptrIN5telux6common12ISDKListenerELN9__gnu_cxx12_Lock_policyE2EEC2INS0_8platform11IFsListenerEvEERKS_IT_LS4_2EE=so_stub_for_libtelux_platform
-Wl,--defsym=_ZNSt10__weak_ptrIN5telux6common12ISDKListenerELN9__gnu_cxx12_Lock_policyE2EEC2INS0_8platform13ITimeListenerEvEERKS_IT_LS4_2EE=so_stub_for_libtelux_platform
-Wl,--defsym=_ZNSt10__weak_ptrIN5telux6common12ISDKListenerELN9__gnu_cxx12_Lock_policyE2EEC2INS0_8platform19IDeviceInfoListenerEvEERKS_IT_LS4_2EE=so_stub_for_libtelux_platform
-Wl,--defsym=_ZNSt10__weak_ptrIN5telux6common12ISDKListenerELN9__gnu_cxx12_Lock_policyE2EEC2INS0_8platform8hardware16IAntennaListenerEvEERKS_IT_LS4_2EE=so_stub_for_libtelux_platform
-Wl,--defsym=_ZNSt10__weak_ptrIN5telux8platform21DeviceInfoManagerImplELN9__gnu_cxx12_Lock_policyE2EE9_M_assignEPS2_RKSt14__shared_countILS4_2EE=so_stub_for_libtelux_platform
-Wl,--defsym=_ZNSt11_Deque_baseISt13shared_futureIvESaIS1_EE15_M_create_nodesEPPS1_S5_=so_stub_for_libtelux_platform
-Wl,--defsym=_ZNSt11_Deque_baseISt13shared_futureIvESaIS1_EE16_M_destroy_nodesEPPS1_S5_=so_stub_for_libtelux_platform
-Wl,--defsym=_ZNSt11_Deque_baseISt13shared_futureIvESaIS1_EE17_M_initialize_mapEm=so_stub_for_libtelux_platform
-Wl,--defsym=_ZNSt11unique_lockISt5mutexE6unlockEv=so_stub_for_libtelux_platform
-Wl,--defsym=_ZNSt12future_errorC1ESt10error_code=so_stub_for_libtelux_platform
-Wl,--defsym=_ZNSt12future_errorC2ESt10error_code=so_stub_for_libtelux_platform
-Wl,--defsym=_ZNSt12__shared_ptrIN5telux6common12ISDKListenerELN9__gnu_cxx12_Lock_policyE2EEC1ERKSt10__weak_ptrIS2_LS4_2EESt9nothrow_t=so_stub_for_libtelux_platform
-Wl,--defsym=_ZNSt12__shared_ptrIN5telux6common12ISDKListenerELN9__gnu_cxx12_Lock_policyE2EEC2ERKSt10__weak_ptrIS2_LS4_2EESt9nothrow_t=so_stub_for_libtelux_platform
-Wl,--defsym=_ZNSt12__shared_ptrIN5telux8platform13FsManagerImplELN9__gnu_cxx12_Lock_policyE2EEC1ISaIS2_EJEEESt20_Sp_alloc_shared_tagIT_EDpOT0_=so_stub_for_libtelux_platform
-Wl,--defsym=_ZNSt12__shared_ptrIN5telux8platform13FsManagerImplELN9__gnu_cxx12_Lock_policyE2EEC2ISaIS2_EJEEESt20_Sp_alloc_shared_tagIT_EDpOT0_=so_stub_for_libtelux_platform
-Wl,--defsym=_ZNSt12__shared_ptrIN5telux8platform15TimeManagerImplELN9__gnu_cxx12_Lock_policyE2EEC1ISaIS2_EJEEESt20_Sp_alloc_shared_tagIT_EDpOT0_=so_stub_for_libtelux_platform
-Wl,--defsym=_ZNSt12__shared_ptrIN5telux8platform15TimeManagerImplELN9__gnu_cxx12_Lock_policyE2EEC2ISaIS2_EJEEESt20_Sp_alloc_shared_tagIT_EDpOT0_=so_stub_for_libtelux_platform
-Wl,--defsym=_ZNSt12__shared_ptrIN5telux8platform17ISubsystemManagerELN9__gnu_cxx12_Lock_policyE2EEC1ERKSt10__weak_ptrIS2_LS4_2EESt9nothrow_t=so_stub_for_libtelux_platform
-Wl,--defsym=_ZNSt12__shared_ptrIN5telux8platform17ISubsystemManagerELN9__gnu_cxx12_Lock_policyE2EEC2ERKSt10__weak_ptrIS2_LS4_2EESt9nothrow_t=so_stub_for_libtelux_platform
-Wl,--defsym=_ZNSt12__shared_ptrIN5telux8platform18ISubsystemListenerELN9__gnu_cxx12_Lock_policyE2EEC1ERKSt10__weak_ptrIS2_LS4_2EESt9nothrow_t=so_stub_for_libtelux_platform
-Wl,--defsym=_ZNSt12__shared_ptrIN5telux8platform18ISubsystemListenerELN9__gnu_cxx12_Lock_policyE2EEC2ERKSt10__weak_ptrIS2_LS4_2EESt9nothrow_t=so_stub_for_libtelux_platform
-Wl,--defsym=_ZNSt12__shared_ptrIN5telux8platform20SubsystemManagerImplELN9__gnu_cxx12_Lock_policyE2EEC1ISaIS2_EJEEESt20_Sp_alloc_shared_tagIT_EDpOT0_=so_stub_for_libtelux_platform
-Wl,--defsym=_ZNSt12__shared_ptrIN5telux8platform20SubsystemManagerImplELN9__gnu_cxx12_Lock_policyE2EEC2ISaIS2_EJEEESt20_Sp_alloc_shared_tagIT_EDpOT0_=so_stub_for_libtelux_platform
-Wl,--defsym=_ZNSt12__shared_ptrIN5telux8platform21DeviceInfoManagerImplELN9__gnu_cxx12_Lock_policyE2EEC1ISaIS2_EJEEESt20_Sp_alloc_shared_tagIT_EDpOT0_=so_stub_for_libtelux_platform
-Wl,--defsym=_ZNSt12__shared_ptrIN5telux8platform21DeviceInfoManagerImplELN9__gnu_cxx12_Lock_policyE2EEC2ISaIS2_EJEEESt20_Sp_alloc_shared_tagIT_EDpOT0_=so_stub_for_libtelux_platform
-Wl,--defsym=_ZNSt12__shared_ptrIN5telux8platform8hardware18AntennaManagerImplELN9__gnu_cxx12_Lock_policyE2EEC1ISaIS3_EJEEESt20_Sp_alloc_shared_tagIT_EDpOT0_=so_stub_for_libtelux_platform
-Wl,--defsym=_ZNSt12__shared_ptrIN5telux8platform8hardware18AntennaManagerImplELN9__gnu_cxx12_Lock_policyE2EEC2ISaIS3_EJEEESt20_Sp_alloc_shared_tagIT_EDpOT0_=so_stub_for_libtelux_platform
-Wl,--defsym=_ZNSt12__shared_ptrINSt13__future_base13_State_baseV2ELN9__gnu_cxx12_Lock_policyE2EE5resetEv=so_stub_for_libtelux_platform
-Wl,--defsym=_ZNSt12__weak_countILN9__gnu_cxx12_Lock_policyE2EEaSERKSt14__shared_countILS1_2EE=so_stub_for_libtelux_platform
-Wl,--defsym=_ZNSt13__future_base13_State_baseV210wait_untilINSt6chrono3_V212system_clockENS2_8durationIlSt5ratioILl1ELl1000000000EEEEEESt13future_statusRKNS2_10time_pointIT_T0_EE=so_stub_for_libtelux_platform
-Wl,--defsym=_ZNSt13__future_base13_State_baseV213_M_set_resultESt8functionIFSt10unique_ptrINS_12_Result_baseENS3_8_DeleterEEvEEb=so_stub_for_libtelux_platform
-Wl,--defsym=_ZNSt13__future_base13_State_baseV216_M_break_promiseESt10unique_ptrINS_12_Result_baseENS2_8_DeleterEE=so_stub_for_libtelux_platform
-Wl,--defsym=_ZNSt13__future_base13_State_baseV217_M_complete_asyncEv=so_stub_for_libtelux_platform
-Wl,--defsym=_ZNSt13__future_base13_State_baseV24waitEv=so_stub_for_libtelux_platform
-Wl,--defsym=_ZNSt13__future_base13_State_baseV29_M_do_setEPSt8functionIFSt10unique_ptrINS_12_Result_baseENS3_8_DeleterEEvEEPb=so_stub_for_libtelux_platform
-Wl,--defsym=_ZNSt13__future_base13_State_baseV2D0Ev=so_stub_for_libtelux_platform
-Wl,--defsym=_ZNSt13__future_base13_State_baseV2D1Ev=so_stub_for_libtelux_platform
-Wl,--defsym=_ZNSt13__future_base13_State_baseV2D2Ev=so_stub_for_libtelux_platform
-Wl,--defsym=_ZNSt13__future_base21_Async_state_commonV217_M_complete_asyncEv=so_stub_for_libtelux_platform
-Wl,--defsym=_ZNSt13__future_base21_Async_state_commonV2D0Ev=so_stub_for_libtelux_platform
-Wl,--defsym=_ZNSt13__future_base21_Async_state_commonV2D1Ev=so_stub_for_libtelux_platform
-Wl,--defsym=_ZNSt13__future_base21_Async_state_commonV2D2Ev=so_stub_for_libtelux_platform
-Wl,--defsym=_ZNSt13__future_base7_ResultIN5telux6common6StatusEE10_M_destroyEv=so_stub_for_libtelux_platform
-Wl,--defsym=_ZNSt13__future_base7_ResultIN5telux6common6StatusEED0Ev=so_stub_for_libtelux_platform
-Wl,--defsym=_ZNSt13__future_base7_ResultIN5telux6common6StatusEED1Ev=so_stub_for_libtelux_platform
-Wl,--defsym=_ZNSt13__future_base7_ResultIN5telux6common6StatusEED2Ev=so_stub_for_libtelux_platform
-Wl,--defsym=_ZNSt13__future_base7_ResultIN5telux6common9ErrorCodeEE10_M_destroyEv=so_stub_for_libtelux_platform
-Wl,--defsym=_ZNSt13__future_base7_ResultIN5telux6common9ErrorCodeEED0Ev=so_stub_for_libtelux_platform
-Wl,--defsym=_ZNSt13__future_base7_ResultIN5telux6common9ErrorCodeEED1Ev=so_stub_for_libtelux_platform
-Wl,--defsym=_ZNSt13__future_base7_ResultIN5telux6common9ErrorCodeEED2Ev=so_stub_for_libtelux_platform
-Wl,--defsym=_ZNSt13__future_base7_ResultIvE10_M_destroyEv=so_stub_for_libtelux_platform
-Wl,--defsym=_ZNSt13__future_base7_ResultIvED0Ev=so_stub_for_libtelux_platform
-Wl,--defsym=_ZNSt13__future_base7_ResultIvED1Ev=so_stub_for_libtelux_platform
-Wl,--defsym=_ZNSt13__future_base7_ResultIvED2Ev=so_stub_for_libtelux_platform
-Wl,--defsym=_ZNSt14__basic_futureIN5telux6common9ErrorCodeEEC1ERKSt10shared_ptrINSt13__future_base13_State_baseV2EE=so_stub_for_libtelux_platform
-Wl,--defsym=_ZNSt14__basic_futureIN5telux6common9ErrorCodeEEC2ERKSt10shared_ptrINSt13__future_base13_State_baseV2EE=so_stub_for_libtelux_platform
-Wl,--defsym=_ZNSt14__basic_futureIvEC1ERKSt10shared_ptrINSt13__future_base13_State_baseV2EE=so_stub_for_libtelux_platform
-Wl,--defsym=_ZNSt14__basic_futureIvEC2ERKSt10shared_ptrINSt13__future_base13_State_baseV2EE=so_stub_for_libtelux_platform
-Wl,--defsym=_ZNSt14_Function_base13_Base_managerIZN5telux6common13FactoryHelper10getManagerINS1_8platform10IFsManagerEEESt10shared_ptrIT_ENSt7__cxx1112basic_stringIcSt11char_traitsIcESaIcEEERSt8weak_ptrIS8_ERSt6vectorISt8functionIFvNS2_13ServiceStatusEEESaISN_EESN_SK_IFS9_SN_EEEUlSL_E0_E10_M_managerERSt9_Any_dataRKSV_St18_Manager_operation=so_stub_for_libtelux_platform
-Wl,--defsym=_ZNSt14_Function_base13_Base_managerIZN5telux6common13FactoryHelper10getManagerINS1_8platform12ITimeManagerEEESt10shared_ptrIT_ENSt7__cxx1112basic_stringIcSt11char_traitsIcESaIcEEERSt8weak_ptrIS8_ERSt6vectorISt8functionIFvNS2_13ServiceStatusEEESaISN_EESN_SK_IFS9_SN_EEEUlSL_E0_E10_M_managerERSt9_Any_dataRKSV_St18_Manager_operation=so_stub_for_libtelux_platform
-Wl,--defsym=_ZNSt14_Function_base13_Base_managerIZN5telux6common13FactoryHelper10getManagerINS1_8platform17ISubsystemManagerEEESt10shared_ptrIT_ENSt7__cxx1112basic_stringIcSt11char_traitsIcESaIcEEERSt8weak_ptrIS8_ERSt6vectorISt8functionIFvNS2_13ServiceStatusEEESaISN_EESN_SK_IFS9_SN_EEEUlSL_E0_E10_M_managerERSt9_Any_dataRKSV_St18_Manager_operation=so_stub_for_libtelux_platform
-Wl,--defsym=_ZNSt14_Function_base13_Base_managerIZN5telux6common13FactoryHelper10getManagerINS1_8platform18IDeviceInfoManagerEEESt10shared_ptrIT_ENSt7__cxx1112basic_stringIcSt11char_traitsIcESaIcEEERSt8weak_ptrIS8_ERSt6vectorISt8functionIFvNS2_13ServiceStatusEEESaISN_EESN_SK_IFS9_SN_EEEUlSL_E0_E10_M_managerERSt9_Any_dataRKSV_St18_Manager_operation=so_stub_for_libtelux_platform
-Wl,--defsym=_ZNSt14_Function_base13_Base_managerIZN5telux6common13FactoryHelper10getManagerINS1_8platform8hardware15IAntennaManagerEEESt10shared_ptrIT_ENSt7__cxx1112basic_stringIcSt11char_traitsIcESaIcEEERSt8weak_ptrIS9_ERSt6vectorISt8functionIFvNS2_13ServiceStatusEEESaISO_EESO_SL_IFSA_SO_EEEUlSM_E0_E10_M_managerERSt9_Any_dataRKSW_St18_Manager_operation=so_stub_for_libtelux_platform
-Wl,--defsym=_ZNSt14_Function_baseD1Ev=so_stub_for_libtelux_platform
-Wl,--defsym=_ZNSt14_Function_baseD2Ev=so_stub_for_libtelux_platform
-Wl,--defsym=_ZNSt14__shared_countILN9__gnu_cxx12_Lock_policyE2EEC1ERKSt12__weak_countILS1_2EE=so_stub_for_libtelux_platform
-Wl,--defsym=_ZNSt14__shared_countILN9__gnu_cxx12_Lock_policyE2EEC1ERKSt12__weak_countILS1_2EESt9nothrow_t=so_stub_for_libtelux_platform
-Wl,--defsym=_ZNSt14__shared_countILN9__gnu_cxx12_Lock_policyE2EEC1IN5telux6common18FunctionalCallbackIJiNS5_9ErrorCodeEEEESaIS8_EJRSt8functionIFviS7_EEEEERPT_St20_Sp_alloc_shared_tagIT0_EDpOT1_=so_stub_for_libtelux_platform
-Wl,--defsym=_ZNSt14__shared_countILN9__gnu_cxx12_Lock_policyE2EEC1IN5telux6common18FunctionalCallbackIJNS5_9ErrorCodeEEEESaIS8_EJRSt8functionIFvS7_EEEEERPT_St20_Sp_alloc_shared_tagIT0_EDpOT1_=so_stub_for_libtelux_platform
-Wl,--defsym=_ZNSt14__shared_countILN9__gnu_cxx12_Lock_policyE2EEC2ERKSt12__weak_countILS1_2EE=so_stub_for_libtelux_platform
-Wl,--defsym=_ZNSt14__shared_countILN9__gnu_cxx12_Lock_policyE2EEC2ERKSt12__weak_countILS1_2EESt9nothrow_t=so_stub_for_libtelux_platform
-Wl,--defsym=_ZNSt14__shared_countILN9__gnu_cxx12_Lock_policyE2EEC2IN5telux6common18FunctionalCallbackIJiNS5_9ErrorCodeEEEESaIS8_EJRSt8functionIFviS7_EEEEERPT_St20_Sp_alloc_shared_tagIT0_EDpOT1_=so_stub_for_libtelux_platform
-Wl,--defsym=_ZNSt14__shared_countILN9__gnu_cxx12_Lock_policyE2EEC2IN5telux6common18FunctionalCallbackIJNS5_9ErrorCodeEEEESaIS8_EJRSt8functionIFvS7_EEEEERPT_St20_Sp_alloc_shared_tagIT0_EDpOT1_=so_stub_for_libtelux_platform
-Wl,--defsym=_ZNSt15_Deque_iteratorISt13shared_futureIvERKS1_PS2_EpLEl=so_stub_for_libtelux_platform
-Wl,--defsym=_ZNSt15_Deque_iteratorISt13shared_futureIvERS1_PS1_EpLEl=so_stub_for_libtelux_platform
-Wl,--defsym=_ZNSt15__exception_ptr12__dest_thunkISt12future_errorEEvPv=so_stub_for_libtelux_platform
-Wl,--defsym=_ZNSt15__exception_ptr13exception_ptraSEOS0_=so_stub_for_libtelux_platform
-Wl,--defsym=_ZNSt16_Sp_counted_baseILN9__gnu_cxx12_Lock_policyE2EE10_M_releaseEv=so_stub_for_libtelux_platform
-Wl,--defsym=_ZNSt16_Sp_counted_baseILN9__gnu_cxx12_Lock_policyE2EE15_M_weak_releaseEv=so_stub_for_libtelux_platform
-Wl,--defsym=_ZNSt17_Function_handlerIFSt10unique_ptrINSt13__future_base12_Result_baseENS2_8_DeleterEEvENS1_13_State_baseV27_SetterIN5telux6common9ErrorCodeERKSA_EEE10_M_managerERSt9_Any_dataRKSF_St18_Manager_operation=so_stub_for_libtelux_platform
-Wl,--defsym=_ZNSt17_Function_handlerIFSt10unique_ptrINSt13__future_base12_Result_baseENS2_8_DeleterEEvENS1_13_State_baseV27_SetterIN5telux6common9ErrorCodeERKSA_EEE9_M_invokeERKSt9_Any_data=so_stub_for_libtelux_platform
-Wl,--defsym=_ZNSt17_Function_handlerIFvN5telux6common13ServiceStatusEEZNS1_13FactoryHelper10getManagerINS0_8platform10IFsManagerEEESt10shared_ptrIT_ENSt7__cxx1112basic_stringIcSt11char_traitsIcESaIcEEERSt8weak_ptrIS9_ERSt6vectorISt8functionIS3_ESaISM_EESM_SL_IFSA_SM_EEEUlS2_E0_E10_M_managerERSt9_Any_dataRKSU_St18_Manager_operation=so_stub_for_libtelux_platform
-Wl,--defsym=_ZNSt17_Function_handlerIFvN5telux6common13ServiceStatusEEZNS1_13FactoryHelper10getManagerINS0_8platform10IFsManagerEEESt10shared_ptrIT_ENSt7__cxx1112basic_stringIcSt11char_traitsIcESaIcEEERSt8weak_ptrIS9_ERSt6vectorISt8functionIS3_ESaISM_EESM_SL_IFSA_SM_EEEUlS2_E0_E9_M_invokeERKSt9_Any_dataOS2_=so_stub_for_libtelux_platform
-Wl,--defsym=_ZNSt17_Function_handlerIFvN5telux6common13ServiceStatusEEZNS1_13FactoryHelper10getManagerINS0_8platform12ITimeManagerEEESt10shared_ptrIT_ENSt7__cxx1112basic_stringIcSt11char_traitsIcESaIcEEERSt8weak_ptrIS9_ERSt6vectorISt8functionIS3_ESaISM_EESM_SL_IFSA_SM_EEEUlS2_E0_E10_M_managerERSt9_Any_dataRKSU_St18_Manager_operation=so_stub_for_libtelux_platform
-Wl,--defsym=_ZNSt17_Function_handlerIFvN5telux6common13ServiceStatusEEZNS1_13FactoryHelper10getManagerINS0_8platform12ITimeManagerEEESt10shared_ptrIT_ENSt7__cxx1112basic_stringIcSt11char_traitsIcESaIcEEERSt8weak_ptrIS9_ERSt6vectorISt8functionIS3_ESaISM_EESM_SL_IFSA_SM_EEEUlS2_E0_E9_M_invokeERKSt9_Any_dataOS2_=so_stub_for_libtelux_platform
-Wl,--defsym=_ZNSt17_Function_handlerIFvN5telux6common13ServiceStatusEEZNS1_13FactoryHelper10getManagerINS0_8platform17ISubsystemManagerEEESt10shared_ptrIT_ENSt7__cxx1112basic_stringIcSt11char_traitsIcESaIcEEERSt8weak_ptrIS9_ERSt6vectorISt8functionIS3_ESaISM_EESM_SL_IFSA_SM_EEEUlS2_E0_E10_M_managerERSt9_Any_dataRKSU_St18_Manager_operation=so_stub_for_libtelux_platform
-Wl,--defsym=_ZNSt17_Function_handlerIFvN5telux6common13ServiceStatusEEZNS1_13FactoryHelper10getManagerINS0_8platform17ISubsystemManagerEEESt10shared_ptrIT_ENSt7__cxx1112basic_stringIcSt11char_traitsIcESaIcEEERSt8weak_ptrIS9_ERSt6vectorISt8functionIS3_ESaISM_EESM_SL_IFSA_SM_EEEUlS2_E0_E9_M_invokeERKSt9_Any_dataOS2_=so_stub_for_libtelux_platform
-Wl,--defsym=_ZNSt17_Function_handlerIFvN5telux6common13ServiceStatusEEZNS1_13FactoryHelper10getManagerINS0_8platform18IDeviceInfoManagerEEESt10shared_ptrIT_ENSt7__cxx1112basic_stringIcSt11char_traitsIcESaIcEEERSt8weak_ptrIS9_ERSt6vectorISt8functionIS3_ESaISM_EESM_SL_IFSA_SM_EEEUlS2_E0_E10_M_managerERSt9_Any_dataRKSU_St18_Manager_operation=so_stub_for_libtelux_platform
-Wl,--defsym=_ZNSt17_Function_handlerIFvN5telux6common13ServiceStatusEEZNS1_13FactoryHelper10getManagerINS0_8platform18IDeviceInfoManagerEEESt10shared_ptrIT_ENSt7__cxx1112basic_stringIcSt11char_traitsIcESaIcEEERSt8weak_ptrIS9_ERSt6vectorISt8functionIS3_ESaISM_EESM_SL_IFSA_SM_EEEUlS2_E0_E9_M_invokeERKSt9_Any_dataOS2_=so_stub_for_libtelux_platform
-Wl,--defsym=_ZNSt17_Function_handlerIFvN5telux6common13ServiceStatusEEZNS1_13FactoryHelper10getManagerINS0_8platform8hardware15IAntennaManagerEEESt10shared_ptrIT_ENSt7__cxx1112basic_stringIcSt11char_traitsIcESaIcEEERSt8weak_ptrISA_ERSt6vectorISt8functionIS3_ESaISN_EESN_SM_IFSB_SN_EEEUlS2_E0_E10_M_managerERSt9_Any_dataRKSV_St18_Manager_operation=so_stub_for_libtelux_platform
-Wl,--defsym=_ZNSt17_Function_handlerIFvN5telux6common13ServiceStatusEEZNS1_13FactoryHelper10getManagerINS0_8platform8hardware15IAntennaManagerEEESt10shared_ptrIT_ENSt7__cxx1112basic_stringIcSt11char_traitsIcESaIcEEERSt8weak_ptrISA_ERSt6vectorISt8functionIS3_ESaISN_EESN_SM_IFSB_SN_EEEUlS2_E0_E9_M_invokeERKSt9_Any_dataOS2_=so_stub_for_libtelux_platform
-Wl,--defsym=_ZNSt18condition_variable4waitIZN5telux6common14AsyncTaskQueueIvE11executeTaskEvEUlvE_EEvRSt11unique_lockISt5mutexET_=so_stub_for_libtelux_platform
-Wl,--defsym=_ZNSt20__uninitialized_copyILb0EE13__uninit_copyIN9__gnu_cxx17__normal_iteratorIPKSt8functionIFvN5telux6common13ServiceStatusEEESt6vectorIS9_SaIS9_EEEEPS9_EET0_T_SI_SH_=so_stub_for_libtelux_platform
-Wl,--defsym=_ZNSt20__uninitialized_copyILb0EE13__uninit_copyIPSt8functionIFvN5telux6common13ServiceStatusEEES8_EET0_T_SA_S9_=so_stub_for_libtelux_platform
-Wl,--defsym=_ZNSt20__uninitialized_copyILb0EE13__uninit_copyISt15_Deque_iteratorISt13shared_futureIvERKS4_PS5_ES2_IS4_RS4_PS4_EEET0_T_SD_SC_=so_stub_for_libtelux_platform
-Wl,--defsym=_ZNSt23_Sp_counted_ptr_inplaceIN5telux6common14AsyncTaskQueueIvEESaIS3_ELN9__gnu_cxx12_Lock_policyE2EE10_M_destroyEv=so_stub_for_libtelux_platform
-Wl,--defsym=_ZNSt23_Sp_counted_ptr_inplaceIN5telux6common14AsyncTaskQueueIvEESaIS3_ELN9__gnu_cxx12_Lock_policyE2EE10_M_disposeEv=so_stub_for_libtelux_platform
-Wl,--defsym=_ZNSt23_Sp_counted_ptr_inplaceIN5telux6common14AsyncTaskQueueIvEESaIS3_ELN9__gnu_cxx12_Lock_policyE2EE14_M_get_deleterERKSt9type_info=so_stub_for_libtelux_platform
-Wl,--defsym=_ZNSt23_Sp_counted_ptr_inplaceIN5telux6common14AsyncTaskQueueIvEESaIS3_ELN9__gnu_cxx12_Lock_policyE2EED0Ev=so_stub_for_libtelux_platform
-Wl,--defsym=_ZNSt23_Sp_counted_ptr_inplaceIN5telux6common14AsyncTaskQueueIvEESaIS3_ELN9__gnu_cxx12_Lock_policyE2EED1Ev=so_stub_for_libtelux_platform
-Wl,--defsym=_ZNSt23_Sp_counted_ptr_inplaceIN5telux6common14AsyncTaskQueueIvEESaIS3_ELN9__gnu_cxx12_Lock_policyE2EED2Ev=so_stub_for_libtelux_platform
-Wl,--defsym=_ZNSt23_Sp_counted_ptr_inplaceIN5telux6common15ListenerManagerESaIS2_ELN9__gnu_cxx12_Lock_policyE2EE10_M_destroyEv=so_stub_for_libtelux_platform
-Wl,--defsym=_ZNSt23_Sp_counted_ptr_inplaceIN5telux6common15ListenerManagerESaIS2_ELN9__gnu_cxx12_Lock_policyE2EE10_M_disposeEv=so_stub_for_libtelux_platform
-Wl,--defsym=_ZNSt23_Sp_counted_ptr_inplaceIN5telux6common15ListenerManagerESaIS2_ELN9__gnu_cxx12_Lock_policyE2EE14_M_get_deleterERKSt9type_info=so_stub_for_libtelux_platform
-Wl,--defsym=_ZNSt23_Sp_counted_ptr_inplaceIN5telux6common15ListenerManagerESaIS2_ELN9__gnu_cxx12_Lock_policyE2EED0Ev=so_stub_for_libtelux_platform
-Wl,--defsym=_ZNSt23_Sp_counted_ptr_inplaceIN5telux6common15ListenerManagerESaIS2_ELN9__gnu_cxx12_Lock_policyE2EED1Ev=so_stub_for_libtelux_platform
-Wl,--defsym=_ZNSt23_Sp_counted_ptr_inplaceIN5telux6common15ListenerManagerESaIS2_ELN9__gnu_cxx12_Lock_policyE2EED2Ev=so_stub_for_libtelux_platform
-Wl,--defsym=_ZNSt23_Sp_counted_ptr_inplaceIN5telux6common18FunctionalCallbackIJiNS1_9ErrorCodeEEEESaIS4_ELN9__gnu_cxx12_Lock_policyE2EE10_M_destroyEv=so_stub_for_libtelux_platform
-Wl,--defsym=_ZNSt23_Sp_counted_ptr_inplaceIN5telux6common18FunctionalCallbackIJiNS1_9ErrorCodeEEEESaIS4_ELN9__gnu_cxx12_Lock_policyE2EE10_M_disposeEv=so_stub_for_libtelux_platform
-Wl,--defsym=_ZNSt23_Sp_counted_ptr_inplaceIN5telux6common18FunctionalCallbackIJiNS1_9ErrorCodeEEEESaIS4_ELN9__gnu_cxx12_Lock_policyE2EE14_M_get_deleterERKSt9type_info=so_stub_for_libtelux_platform
-Wl,--defsym=_ZNSt23_Sp_counted_ptr_inplaceIN5telux6common18FunctionalCallbackIJiNS1_9ErrorCodeEEEESaIS4_ELN9__gnu_cxx12_Lock_policyE2EED0Ev=so_stub_for_libtelux_platform
-Wl,--defsym=_ZNSt23_Sp_counted_ptr_inplaceIN5telux6common18FunctionalCallbackIJiNS1_9ErrorCodeEEEESaIS4_ELN9__gnu_cxx12_Lock_policyE2EED1Ev=so_stub_for_libtelux_platform
-Wl,--defsym=_ZNSt23_Sp_counted_ptr_inplaceIN5telux6common18FunctionalCallbackIJiNS1_9ErrorCodeEEEESaIS4_ELN9__gnu_cxx12_Lock_policyE2EED2Ev=so_stub_for_libtelux_platform
-Wl,--defsym=_ZNSt23_Sp_counted_ptr_inplaceIN5telux6common18FunctionalCallbackIJNS1_9ErrorCodeEEEESaIS4_ELN9__gnu_cxx12_Lock_policyE2EE10_M_destroyEv=so_stub_for_libtelux_platform
-Wl,--defsym=_ZNSt23_Sp_counted_ptr_inplaceIN5telux6common18FunctionalCallbackIJNS1_9ErrorCodeEEEESaIS4_ELN9__gnu_cxx12_Lock_policyE2EE10_M_disposeEv=so_stub_for_libtelux_platform
-Wl,--defsym=_ZNSt23_Sp_counted_ptr_inplaceIN5telux6common18FunctionalCallbackIJNS1_9ErrorCodeEEEESaIS4_ELN9__gnu_cxx12_Lock_policyE2EE14_M_get_deleterERKSt9type_info=so_stub_for_libtelux_platform
-Wl,--defsym=_ZNSt23_Sp_counted_ptr_inplaceIN5telux6common18FunctionalCallbackIJNS1_9ErrorCodeEEEESaIS4_ELN9__gnu_cxx12_Lock_policyE2EED0Ev=so_stub_for_libtelux_platform
-Wl,--defsym=_ZNSt23_Sp_counted_ptr_inplaceIN5telux6common18FunctionalCallbackIJNS1_9ErrorCodeEEEESaIS4_ELN9__gnu_cxx12_Lock_policyE2EED1Ev=so_stub_for_libtelux_platform
-Wl,--defsym=_ZNSt23_Sp_counted_ptr_inplaceIN5telux6common18FunctionalCallbackIJNS1_9ErrorCodeEEEESaIS4_ELN9__gnu_cxx12_Lock_policyE2EED2Ev=so_stub_for_libtelux_platform
-Wl,--defsym=_ZNSt23_Sp_counted_ptr_inplaceIN5telux8platform13FsManagerImplESaIS2_ELN9__gnu_cxx12_Lock_policyE2EE10_M_destroyEv=so_stub_for_libtelux_platform
-Wl,--defsym=_ZNSt23_Sp_counted_ptr_inplaceIN5telux8platform13FsManagerImplESaIS2_ELN9__gnu_cxx12_Lock_policyE2EE10_M_disposeEv=so_stub_for_libtelux_platform
-Wl,--defsym=_ZNSt23_Sp_counted_ptr_inplaceIN5telux8platform13FsManagerImplESaIS2_ELN9__gnu_cxx12_Lock_policyE2EE14_M_get_deleterERKSt9type_info=so_stub_for_libtelux_platform
-Wl,--defsym=_ZNSt23_Sp_counted_ptr_inplaceIN5telux8platform13FsManagerImplESaIS2_ELN9__gnu_cxx12_Lock_policyE2EED0Ev=so_stub_for_libtelux_platform
-Wl,--defsym=_ZNSt23_Sp_counted_ptr_inplaceIN5telux8platform13FsManagerImplESaIS2_ELN9__gnu_cxx12_Lock_policyE2EED1Ev=so_stub_for_libtelux_platform
-Wl,--defsym=_ZNSt23_Sp_counted_ptr_inplaceIN5telux8platform13FsManagerImplESaIS2_ELN9__gnu_cxx12_Lock_policyE2EED2Ev=so_stub_for_libtelux_platform
-Wl,--defsym=_ZNSt23_Sp_counted_ptr_inplaceIN5telux8platform15TimeManagerImplESaIS2_ELN9__gnu_cxx12_Lock_policyE2EE10_M_destroyEv=so_stub_for_libtelux_platform
-Wl,--defsym=_ZNSt23_Sp_counted_ptr_inplaceIN5telux8platform15TimeManagerImplESaIS2_ELN9__gnu_cxx12_Lock_policyE2EE10_M_disposeEv=so_stub_for_libtelux_platform
-Wl,--defsym=_ZNSt23_Sp_counted_ptr_inplaceIN5telux8platform15TimeManagerImplESaIS2_ELN9__gnu_cxx12_Lock_policyE2EE14_M_get_deleterERKSt9type_info=so_stub_for_libtelux_platform
-Wl,--defsym=_ZNSt23_Sp_counted_ptr_inplaceIN5telux8platform15TimeManagerImplESaIS2_ELN9__gnu_cxx12_Lock_policyE2EED0Ev=so_stub_for_libtelux_platform
-Wl,--defsym=_ZNSt23_Sp_counted_ptr_inplaceIN5telux8platform15TimeManagerImplESaIS2_ELN9__gnu_cxx12_Lock_policyE2EED1Ev=so_stub_for_libtelux_platform
-Wl,--defsym=_ZNSt23_Sp_counted_ptr_inplaceIN5telux8platform15TimeManagerImplESaIS2_ELN9__gnu_cxx12_Lock_policyE2EED2Ev=so_stub_for_libtelux_platform
-Wl,--defsym=_ZNSt23_Sp_counted_ptr_inplaceIN5telux8platform20SubsystemManagerImplESaIS2_ELN9__gnu_cxx12_Lock_policyE2EE10_M_destroyEv=so_stub_for_libtelux_platform
-Wl,--defsym=_ZNSt23_Sp_counted_ptr_inplaceIN5telux8platform20SubsystemManagerImplESaIS2_ELN9__gnu_cxx12_Lock_policyE2EE10_M_disposeEv=so_stub_for_libtelux_platform
-Wl,--defsym=_ZNSt23_Sp_counted_ptr_inplaceIN5telux8platform20SubsystemManagerImplESaIS2_ELN9__gnu_cxx12_Lock_policyE2EE14_M_get_deleterERKSt9type_info=so_stub_for_libtelux_platform
-Wl,--defsym=_ZNSt23_Sp_counted_ptr_inplaceIN5telux8platform20SubsystemManagerImplESaIS2_ELN9__gnu_cxx12_Lock_policyE2EED0Ev=so_stub_for_libtelux_platform
-Wl,--defsym=_ZNSt23_Sp_counted_ptr_inplaceIN5telux8platform20SubsystemManagerImplESaIS2_ELN9__gnu_cxx12_Lock_policyE2EED1Ev=so_stub_for_libtelux_platform
-Wl,--defsym=_ZNSt23_Sp_counted_ptr_inplaceIN5telux8platform20SubsystemManagerImplESaIS2_ELN9__gnu_cxx12_Lock_policyE2EED2Ev=so_stub_for_libtelux_platform
-Wl,--defsym=_ZNSt23_Sp_counted_ptr_inplaceIN5telux8platform21DeviceInfoManagerImplESaIS2_ELN9__gnu_cxx12_Lock_policyE2EE10_M_destroyEv=so_stub_for_libtelux_platform
-Wl,--defsym=_ZNSt23_Sp_counted_ptr_inplaceIN5telux8platform21DeviceInfoManagerImplESaIS2_ELN9__gnu_cxx12_Lock_policyE2EE10_M_disposeEv=so_stub_for_libtelux_platform
-Wl,--defsym=_ZNSt23_Sp_counted_ptr_inplaceIN5telux8platform21DeviceInfoManagerImplESaIS2_ELN9__gnu_cxx12_Lock_policyE2EE14_M_get_deleterERKSt9type_info=so_stub_for_libtelux_platform
-Wl,--defsym=_ZNSt23_Sp_counted_ptr_inplaceIN5telux8platform21DeviceInfoManagerImplESaIS2_ELN9__gnu_cxx12_Lock_policyE2EED0Ev=so_stub_for_libtelux_platform
-Wl,--defsym=_ZNSt23_Sp_counted_ptr_inplaceIN5telux8platform21DeviceInfoManagerImplESaIS2_ELN9__gnu_cxx12_Lock_policyE2EED1Ev=so_stub_for_libtelux_platform
-Wl,--defsym=_ZNSt23_Sp_counted_ptr_inplaceIN5telux8platform21DeviceInfoManagerImplESaIS2_ELN9__gnu_cxx12_Lock_policyE2EED2Ev=so_stub_for_libtelux_platform
-Wl,--defsym=_ZNSt23_Sp_counted_ptr_inplaceIN5telux8platform8hardware18AntennaManagerImplESaIS3_ELN9__gnu_cxx12_Lock_policyE2EE10_M_destroyEv=so_stub_for_libtelux_platform
-Wl,--defsym=_ZNSt23_Sp_counted_ptr_inplaceIN5telux8platform8hardware18AntennaManagerImplESaIS3_ELN9__gnu_cxx12_Lock_policyE2EE10_M_disposeEv=so_stub_for_libtelux_platform
-Wl,--defsym=_ZNSt23_Sp_counted_ptr_inplaceIN5telux8platform8hardware18AntennaManagerImplESaIS3_ELN9__gnu_cxx12_Lock_policyE2EE14_M_get_deleterERKSt9type_info=so_stub_for_libtelux_platform
-Wl,--defsym=_ZNSt23_Sp_counted_ptr_inplaceIN5telux8platform8hardware18AntennaManagerImplESaIS3_ELN9__gnu_cxx12_Lock_policyE2EED0Ev=so_stub_for_libtelux_platform
-Wl,--defsym=_ZNSt23_Sp_counted_ptr_inplaceIN5telux8platform8hardware18AntennaManagerImplESaIS3_ELN9__gnu_cxx12_Lock_policyE2EED1Ev=so_stub_for_libtelux_platform
-Wl,--defsym=_ZNSt23_Sp_counted_ptr_inplaceIN5telux8platform8hardware18AntennaManagerImplESaIS3_ELN9__gnu_cxx12_Lock_policyE2EED2Ev=so_stub_for_libtelux_platform
-Wl,--defsym=_ZNSt23_Sp_counted_ptr_inplaceINSt13__future_base13_State_baseV2ESaIS1_ELN9__gnu_cxx12_Lock_policyE2EE10_M_destroyEv=so_stub_for_libtelux_platform
-Wl,--defsym=_ZNSt23_Sp_counted_ptr_inplaceINSt13__future_base13_State_baseV2ESaIS1_ELN9__gnu_cxx12_Lock_policyE2EE10_M_disposeEv=so_stub_for_libtelux_platform
-Wl,--defsym=_ZNSt23_Sp_counted_ptr_inplaceINSt13__future_base13_State_baseV2ESaIS1_ELN9__gnu_cxx12_Lock_policyE2EE14_M_get_deleterERKSt9type_info=so_stub_for_libtelux_platform
-Wl,--defsym=_ZNSt23_Sp_counted_ptr_inplaceINSt13__future_base13_State_baseV2ESaIS1_ELN9__gnu_cxx12_Lock_policyE2EED0Ev=so_stub_for_libtelux_platform
-Wl,--defsym=_ZNSt23_Sp_counted_ptr_inplaceINSt13__future_base13_State_baseV2ESaIS1_ELN9__gnu_cxx12_Lock_policyE2EED1Ev=so_stub_for_libtelux_platform
-Wl,--defsym=_ZNSt23_Sp_counted_ptr_inplaceINSt13__future_base13_State_baseV2ESaIS1_ELN9__gnu_cxx12_Lock_policyE2EED2Ev=so_stub_for_libtelux_platform
-Wl,--defsym=_ZNSt23_Sp_counted_ptr_inplaceISt6threadSaIS0_ELN9__gnu_cxx12_Lock_policyE2EE10_M_destroyEv=so_stub_for_libtelux_platform
-Wl,--defsym=_ZNSt23_Sp_counted_ptr_inplaceISt6threadSaIS0_ELN9__gnu_cxx12_Lock_policyE2EE10_M_disposeEv=so_stub_for_libtelux_platform
-Wl,--defsym=_ZNSt23_Sp_counted_ptr_inplaceISt6threadSaIS0_ELN9__gnu_cxx12_Lock_policyE2EE14_M_get_deleterERKSt9type_info=so_stub_for_libtelux_platform
-Wl,--defsym=_ZNSt23_Sp_counted_ptr_inplaceISt6threadSaIS0_ELN9__gnu_cxx12_Lock_policyE2EED0Ev=so_stub_for_libtelux_platform
-Wl,--defsym=_ZNSt23_Sp_counted_ptr_inplaceISt6threadSaIS0_ELN9__gnu_cxx12_Lock_policyE2EED1Ev=so_stub_for_libtelux_platform
-Wl,--defsym=_ZNSt23_Sp_counted_ptr_inplaceISt6threadSaIS0_ELN9__gnu_cxx12_Lock_policyE2EED2Ev=so_stub_for_libtelux_platform
-Wl,--defsym=_ZNSt3mapIjSt3setISt8weak_ptrIN5telux6common12ISDKListenerEENS3_15ListenerManager12SetPredicateESaIS5_EESt4lessIjESaISt4pairIKjS9_EEEixEOj=so_stub_for_libtelux_platform
-Wl,--defsym=_ZNSt5dequeISt13shared_futureIvESaIS1_EE13_M_insert_auxISt15_Deque_iteratorIS1_RKS1_PS6_EEEvS5_IS1_RS1_PS1_ET_SD_m=so_stub_for_libtelux_platform
-Wl,--defsym=_ZNSt5dequeISt13shared_futureIvESaIS1_EE15_M_erase_at_endESt15_Deque_iteratorIS1_RS1_PS1_E=so_stub_for_libtelux_platform
-Wl,--defsym=_ZNSt5dequeISt13shared_futureIvESaIS1_EE16_M_pop_front_auxEv=so_stub_for_libtelux_platform
-Wl,--defsym=_ZNSt5dequeISt13shared_futureIvESaIS1_EE16_M_push_back_auxIJRKS1_EEEvDpOT_=so_stub_for_libtelux_platform
-Wl,--defsym=_ZNSt5dequeISt13shared_futureIvESaIS1_EE17_M_reallocate_mapEmb=so_stub_for_libtelux_platform
-Wl,--defsym=_ZNSt5dequeISt13shared_futureIvESaIS1_EE19_M_destroy_data_auxESt15_Deque_iteratorIS1_RS1_PS1_ES7_=so_stub_for_libtelux_platform
-Wl,--defsym=_ZNSt5dequeISt13shared_futureIvESaIS1_EE19_M_range_insert_auxISt15_Deque_iteratorIS1_RKS1_PS6_EEEvS5_IS1_RS1_PS1_ET_SD_St20forward_iterator_tag=so_stub_for_libtelux_platform
-Wl,--defsym=_ZNSt5dequeISt13shared_futureIvESaIS1_EE23_M_new_elements_at_backEm=so_stub_for_libtelux_platform
-Wl,--defsym=_ZNSt5dequeISt13shared_futureIvESaIS1_EE24_M_new_elements_at_frontEm=so_stub_for_libtelux_platform
-Wl,--defsym=_ZNSt5dequeISt13shared_futureIvESaIS1_EE8_M_eraseESt15_Deque_iteratorIS1_RS1_PS1_E=so_stub_for_libtelux_platform
-Wl,--defsym=_ZNSt5dequeISt13shared_futureIvESaIS1_EE9push_backERKS1_=so_stub_for_libtelux_platform
-Wl,--defsym=_ZNSt5dequeISt13shared_futureIvESaIS1_EEaSERKS3_=so_stub_for_libtelux_platform
-Wl,--defsym=_ZNSt5dequeISt13shared_futureIvESaIS1_EED1Ev=so_stub_for_libtelux_platform
-Wl,--defsym=_ZNSt5dequeISt13shared_futureIvESaIS1_EED2Ev=so_stub_for_libtelux_platform
-Wl,--defsym=_ZNSt6thread11_State_implINS_8_InvokerISt5tupleIJMN5telux6common14AsyncTaskQueueIvEEFvvEPS6_EEEEE6_M_runEv=so_stub_for_libtelux_platform
-Wl,--defsym=_ZNSt6thread11_State_implINS_8_InvokerISt5tupleIJMN5telux6common14AsyncTaskQueueIvEEFvvEPS6_EEEEED0Ev=so_stub_for_libtelux_platform
-Wl,--defsym=_ZNSt6thread11_State_implINS_8_InvokerISt5tupleIJMN5telux6common14AsyncTaskQueueIvEEFvvEPS6_EEEEED1Ev=so_stub_for_libtelux_platform
-Wl,--defsym=_ZNSt6thread11_State_implINS_8_InvokerISt5tupleIJMN5telux6common14AsyncTaskQueueIvEEFvvEPS6_EEEEED2Ev=so_stub_for_libtelux_platform
-Wl,--defsym=_ZNSt6thread11_State_implINS_8_InvokerISt5tupleIJZN5telux6common13FactoryHelper10getManagerINS3_8platform10IFsManagerEEESt10shared_ptrIT_ENSt7__cxx1112basic_stringIcSt11char_traitsIcESaIcEEERSt8weak_ptrISA_ERSt6vectorISt8functionIFvNS4_13ServiceStatusEEESaISP_EESP_SM_IFSB_SP_EEEUlvE_EEEEE6_M_runEv=so_stub_for_libtelux_platform
-Wl,--defsym=_ZNSt6thread11_State_implINS_8_InvokerISt5tupleIJZN5telux6common13FactoryHelper10getManagerINS3_8platform10IFsManagerEEESt10shared_ptrIT_ENSt7__cxx1112basic_stringIcSt11char_traitsIcESaIcEEERSt8weak_ptrISA_ERSt6vectorISt8functionIFvNS4_13ServiceStatusEEESaISP_EESP_SM_IFSB_SP_EEEUlvE_EEEEED0Ev=so_stub_for_libtelux_platform
-Wl,--defsym=_ZNSt6thread11_State_implINS_8_InvokerISt5tupleIJZN5telux6common13FactoryHelper10getManagerINS3_8platform10IFsManagerEEESt10shared_ptrIT_ENSt7__cxx1112basic_stringIcSt11char_traitsIcESaIcEEERSt8weak_ptrISA_ERSt6vectorISt8functionIFvNS4_13ServiceStatusEEESaISP_EESP_SM_IFSB_SP_EEEUlvE_EEEEED1Ev=so_stub_for_libtelux_platform
-Wl,--defsym=_ZNSt6thread11_State_implINS_8_InvokerISt5tupleIJZN5telux6common13FactoryHelper10getManagerINS3_8platform10IFsManagerEEESt10shared_ptrIT_ENSt7__cxx1112basic_stringIcSt11char_traitsIcESaIcEEERSt8weak_ptrISA_ERSt6vectorISt8functionIFvNS4_13ServiceStatusEEESaISP_EESP_SM_IFSB_SP_EEEUlvE_EEEEED2Ev=so_stub_for_libtelux_platform
-Wl,--defsym=_ZNSt6thread11_State_implINS_8_InvokerISt5tupleIJZN5telux6common13FactoryHelper10getManagerINS3_8platform12ITimeManagerEEESt10shared_ptrIT_ENSt7__cxx1112basic_stringIcSt11char_traitsIcESaIcEEERSt8weak_ptrISA_ERSt6vectorISt8functionIFvNS4_13ServiceStatusEEESaISP_EESP_SM_IFSB_SP_EEEUlvE_EEEEE6_M_runEv=so_stub_for_libtelux_platform
-Wl,--defsym=_ZNSt6thread11_State_implINS_8_InvokerISt5tupleIJZN5telux6common13FactoryHelper10getManagerINS3_8platform12ITimeManagerEEESt10shared_ptrIT_ENSt7__cxx1112basic_stringIcSt11char_traitsIcESaIcEEERSt8weak_ptrISA_ERSt6vectorISt8functionIFvNS4_13ServiceStatusEEESaISP_EESP_SM_IFSB_SP_EEEUlvE_EEEEED0Ev=so_stub_for_libtelux_platform
-Wl,--defsym=_ZNSt6thread11_State_implINS_8_InvokerISt5tupleIJZN5telux6common13FactoryHelper10getManagerINS3_8platform12ITimeManagerEEESt10shared_ptrIT_ENSt7__cxx1112basic_stringIcSt11char_traitsIcESaIcEEERSt8weak_ptrISA_ERSt6vectorISt8functionIFvNS4_13ServiceStatusEEESaISP_EESP_SM_IFSB_SP_EEEUlvE_EEEEED1Ev=so_stub_for_libtelux_platform
-Wl,--defsym=_ZNSt6thread11_State_implINS_8_InvokerISt5tupleIJZN5telux6common13FactoryHelper10getManagerINS3_8platform12ITimeManagerEEESt10shared_ptrIT_ENSt7__cxx1112basic_stringIcSt11char_traitsIcESaIcEEERSt8weak_ptrISA_ERSt6vectorISt8functionIFvNS4_13ServiceStatusEEESaISP_EESP_SM_IFSB_SP_EEEUlvE_EEEEED2Ev=so_stub_for_libtelux_platform
-Wl,--defsym=_ZNSt6thread11_State_implINS_8_InvokerISt5tupleIJZN5telux6common13FactoryHelper10getManagerINS3_8platform17ISubsystemManagerEEESt10shared_ptrIT_ENSt7__cxx1112basic_stringIcSt11char_traitsIcESaIcEEERSt8weak_ptrISA_ERSt6vectorISt8functionIFvNS4_13ServiceStatusEEESaISP_EESP_SM_IFSB_SP_EEEUlvE_EEEEE6_M_runEv=so_stub_for_libtelux_platform
-Wl,--defsym=_ZNSt6thread11_State_implINS_8_InvokerISt5tupleIJZN5telux6common13FactoryHelper10getManagerINS3_8platform17ISubsystemManagerEEESt10shared_ptrIT_ENSt7__cxx1112basic_stringIcSt11char_traitsIcESaIcEEERSt8weak_ptrISA_ERSt6vectorISt8functionIFvNS4_13ServiceStatusEEESaISP_EESP_SM_IFSB_SP_EEEUlvE_EEEEED0Ev=so_stub_for_libtelux_platform
-Wl,--defsym=_ZNSt6thread11_State_implINS_8_InvokerISt5tupleIJZN5telux6common13FactoryHelper10getManagerINS3_8platform17ISubsystemManagerEEESt10shared_ptrIT_ENSt7__cxx1112basic_stringIcSt11char_traitsIcESaIcEEERSt8weak_ptrISA_ERSt6vectorISt8functionIFvNS4_13ServiceStatusEEESaISP_EESP_SM_IFSB_SP_EEEUlvE_EEEEED1Ev=so_stub_for_libtelux_platform
-Wl,--defsym=_ZNSt6thread11_State_implINS_8_InvokerISt5tupleIJZN5telux6common13FactoryHelper10getManagerINS3_8platform17ISubsystemManagerEEESt10shared_ptrIT_ENSt7__cxx1112basic_stringIcSt11char_traitsIcESaIcEEERSt8weak_ptrISA_ERSt6vectorISt8functionIFvNS4_13ServiceStatusEEESaISP_EESP_SM_IFSB_SP_EEEUlvE_EEEEED2Ev=so_stub_for_libtelux_platform
-Wl,--defsym=_ZNSt6thread11_State_implINS_8_InvokerISt5tupleIJZN5telux6common13FactoryHelper10getManagerINS3_8platform18IDeviceInfoManagerEEESt10shared_ptrIT_ENSt7__cxx1112basic_stringIcSt11char_traitsIcESaIcEEERSt8weak_ptrISA_ERSt6vectorISt8functionIFvNS4_13ServiceStatusEEESaISP_EESP_SM_IFSB_SP_EEEUlvE_EEEEE6_M_runEv=so_stub_for_libtelux_platform
-Wl,--defsym=_ZNSt6thread11_State_implINS_8_InvokerISt5tupleIJZN5telux6common13FactoryHelper10getManagerINS3_8platform18IDeviceInfoManagerEEESt10shared_ptrIT_ENSt7__cxx1112basic_stringIcSt11char_traitsIcESaIcEEERSt8weak_ptrISA_ERSt6vectorISt8functionIFvNS4_13ServiceStatusEEESaISP_EESP_SM_IFSB_SP_EEEUlvE_EEEEED0Ev=so_stub_for_libtelux_platform
-Wl,--defsym=_ZNSt6thread11_State_implINS_8_InvokerISt5tupleIJZN5telux6common13FactoryHelper10getManagerINS3_8platform18IDeviceInfoManagerEEESt10shared_ptrIT_ENSt7__cxx1112basic_stringIcSt11char_traitsIcESaIcEEERSt8weak_ptrISA_ERSt6vectorISt8functionIFvNS4_13ServiceStatusEEESaISP_EESP_SM_IFSB_SP_EEEUlvE_EEEEED1Ev=so_stub_for_libtelux_platform
-Wl,--defsym=_ZNSt6thread11_State_implINS_8_InvokerISt5tupleIJZN5telux6common13FactoryHelper10getManagerINS3_8platform18IDeviceInfoManagerEEESt10shared_ptrIT_ENSt7__cxx1112basic_stringIcSt11char_traitsIcESaIcEEERSt8weak_ptrISA_ERSt6vectorISt8functionIFvNS4_13ServiceStatusEEESaISP_EESP_SM_IFSB_SP_EEEUlvE_EEEEED2Ev=so_stub_for_libtelux_platform
-Wl,--defsym=_ZNSt6thread11_State_implINS_8_InvokerISt5tupleIJZN5telux6common13FactoryHelper10getManagerINS3_8platform8hardware15IAntennaManagerEEESt10shared_ptrIT_ENSt7__cxx1112basic_stringIcSt11char_traitsIcESaIcEEERSt8weak_ptrISB_ERSt6vectorISt8functionIFvNS4_13ServiceStatusEEESaISQ_EESQ_SN_IFSC_SQ_EEEUlvE_EEEEE6_M_runEv=so_stub_for_libtelux_platform
-Wl,--defsym=_ZNSt6thread11_State_implINS_8_InvokerISt5tupleIJZN5telux6common13FactoryHelper10getManagerINS3_8platform8hardware15IAntennaManagerEEESt10shared_ptrIT_ENSt7__cxx1112basic_stringIcSt11char_traitsIcESaIcEEERSt8weak_ptrISB_ERSt6vectorISt8functionIFvNS4_13ServiceStatusEEESaISQ_EESQ_SN_IFSC_SQ_EEEUlvE_EEEEED0Ev=so_stub_for_libtelux_platform
-Wl,--defsym=_ZNSt6thread11_State_implINS_8_InvokerISt5tupleIJZN5telux6common13FactoryHelper10getManagerINS3_8platform8hardware15IAntennaManagerEEESt10shared_ptrIT_ENSt7__cxx1112basic_stringIcSt11char_traitsIcESaIcEEERSt8weak_ptrISB_ERSt6vectorISt8functionIFvNS4_13ServiceStatusEEESaISQ_EESQ_SN_IFSC_SQ_EEEUlvE_EEEEED1Ev=so_stub_for_libtelux_platform
-Wl,--defsym=_ZNSt6thread11_State_implINS_8_InvokerISt5tupleIJZN5telux6common13FactoryHelper10getManagerINS3_8platform8hardware15IAntennaManagerEEESt10shared_ptrIT_ENSt7__cxx1112basic_stringIcSt11char_traitsIcESaIcEEERSt8weak_ptrISB_ERSt6vectorISt8functionIFvNS4_13ServiceStatusEEESaISQ_EESQ_SN_IFSC_SQ_EEEUlvE_EEEEED2Ev=so_stub_for_libtelux_platform
-Wl,--defsym=_ZNSt6threadC1IMN5telux6common14AsyncTaskQueueIvEEFvvEJPS4_EvEEOT_DpOT0_=so_stub_for_libtelux_platform
-Wl,--defsym=_ZNSt6threadC1IZN5telux6common13FactoryHelper10getManagerINS1_8platform10IFsManagerEEESt10shared_ptrIT_ENSt7__cxx1112basic_stringIcSt11char_traitsIcESaIcEEERSt8weak_ptrIS8_ERSt6vectorISt8functionIFvNS2_13ServiceStatusEEESaISN_EESN_SK_IFS9_SN_EEEUlvE_JEvEEOS8_DpOT0_=so_stub_for_libtelux_platform
-Wl,--defsym=_ZNSt6threadC1IZN5telux6common13FactoryHelper10getManagerINS1_8platform12ITimeManagerEEESt10shared_ptrIT_ENSt7__cxx1112basic_stringIcSt11char_traitsIcESaIcEEERSt8weak_ptrIS8_ERSt6vectorISt8functionIFvNS2_13ServiceStatusEEESaISN_EESN_SK_IFS9_SN_EEEUlvE_JEvEEOS8_DpOT0_=so_stub_for_libtelux_platform
-Wl,--defsym=_ZNSt6threadC1IZN5telux6common13FactoryHelper10getManagerINS1_8platform17ISubsystemManagerEEESt10shared_ptrIT_ENSt7__cxx1112basic_stringIcSt11char_traitsIcESaIcEEERSt8weak_ptrIS8_ERSt6vectorISt8functionIFvNS2_13ServiceStatusEEESaISN_EESN_SK_IFS9_SN_EEEUlvE_JEvEEOS8_DpOT0_=so_stub_for_libtelux_platform
-Wl,--defsym=_ZNSt6threadC1IZN5telux6common13FactoryHelper10getManagerINS1_8platform18IDeviceInfoManagerEEESt10shared_ptrIT_ENSt7__cxx1112basic_stringIcSt11char_traitsIcESaIcEEERSt8weak_ptrIS8_ERSt6vectorISt8functionIFvNS2_13ServiceStatusEEESaISN_EESN_SK_IFS9_SN_EEEUlvE_JEvEEOS8_DpOT0_=so_stub_for_libtelux_platform
-Wl,--defsym=_ZNSt6threadC1IZN5telux6common13FactoryHelper10getManagerINS1_8platform8hardware15IAntennaManagerEEESt10shared_ptrIT_ENSt7__cxx1112basic_stringIcSt11char_traitsIcESaIcEEERSt8weak_ptrIS9_ERSt6vectorISt8functionIFvNS2_13ServiceStatusEEESaISO_EESO_SL_IFSA_SO_EEEUlvE_JEvEEOS9_DpOT0_=so_stub_for_libtelux_platform
-Wl,--defsym=_ZNSt6threadC2IMN5telux6common14AsyncTaskQueueIvEEFvvEJPS4_EvEEOT_DpOT0_=so_stub_for_libtelux_platform
-Wl,--defsym=_ZNSt6threadC2IZN5telux6common13FactoryHelper10getManagerINS1_8platform10IFsManagerEEESt10shared_ptrIT_ENSt7__cxx1112basic_stringIcSt11char_traitsIcESaIcEEERSt8weak_ptrIS8_ERSt6vectorISt8functionIFvNS2_13ServiceStatusEEESaISN_EESN_SK_IFS9_SN_EEEUlvE_JEvEEOS8_DpOT0_=so_stub_for_libtelux_platform
-Wl,--defsym=_ZNSt6threadC2IZN5telux6common13FactoryHelper10getManagerINS1_8platform12ITimeManagerEEESt10shared_ptrIT_ENSt7__cxx1112basic_stringIcSt11char_traitsIcESaIcEEERSt8weak_ptrIS8_ERSt6vectorISt8functionIFvNS2_13ServiceStatusEEESaISN_EESN_SK_IFS9_SN_EEEUlvE_JEvEEOS8_DpOT0_=so_stub_for_libtelux_platform
-Wl,--defsym=_ZNSt6threadC2IZN5telux6common13FactoryHelper10getManagerINS1_8platform17ISubsystemManagerEEESt10shared_ptrIT_ENSt7__cxx1112basic_stringIcSt11char_traitsIcESaIcEEERSt8weak_ptrIS8_ERSt6vectorISt8functionIFvNS2_13ServiceStatusEEESaISN_EESN_SK_IFS9_SN_EEEUlvE_JEvEEOS8_DpOT0_=so_stub_for_libtelux_platform
-Wl,--defsym=_ZNSt6threadC2IZN5telux6common13FactoryHelper10getManagerINS1_8platform18IDeviceInfoManagerEEESt10shared_ptrIT_ENSt7__cxx1112basic_stringIcSt11char_traitsIcESaIcEEERSt8weak_ptrIS8_ERSt6vectorISt8functionIFvNS2_13ServiceStatusEEESaISN_EESN_SK_IFS9_SN_EEEUlvE_JEvEEOS8_DpOT0_=so_stub_for_libtelux_platform
-Wl,--defsym=_ZNSt6threadC2IZN5telux6common13FactoryHelper10getManagerINS1_8platform8hardware15IAntennaManagerEEESt10shared_ptrIT_ENSt7__cxx1112basic_stringIcSt11char_traitsIcESaIcEEERSt8weak_ptrIS9_ERSt6vectorISt8functionIFvNS2_13ServiceStatusEEESaISO_EESO_SL_IFSA_SO_EEEUlvE_JEvEEOS9_DpOT0_=so_stub_for_libtelux_platform
-Wl,--defsym=_ZNSt6vectorISt8functionIFvN5telux6common13ServiceStatusEEESaIS5_EE15_M_erase_at_endEPS5_=so_stub_for_libtelux_platform
-Wl,--defsym=_ZNSt6vectorISt8functionIFvN5telux6common13ServiceStatusEEESaIS5_EE17_M_realloc_insertIJRKS5_EEEvN9__gnu_cxx17__normal_iteratorIPS5_S7_EEDpOT_=so_stub_for_libtelux_platform
-Wl,--defsym=_ZNSt6vectorISt8functionIFvN5telux6common13ServiceStatusEEESaIS5_EE20_M_allocate_and_copyIN9__gnu_cxx17__normal_iteratorIPKS5_S7_EEEEPS5_mT_SF_=so_stub_for_libtelux_platform
-Wl,--defsym=_ZNSt6vectorISt8functionIFvN5telux6common13ServiceStatusEEESaIS5_EE9push_backERKS5_=so_stub_for_libtelux_platform
-Wl,--defsym=_ZNSt6vectorISt8functionIFvN5telux6common13ServiceStatusEEESaIS5_EEaSERKS7_=so_stub_for_libtelux_platform
-Wl,--defsym=_ZNSt6vectorISt8functionIFvN5telux6common13ServiceStatusEEESaIS5_EED1Ev=so_stub_for_libtelux_platform
-Wl,--defsym=_ZNSt6vectorISt8functionIFvN5telux6common13ServiceStatusEEESaIS5_EED2Ev=so_stub_for_libtelux_platform
-Wl,--defsym=_ZNSt6vectorISt8weak_ptrIN5telux6common12ISDKListenerEESaIS4_EE12emplace_backIJRS4_EEEvDpOT_=so_stub_for_libtelux_platform
-Wl,--defsym=_ZNSt6vectorISt8weak_ptrIN5telux6common12ISDKListenerEESaIS4_EE12emplace_backIJRSt10shared_ptrIS3_EEEEvDpOT_=so_stub_for_libtelux_platform
-Wl,--defsym=_ZNSt6vectorISt8weak_ptrIN5telux6common12ISDKListenerEESaIS4_EE17_M_realloc_insertIJRS4_EEEvN9__gnu_cxx17__normal_iteratorIPS4_S6_EEDpOT_=so_stub_for_libtelux_platform
-Wl,--defsym=_ZNSt6vectorISt8weak_ptrIN5telux6common12ISDKListenerEESaIS4_EE17_M_realloc_insertIJRSt10shared_ptrIS3_EEEEvN9__gnu_cxx17__normal_iteratorIPS4_S6_EEDpOT_=so_stub_for_libtelux_platform
-Wl,--defsym=_ZNSt6vectorISt8weak_ptrIN5telux6common12ISDKListenerEESaIS4_EE8_M_eraseEN9__gnu_cxx17__normal_iteratorIPS4_S6_EE=so_stub_for_libtelux_platform
-Wl,--defsym=_ZNSt6vectorISt8weak_ptrIN5telux6common12ISDKListenerEESaIS4_EED1Ev=so_stub_for_libtelux_platform
-Wl,--defsym=_ZNSt6vectorISt8weak_ptrIN5telux6common12ISDKListenerEESaIS4_EED2Ev=so_stub_for_libtelux_platform
-Wl,--defsym=_ZNSt7__cxx1112basic_stringIcSt11char_traitsIcESaIcEE12_M_constructIPcEEvT_S7_St20forward_iterator_tag=so_stub_for_libtelux_platform
-Wl,--defsym=_ZNSt7__cxx1112basic_stringIcSt11char_traitsIcESaIcEE12_M_constructIPKcEEvT_S8_St20forward_iterator_tag=so_stub_for_libtelux_platform
-Wl,--defsym=_ZNSt7__cxx1115basic_stringbufIcSt11char_traitsIcESaIcEED0Ev=so_stub_for_libtelux_platform
-Wl,--defsym=_ZNSt7__cxx1115basic_stringbufIcSt11char_traitsIcESaIcEED1Ev=so_stub_for_libtelux_platform
-Wl,--defsym=_ZNSt7__cxx1115basic_stringbufIcSt11char_traitsIcESaIcEED2Ev=so_stub_for_libtelux_platform
-Wl,--defsym=_ZNSt7promiseIN5telux6common6StatusEEC1Ev=so_stub_for_libtelux_platform
-Wl,--defsym=_ZNSt7promiseIN5telux6common6StatusEEC2Ev=so_stub_for_libtelux_platform
-Wl,--defsym=_ZNSt7promiseIN5telux6common6StatusEED1Ev=so_stub_for_libtelux_platform
-Wl,--defsym=_ZNSt7promiseIN5telux6common6StatusEED2Ev=so_stub_for_libtelux_platform
-Wl,--defsym=_ZNSt7promiseIN5telux6common9ErrorCodeEE9set_valueERKS2_=so_stub_for_libtelux_platform
-Wl,--defsym=_ZNSt7promiseIN5telux6common9ErrorCodeEEC1Ev=so_stub_for_libtelux_platform
-Wl,--defsym=_ZNSt7promiseIN5telux6common9ErrorCodeEEC2Ev=so_stub_for_libtelux_platform
-Wl,--defsym=_ZNSt7promiseIN5telux6common9ErrorCodeEED1Ev=so_stub_for_libtelux_platform
-Wl,--defsym=_ZNSt7promiseIN5telux6common9ErrorCodeEED2Ev=so_stub_for_libtelux_platform
-Wl,--defsym=_ZNSt8__detail9_Map_baseIiSt4pairIKiSt10shared_ptrIN5telux6common16ICommandCallbackEEESaIS8_ENS_10_Select1stESt8equal_toIiESt4hashIiENS_18_Mod_range_hashingENS_20_Default_ranged_hashENS_20_Prime_rehash_policyENS_17_Hashtable_traitsILb0ELb0ELb1EEELb1EEixERS2_=so_stub_for_libtelux_platform
-Wl,--defsym=_ZNSt8functionIFvN5telux6common13ServiceStatusEEEaSERKS4_=so_stub_for_libtelux_platform
-Wl,--defsym=_ZNSt8functionIFvN5telux6common13ServiceStatusEEEC1IRZNS1_13FactoryHelper10getManagerINS0_8platform10IFsManagerEEESt10shared_ptrIT_ENSt7__cxx1112basic_stringIcSt11char_traitsIcESaIcEEERSt8weak_ptrISB_ERSt6vectorIS4_SaIS4_EES4_S_IFSC_S4_EEEUlS2_E0_vEEOSB_=so_stub_for_libtelux_platform
-Wl,--defsym=_ZNSt8functionIFvN5telux6common13ServiceStatusEEEC1IRZNS1_13FactoryHelper10getManagerINS0_8platform12ITimeManagerEEESt10shared_ptrIT_ENSt7__cxx1112basic_stringIcSt11char_traitsIcESaIcEEERSt8weak_ptrISB_ERSt6vectorIS4_SaIS4_EES4_S_IFSC_S4_EEEUlS2_E0_vEEOSB_=so_stub_for_libtelux_platform
-Wl,--defsym=_ZNSt8functionIFvN5telux6common13ServiceStatusEEEC1IRZNS1_13FactoryHelper10getManagerINS0_8platform17ISubsystemManagerEEESt10shared_ptrIT_ENSt7__cxx1112basic_stringIcSt11char_traitsIcESaIcEEERSt8weak_ptrISB_ERSt6vectorIS4_SaIS4_EES4_S_IFSC_S4_EEEUlS2_E0_vEEOSB_=so_stub_for_libtelux_platform
-Wl,--defsym=_ZNSt8functionIFvN5telux6common13ServiceStatusEEEC1IRZNS1_13FactoryHelper10getManagerINS0_8platform18IDeviceInfoManagerEEESt10shared_ptrIT_ENSt7__cxx1112basic_stringIcSt11char_traitsIcESaIcEEERSt8weak_ptrISB_ERSt6vectorIS4_SaIS4_EES4_S_IFSC_S4_EEEUlS2_E0_vEEOSB_=so_stub_for_libtelux_platform
-Wl,--defsym=_ZNSt8functionIFvN5telux6common13ServiceStatusEEEC1IRZNS1_13FactoryHelper10getManagerINS0_8platform8hardware15IAntennaManagerEEESt10shared_ptrIT_ENSt7__cxx1112basic_stringIcSt11char_traitsIcESaIcEEERSt8weak_ptrISC_ERSt6vectorIS4_SaIS4_EES4_S_IFSD_S4_EEEUlS2_E0_vEEOSC_=so_stub_for_libtelux_platform
-Wl,--defsym=_ZNSt8functionIFvN5telux6common13ServiceStatusEEEC2IRZNS1_13FactoryHelper10getManagerINS0_8platform10IFsManagerEEESt10shared_ptrIT_ENSt7__cxx1112basic_stringIcSt11char_traitsIcESaIcEEERSt8weak_ptrISB_ERSt6vectorIS4_SaIS4_EES4_S_IFSC_S4_EEEUlS2_E0_vEEOSB_=so_stub_for_libtelux_platform
-Wl,--defsym=_ZNSt8functionIFvN5telux6common13ServiceStatusEEEC2IRZNS1_13FactoryHelper10getManagerINS0_8platform12ITimeManagerEEESt10shared_ptrIT_ENSt7__cxx1112basic_stringIcSt11char_traitsIcESaIcEEERSt8weak_ptrISB_ERSt6vectorIS4_SaIS4_EES4_S_IFSC_S4_EEEUlS2_E0_vEEOSB_=so_stub_for_libtelux_platform
-Wl,--defsym=_ZNSt8functionIFvN5telux6common13ServiceStatusEEEC2IRZNS1_13FactoryHelper10getManagerINS0_8platform17ISubsystemManagerEEESt10shared_ptrIT_ENSt7__cxx1112basic_stringIcSt11char_traitsIcESaIcEEERSt8weak_ptrISB_ERSt6vectorIS4_SaIS4_EES4_S_IFSC_S4_EEEUlS2_E0_vEEOSB_=so_stub_for_libtelux_platform
-Wl,--defsym=_ZNSt8functionIFvN5telux6common13ServiceStatusEEEC2IRZNS1_13FactoryHelper10getManagerINS0_8platform18IDeviceInfoManagerEEESt10shared_ptrIT_ENSt7__cxx1112basic_stringIcSt11char_traitsIcESaIcEEERSt8weak_ptrISB_ERSt6vectorIS4_SaIS4_EES4_S_IFSC_S4_EEEUlS2_E0_vEEOSB_=so_stub_for_libtelux_platform
-Wl,--defsym=_ZNSt8functionIFvN5telux6common13ServiceStatusEEEC2IRZNS1_13FactoryHelper10getManagerINS0_8platform8hardware15IAntennaManagerEEESt10shared_ptrIT_ENSt7__cxx1112basic_stringIcSt11char_traitsIcESaIcEEERSt8weak_ptrISC_ERSt6vectorIS4_SaIS4_EES4_S_IFSD_S4_EEEUlS2_E0_vEEOSC_=so_stub_for_libtelux_platform
-Wl,--defsym=_ZNSt8_Rb_treeIjSt4pairIKjSt3setISt8weak_ptrIN5telux6common12ISDKListenerEENS5_15ListenerManager12SetPredicateESaIS7_EEESt10_Select1stISC_ESt4lessIjESaISC_EE14_M_lower_boundEPSt13_Rb_tree_nodeISC_EPSt18_Rb_tree_node_baseRS1_=so_stub_for_libtelux_platform
-Wl,--defsym=_ZNSt8_Rb_treeIjSt4pairIKjSt3setISt8weak_ptrIN5telux6common12ISDKListenerEENS5_15ListenerManager12SetPredicateESaIS7_EEESt10_Select1stISC_ESt4lessIjESaISC_EE22_M_emplace_hint_uniqueIJRKSt21piecewise_construct_tSt5tupleIJOjEESN_IJEEEEESt17_Rb_tree_iteratorISC_ESt23_Rb_tree_const_iteratorISC_EDpOT_=so_stub_for_libtelux_platform
-Wl,--defsym=_ZNSt8_Rb_treeIjSt4pairIKjSt3setISt8weak_ptrIN5telux6common12ISDKListenerEENS5_15ListenerManager12SetPredicateESaIS7_EEESt10_Select1stISC_ESt4lessIjESaISC_EE24_M_get_insert_unique_posERS1_=so_stub_for_libtelux_platform
-Wl,--defsym=_ZNSt8_Rb_treeIjSt4pairIKjSt3setISt8weak_ptrIN5telux6common12ISDKListenerEENS5_15ListenerManager12SetPredicateESaIS7_EEESt10_Select1stISC_ESt4lessIjESaISC_EE29_M_get_insert_hint_unique_posESt23_Rb_tree_const_iteratorISC_ERS1_=so_stub_for_libtelux_platform
-Wl,--defsym=_ZNSt8_Rb_treeIjSt4pairIKjSt3setISt8weak_ptrIN5telux6common12ISDKListenerEENS5_15ListenerManager12SetPredicateESaIS7_EEESt10_Select1stISC_ESt4lessIjESaISC_EE4findERS1_=so_stub_for_libtelux_platform
-Wl,--defsym=_ZNSt8_Rb_treeIjSt4pairIKjSt3setISt8weak_ptrIN5telux6common12ISDKListenerEENS5_15ListenerManager12SetPredicateESaIS7_EEESt10_Select1stISC_ESt4lessIjESaISC_EE8_M_eraseEPSt13_Rb_tree_nodeISC_E=so_stub_for_libtelux_platform
-Wl,--defsym=_ZNSt8_Rb_treeISt8weak_ptrIN5telux6common12ISDKListenerEES4_St9_IdentityIS4_ENS2_15ListenerManager12SetPredicateESaIS4_EE10_M_insert_IS4_NSA_11_Alloc_nodeEEESt17_Rb_tree_iteratorIS4_EPSt18_Rb_tree_node_baseSG_OT_RT0_=so_stub_for_libtelux_platform
-Wl,--defsym=_ZNSt8_Rb_treeISt8weak_ptrIN5telux6common12ISDKListenerEES4_St9_IdentityIS4_ENS2_15ListenerManager12SetPredicateESaIS4_EE11equal_rangeERKS4_=so_stub_for_libtelux_platform
-Wl,--defsym=_ZNSt8_Rb_treeISt8weak_ptrIN5telux6common12ISDKListenerEES4_St9_IdentityIS4_ENS2_15ListenerManager12SetPredicateESaIS4_EE12_M_erase_auxESt23_Rb_tree_const_iteratorIS4_E=so_stub_for_libtelux_platform
-Wl,--defsym=_ZNSt8_Rb_treeISt8weak_ptrIN5telux6common12ISDKListenerEES4_St9_IdentityIS4_ENS2_15ListenerManager12SetPredicateESaIS4_EE16_M_insert_uniqueIS4_EESt4pairISt17_Rb_tree_iteratorIS4_EbEOT_=so_stub_for_libtelux_platform
-Wl,--defsym=_ZNSt8_Rb_treeISt8weak_ptrIN5telux6common12ISDKListenerEES4_St9_IdentityIS4_ENS2_15ListenerManager12SetPredicateESaIS4_EE24_M_get_insert_unique_posERKS4_=so_stub_for_libtelux_platform
-Wl,--defsym=_ZNSt8_Rb_treeISt8weak_ptrIN5telux6common12ISDKListenerEES4_St9_IdentityIS4_ENS2_15ListenerManager12SetPredicateESaIS4_EE5eraseERKS4_=so_stub_for_libtelux_platform
-Wl,--defsym=_ZNSt8_Rb_treeISt8weak_ptrIN5telux6common12ISDKListenerEES4_St9_IdentityIS4_ENS2_15ListenerManager12SetPredicateESaIS4_EE8_M_eraseEPSt13_Rb_tree_nodeIS4_E=so_stub_for_libtelux_platform
-Wl,--defsym=_ZSt13__copy_move_aILb0EN9__gnu_cxx17__normal_iteratorIPKSt8functionIFvN5telux6common13ServiceStatusEEESt6vectorIS7_SaIS7_EEEENS1_IPS7_SC_EEET1_T0_SH_SG_=so_stub_for_libtelux_platform
-Wl,--defsym=_ZSt13__copy_move_aILb1EN9__gnu_cxx17__normal_iteratorIPSt8weak_ptrIN5telux6common12ISDKListenerEESt6vectorIS6_SaIS6_EEEESB_ET1_T0_SD_SC_=so_stub_for_libtelux_platform
-Wl,--defsym=_ZSt13move_backwardISt15_Deque_iteratorISt13shared_futureIvERS2_PS2_ES5_ET0_T_S7_S6_=so_stub_for_libtelux_platform
-Wl,--defsym=_ZSt14__copy_move_a1ILb0EPSt13shared_futureIvES1_EN9__gnu_cxx11__enable_ifIXsrSt23__is_random_access_iterIT0_NSt15iterator_traitsIS6_E17iterator_categoryEE7__valueESt15_Deque_iteratorIT1_RSC_PSC_EE6__typeES6_S6_SF_=so_stub_for_libtelux_platform
-Wl,--defsym=_ZSt14__copy_move_a1ILb0ESt13shared_futureIvERKS1_PS2_S1_ESt15_Deque_iteratorIT3_RS6_PS6_ES5_IT0_T1_T2_ESD_S9_=so_stub_for_libtelux_platform
-Wl,--defsym=_ZSt14__copy_move_a1ILb1EPSt13shared_futureIvES1_EN9__gnu_cxx11__enable_ifIXsrSt23__is_random_access_iterIT0_NSt15iterator_traitsIS6_E17iterator_categoryEE7__valueESt15_Deque_iteratorIT1_RSC_PSC_EE6__typeES6_S6_SF_=so_stub_for_libtelux_platform
-Wl,--defsym=_ZSt14__copy_move_a1ILb1ESt13shared_futureIvERS1_PS1_S1_ESt15_Deque_iteratorIT3_RS5_PS5_ES4_IT0_T1_T2_ESC_S8_=so_stub_for_libtelux_platform
-Wl,--defsym=_ZSt18make_exception_ptrISt12future_errorENSt15__exception_ptr13exception_ptrET_=so_stub_for_libtelux_platform
-Wl,--defsym=_ZSt18uninitialized_copyISt13move_iteratorISt15_Deque_iteratorISt13shared_futureIvERS3_PS3_EES6_ET0_T_S9_S8_=so_stub_for_libtelux_platform
-Wl,--defsym=_ZSt22__uninitialized_copy_aISt15_Deque_iteratorISt13shared_futureIvERKS2_PS3_ES0_IS2_RS2_PS2_ES2_ET0_T_SB_SA_RSaIT1_E=so_stub_for_libtelux_platform
-Wl,--defsym=_ZSt22__uninitialized_move_aISt15_Deque_iteratorISt13shared_futureIvERS2_PS2_ES5_SaIS2_EET0_T_S8_S7_RT1_=so_stub_for_libtelux_platform
-Wl,--defsym=_ZSt23__copy_move_backward_a1ILb1EPSt13shared_futureIvES1_EN9__gnu_cxx11__enable_ifIXsrSt23__is_random_access_iterIT0_NSt15iterator_traitsIS6_E17iterator_categoryEE7__valueESt15_Deque_iteratorIT1_RSC_PSC_EE6__typeES6_S6_SF_=so_stub_for_libtelux_platform
-Wl,--defsym=_ZSt23__copy_move_backward_a1ILb1ESt13shared_futureIvERS1_PS1_S1_ESt15_Deque_iteratorIT3_RS5_PS5_ES4_IT0_T1_T2_ESC_S8_=so_stub_for_libtelux_platform
-Wl,--defsym=_ZSt4copyISt15_Deque_iteratorISt13shared_futureIvERKS2_PS3_ES0_IS2_RS2_PS2_EET0_T_SB_SA_=so_stub_for_libtelux_platform
-Wl,--defsym=_ZSt4moveISt15_Deque_iteratorISt13shared_futureIvERS2_PS2_ES5_ET0_T_S7_S6_=so_stub_for_libtelux_platform
-Wl,--defsym=_ZSt7find_ifIN9__gnu_cxx17__normal_iteratorIPSt8weak_ptrIN5telux6common12ISDKListenerEESt6vectorIS6_SaIS6_EEEEZNS4_15ListenerManager16registerListenerES6_EUlS6_E_ET_SE_SE_T0_=so_stub_for_libtelux_platform
-Wl,--defsym=_ZSt7find_ifISt23_Rb_tree_const_iteratorISt8weak_ptrIN5telux6common12ISDKListenerEEEZNS3_15ListenerManager16registerListenerISt6bitsetILm2EEEENS3_6StatusES5_T_RSC_EUlS5_E_ESC_SC_SC_T0_=so_stub_for_libtelux_platform
-Wl,--defsym=_ZSt9__advanceISt15_Deque_iteratorISt13shared_futureIvERKS2_PS3_ElEvRT_T0_St26random_access_iterator_tag=so_stub_for_libtelux_platform
-Wl,--defsym=_ZSt9__find_ifIN9__gnu_cxx17__normal_iteratorIPSt8weak_ptrIN5telux6common12ISDKListenerEESt6vectorIS6_SaIS6_EEEENS0_5__ops10_Iter_predIZNS4_15ListenerManager16registerListenerES6_EUlS6_E_EEET_SH_SH_T0_St26random_access_iterator_tag=so_stub_for_libtelux_platform
-Wl,--defsym=_ZSt9__find_ifISt23_Rb_tree_const_iteratorISt8weak_ptrIN5telux6common12ISDKListenerEEEN9__gnu_cxx5__ops10_Iter_predIZNS3_15ListenerManager16registerListenerISt6bitsetILm2EEEENS3_6StatusES5_T_RSF_EUlS5_E_EEESF_SF_SF_T0_St18input_iterator_tag=so_stub_for_libtelux_platform
-Wl,--defsym=_ZSteqRKSt10error_codeRKSt15error_condition=so_stub_for_libtelux_platform
-Wl,--defsym=_ZStlsIcSt11char_traitsIcELm2EERSt13basic_ostreamIT_T0_ES6_RKSt6bitsetIXT1_EE=so_stub_for_libtelux_platform
-Wl,--defsym=_ZThn16_N5telux8platform15TimeManagerImpl19onCv2xUtcTimeReportERNS_3qmi17Cv2xUtcTimeReportE=so_stub_for_libtelux_platform
-Wl,--defsym=_ZThn16_N5telux8platform15TimeManagerImplD0Ev=so_stub_for_libtelux_platform
-Wl,--defsym=_ZThn16_N5telux8platform15TimeManagerImplD1Ev=so_stub_for_libtelux_platform
-Wl,--defsym=_ZThn8_N5telux8platform15TimeManagerImpl18onCapabilitiesInfoEj=so_stub_for_libtelux_platform
-Wl,--defsym=_ZThn8_N5telux8platform15TimeManagerImpl21onBasicLocationUpdateERKSt10shared_ptrINS_3loc17ILocationInfoBaseEE=so_stub_for_libtelux_platform
-Wl,--defsym=_ZThn8_N5telux8platform15TimeManagerImplD0Ev=so_stub_for_libtelux_platform
-Wl,--defsym=_ZThn8_N5telux8platform15TimeManagerImplD1Ev=so_stub_for_libtelux_platform
-Wl,--defsym=_ZThn8_N5telux8platform20SubsystemManagerImpl24onDmsServiceStatusChangeENS_6common13ServiceStatusEi=so_stub_for_libtelux_platform
-Wl,--defsym=_ZThn8_N5telux8platform20SubsystemManagerImplD0Ev=so_stub_for_libtelux_platform
-Wl,--defsym=_ZThn8_N5telux8platform20SubsystemManagerImplD1Ev=so_stub_for_libtelux_platform
-Wl,--defsym=_ZThn8_N5telux8platform21DeviceInfoManagerImpl24onDmsServiceStatusChangeENS_6common13ServiceStatusEi=so_stub_for_libtelux_platform
-Wl,--defsym=_ZThn8_N5telux8platform21DeviceInfoManagerImplD0Ev=so_stub_for_libtelux_platform
-Wl,--defsym=_ZThn8_N5telux8platform21DeviceInfoManagerImplD1Ev=so_stub_for_libtelux_platform
-Wl,--defsym=_ZThn8_N5telux8platform8hardware18AntennaManagerImpl21onActiveAntennaChangeEP31antswitch_config_change_ind_v01=so_stub_for_libtelux_platform
-Wl,--defsym=_ZThn8_N5telux8platform8hardware18AntennaManagerImpl24onAsiServiceStatusChangeENS_6common13ServiceStatusE=so_stub_for_libtelux_platform
-Wl,--defsym=_ZThn8_N5telux8platform8hardware18AntennaManagerImplD0Ev=so_stub_for_libtelux_platform
-Wl,--defsym=_ZThn8_N5telux8platform8hardware18AntennaManagerImplD1Ev=so_stub_for_libtelux_platform
-Wl,--defsym=_ZTIN5telux3loc17ILocationListenerE=so_stub_for_libtelux_platform
-Wl,--defsym=_ZTIN5telux3qmi12IQmiListenerE=so_stub_for_libtelux_platform
-Wl,--defsym=_ZTIN5telux3qmi15IQmiAsiListenerE=so_stub_for_libtelux_platform
-Wl,--defsym=_ZTIN5telux3qmi15IQmiDmsListenerE=so_stub_for_libtelux_platform
-Wl,--defsym=_ZTIN5telux3qmi16ICv2xQmiListenerE=so_stub_for_libtelux_platform
-Wl,--defsym=_ZTIN5telux6common12ISDKListenerE=so_stub_for_libtelux_platform
-Wl,--defsym=_ZTIN5telux6common13FactoryHelperE=so_stub_for_libtelux_platform
-Wl,--defsym=_ZTIN5telux6common16ICommandCallbackE=so_stub_for_libtelux_platform
-Wl,--defsym=_ZTIN5telux6common18FunctionalCallbackIJiNS0_9ErrorCodeEEEE=so_stub_for_libtelux_platform
-Wl,--defsym=_ZTIN5telux6common18FunctionalCallbackIJNS0_9ErrorCodeEEEE=so_stub_for_libtelux_platform
-Wl,--defsym=_ZTIN5telux6common22IServiceStatusListenerE=so_stub_for_libtelux_platform
-Wl,--defsym=_ZTIN5telux8platform10IFsManagerE=so_stub_for_libtelux_platform
-Wl,--defsym=_ZTIN5telux8platform11IFsListenerE=so_stub_for_libtelux_platform
-Wl,--defsym=_ZTIN5telux8platform12ITimeManagerE=so_stub_for_libtelux_platform
-Wl,--defsym=_ZTIN5telux8platform13FsManagerImplE=so_stub_for_libtelux_platform
-Wl,--defsym=_ZTIN5telux8platform13ITimeListenerE=so_stub_for_libtelux_platform
-Wl,--defsym=_ZTIN5telux8platform15PlatformFactoryE=so_stub_for_libtelux_platform
-Wl,--defsym=_ZTIN5telux8platform15TimeManagerImplE=so_stub_for_libtelux_platform
-Wl,--defsym=_ZTIN5telux8platform16SubsystemFactoryE=so_stub_for_libtelux_platform
-Wl,--defsym=_ZTIN5telux8platform17ISubsystemManagerE=so_stub_for_libtelux_platform
-Wl,--defsym=_ZTIN5telux8platform18IDeviceInfoManagerE=so_stub_for_libtelux_platform
-Wl,--defsym=_ZTIN5telux8platform18ISubsystemListenerE=so_stub_for_libtelux_platform
-Wl,--defsym=_ZTIN5telux8platform19IDeviceInfoListenerE=so_stub_for_libtelux_platform
-Wl,--defsym=_ZTIN5telux8platform19PlatformFactoryImplE=so_stub_for_libtelux_platform
-Wl,--defsym=_ZTIN5telux8platform20SubsystemFactoryImplE=so_stub_for_libtelux_platform
-Wl,--defsym=_ZTIN5telux8platform20SubsystemManagerImplE=so_stub_for_libtelux_platform
-Wl,--defsym=_ZTIN5telux8platform21DeviceInfoManagerImplE=so_stub_for_libtelux_platform
-Wl,--defsym=_ZTIN5telux8platform24DeviceInfoManagerWrapperE=so_stub_for_libtelux_platform
-Wl,--defsym=_ZTIN5telux8platform8hardware15IAntennaManagerE=so_stub_for_libtelux_platform
-Wl,--defsym=_ZTIN5telux8platform8hardware16IAntennaListenerE=so_stub_for_libtelux_platform
-Wl,--defsym=_ZTIN5telux8platform8hardware18AntennaManagerImplE=so_stub_for_libtelux_platform
-Wl,--defsym=_ZTINSt13__future_base13_State_baseV27_SetterIN5telux6common9ErrorCodeERKS4_EE=so_stub_for_libtelux_platform
-Wl,--defsym=_ZTINSt13__future_base13_State_baseV2E=so_stub_for_libtelux_platform
-Wl,--defsym=_ZTINSt13__future_base21_Async_state_commonV2E=so_stub_for_libtelux_platform
-Wl,--defsym=_ZTINSt13__future_base7_ResultIN5telux6common6StatusEEE=so_stub_for_libtelux_platform
-Wl,--defsym=_ZTINSt13__future_base7_ResultIN5telux6common9ErrorCodeEEE=so_stub_for_libtelux_platform
-Wl,--defsym=_ZTINSt13__future_base7_ResultIvEE=so_stub_for_libtelux_platform
-Wl,--defsym=_ZTINSt6thread11_State_implINS_8_InvokerISt5tupleIJMN5telux6common14AsyncTaskQueueIvEEFvvEPS6_EEEEEE=so_stub_for_libtelux_platform
-Wl,--defsym=_ZTINSt6thread11_State_implINS_8_InvokerISt5tupleIJZN5telux6common13FactoryHelper10getManagerINS3_8platform10IFsManagerEEESt10shared_ptrIT_ENSt7__cxx1112basic_stringIcSt11char_traitsIcESaIcEEERSt8weak_ptrISA_ERSt6vectorISt8functionIFvNS4_13ServiceStatusEEESaISP_EESP_SM_IFSB_SP_EEEUlvE_EEEEEE=so_stub_for_libtelux_platform
-Wl,--defsym=_ZTINSt6thread11_State_implINS_8_InvokerISt5tupleIJZN5telux6common13FactoryHelper10getManagerINS3_8platform12ITimeManagerEEESt10shared_ptrIT_ENSt7__cxx1112basic_stringIcSt11char_traitsIcESaIcEEERSt8weak_ptrISA_ERSt6vectorISt8functionIFvNS4_13ServiceStatusEEESaISP_EESP_SM_IFSB_SP_EEEUlvE_EEEEEE=so_stub_for_libtelux_platform
-Wl,--defsym=_ZTINSt6thread11_State_implINS_8_InvokerISt5tupleIJZN5telux6common13FactoryHelper10getManagerINS3_8platform17ISubsystemManagerEEESt10shared_ptrIT_ENSt7__cxx1112basic_stringIcSt11char_traitsIcESaIcEEERSt8weak_ptrISA_ERSt6vectorISt8functionIFvNS4_13ServiceStatusEEESaISP_EESP_SM_IFSB_SP_EEEUlvE_EEEEEE=so_stub_for_libtelux_platform
-Wl,--defsym=_ZTINSt6thread11_State_implINS_8_InvokerISt5tupleIJZN5telux6common13FactoryHelper10getManagerINS3_8platform18IDeviceInfoManagerEEESt10shared_ptrIT_ENSt7__cxx1112basic_stringIcSt11char_traitsIcESaIcEEERSt8weak_ptrISA_ERSt6vectorISt8functionIFvNS4_13ServiceStatusEEESaISP_EESP_SM_IFSB_SP_EEEUlvE_EEEEEE=so_stub_for_libtelux_platform
-Wl,--defsym=_ZTINSt6thread11_State_implINS_8_InvokerISt5tupleIJZN5telux6common13FactoryHelper10getManagerINS3_8platform8hardware15IAntennaManagerEEESt10shared_ptrIT_ENSt7__cxx1112basic_stringIcSt11char_traitsIcESaIcEEERSt8weak_ptrISB_ERSt6vectorISt8functionIFvNS4_13ServiceStatusEEESaISQ_EESQ_SN_IFSC_SQ_EEEUlvE_EEEEEE=so_stub_for_libtelux_platform
-Wl,--defsym=_ZTISt11_Mutex_baseILN9__gnu_cxx12_Lock_policyE2EE=so_stub_for_libtelux_platform
-Wl,--defsym=_ZTISt16_Sp_counted_baseILN9__gnu_cxx12_Lock_policyE2EE=so_stub_for_libtelux_platform
-Wl,--defsym=_ZTISt23enable_shared_from_thisIN5telux8platform13FsManagerImplEE=so_stub_for_libtelux_platform
-Wl,--defsym=_ZTISt23enable_shared_from_thisIN5telux8platform15TimeManagerImplEE=so_stub_for_libtelux_platform
-Wl,--defsym=_ZTISt23enable_shared_from_thisIN5telux8platform20SubsystemManagerImplEE=so_stub_for_libtelux_platform
-Wl,--defsym=_ZTISt23enable_shared_from_thisIN5telux8platform21DeviceInfoManagerImplEE=so_stub_for_libtelux_platform
-Wl,--defsym=_ZTISt23enable_shared_from_thisIN5telux8platform8hardware18AntennaManagerImplEE=so_stub_for_libtelux_platform
-Wl,--defsym=_ZTISt23_Sp_counted_ptr_inplaceIN5telux6common14AsyncTaskQueueIvEESaIS3_ELN9__gnu_cxx12_Lock_policyE2EE=so_stub_for_libtelux_platform
-Wl,--defsym=_ZTISt23_Sp_counted_ptr_inplaceIN5telux6common15ListenerManagerESaIS2_ELN9__gnu_cxx12_Lock_policyE2EE=so_stub_for_libtelux_platform
-Wl,--defsym=_ZTISt23_Sp_counted_ptr_inplaceIN5telux6common18FunctionalCallbackIJiNS1_9ErrorCodeEEEESaIS4_ELN9__gnu_cxx12_Lock_policyE2EE=so_stub_for_libtelux_platform
-Wl,--defsym=_ZTISt23_Sp_counted_ptr_inplaceIN5telux6common18FunctionalCallbackIJNS1_9ErrorCodeEEEESaIS4_ELN9__gnu_cxx12_Lock_policyE2EE=so_stub_for_libtelux_platform
-Wl,--defsym=_ZTISt23_Sp_counted_ptr_inplaceIN5telux8platform13FsManagerImplESaIS2_ELN9__gnu_cxx12_Lock_policyE2EE=so_stub_for_libtelux_platform
-Wl,--defsym=_ZTISt23_Sp_counted_ptr_inplaceIN5telux8platform15TimeManagerImplESaIS2_ELN9__gnu_cxx12_Lock_policyE2EE=so_stub_for_libtelux_platform
-Wl,--defsym=_ZTISt23_Sp_counted_ptr_inplaceIN5telux8platform20SubsystemManagerImplESaIS2_ELN9__gnu_cxx12_Lock_policyE2EE=so_stub_for_libtelux_platform
-Wl,--defsym=_ZTISt23_Sp_counted_ptr_inplaceIN5telux8platform21DeviceInfoManagerImplESaIS2_ELN9__gnu_cxx12_Lock_policyE2EE=so_stub_for_libtelux_platform
-Wl,--defsym=_ZTISt23_Sp_counted_ptr_inplaceIN5telux8platform8hardware18AntennaManagerImplESaIS3_ELN9__gnu_cxx12_Lock_policyE2EE=so_stub_for_libtelux_platform
-Wl,--defsym=_ZTISt23_Sp_counted_ptr_inplaceINSt13__future_base13_State_baseV2ESaIS1_ELN9__gnu_cxx12_Lock_policyE2EE=so_stub_for_libtelux_platform
-Wl,--defsym=_ZTISt23_Sp_counted_ptr_inplaceISt6threadSaIS0_ELN9__gnu_cxx12_Lock_policyE2EE=so_stub_for_libtelux_platform
-Wl,--defsym=_ZTIZN5telux6common13FactoryHelper10getManagerINS_8platform10IFsManagerEEESt10shared_ptrIT_ENSt7__cxx1112basic_stringIcSt11char_traitsIcESaIcEEERSt8weak_ptrIS6_ERSt6vectorISt8functionIFvNS0_13ServiceStatusEEESaISL_EESL_SI_IFS7_SL_EEEUlSJ_E0_=so_stub_for_libtelux_platform
-Wl,--defsym=_ZTIZN5telux6common13FactoryHelper10getManagerINS_8platform12ITimeManagerEEESt10shared_ptrIT_ENSt7__cxx1112basic_stringIcSt11char_traitsIcESaIcEEERSt8weak_ptrIS6_ERSt6vectorISt8functionIFvNS0_13ServiceStatusEEESaISL_EESL_SI_IFS7_SL_EEEUlSJ_E0_=so_stub_for_libtelux_platform
-Wl,--defsym=_ZTIZN5telux6common13FactoryHelper10getManagerINS_8platform17ISubsystemManagerEEESt10shared_ptrIT_ENSt7__cxx1112basic_stringIcSt11char_traitsIcESaIcEEERSt8weak_ptrIS6_ERSt6vectorISt8functionIFvNS0_13ServiceStatusEEESaISL_EESL_SI_IFS7_SL_EEEUlSJ_E0_=so_stub_for_libtelux_platform
-Wl,--defsym=_ZTIZN5telux6common13FactoryHelper10getManagerINS_8platform18IDeviceInfoManagerEEESt10shared_ptrIT_ENSt7__cxx1112basic_stringIcSt11char_traitsIcESaIcEEERSt8weak_ptrIS6_ERSt6vectorISt8functionIFvNS0_13ServiceStatusEEESaISL_EESL_SI_IFS7_SL_EEEUlSJ_E0_=so_stub_for_libtelux_platform
-Wl,--defsym=_ZTIZN5telux6common13FactoryHelper10getManagerINS_8platform8hardware15IAntennaManagerEEESt10shared_ptrIT_ENSt7__cxx1112basic_stringIcSt11char_traitsIcESaIcEEERSt8weak_ptrIS7_ERSt6vectorISt8functionIFvNS0_13ServiceStatusEEESaISM_EESM_SJ_IFS8_SM_EEEUlSK_E0_=so_stub_for_libtelux_platform
-Wl,--defsym=_ZTSN5telux3loc17ILocationListenerE=so_stub_for_libtelux_platform
-Wl,--defsym=_ZTSN5telux3qmi12IQmiListenerE=so_stub_for_libtelux_platform
-Wl,--defsym=_ZTSN5telux3qmi15IQmiAsiListenerE=so_stub_for_libtelux_platform
-Wl,--defsym=_ZTSN5telux3qmi15IQmiDmsListenerE=so_stub_for_libtelux_platform
-Wl,--defsym=_ZTSN5telux3qmi16ICv2xQmiListenerE=so_stub_for_libtelux_platform
-Wl,--defsym=_ZTSN5telux6common12ISDKListenerE=so_stub_for_libtelux_platform
-Wl,--defsym=_ZTSN5telux6common13FactoryHelperE=so_stub_for_libtelux_platform
-Wl,--defsym=_ZTSN5telux6common16ICommandCallbackE=so_stub_for_libtelux_platform
-Wl,--defsym=_ZTSN5telux6common18FunctionalCallbackIJiNS0_9ErrorCodeEEEE=so_stub_for_libtelux_platform
-Wl,--defsym=_ZTSN5telux6common18FunctionalCallbackIJNS0_9ErrorCodeEEEE=so_stub_for_libtelux_platform
-Wl,--defsym=_ZTSN5telux6common22IServiceStatusListenerE=so_stub_for_libtelux_platform
-Wl,--defsym=_ZTSN5telux8platform10IFsManagerE=so_stub_for_libtelux_platform
-Wl,--defsym=_ZTSN5telux8platform11IFsListenerE=so_stub_for_libtelux_platform
-Wl,--defsym=_ZTSN5telux8platform12ITimeManagerE=so_stub_for_libtelux_platform
-Wl,--defsym=_ZTSN5telux8platform13FsManagerImplE=so_stub_for_libtelux_platform
-Wl,--defsym=_ZTSN5telux8platform13ITimeListenerE=so_stub_for_libtelux_platform
-Wl,--defsym=_ZTSN5telux8platform15PlatformFactoryE=so_stub_for_libtelux_platform
-Wl,--defsym=_ZTSN5telux8platform15TimeManagerImplE=so_stub_for_libtelux_platform
-Wl,--defsym=_ZTSN5telux8platform16SubsystemFactoryE=so_stub_for_libtelux_platform
-Wl,--defsym=_ZTSN5telux8platform17ISubsystemManagerE=so_stub_for_libtelux_platform
-Wl,--defsym=_ZTSN5telux8platform18IDeviceInfoManagerE=so_stub_for_libtelux_platform
-Wl,--defsym=_ZTSN5telux8platform18ISubsystemListenerE=so_stub_for_libtelux_platform
-Wl,--defsym=_ZTSN5telux8platform19IDeviceInfoListenerE=so_stub_for_libtelux_platform
-Wl,--defsym=_ZTSN5telux8platform19PlatformFactoryImplE=so_stub_for_libtelux_platform
-Wl,--defsym=_ZTSN5telux8platform20SubsystemFactoryImplE=so_stub_for_libtelux_platform
-Wl,--defsym=_ZTSN5telux8platform20SubsystemManagerImplE=so_stub_for_libtelux_platform
-Wl,--defsym=_ZTSN5telux8platform21DeviceInfoManagerImplE=so_stub_for_libtelux_platform
-Wl,--defsym=_ZTSN5telux8platform24DeviceInfoManagerWrapperE=so_stub_for_libtelux_platform
-Wl,--defsym=_ZTSN5telux8platform8hardware15IAntennaManagerE=so_stub_for_libtelux_platform
-Wl,--defsym=_ZTSN5telux8platform8hardware16IAntennaListenerE=so_stub_for_libtelux_platform
-Wl,--defsym=_ZTSN5telux8platform8hardware18AntennaManagerImplE=so_stub_for_libtelux_platform
-Wl,--defsym=_ZTSNSt13__future_base13_State_baseV27_SetterIN5telux6common9ErrorCodeERKS4_EE=so_stub_for_libtelux_platform
-Wl,--defsym=_ZTSNSt13__future_base13_State_baseV2E=so_stub_for_libtelux_platform
-Wl,--defsym=_ZTSNSt13__future_base21_Async_state_commonV2E=so_stub_for_libtelux_platform
-Wl,--defsym=_ZTSNSt13__future_base7_ResultIN5telux6common6StatusEEE=so_stub_for_libtelux_platform
-Wl,--defsym=_ZTSNSt13__future_base7_ResultIN5telux6common9ErrorCodeEEE=so_stub_for_libtelux_platform
-Wl,--defsym=_ZTSNSt13__future_base7_ResultIvEE=so_stub_for_libtelux_platform
-Wl,--defsym=_ZTSNSt6thread11_State_implINS_8_InvokerISt5tupleIJMN5telux6common14AsyncTaskQueueIvEEFvvEPS6_EEEEEE=so_stub_for_libtelux_platform
-Wl,--defsym=_ZTSNSt6thread11_State_implINS_8_InvokerISt5tupleIJZN5telux6common13FactoryHelper10getManagerINS3_8platform10IFsManagerEEESt10shared_ptrIT_ENSt7__cxx1112basic_stringIcSt11char_traitsIcESaIcEEERSt8weak_ptrISA_ERSt6vectorISt8functionIFvNS4_13ServiceStatusEEESaISP_EESP_SM_IFSB_SP_EEEUlvE_EEEEEE=so_stub_for_libtelux_platform
-Wl,--defsym=_ZTSNSt6thread11_State_implINS_8_InvokerISt5tupleIJZN5telux6common13FactoryHelper10getManagerINS3_8platform12ITimeManagerEEESt10shared_ptrIT_ENSt7__cxx1112basic_stringIcSt11char_traitsIcESaIcEEERSt8weak_ptrISA_ERSt6vectorISt8functionIFvNS4_13ServiceStatusEEESaISP_EESP_SM_IFSB_SP_EEEUlvE_EEEEEE=so_stub_for_libtelux_platform
-Wl,--defsym=_ZTSNSt6thread11_State_implINS_8_InvokerISt5tupleIJZN5telux6common13FactoryHelper10getManagerINS3_8platform17ISubsystemManagerEEESt10shared_ptrIT_ENSt7__cxx1112basic_stringIcSt11char_traitsIcESaIcEEERSt8weak_ptrISA_ERSt6vectorISt8functionIFvNS4_13ServiceStatusEEESaISP_EESP_SM_IFSB_SP_EEEUlvE_EEEEEE=so_stub_for_libtelux_platform
-Wl,--defsym=_ZTSNSt6thread11_State_implINS_8_InvokerISt5tupleIJZN5telux6common13FactoryHelper10getManagerINS3_8platform18IDeviceInfoManagerEEESt10shared_ptrIT_ENSt7__cxx1112basic_stringIcSt11char_traitsIcESaIcEEERSt8weak_ptrISA_ERSt6vectorISt8functionIFvNS4_13ServiceStatusEEESaISP_EESP_SM_IFSB_SP_EEEUlvE_EEEEEE=so_stub_for_libtelux_platform
-Wl,--defsym=_ZTSNSt6thread11_State_implINS_8_InvokerISt5tupleIJZN5telux6common13FactoryHelper10getManagerINS3_8platform8hardware15IAntennaManagerEEESt10shared_ptrIT_ENSt7__cxx1112basic_stringIcSt11char_traitsIcESaIcEEERSt8weak_ptrISB_ERSt6vectorISt8functionIFvNS4_13ServiceStatusEEESaISQ_EESQ_SN_IFSC_SQ_EEEUlvE_EEEEEE=so_stub_for_libtelux_platform
-Wl,--defsym=_ZTSSt11_Mutex_baseILN9__gnu_cxx12_Lock_policyE2EE=so_stub_for_libtelux_platform
-Wl,--defsym=_ZTSSt16_Sp_counted_baseILN9__gnu_cxx12_Lock_policyE2EE=so_stub_for_libtelux_platform
-Wl,--defsym=_ZTSSt19_Sp_make_shared_tag=so_stub_for_libtelux_platform
-Wl,--defsym=_ZTSSt23enable_shared_from_thisIN5telux8platform13FsManagerImplEE=so_stub_for_libtelux_platform
-Wl,--defsym=_ZTSSt23enable_shared_from_thisIN5telux8platform15TimeManagerImplEE=so_stub_for_libtelux_platform
-Wl,--defsym=_ZTSSt23enable_shared_from_thisIN5telux8platform20SubsystemManagerImplEE=so_stub_for_libtelux_platform
-Wl,--defsym=_ZTSSt23enable_shared_from_thisIN5telux8platform21DeviceInfoManagerImplEE=so_stub_for_libtelux_platform
-Wl,--defsym=_ZTSSt23enable_shared_from_thisIN5telux8platform8hardware18AntennaManagerImplEE=so_stub_for_libtelux_platform
-Wl,--defsym=_ZTSSt23_Sp_counted_ptr_inplaceIN5telux6common14AsyncTaskQueueIvEESaIS3_ELN9__gnu_cxx12_Lock_policyE2EE=so_stub_for_libtelux_platform
-Wl,--defsym=_ZTSSt23_Sp_counted_ptr_inplaceIN5telux6common15ListenerManagerESaIS2_ELN9__gnu_cxx12_Lock_policyE2EE=so_stub_for_libtelux_platform
-Wl,--defsym=_ZTSSt23_Sp_counted_ptr_inplaceIN5telux6common18FunctionalCallbackIJiNS1_9ErrorCodeEEEESaIS4_ELN9__gnu_cxx12_Lock_policyE2EE=so_stub_for_libtelux_platform
-Wl,--defsym=_ZTSSt23_Sp_counted_ptr_inplaceIN5telux6common18FunctionalCallbackIJNS1_9ErrorCodeEEEESaIS4_ELN9__gnu_cxx12_Lock_policyE2EE=so_stub_for_libtelux_platform
-Wl,--defsym=_ZTSSt23_Sp_counted_ptr_inplaceIN5telux8platform13FsManagerImplESaIS2_ELN9__gnu_cxx12_Lock_policyE2EE=so_stub_for_libtelux_platform
-Wl,--defsym=_ZTSSt23_Sp_counted_ptr_inplaceIN5telux8platform15TimeManagerImplESaIS2_ELN9__gnu_cxx12_Lock_policyE2EE=so_stub_for_libtelux_platform
-Wl,--defsym=_ZTSSt23_Sp_counted_ptr_inplaceIN5telux8platform20SubsystemManagerImplESaIS2_ELN9__gnu_cxx12_Lock_policyE2EE=so_stub_for_libtelux_platform
-Wl,--defsym=_ZTSSt23_Sp_counted_ptr_inplaceIN5telux8platform21DeviceInfoManagerImplESaIS2_ELN9__gnu_cxx12_Lock_policyE2EE=so_stub_for_libtelux_platform
-Wl,--defsym=_ZTSSt23_Sp_counted_ptr_inplaceIN5telux8platform8hardware18AntennaManagerImplESaIS3_ELN9__gnu_cxx12_Lock_policyE2EE=so_stub_for_libtelux_platform
-Wl,--defsym=_ZTSSt23_Sp_counted_ptr_inplaceINSt13__future_base13_State_baseV2ESaIS1_ELN9__gnu_cxx12_Lock_policyE2EE=so_stub_for_libtelux_platform
-Wl,--defsym=_ZTSSt23_Sp_counted_ptr_inplaceISt6threadSaIS0_ELN9__gnu_cxx12_Lock_policyE2EE=so_stub_for_libtelux_platform
-Wl,--defsym=_ZTSZN5telux6common13FactoryHelper10getManagerINS_8platform10IFsManagerEEESt10shared_ptrIT_ENSt7__cxx1112basic_stringIcSt11char_traitsIcESaIcEEERSt8weak_ptrIS6_ERSt6vectorISt8functionIFvNS0_13ServiceStatusEEESaISL_EESL_SI_IFS7_SL_EEEUlSJ_E0_=so_stub_for_libtelux_platform
-Wl,--defsym=_ZTSZN5telux6common13FactoryHelper10getManagerINS_8platform12ITimeManagerEEESt10shared_ptrIT_ENSt7__cxx1112basic_stringIcSt11char_traitsIcESaIcEEERSt8weak_ptrIS6_ERSt6vectorISt8functionIFvNS0_13ServiceStatusEEESaISL_EESL_SI_IFS7_SL_EEEUlSJ_E0_=so_stub_for_libtelux_platform
-Wl,--defsym=_ZTSZN5telux6common13FactoryHelper10getManagerINS_8platform17ISubsystemManagerEEESt10shared_ptrIT_ENSt7__cxx1112basic_stringIcSt11char_traitsIcESaIcEEERSt8weak_ptrIS6_ERSt6vectorISt8functionIFvNS0_13ServiceStatusEEESaISL_EESL_SI_IFS7_SL_EEEUlSJ_E0_=so_stub_for_libtelux_platform
-Wl,--defsym=_ZTSZN5telux6common13FactoryHelper10getManagerINS_8platform18IDeviceInfoManagerEEESt10shared_ptrIT_ENSt7__cxx1112basic_stringIcSt11char_traitsIcESaIcEEERSt8weak_ptrIS6_ERSt6vectorISt8functionIFvNS0_13ServiceStatusEEESaISL_EESL_SI_IFS7_SL_EEEUlSJ_E0_=so_stub_for_libtelux_platform
-Wl,--defsym=_ZTSZN5telux6common13FactoryHelper10getManagerINS_8platform8hardware15IAntennaManagerEEESt10shared_ptrIT_ENSt7__cxx1112basic_stringIcSt11char_traitsIcESaIcEEERSt8weak_ptrIS7_ERSt6vectorISt8functionIFvNS0_13ServiceStatusEEESaISM_EESM_SJ_IFS8_SM_EEEUlSK_E0_=so_stub_for_libtelux_platform
-Wl,--defsym=_ZTTN5telux8platform15TimeManagerImplE=so_stub_for_libtelux_platform
-Wl,--defsym=_ZTTN5telux8platform20SubsystemManagerImplE=so_stub_for_libtelux_platform
-Wl,--defsym=_ZTTN5telux8platform21DeviceInfoManagerImplE=so_stub_for_libtelux_platform
-Wl,--defsym=_ZTTN5telux8platform8hardware18AntennaManagerImplE=so_stub_for_libtelux_platform
-Wl,--defsym=_ZTv0_n24_N5telux8platform15TimeManagerImplD0Ev=so_stub_for_libtelux_platform
-Wl,--defsym=_ZTv0_n24_N5telux8platform15TimeManagerImplD1Ev=so_stub_for_libtelux_platform
-Wl,--defsym=_ZTv0_n24_N5telux8platform20SubsystemManagerImplD0Ev=so_stub_for_libtelux_platform
-Wl,--defsym=_ZTv0_n24_N5telux8platform20SubsystemManagerImplD1Ev=so_stub_for_libtelux_platform
-Wl,--defsym=_ZTv0_n24_N5telux8platform21DeviceInfoManagerImplD0Ev=so_stub_for_libtelux_platform
-Wl,--defsym=_ZTv0_n24_N5telux8platform21DeviceInfoManagerImplD1Ev=so_stub_for_libtelux_platform
-Wl,--defsym=_ZTv0_n24_N5telux8platform8hardware18AntennaManagerImplD0Ev=so_stub_for_libtelux_platform
-Wl,--defsym=_ZTv0_n24_N5telux8platform8hardware18AntennaManagerImplD1Ev=so_stub_for_libtelux_platform
-Wl,--defsym=_ZTVN5telux3loc17ILocationListenerE=so_stub_for_libtelux_platform
-Wl,--defsym=_ZTVN5telux6common18FunctionalCallbackIJiNS0_9ErrorCodeEEEE=so_stub_for_libtelux_platform
-Wl,--defsym=_ZTVN5telux6common18FunctionalCallbackIJNS0_9ErrorCodeEEEE=so_stub_for_libtelux_platform
-Wl,--defsym=_ZTVN5telux8platform12ITimeManagerE=so_stub_for_libtelux_platform
-Wl,--defsym=_ZTVN5telux8platform13FsManagerImplE=so_stub_for_libtelux_platform
-Wl,--defsym=_ZTVN5telux8platform15PlatformFactoryE=so_stub_for_libtelux_platform
-Wl,--defsym=_ZTVN5telux8platform15TimeManagerImplE=so_stub_for_libtelux_platform
-Wl,--defsym=_ZTVN5telux8platform16SubsystemFactoryE=so_stub_for_libtelux_platform
-Wl,--defsym=_ZTVN5telux8platform17ISubsystemManagerE=so_stub_for_libtelux_platform
-Wl,--defsym=_ZTVN5telux8platform18IDeviceInfoManagerE=so_stub_for_libtelux_platform
-Wl,--defsym=_ZTVN5telux8platform19PlatformFactoryImplE=so_stub_for_libtelux_platform
-Wl,--defsym=_ZTVN5telux8platform20SubsystemFactoryImplE=so_stub_for_libtelux_platform
-Wl,--defsym=_ZTVN5telux8platform20SubsystemManagerImplE=so_stub_for_libtelux_platform
-Wl,--defsym=_ZTVN5telux8platform21DeviceInfoManagerImplE=so_stub_for_libtelux_platform
-Wl,--defsym=_ZTVN5telux8platform24DeviceInfoManagerWrapperE=so_stub_for_libtelux_platform
-Wl,--defsym=_ZTVN5telux8platform8hardware15IAntennaManagerE=so_stub_for_libtelux_platform
-Wl,--defsym=_ZTVN5telux8platform8hardware18AntennaManagerImplE=so_stub_for_libtelux_platform
-Wl,--defsym=_ZTVNSt13__future_base13_State_baseV2E=so_stub_for_libtelux_platform
-Wl,--defsym=_ZTVNSt13__future_base21_Async_state_commonV2E=so_stub_for_libtelux_platform
-Wl,--defsym=_ZTVNSt13__future_base7_ResultIN5telux6common6StatusEEE=so_stub_for_libtelux_platform
-Wl,--defsym=_ZTVNSt13__future_base7_ResultIN5telux6common9ErrorCodeEEE=so_stub_for_libtelux_platform
-Wl,--defsym=_ZTVNSt13__future_base7_ResultIvEE=so_stub_for_libtelux_platform
-Wl,--defsym=_ZTVNSt6thread11_State_implINS_8_InvokerISt5tupleIJMN5telux6common14AsyncTaskQueueIvEEFvvEPS6_EEEEEE=so_stub_for_libtelux_platform
-Wl,--defsym=_ZTVNSt6thread11_State_implINS_8_InvokerISt5tupleIJZN5telux6common13FactoryHelper10getManagerINS3_8platform10IFsManagerEEESt10shared_ptrIT_ENSt7__cxx1112basic_stringIcSt11char_traitsIcESaIcEEERSt8weak_ptrISA_ERSt6vectorISt8functionIFvNS4_13ServiceStatusEEESaISP_EESP_SM_IFSB_SP_EEEUlvE_EEEEEE=so_stub_for_libtelux_platform
-Wl,--defsym=_ZTVNSt6thread11_State_implINS_8_InvokerISt5tupleIJZN5telux6common13FactoryHelper10getManagerINS3_8platform12ITimeManagerEEESt10shared_ptrIT_ENSt7__cxx1112basic_stringIcSt11char_traitsIcESaIcEEERSt8weak_ptrISA_ERSt6vectorISt8functionIFvNS4_13ServiceStatusEEESaISP_EESP_SM_IFSB_SP_EEEUlvE_EEEEEE=so_stub_for_libtelux_platform
-Wl,--defsym=_ZTVNSt6thread11_State_implINS_8_InvokerISt5tupleIJZN5telux6common13FactoryHelper10getManagerINS3_8platform17ISubsystemManagerEEESt10shared_ptrIT_ENSt7__cxx1112basic_stringIcSt11char_traitsIcESaIcEEERSt8weak_ptrISA_ERSt6vectorISt8functionIFvNS4_13ServiceStatusEEESaISP_EESP_SM_IFSB_SP_EEEUlvE_EEEEEE=so_stub_for_libtelux_platform
-Wl,--defsym=_ZTVNSt6thread11_State_implINS_8_InvokerISt5tupleIJZN5telux6common13FactoryHelper10getManagerINS3_8platform18IDeviceInfoManagerEEESt10shared_ptrIT_ENSt7__cxx1112basic_stringIcSt11char_traitsIcESaIcEEERSt8weak_ptrISA_ERSt6vectorISt8functionIFvNS4_13ServiceStatusEEESaISP_EESP_SM_IFSB_SP_EEEUlvE_EEEEEE=so_stub_for_libtelux_platform
-Wl,--defsym=_ZTVNSt6thread11_State_implINS_8_InvokerISt5tupleIJZN5telux6common13FactoryHelper10getManagerINS3_8platform8hardware15IAntennaManagerEEESt10shared_ptrIT_ENSt7__cxx1112basic_stringIcSt11char_traitsIcESaIcEEERSt8weak_ptrISB_ERSt6vectorISt8functionIFvNS4_13ServiceStatusEEESaISQ_EESQ_SN_IFSC_SQ_EEEUlvE_EEEEEE=so_stub_for_libtelux_platform
-Wl,--defsym=_ZTVSt23_Sp_counted_ptr_inplaceIN5telux6common14AsyncTaskQueueIvEESaIS3_ELN9__gnu_cxx12_Lock_policyE2EE=so_stub_for_libtelux_platform
-Wl,--defsym=_ZTVSt23_Sp_counted_ptr_inplaceIN5telux6common15ListenerManagerESaIS2_ELN9__gnu_cxx12_Lock_policyE2EE=so_stub_for_libtelux_platform
-Wl,--defsym=_ZTVSt23_Sp_counted_ptr_inplaceIN5telux6common18FunctionalCallbackIJiNS1_9ErrorCodeEEEESaIS4_ELN9__gnu_cxx12_Lock_policyE2EE=so_stub_for_libtelux_platform
-Wl,--defsym=_ZTVSt23_Sp_counted_ptr_inplaceIN5telux6common18FunctionalCallbackIJNS1_9ErrorCodeEEEESaIS4_ELN9__gnu_cxx12_Lock_policyE2EE=so_stub_for_libtelux_platform
-Wl,--defsym=_ZTVSt23_Sp_counted_ptr_inplaceIN5telux8platform13FsManagerImplESaIS2_ELN9__gnu_cxx12_Lock_policyE2EE=so_stub_for_libtelux_platform
-Wl,--defsym=_ZTVSt23_Sp_counted_ptr_inplaceIN5telux8platform15TimeManagerImplESaIS2_ELN9__gnu_cxx12_Lock_policyE2EE=so_stub_for_libtelux_platform
-Wl,--defsym=_ZTVSt23_Sp_counted_ptr_inplaceIN5telux8platform20SubsystemManagerImplESaIS2_ELN9__gnu_cxx12_Lock_policyE2EE=so_stub_for_libtelux_platform
-Wl,--defsym=_ZTVSt23_Sp_counted_ptr_inplaceIN5telux8platform21DeviceInfoManagerImplESaIS2_ELN9__gnu_cxx12_Lock_policyE2EE=so_stub_for_libtelux_platform
-Wl,--defsym=_ZTVSt23_Sp_counted_ptr_inplaceIN5telux8platform8hardware18AntennaManagerImplESaIS3_ELN9__gnu_cxx12_Lock_policyE2EE=so_stub_for_libtelux_platform
-Wl,--defsym=_ZTVSt23_Sp_counted_ptr_inplaceINSt13__future_base13_State_baseV2ESaIS1_ELN9__gnu_cxx12_Lock_policyE2EE=so_stub_for_libtelux_platform
-Wl,--defsym=_ZTVSt23_Sp_counted_ptr_inplaceISt6threadSaIS0_ELN9__gnu_cxx12_Lock_policyE2EE=so_stub_for_libtelux_platform
-Wl,--defsym=_ZZN5telux6common13FactoryHelper10getManagerINS_8platform10IFsManagerEEESt10shared_ptrIT_ENSt7__cxx1112basic_stringIcSt11char_traitsIcESaIcEEERSt8weak_ptrIS6_ERSt6vectorISt8functionIFvNS0_13ServiceStatusEEESaISL_EESL_SI_IFS7_SL_EEENKUlSJ_E0_clESJ_=so_stub_for_libtelux_platform
-Wl,--defsym=_ZZN5telux6common13FactoryHelper10getManagerINS_8platform12ITimeManagerEEESt10shared_ptrIT_ENSt7__cxx1112basic_stringIcSt11char_traitsIcESaIcEEERSt8weak_ptrIS6_ERSt6vectorISt8functionIFvNS0_13ServiceStatusEEESaISL_EESL_SI_IFS7_SL_EEENKUlSJ_E0_clESJ_=so_stub_for_libtelux_platform
-Wl,--defsym=_ZZN5telux6common13FactoryHelper10getManagerINS_8platform17ISubsystemManagerEEESt10shared_ptrIT_ENSt7__cxx1112basic_stringIcSt11char_traitsIcESaIcEEERSt8weak_ptrIS6_ERSt6vectorISt8functionIFvNS0_13ServiceStatusEEESaISL_EESL_SI_IFS7_SL_EEENKUlSJ_E0_clESJ_=so_stub_for_libtelux_platform
-Wl,--defsym=_ZZN5telux6common13FactoryHelper10getManagerINS_8platform18IDeviceInfoManagerEEESt10shared_ptrIT_ENSt7__cxx1112basic_stringIcSt11char_traitsIcESaIcEEERSt8weak_ptrIS6_ERSt6vectorISt8functionIFvNS0_13ServiceStatusEEESaISL_EESL_SI_IFS7_SL_EEENKUlSJ_E0_clESJ_=so_stub_for_libtelux_platform
-Wl,--defsym=_ZZN5telux6common13FactoryHelper10getManagerINS_8platform8hardware15IAntennaManagerEEESt10shared_ptrIT_ENSt7__cxx1112basic_stringIcSt11char_traitsIcESaIcEEERSt8weak_ptrIS7_ERSt6vectorISt8functionIFvNS0_13ServiceStatusEEESaISM_EESM_SJ_IFS8_SM_EEENKUlSK_E0_clESK_=so_stub_for_libtelux_platform
-Wl,--defsym=_ZZNSt19_Sp_make_shared_tag5_S_tiEvE5__tag=so_stub_for_libtelux_platform
-Wl,--defsym=_ZZNSt9once_flag18_Prepare_executionC4IZSt9call_onceIMNSt13__future_base13_State_baseV2EFvPSt8functionIFSt10unique_ptrINS3_12_Result_baseENS7_8_DeleterEEvEEPbEJPS4_SC_SD_EEvRS_OT_DpOT0_EUlvE_EERSI_ENUlvE_4_FUNEv=so_stub_for_libtelux_platform
-Wl,--defsym=_ZZNSt9once_flag18_Prepare_executionC4IZSt9call_onceIMSt6threadFvvEJPS3_EEvRS_OT_DpOT0_EUlvE_EERS8_ENUlvE_4_FUNEv=so_stub_for_libtelux_platform
