-Wl,--defsym=__gcov_error_file=so_stub_for_libtelux_wlan
-Wl,--defsym=__gcov_kvp_dynamic_pool=so_stub_for_libtelux_wlan
-Wl,--defsym=__gcov_kvp_dynamic_pool_index=so_stub_for_libtelux_wlan
-Wl,--defsym=__gcov_kvp_dynamic_pool_size=so_stub_for_libtelux_wlan
-Wl,--defsym=__gcov_master=so_stub_for_libtelux_wlan
-Wl,--defsym=__gcov_var=so_stub_for_libtelux_wlan
-Wl,--defsym=mangle_path=so_stub_for_libtelux_wlan
-Wl,--defsym=_ZN5telux4wlan10DeviceInfoaSEOS1_=so_stub_for_libtelux_wlan
-Wl,--defsym=_ZN5telux4wlan10DeviceInfoC1ERKS1_=so_stub_for_libtelux_wlan
-Wl,--defsym=_ZN5telux4wlan10DeviceInfoC2ERKS1_=so_stub_for_libtelux_wlan
-Wl,--defsym=_ZN5telux4wlan10DeviceInfoD1Ev=so_stub_for_libtelux_wlan
-Wl,--defsym=_ZN5telux4wlan10DeviceInfoD2Ev=so_stub_for_libtelux_wlan
-Wl,--defsym=_ZN5telux4wlan11ApNetConfigaSERKS1_=so_stub_for_libtelux_wlan
-Wl,--defsym=_ZN5telux4wlan11ApNetConfigC1ERKS1_=so_stub_for_libtelux_wlan
-Wl,--defsym=_ZN5telux4wlan11ApNetConfigC2ERKS1_=so_stub_for_libtelux_wlan
-Wl,--defsym=_ZN5telux4wlan11ApNetConfigD1Ev=so_stub_for_libtelux_wlan
-Wl,--defsym=_ZN5telux4wlan11ApNetConfigD2Ev=so_stub_for_libtelux_wlan
-Wl,--defsym=_ZN5telux4wlan11WlanFactory11getInstanceEv=so_stub_for_libtelux_wlan
-Wl,--defsym=_ZN5telux4wlan11WlanFactoryC1Ev=so_stub_for_libtelux_wlan
-Wl,--defsym=_ZN5telux4wlan11WlanFactoryC2Ev=so_stub_for_libtelux_wlan
-Wl,--defsym=_ZN5telux4wlan11WlanFactoryD0Ev=so_stub_for_libtelux_wlan
-Wl,--defsym=_ZN5telux4wlan11WlanFactoryD1Ev=so_stub_for_libtelux_wlan
-Wl,--defsym=_ZN5telux4wlan11WlanFactoryD2Ev=so_stub_for_libtelux_wlan
-Wl,--defsym=_ZN5telux4wlan12StaIndStatusC1ERKS1_=so_stub_for_libtelux_wlan
-Wl,--defsym=_ZN5telux4wlan12StaIndStatusC2ERKS1_=so_stub_for_libtelux_wlan
-Wl,--defsym=_ZN5telux4wlan12StaIndStatusD1Ev=so_stub_for_libtelux_wlan
-Wl,--defsym=_ZN5telux4wlan12StaIndStatusD2Ev=so_stub_for_libtelux_wlan
-Wl,--defsym=_ZN5telux4wlan13WlanCacheDataD1Ev=so_stub_for_libtelux_wlan
-Wl,--defsym=_ZN5telux4wlan13WlanCacheDataD2Ev=so_stub_for_libtelux_wlan
-Wl,--defsym=_ZN5telux4wlan13WlanQcmClient10enableWlanEb=so_stub_for_libtelux_wlan
-Wl,--defsym=_ZN5telux4wlan13WlanQcmClient11getAPConfigERSt6vectorINS0_8ApConfigESaIS3_EE=so_stub_for_libtelux_wlan
-Wl,--defsym=_ZN5telux4wlan13WlanQcmClient11getAPStatusERSt6vectorINS0_8ApStatusESaIS3_EE=so_stub_for_libtelux_wlan
-Wl,--defsym=_ZN5telux4wlan13WlanQcmClient11setApConfigENS0_2IdE29qcmap_msgr_access_profile_v01=so_stub_for_libtelux_wlan
-Wl,--defsym=_ZN5telux4wlan13WlanQcmClient11setAPConfigENS0_8ApConfigE=so_stub_for_libtelux_wlan
-Wl,--defsym=_ZN5telux4wlan13WlanQcmClient11setWlanModeEii=so_stub_for_libtelux_wlan
-Wl,--defsym=_ZN5telux4wlan13WlanQcmClient12getStaConfigERSt6vectorINS0_9StaConfigESaIS3_EE=so_stub_for_libtelux_wlan
-Wl,--defsym=_ZN5telux4wlan13WlanQcmClient12getStaStatusERSt6vectorINS0_9StaStatusESaIS3_EE=so_stub_for_libtelux_wlan
-Wl,--defsym=_ZN5telux4wlan13WlanQcmClient12validateApIdENS0_2IdE=so_stub_for_libtelux_wlan
-Wl,--defsym=_ZN5telux4wlan13WlanQcmClient13exitingMutex_E=so_stub_for_libtelux_wlan
-Wl,--defsym=_ZN5telux4wlan13WlanQcmClient13getWlanConfigERiS2_=so_stub_for_libtelux_wlan
-Wl,--defsym=_ZN5telux4wlan13WlanQcmClient13getWlanStatusERbRSt6vectorINS0_15InterfaceStatusESaIS4_EE=so_stub_for_libtelux_wlan
-Wl,--defsym=_ZN5telux4wlan13WlanQcmClient14enableHotspot2ENS0_2IdEb=so_stub_for_libtelux_wlan
-Wl,--defsym=_ZN5telux4wlan13WlanQcmClient14enableMobileAPEv=so_stub_for_libtelux_wlan
-Wl,--defsym=_ZN5telux4wlan13WlanQcmClient14getQcmapClientEv=so_stub_for_libtelux_wlan
-Wl,--defsym=_ZN5telux4wlan13WlanQcmClient14getWlanTxPowerERj=so_stub_for_libtelux_wlan
-Wl,--defsym=_ZN5telux4wlan13WlanQcmClient14isWlanSubSysUpEv=so_stub_for_libtelux_wlan
-Wl,--defsym=_ZN5telux4wlan13WlanQcmClient14setStaIpConfigENS0_2IdENS0_11StaIpConfigENS0_17StaStaticIpConfigE=so_stub_for_libtelux_wlan
-Wl,--defsym=_ZN5telux4wlan13WlanQcmClient14setWlanTxPowerEj=so_stub_for_libtelux_wlan
-Wl,--defsym=_ZN5telux4wlan13WlanQcmClient15manageApServiceENS0_2IdENS0_16ServiceOperationE=so_stub_for_libtelux_wlan
-Wl,--defsym=_ZN5telux4wlan13WlanQcmClient15setAPConfigSyncENS0_8ApConfigE=so_stub_for_libtelux_wlan
-Wl,--defsym=_ZN5telux4wlan13WlanQcmClient15setApPassPhraseENS0_2IdENSt7__cxx1112basic_stringIcSt11char_traitsIcESaIcEEE=so_stub_for_libtelux_wlan
-Wl,--defsym=_ZN5telux4wlan13WlanQcmClient15setApVisibilityENS0_2IdEb=so_stub_for_libtelux_wlan
-Wl,--defsym=_ZN5telux4wlan13WlanQcmClient15setClientConfigER18qmi_error_type_v01=so_stub_for_libtelux_wlan
-Wl,--defsym=_ZN5telux4wlan13WlanQcmClient16manageStaServiceENS0_2IdENS0_16ServiceOperationE=so_stub_for_libtelux_wlan
-Wl,--defsym=_ZN5telux4wlan13WlanQcmClient16registerListenerESt8weak_ptrINS0_16IWlanQcmListenerEE=so_stub_for_libtelux_wlan
-Wl,--defsym=_ZN5telux4wlan13WlanQcmClient16setStaBridgeModeENS0_2IdENS0_13StaBridgeModeE=so_stub_for_libtelux_wlan
-Wl,--defsym=_ZN5telux4wlan13WlanQcmClient17getMobileApHandleEv=so_stub_for_libtelux_wlan
-Wl,--defsym=_ZN5telux4wlan13WlanQcmClient18convertApIdToQcmapENS0_2IdER39qcmap_msgr_activate_hostapd_ap_enum_v01=so_stub_for_libtelux_wlan
-Wl,--defsym=_ZN5telux4wlan13WlanQcmClient18deregisterListenerESt8weak_ptrINS0_16IWlanQcmListenerEE=so_stub_for_libtelux_wlan
-Wl,--defsym=_ZN5telux4wlan13WlanQcmClient18getApNetInfoFromIdENS0_2IdERNS0_9ApNetInfoE=so_stub_for_libtelux_wlan
-Wl,--defsym=_ZN5telux4wlan13WlanQcmClient18getWlanInterfaceIdEv=so_stub_for_libtelux_wlan
-Wl,--defsym=_ZN5telux4wlan13WlanQcmClient18setStaIpConfigSyncENS0_2IdENS0_11StaIpConfigENS0_17StaStaticIpConfigE=so_stub_for_libtelux_wlan
-Wl,--defsym=_ZN5telux4wlan13WlanQcmClient19manageApServiceSyncENS0_2IdENS0_16ServiceOperationE=so_stub_for_libtelux_wlan
-Wl,--defsym=_ZN5telux4wlan13WlanQcmClient19notifyApBandChangedENS0_8BandTypeE=so_stub_for_libtelux_wlan
-Wl,--defsym=_ZN5telux4wlan13WlanQcmClient19qcmapMsgrIndicationEP17qmi_client_structjPvjS4_=so_stub_for_libtelux_wlan
-Wl,--defsym=_ZN5telux4wlan13WlanQcmClient19setApSecurityConfigENS0_2IdENS0_10ApSecurityE=so_stub_for_libtelux_wlan
-Wl,--defsym=_ZN5telux4wlan13WlanQcmClient19updateCacheWlanModeER29qcmap_msgr_wlan_mode_enum_v01=so_stub_for_libtelux_wlan
-Wl,--defsym=_ZN5telux4wlan13WlanQcmClient20convertApIdFromQcmapERNS0_2IdE39qcmap_msgr_activate_hostapd_ap_enum_v01=so_stub_for_libtelux_wlan
-Wl,--defsym=_ZN5telux4wlan13WlanQcmClient20convertApTypeToQcmapENS0_6ApTypeER27qcmap_msgr_ap_type_enum_v01=so_stub_for_libtelux_wlan
-Wl,--defsym=_ZN5telux4wlan13WlanQcmClient20getStationModeStatusEv=so_stub_for_libtelux_wlan
-Wl,--defsym=_ZN5telux4wlan13WlanQcmClient20handleTempCrossedIndEP17qmi_client_structjPvjj=so_stub_for_libtelux_wlan
-Wl,--defsym=_ZN5telux4wlan13WlanQcmClient20setStaBridgeModeSyncENS0_2IdENS0_13StaBridgeModeE=so_stub_for_libtelux_wlan
-Wl,--defsym=_ZN5telux4wlan13WlanQcmClient20setWlanActiveCountryENSt7__cxx1112basic_stringIcSt11char_traitsIcESaIcEEE=so_stub_for_libtelux_wlan
-Wl,--defsym=_ZN5telux4wlan13WlanQcmClient20updateCacheStaConfigER34qcmap_msgr_station_mode_config_v01=so_stub_for_libtelux_wlan
-Wl,--defsym=_ZN5telux4wlan13WlanQcmClient21getAPConnectedDevicesERSt6vectorINS0_10DeviceInfoESaIS3_EE=so_stub_for_libtelux_wlan
-Wl,--defsym=_ZN5telux4wlan13WlanQcmClient21notifyApConfigChangedENS0_2IdE=so_stub_for_libtelux_wlan
-Wl,--defsym=_ZN5telux4wlan13WlanQcmClient21updateCacheWlanStatusER28qcmap_msgr_wlan_if_info_ex_t=so_stub_for_libtelux_wlan
-Wl,--defsym=_ZN5telux4wlan13WlanQcmClient22convertApTypeFromQcmapERNS0_6ApTypeE27qcmap_msgr_ap_type_enum_v01=so_stub_for_libtelux_wlan
-Wl,--defsym=_ZN5telux4wlan13WlanQcmClient22convertBandTypeToQcmapENS0_8BandTypeER29qcmap_msgr_band_type_enum_v01=so_stub_for_libtelux_wlan
-Wl,--defsym=_ZN5telux4wlan13WlanQcmClient22convertSecurityToQcmapENS0_10ApSecurityER26qcmap_msgr_ap_security_v01=so_stub_for_libtelux_wlan
-Wl,--defsym=_ZN5telux4wlan13WlanQcmClient22getConnectedDeviceAddrE36qcmap_msgr_connected_device_info_v01RNS0_14WlanDeviceAddrE=so_stub_for_libtelux_wlan
-Wl,--defsym=_ZN5telux4wlan13WlanQcmClient22handleSubSysRestartIndEP17qmi_client_structjPvjj=so_stub_for_libtelux_wlan
-Wl,--defsym=_ZN5telux4wlan13WlanQcmClient22registerForIndicationsEv=so_stub_for_libtelux_wlan
-Wl,--defsym=_ZN5telux4wlan13WlanQcmClient22setApElementInfoConfigENS0_2IdENS0_19ApElementInfoConfigE=so_stub_for_libtelux_wlan
-Wl,--defsym=_ZN5telux4wlan13WlanQcmClient23checkWlanRadioChangeIndERK34qcmap_msgr_wlan_status_ind_msg_v01RNS0_11WlanIndDataE=so_stub_for_libtelux_wlan
-Wl,--defsym=_ZN5telux4wlan13WlanQcmClient23getWlanRegulatoryParamsERNS0_16RegulatoryParamsE=so_stub_for_libtelux_wlan
-Wl,--defsym=_ZN5telux4wlan13WlanQcmClient23notifyDeviceInfoChangedENS0_23ApDeviceConnectionEventESt6vectorINS0_13DeviceIndInfoESaIS4_EE=so_stub_for_libtelux_wlan
-Wl,--defsym=_ZN5telux4wlan13WlanQcmClient23updateCacheWlanApConfigEPK20qcmap_msgr_ap_configi=so_stub_for_libtelux_wlan
-Wl,--defsym=_ZN5telux4wlan13WlanQcmClient24convertBandTypeFromQcmapERNS0_8BandTypeE29qcmap_msgr_band_type_enum_v01=so_stub_for_libtelux_wlan
-Wl,--defsym=_ZN5telux4wlan13WlanQcmClient24convertSecurityFromQcmapERNS0_10ApSecurityE26qcmap_msgr_ap_security_v01=so_stub_for_libtelux_wlan
-Wl,--defsym=_ZN5telux4wlan13WlanQcmClient24getAndUpdateWlanInfoSyncENS0_12StaIndStatusENS0_11WlanIndDataE=so_stub_for_libtelux_wlan
-Wl,--defsym=_ZN5telux4wlan13WlanQcmClient24getHwDeviceTypeFromQcmapE31qcmap_msgr_wlan_device_type_v01=so_stub_for_libtelux_wlan
-Wl,--defsym=_ZN5telux4wlan13WlanQcmClient24handleApConfigChangedIndEP17qmi_client_structjPvjj=so_stub_for_libtelux_wlan
-Wl,--defsym=_ZN5telux4wlan13WlanQcmClient24notifyStationBandChangedENS0_8BandTypeE=so_stub_for_libtelux_wlan
-Wl,--defsym=_ZN5telux4wlan13WlanQcmClient25handleStaStatusChangedIndEP17qmi_client_structjPvjj=so_stub_for_libtelux_wlan
-Wl,--defsym=_ZN5telux4wlan13WlanQcmClient25notifyWlanTempCrossedSyncEfNS0_15DevicePerfStateE=so_stub_for_libtelux_wlan
-Wl,--defsym=_ZN5telux4wlan13WlanQcmClient26convertSecurityAuthToQcmapENS0_7SecAuthER28qcmap_msgr_sec_auth_enum_v01=so_stub_for_libtelux_wlan
-Wl,--defsym=_ZN5telux4wlan13WlanQcmClient26convertSecurityModeToQcmapENS0_7SecModeER28qcmap_msgr_sec_mode_enum_v01=so_stub_for_libtelux_wlan
-Wl,--defsym=_ZN5telux4wlan13WlanQcmClient26handleWlanStatusChangedIndEP17qmi_client_structjPvjj=so_stub_for_libtelux_wlan
-Wl,--defsym=_ZN5telux4wlan13WlanQcmClient26notifyStaStatusChangedSyncESt6vectorINS0_9StaStatusESaIS3_EE=so_stub_for_libtelux_wlan
-Wl,--defsym=_ZN5telux4wlan13WlanQcmClient26populateElementInfoToQcmapENS0_19ApElementInfoConfigER25qcmap_msgr_ap_element_v01=so_stub_for_libtelux_wlan
-Wl,--defsym=_ZN5telux4wlan13WlanQcmClient26updateCacheWlanGuestConfigER35qcmap_msgr_guest_profile_config_v01=so_stub_for_libtelux_wlan
-Wl,--defsym=_ZN5telux4wlan13WlanQcmClient27convertNetAccessTypeToQcmapENS0_13NetAccessTypeER39qcmap_msgr_access_network_type_enum_v01=so_stub_for_libtelux_wlan
-Wl,--defsym=_ZN5telux4wlan13WlanQcmClient28convertApInterworkingToQcmapENS0_14ApInterworkingER35qcmap_msgr_ap_interworking_enum_v01=so_stub_for_libtelux_wlan
-Wl,--defsym=_ZN5telux4wlan13WlanQcmClient28convertSecurityAuthFromQcmapERNS0_7SecAuthE28qcmap_msgr_sec_auth_enum_v01=so_stub_for_libtelux_wlan
-Wl,--defsym=_ZN5telux4wlan13WlanQcmClient28convertSecurityModeFromQcmapERNS0_7SecModeE28qcmap_msgr_sec_mode_enum_v01=so_stub_for_libtelux_wlan
-Wl,--defsym=_ZN5telux4wlan13WlanQcmClient28populateElementInfoFromQcmapERNS0_19ApElementInfoConfigE25qcmap_msgr_ap_element_v01=so_stub_for_libtelux_wlan
-Wl,--defsym=_ZN5telux4wlan13WlanQcmClient29convertNetAccessTypeFromQcmapERNS0_13NetAccessTypeE39qcmap_msgr_access_network_type_enum_v01=so_stub_for_libtelux_wlan
-Wl,--defsym=_ZN5telux4wlan13WlanQcmClient29convertSecurityEncryptToQcmapENS0_10SecEncryptER31qcmap_msgr_sec_encrypt_enum_v01=so_stub_for_libtelux_wlan
-Wl,--defsym=_ZN5telux4wlan13WlanQcmClient30convertApInterworkingFromQcmapERNS0_14ApInterworkingE35qcmap_msgr_ap_interworking_enum_v01=so_stub_for_libtelux_wlan
-Wl,--defsym=_ZN5telux4wlan13WlanQcmClient30notifyDataSysHealthChangedSyncEjhhh=so_stub_for_libtelux_wlan
-Wl,--defsym=_ZN5telux4wlan13WlanQcmClient31convertSecurityEncryptFromQcmapERNS0_10SecEncryptE31qcmap_msgr_sec_encrypt_enum_v01=so_stub_for_libtelux_wlan
-Wl,--defsym=_ZN5telux4wlan13WlanQcmClient31notifyWlanEnablementChangedSyncEb=so_stub_for_libtelux_wlan
-Wl,--defsym=_ZN5telux4wlan13WlanQcmClient32handleWlanDeviceStatusChangedIndEP17qmi_client_structjPvjj=so_stub_for_libtelux_wlan
-Wl,--defsym=_ZN5telux4wlan13WlanQcmClient4initEv=so_stub_for_libtelux_wlan
-Wl,--defsym=_ZN5telux4wlan13WlanQcmClient7cleanupEv=so_stub_for_libtelux_wlan
-Wl,--defsym=_ZN5telux4wlan13WlanQcmClient8exiting_E=so_stub_for_libtelux_wlan
-Wl,--defsym=_ZN5telux4wlan13WlanQcmClient9setApSsidENS0_2IdENSt7__cxx1112basic_stringIcSt11char_traitsIcESaIcEEE=so_stub_for_libtelux_wlan
-Wl,--defsym=_ZN5telux4wlan13WlanQcmClientC1Ev=so_stub_for_libtelux_wlan
-Wl,--defsym=_ZN5telux4wlan13WlanQcmClientC2Ev=so_stub_for_libtelux_wlan
-Wl,--defsym=_ZN5telux4wlan13WlanQcmClientD1Ev=so_stub_for_libtelux_wlan
-Wl,--defsym=_ZN5telux4wlan13WlanQcmClientD2Ev=so_stub_for_libtelux_wlan
-Wl,--defsym=_ZN5telux4wlan14WlanDeviceAddrD1Ev=so_stub_for_libtelux_wlan
-Wl,--defsym=_ZN5telux4wlan14WlanDeviceAddrD2Ev=so_stub_for_libtelux_wlan
-Wl,--defsym=_ZN5telux4wlan15WlanFactoryImpl11getInstanceEv=so_stub_for_libtelux_wlan
-Wl,--defsym=_ZN5telux4wlan15WlanFactoryImpl20getWlanDeviceManagerESt8functionIFvNS_6common13ServiceStatusEEE=so_stub_for_libtelux_wlan
-Wl,--defsym=_ZN5telux4wlan15WlanFactoryImpl21getApInterfaceManagerEv=so_stub_for_libtelux_wlan
-Wl,--defsym=_ZN5telux4wlan15WlanFactoryImpl22getStaInterfaceManagerEv=so_stub_for_libtelux_wlan
-Wl,--defsym=_ZN5telux4wlan15WlanFactoryImpl28onWlanInterfaceInitCompletedENS_6common13ServiceStatusE=so_stub_for_libtelux_wlan
-Wl,--defsym=_ZN5telux4wlan15WlanFactoryImplC1Ev=so_stub_for_libtelux_wlan
-Wl,--defsym=_ZN5telux4wlan15WlanFactoryImplC2Ev=so_stub_for_libtelux_wlan
-Wl,--defsym=_ZN5telux4wlan15WlanFactoryImplD0Ev=so_stub_for_libtelux_wlan
-Wl,--defsym=_ZN5telux4wlan15WlanFactoryImplD1Ev=so_stub_for_libtelux_wlan
-Wl,--defsym=_ZN5telux4wlan15WlanFactoryImplD2Ev=so_stub_for_libtelux_wlan
-Wl,--defsym=_ZN5telux4wlan16IWlanQcmListener13onTempCrossedEfNS0_15DevicePerfStateE=so_stub_for_libtelux_wlan
-Wl,--defsym=_ZN5telux4wlan16IWlanQcmListener15onApBandChangedENS0_8BandTypeE=so_stub_for_libtelux_wlan
-Wl,--defsym=_ZN5telux4wlan16IWlanQcmListener15onEnableChangedEb=so_stub_for_libtelux_wlan
-Wl,--defsym=_ZN5telux4wlan16IWlanQcmListener15onStatusChangedENS0_12HwDeviceTypeESt6vectorINS0_8ApStatusESaIS4_EES3_INS0_9StaStatusESaIS7_EE=so_stub_for_libtelux_wlan
-Wl,--defsym=_ZN5telux4wlan16IWlanQcmListener17onApConfigChangedENS0_2IdE=so_stub_for_libtelux_wlan
-Wl,--defsym=_ZN5telux4wlan16IWlanQcmListener20onStationBandChangedENS0_8BandTypeE=so_stub_for_libtelux_wlan
-Wl,--defsym=_ZN5telux4wlan16IWlanQcmListener22onStationStatusChangedESt6vectorINS0_9StaStatusESaIS3_EE=so_stub_for_libtelux_wlan
-Wl,--defsym=_ZN5telux4wlan16IWlanQcmListener23onApDeviceStatusChangedENS0_23ApDeviceConnectionEventESt6vectorINS0_13DeviceIndInfoESaIS4_EE=so_stub_for_libtelux_wlan
-Wl,--defsym=_ZN5telux4wlan17StaStaticIpConfigC1ERKS1_=so_stub_for_libtelux_wlan
-Wl,--defsym=_ZN5telux4wlan17StaStaticIpConfigC2ERKS1_=so_stub_for_libtelux_wlan
-Wl,--defsym=_ZN5telux4wlan17StaStaticIpConfigD1Ev=so_stub_for_libtelux_wlan
-Wl,--defsym=_ZN5telux4wlan17StaStaticIpConfigD2Ev=so_stub_for_libtelux_wlan
-Wl,--defsym=_ZN5telux4wlan19ApElementInfoConfigC1ERKS1_=so_stub_for_libtelux_wlan
-Wl,--defsym=_ZN5telux4wlan19ApElementInfoConfigC2ERKS1_=so_stub_for_libtelux_wlan
-Wl,--defsym=_ZN5telux4wlan19ApElementInfoConfigD1Ev=so_stub_for_libtelux_wlan
-Wl,--defsym=_ZN5telux4wlan19ApElementInfoConfigD2Ev=so_stub_for_libtelux_wlan
-Wl,--defsym=_ZN5telux4wlan20logSdkVersionDetailsEv=so_stub_for_libtelux_wlan
-Wl,--defsym=_ZN5telux4wlan21WlanDeviceManagerImpl10getTxPowerERj=so_stub_for_libtelux_wlan
-Wl,--defsym=_ZN5telux4wlan21WlanDeviceManagerImpl10setTxPowerEj=so_stub_for_libtelux_wlan
-Wl,--defsym=_ZN5telux4wlan21WlanDeviceManagerImpl13onTempCrossedEfNS0_15DevicePerfStateE=so_stub_for_libtelux_wlan
-Wl,--defsym=_ZN5telux4wlan21WlanDeviceManagerImpl15onEnableChangedEb=so_stub_for_libtelux_wlan
-Wl,--defsym=_ZN5telux4wlan21WlanDeviceManagerImpl16getServiceStatusEv=so_stub_for_libtelux_wlan
-Wl,--defsym=_ZN5telux4wlan21WlanDeviceManagerImpl16registerListenerESt8weak_ptrINS0_13IWlanListenerEE=so_stub_for_libtelux_wlan
-Wl,--defsym=_ZN5telux4wlan21WlanDeviceManagerImpl16setActiveCountryENSt7__cxx1112basic_stringIcSt11char_traitsIcESaIcEEE=so_stub_for_libtelux_wlan
-Wl,--defsym=_ZN5telux4wlan21WlanDeviceManagerImpl18deregisterListenerESt8weak_ptrINS0_13IWlanListenerEE=so_stub_for_libtelux_wlan
-Wl,--defsym=_ZN5telux4wlan21WlanDeviceManagerImpl18invokeInitCallbackENS_6common13ServiceStatusE=so_stub_for_libtelux_wlan
-Wl,--defsym=_ZN5telux4wlan21WlanDeviceManagerImpl18setSubSystemStatusENS_6common13ServiceStatusE=so_stub_for_libtelux_wlan
-Wl,--defsym=_ZN5telux4wlan21WlanDeviceManagerImpl19getRegulatoryParamsERNS0_16RegulatoryParamsE=so_stub_for_libtelux_wlan
-Wl,--defsym=_ZN5telux4wlan21WlanDeviceManagerImpl21onServiceStatusChangeENS_6common13ServiceStatusE=so_stub_for_libtelux_wlan
-Wl,--defsym=_ZN5telux4wlan21WlanDeviceManagerImpl4initESt8functionIFvNS_6common13ServiceStatusEEE=so_stub_for_libtelux_wlan
-Wl,--defsym=_ZN5telux4wlan21WlanDeviceManagerImpl6enableEb=so_stub_for_libtelux_wlan
-Wl,--defsym=_ZN5telux4wlan21WlanDeviceManagerImpl7cleanupEv=so_stub_for_libtelux_wlan
-Wl,--defsym=_ZN5telux4wlan21WlanDeviceManagerImpl7setModeEii=so_stub_for_libtelux_wlan
-Wl,--defsym=_ZN5telux4wlan21WlanDeviceManagerImpl8initSyncEv=so_stub_for_libtelux_wlan
-Wl,--defsym=_ZN5telux4wlan21WlanDeviceManagerImpl9getConfigERiS2_=so_stub_for_libtelux_wlan
-Wl,--defsym=_ZN5telux4wlan21WlanDeviceManagerImpl9getStatusERbRSt6vectorINS0_15InterfaceStatusESaIS4_EE=so_stub_for_libtelux_wlan
-Wl,--defsym=_ZN5telux4wlan21WlanDeviceManagerImplC1ESt10shared_ptrINS0_13WlanQcmClientEE=so_stub_for_libtelux_wlan
-Wl,--defsym=_ZN5telux4wlan21WlanDeviceManagerImplC2ESt10shared_ptrINS0_13WlanQcmClientEE=so_stub_for_libtelux_wlan
-Wl,--defsym=_ZN5telux4wlan21WlanDeviceManagerImplD0Ev=so_stub_for_libtelux_wlan
-Wl,--defsym=_ZN5telux4wlan21WlanDeviceManagerImplD1Ev=so_stub_for_libtelux_wlan
-Wl,--defsym=_ZN5telux4wlan21WlanDeviceManagerImplD2Ev=so_stub_for_libtelux_wlan
-Wl,--defsym=_ZN5telux4wlan22ApInterfaceManagerImpl13setPassPhraseENS0_2IdENSt7__cxx1112basic_stringIcSt11char_traitsIcESaIcEEE=so_stub_for_libtelux_wlan
-Wl,--defsym=_ZN5telux4wlan22ApInterfaceManagerImpl13setVisibilityENS0_2IdEb=so_stub_for_libtelux_wlan
-Wl,--defsym=_ZN5telux4wlan22ApInterfaceManagerImpl15manageApServiceENS0_2IdENS0_16ServiceOperationE=so_stub_for_libtelux_wlan
-Wl,--defsym=_ZN5telux4wlan22ApInterfaceManagerImpl15onApBandChangedENS0_8BandTypeE=so_stub_for_libtelux_wlan
-Wl,--defsym=_ZN5telux4wlan22ApInterfaceManagerImpl16getServiceStatusEv=so_stub_for_libtelux_wlan
-Wl,--defsym=_ZN5telux4wlan22ApInterfaceManagerImpl16registerListenerESt8weak_ptrINS0_11IApListenerEE=so_stub_for_libtelux_wlan
-Wl,--defsym=_ZN5telux4wlan22ApInterfaceManagerImpl17onApConfigChangedENS0_2IdE=so_stub_for_libtelux_wlan
-Wl,--defsym=_ZN5telux4wlan22ApInterfaceManagerImpl17setSecurityConfigENS0_2IdENS0_10ApSecurityE=so_stub_for_libtelux_wlan
-Wl,--defsym=_ZN5telux4wlan22ApInterfaceManagerImpl18deregisterListenerESt8weak_ptrINS0_11IApListenerEE=so_stub_for_libtelux_wlan
-Wl,--defsym=_ZN5telux4wlan22ApInterfaceManagerImpl18setSubSystemStatusENS_6common13ServiceStatusE=so_stub_for_libtelux_wlan
-Wl,--defsym=_ZN5telux4wlan22ApInterfaceManagerImpl19getConnectedDevicesERSt6vectorINS0_10DeviceInfoESaIS3_EE=so_stub_for_libtelux_wlan
-Wl,--defsym=_ZN5telux4wlan22ApInterfaceManagerImpl20setElementInfoConfigENS0_2IdENS0_19ApElementInfoConfigE=so_stub_for_libtelux_wlan
-Wl,--defsym=_ZN5telux4wlan22ApInterfaceManagerImpl21onServiceStatusChangeENS_6common13ServiceStatusE=so_stub_for_libtelux_wlan
-Wl,--defsym=_ZN5telux4wlan22ApInterfaceManagerImpl23onApDeviceStatusChangedENS0_23ApDeviceConnectionEventESt6vectorINS0_13DeviceIndInfoESaIS4_EE=so_stub_for_libtelux_wlan
-Wl,--defsym=_ZN5telux4wlan22ApInterfaceManagerImpl4initEv=so_stub_for_libtelux_wlan
-Wl,--defsym=_ZN5telux4wlan22ApInterfaceManagerImpl7setSsidENS0_2IdENSt7__cxx1112basic_stringIcSt11char_traitsIcESaIcEEE=so_stub_for_libtelux_wlan
-Wl,--defsym=_ZN5telux4wlan22ApInterfaceManagerImpl9getConfigERSt6vectorINS0_8ApConfigESaIS3_EE=so_stub_for_libtelux_wlan
-Wl,--defsym=_ZN5telux4wlan22ApInterfaceManagerImpl9getStatusERSt6vectorINS0_8ApStatusESaIS3_EE=so_stub_for_libtelux_wlan
-Wl,--defsym=_ZN5telux4wlan22ApInterfaceManagerImpl9setConfigENS0_8ApConfigE=so_stub_for_libtelux_wlan
-Wl,--defsym=_ZN5telux4wlan22ApInterfaceManagerImplC1ESt10shared_ptrINS0_13WlanQcmClientEE=so_stub_for_libtelux_wlan
-Wl,--defsym=_ZN5telux4wlan22ApInterfaceManagerImplC2ESt10shared_ptrINS0_13WlanQcmClientEE=so_stub_for_libtelux_wlan
-Wl,--defsym=_ZN5telux4wlan22ApInterfaceManagerImplD0Ev=so_stub_for_libtelux_wlan
-Wl,--defsym=_ZN5telux4wlan22ApInterfaceManagerImplD1Ev=so_stub_for_libtelux_wlan
-Wl,--defsym=_ZN5telux4wlan22ApInterfaceManagerImplD2Ev=so_stub_for_libtelux_wlan
-Wl,--defsym=_ZN5telux4wlan23StaInterfaceManagerImpl11setIpConfigENS0_2IdENS0_11StaIpConfigENS0_17StaStaticIpConfigE=so_stub_for_libtelux_wlan
-Wl,--defsym=_ZN5telux4wlan23StaInterfaceManagerImpl13setBridgeModeENS0_2IdENS0_13StaBridgeModeE=so_stub_for_libtelux_wlan
-Wl,--defsym=_ZN5telux4wlan23StaInterfaceManagerImpl14enableHotspot2ENS0_2IdEb=so_stub_for_libtelux_wlan
-Wl,--defsym=_ZN5telux4wlan23StaInterfaceManagerImpl16getServiceStatusEv=so_stub_for_libtelux_wlan
-Wl,--defsym=_ZN5telux4wlan23StaInterfaceManagerImpl16manageStaServiceENS0_2IdENS0_16ServiceOperationE=so_stub_for_libtelux_wlan
-Wl,--defsym=_ZN5telux4wlan23StaInterfaceManagerImpl16registerListenerESt8weak_ptrINS0_12IStaListenerEE=so_stub_for_libtelux_wlan
-Wl,--defsym=_ZN5telux4wlan23StaInterfaceManagerImpl18deregisterListenerESt8weak_ptrINS0_12IStaListenerEE=so_stub_for_libtelux_wlan
-Wl,--defsym=_ZN5telux4wlan23StaInterfaceManagerImpl18setSubSystemStatusENS_6common13ServiceStatusE=so_stub_for_libtelux_wlan
-Wl,--defsym=_ZN5telux4wlan23StaInterfaceManagerImpl20onStationBandChangedENS0_8BandTypeE=so_stub_for_libtelux_wlan
-Wl,--defsym=_ZN5telux4wlan23StaInterfaceManagerImpl21onServiceStatusChangeENS_6common13ServiceStatusE=so_stub_for_libtelux_wlan
-Wl,--defsym=_ZN5telux4wlan23StaInterfaceManagerImpl22onStationStatusChangedESt6vectorINS0_9StaStatusESaIS3_EE=so_stub_for_libtelux_wlan
-Wl,--defsym=_ZN5telux4wlan23StaInterfaceManagerImpl4initEv=so_stub_for_libtelux_wlan
-Wl,--defsym=_ZN5telux4wlan23StaInterfaceManagerImpl9getConfigERSt6vectorINS0_9StaConfigESaIS3_EE=so_stub_for_libtelux_wlan
-Wl,--defsym=_ZN5telux4wlan23StaInterfaceManagerImpl9getStatusERSt6vectorINS0_9StaStatusESaIS3_EE=so_stub_for_libtelux_wlan
-Wl,--defsym=_ZN5telux4wlan23StaInterfaceManagerImplC1ESt10shared_ptrINS0_13WlanQcmClientEE=so_stub_for_libtelux_wlan
-Wl,--defsym=_ZN5telux4wlan23StaInterfaceManagerImplC2ESt10shared_ptrINS0_13WlanQcmClientEE=so_stub_for_libtelux_wlan
-Wl,--defsym=_ZN5telux4wlan23StaInterfaceManagerImplD0Ev=so_stub_for_libtelux_wlan
-Wl,--defsym=_ZN5telux4wlan23StaInterfaceManagerImplD1Ev=so_stub_for_libtelux_wlan
-Wl,--defsym=_ZN5telux4wlan23StaInterfaceManagerImplD2Ev=so_stub_for_libtelux_wlan
-Wl,--defsym=_ZN5telux4wlan8ApStatusC1ERKS1_=so_stub_for_libtelux_wlan
-Wl,--defsym=_ZN5telux4wlan8ApStatusC2ERKS1_=so_stub_for_libtelux_wlan
-Wl,--defsym=_ZN5telux4wlan8ApStatusD1Ev=so_stub_for_libtelux_wlan
-Wl,--defsym=_ZN5telux4wlan8ApStatusD2Ev=so_stub_for_libtelux_wlan
-Wl,--defsym=_ZN5telux4wlan9StaStatusC1ERKS1_=so_stub_for_libtelux_wlan
-Wl,--defsym=_ZN5telux4wlan9StaStatusC2ERKS1_=so_stub_for_libtelux_wlan
-Wl,--defsym=_ZN5telux4wlan9StaStatusD1Ev=so_stub_for_libtelux_wlan
-Wl,--defsym=_ZN5telux4wlan9StaStatusD2Ev=so_stub_for_libtelux_wlan
-Wl,--defsym=_ZN5telux6common14AsyncTaskQueueIvE11executeTaskEv=so_stub_for_libtelux_wlan
-Wl,--defsym=_ZN5telux6common14AsyncTaskQueueIvE14purgeCompletedEv=so_stub_for_libtelux_wlan
-Wl,--defsym=_ZN5telux6common14AsyncTaskQueueIvE3addERSt13shared_futureIvE=so_stub_for_libtelux_wlan
-Wl,--defsym=_ZN5telux6common14AsyncTaskQueueIvE8shutdownEb=so_stub_for_libtelux_wlan
-Wl,--defsym=_ZN5telux6common14AsyncTaskQueueIvEC1Ev=so_stub_for_libtelux_wlan
-Wl,--defsym=_ZN5telux6common14AsyncTaskQueueIvEC2Ev=so_stub_for_libtelux_wlan
-Wl,--defsym=_ZN5telux6common14AsyncTaskQueueIvED1Ev=so_stub_for_libtelux_wlan
-Wl,--defsym=_ZN5telux6common14AsyncTaskQueueIvED2Ev=so_stub_for_libtelux_wlan
-Wl,--defsym=_ZN5telux6common15ListenerManager16registerListenerESt8weak_ptrINS0_12ISDKListenerEE=so_stub_for_libtelux_wlan
-Wl,--defsym=_ZN5telux6common15ListenerManager18deRegisterListenerESt8weak_ptrINS0_12ISDKListenerEE=so_stub_for_libtelux_wlan
-Wl,--defsym=_ZN5telux6common15ListenerManager21getAvailableListenersERSt6vectorISt8weak_ptrINS0_12ISDKListenerEESaIS5_EE=so_stub_for_libtelux_wlan
-Wl,--defsym=_ZN5telux6common15ListenerManager5purgeEv=so_stub_for_libtelux_wlan
-Wl,--defsym=_ZN5telux6common15ListenerManager7cleanupEv=so_stub_for_libtelux_wlan
-Wl,--defsym=_ZN5telux6common15ListenerManagerC1Ev=so_stub_for_libtelux_wlan
-Wl,--defsym=_ZN5telux6common15ListenerManagerC2Ev=so_stub_for_libtelux_wlan
-Wl,--defsym=_ZN5telux6common15ListenerManagerD1Ev=so_stub_for_libtelux_wlan
-Wl,--defsym=_ZN5telux6common15ListenerManagerD2Ev=so_stub_for_libtelux_wlan
-Wl,--defsym=_ZN5telux6common3Log10logMessageIJPKcbEEEvNS0_8LogLevelERKNSt7__cxx1112basic_stringIcSt11char_traitsIcESaIcEEESD_RKiDpT_=so_stub_for_libtelux_wlan
-Wl,--defsym=_ZN5telux6common3Log10logMessageIJPKcEEEvNS0_8LogLevelERKNSt7__cxx1112basic_stringIcSt11char_traitsIcESaIcEEESD_RKiDpT_=so_stub_for_libtelux_wlan
-Wl,--defsym=_ZN5telux6common3Log10logMessageIJPKcfS4_iEEEvNS0_8LogLevelERKNSt7__cxx1112basic_stringIcSt11char_traitsIcESaIcEEESD_RKiDpT_=so_stub_for_libtelux_wlan
-Wl,--defsym=_ZN5telux6common3Log10logMessageIJPKciEEEvNS0_8LogLevelERKNSt7__cxx1112basic_stringIcSt11char_traitsIcESaIcEEESD_RKiDpT_=so_stub_for_libtelux_wlan
-Wl,--defsym=_ZN5telux6common3Log10logMessageIJPKcmEEEvNS0_8LogLevelERKNSt7__cxx1112basic_stringIcSt11char_traitsIcESaIcEEESD_RKiDpT_=so_stub_for_libtelux_wlan
-Wl,--defsym=_ZN5telux6common3Log10logMessageIJPKcNSt7__cxx1112basic_stringIcSt11char_traitsIcESaIcEEES4_iS4_iS4_iEEEvNS0_8LogLevelERKSA_SD_RKiDpT_=so_stub_for_libtelux_wlan
-Wl,--defsym=_ZN5telux6common3Log10logMessageIJPKcS4_bEEEvNS0_8LogLevelERKNSt7__cxx1112basic_stringIcSt11char_traitsIcESaIcEEESD_RKiDpT_=so_stub_for_libtelux_wlan
-Wl,--defsym=_ZN5telux6common3Log10logMessageIJPKcS4_bS4_iEEEvNS0_8LogLevelERKNSt7__cxx1112basic_stringIcSt11char_traitsIcESaIcEEESD_RKiDpT_=so_stub_for_libtelux_wlan
-Wl,--defsym=_ZN5telux6common3Log10logMessageIJPKcS4_EEEvNS0_8LogLevelERKNSt7__cxx1112basic_stringIcSt11char_traitsIcESaIcEEESD_RKiDpT_=so_stub_for_libtelux_wlan
-Wl,--defsym=_ZN5telux6common3Log10logMessageIJPKcS4_fEEEvNS0_8LogLevelERKNSt7__cxx1112basic_stringIcSt11char_traitsIcESaIcEEESD_RKiDpT_=so_stub_for_libtelux_wlan
-Wl,--defsym=_ZN5telux6common3Log10logMessageIJPKcS4_iEEEvNS0_8LogLevelERKNSt7__cxx1112basic_stringIcSt11char_traitsIcESaIcEEESD_RKiDpT_=so_stub_for_libtelux_wlan
-Wl,--defsym=_ZN5telux6common3Log10logMessageIJPKcS4_iS4_iEEEvNS0_8LogLevelERKNSt7__cxx1112basic_stringIcSt11char_traitsIcESaIcEEESD_RKiDpT_=so_stub_for_libtelux_wlan
-Wl,--defsym=_ZN5telux6common3Log10logMessageIJPKcS4_iS4_iS4_iS4_iEEEvNS0_8LogLevelERKNSt7__cxx1112basic_stringIcSt11char_traitsIcESaIcEEESD_RKiDpT_=so_stub_for_libtelux_wlan
-Wl,--defsym=_ZN5telux6common3Log10logMessageIJPKcS4_jEEEvNS0_8LogLevelERKNSt7__cxx1112basic_stringIcSt11char_traitsIcESaIcEEESD_RKiDpT_=so_stub_for_libtelux_wlan
-Wl,--defsym=_ZN5telux6common3Log10logMessageIJPKcS4_jS4_iS4_iEEEvNS0_8LogLevelERKNSt7__cxx1112basic_stringIcSt11char_traitsIcESaIcEEESD_RKiDpT_=so_stub_for_libtelux_wlan
-Wl,--defsym=_ZN5telux6common3Log10logMessageIJPKcS4_mEEEvNS0_8LogLevelERKNSt7__cxx1112basic_stringIcSt11char_traitsIcESaIcEEESD_RKiDpT_=so_stub_for_libtelux_wlan
-Wl,--defsym=_ZN5telux6common3Log10logMessageIJPKcS4_NSt7__cxx1112basic_stringIcSt11char_traitsIcESaIcEEEEEEvNS0_8LogLevelERKSA_SD_RKiDpT_=so_stub_for_libtelux_wlan
-Wl,--defsym=_ZN5telux6common3Log10logMessageIJPKcS4_NSt7__cxx1112basic_stringIcSt11char_traitsIcESaIcEEES4_iEEEvNS0_8LogLevelERKSA_SD_RKiDpT_=so_stub_for_libtelux_wlan
-Wl,--defsym=_ZN5telux6common3Log10logMessageIJPKcS4_P17qmi_client_structS4_jS4_jEEEvNS0_8LogLevelERKNSt7__cxx1112basic_stringIcSt11char_traitsIcESaIcEEESF_RKiDpT_=so_stub_for_libtelux_wlan
-Wl,--defsym=_ZN5telux6common3Log10logMessageIJPKcS4_S4_EEEvNS0_8LogLevelERKNSt7__cxx1112basic_stringIcSt11char_traitsIcESaIcEEESD_RKiDpT_=so_stub_for_libtelux_wlan
-Wl,--defsym=_ZN5telux6common3Log10logMessageIJPKcS4_S4_PcS4_fS4_jS4_fEEEvNS0_8LogLevelERKNSt7__cxx1112basic_stringIcSt11char_traitsIcESaIcEEESE_RKiDpT_=so_stub_for_libtelux_wlan
-Wl,--defsym=_ZN5telux6common3Log16constructMessageINSt7__cxx1119basic_ostringstreamIcSt11char_traitsIcESaIcEEEfJPKcjSA_fEEEvRT_T0_DpT1_=so_stub_for_libtelux_wlan
-Wl,--defsym=_ZN5telux6common3Log16constructMessageINSt7__cxx1119basic_ostringstreamIcSt11char_traitsIcESaIcEEENS3_12basic_stringIcS6_S7_EEJPKciSC_iSC_iEEEvRT_T0_DpT1_=so_stub_for_libtelux_wlan
-Wl,--defsym=_ZN5telux6common3Log16constructMessageINSt7__cxx1119basic_ostringstreamIcSt11char_traitsIcESaIcEEEPKcJNS3_12basic_stringIcS6_S7_EEEEEvRT_T0_DpT1_=so_stub_for_libtelux_wlan
-Wl,--defsym=_ZN5telux6common3Log16constructMessageINSt7__cxx1119basic_ostringstreamIcSt11char_traitsIcESaIcEEEPKcJNS3_12basic_stringIcS6_S7_EESA_iEEEvRT_T0_DpT1_=so_stub_for_libtelux_wlan
-Wl,--defsym=_ZN5telux6common3Log16constructMessageINSt7__cxx1119basic_ostringstreamIcSt11char_traitsIcESaIcEEEPKcJNS3_12basic_stringIcS6_S7_EESA_iSA_iSA_iEEEvRT_T0_DpT1_=so_stub_for_libtelux_wlan
-Wl,--defsym=_ZN5telux6common3Log16constructMessageINSt7__cxx1119basic_ostringstreamIcSt11char_traitsIcESaIcEEEPKcJSA_bSA_iEEEvRT_T0_DpT1_=so_stub_for_libtelux_wlan
-Wl,--defsym=_ZN5telux6common3Log16constructMessageINSt7__cxx1119basic_ostringstreamIcSt11char_traitsIcESaIcEEEPKcJSA_iSA_iSA_iSA_iEEEvRT_T0_DpT1_=so_stub_for_libtelux_wlan
-Wl,--defsym=_ZN5telux6common3Log16constructMessageINSt7__cxx1119basic_ostringstreamIcSt11char_traitsIcESaIcEEEPKcJSA_jSA_iSA_iEEEvRT_T0_DpT1_=so_stub_for_libtelux_wlan
-Wl,--defsym=_ZN5telux6common3Log16constructMessageINSt7__cxx1119basic_ostringstreamIcSt11char_traitsIcESaIcEEEPKcJSA_NS3_12basic_stringIcS6_S7_EEEEEvRT_T0_DpT1_=so_stub_for_libtelux_wlan
-Wl,--defsym=_ZN5telux6common3Log16constructMessageINSt7__cxx1119basic_ostringstreamIcSt11char_traitsIcESaIcEEEPKcJSA_NS3_12basic_stringIcS6_S7_EESA_iEEEvRT_T0_DpT1_=so_stub_for_libtelux_wlan
-Wl,--defsym=_ZN5telux6common3Log16constructMessageINSt7__cxx1119basic_ostringstreamIcSt11char_traitsIcESaIcEEEPKcJSA_P17qmi_client_structSA_jSA_jEEEvRT_T0_DpT1_=so_stub_for_libtelux_wlan
-Wl,--defsym=_ZN5telux6common3Log16constructMessageINSt7__cxx1119basic_ostringstreamIcSt11char_traitsIcESaIcEEEPKcJSA_PcSA_fSA_jSA_fEEEvRT_T0_DpT1_=so_stub_for_libtelux_wlan
-Wl,--defsym=_ZN9__gnu_cxx13new_allocatorIN5telux4wlan21WlanDeviceManagerImplEE9constructIS3_JKSt10shared_ptrINS2_13WlanQcmClientEEEEEvPT_DpOT0_=so_stub_for_libtelux_wlan
-Wl,--defsym=_ZN9__gnu_cxx13new_allocatorIN5telux4wlan22ApInterfaceManagerImplEE9constructIS3_JKSt10shared_ptrINS2_13WlanQcmClientEEEEEvPT_DpOT0_=so_stub_for_libtelux_wlan
-Wl,--defsym=_ZN9__gnu_cxx13new_allocatorIN5telux4wlan23StaInterfaceManagerImplEE9constructIS3_JKSt10shared_ptrINS2_13WlanQcmClientEEEEEvPT_DpOT0_=so_stub_for_libtelux_wlan
-Wl,--defsym=_ZN9__gnu_cxx5__ops10_Iter_predIZN5telux6common15ListenerManager16registerListenerESt8weak_ptrINS3_12ISDKListenerEEEUlS7_E_EclINS_17__normal_iteratorIPS7_St6vectorIS7_SaIS7_EEEEEEbT_=so_stub_for_libtelux_wlan
-Wl,--defsym=_ZNKSt13__future_base13_State_baseV221_M_is_deferred_futureEv=so_stub_for_libtelux_wlan
-Wl,--defsym=_ZNKSt14__basic_futureIvE13_M_get_resultEv=so_stub_for_libtelux_wlan
-Wl,--defsym=_ZNSt10shared_ptrIN5telux4wlan13WlanQcmClientEED1Ev=so_stub_for_libtelux_wlan
-Wl,--defsym=_ZNSt10shared_ptrIN5telux4wlan13WlanQcmClientEED2Ev=so_stub_for_libtelux_wlan
-Wl,--defsym=_ZNSt10shared_ptrIN5telux6common14AsyncTaskQueueIvEEEC1ISaIS3_EJEEESt20_Sp_alloc_shared_tagIT_EDpOT0_=so_stub_for_libtelux_wlan
-Wl,--defsym=_ZNSt10shared_ptrIN5telux6common14AsyncTaskQueueIvEEEC2ISaIS3_EJEEESt20_Sp_alloc_shared_tagIT_EDpOT0_=so_stub_for_libtelux_wlan
-Wl,--defsym=_ZNSt10shared_ptrIN5telux6common15ListenerManagerEEC1ISaIS2_EJEEESt20_Sp_alloc_shared_tagIT_EDpOT0_=so_stub_for_libtelux_wlan
-Wl,--defsym=_ZNSt10shared_ptrIN5telux6common15ListenerManagerEEC2ISaIS2_EJEEESt20_Sp_alloc_shared_tagIT_EDpOT0_=so_stub_for_libtelux_wlan
-Wl,--defsym=_ZNSt10shared_ptrISt6threadEC1ISaIS0_EJMN5telux6common14AsyncTaskQueueIvEEFvvEPS7_EEESt20_Sp_alloc_shared_tagIT_EDpOT0_=so_stub_for_libtelux_wlan
-Wl,--defsym=_ZNSt10shared_ptrISt6threadEC2ISaIS0_EJMN5telux6common14AsyncTaskQueueIvEEFvvEPS7_EEESt20_Sp_alloc_shared_tagIT_EDpOT0_=so_stub_for_libtelux_wlan
-Wl,--defsym=_ZNSt10unique_ptrINSt13__future_base12_Result_baseENS1_8_DeleterEED1Ev=so_stub_for_libtelux_wlan
-Wl,--defsym=_ZNSt10unique_ptrINSt13__future_base12_Result_baseENS1_8_DeleterEED2Ev=so_stub_for_libtelux_wlan
-Wl,--defsym=_ZNSt10unique_ptrINSt13__future_base7_ResultIvEENS0_12_Result_base8_DeleterEED1Ev=so_stub_for_libtelux_wlan
-Wl,--defsym=_ZNSt10unique_ptrINSt13__future_base7_ResultIvEENS0_12_Result_base8_DeleterEED2Ev=so_stub_for_libtelux_wlan
-Wl,--defsym=_ZNSt10unique_ptrINSt6thread6_StateESt14default_deleteIS1_EED1Ev=so_stub_for_libtelux_wlan
-Wl,--defsym=_ZNSt10unique_ptrINSt6thread6_StateESt14default_deleteIS1_EED2Ev=so_stub_for_libtelux_wlan
-Wl,--defsym=_ZNSt10__weak_ptrIN5telux6common12ISDKListenerELN9__gnu_cxx12_Lock_policyE2EEC1INS0_4wlan11IApListenerEvEERKS_IT_LS4_2EE=so_stub_for_libtelux_wlan
-Wl,--defsym=_ZNSt10__weak_ptrIN5telux6common12ISDKListenerELN9__gnu_cxx12_Lock_policyE2EEC1INS0_4wlan12IStaListenerEvEERKS_IT_LS4_2EE=so_stub_for_libtelux_wlan
-Wl,--defsym=_ZNSt10__weak_ptrIN5telux6common12ISDKListenerELN9__gnu_cxx12_Lock_policyE2EEC1INS0_4wlan13IWlanListenerEvEERKS_IT_LS4_2EE=so_stub_for_libtelux_wlan
-Wl,--defsym=_ZNSt10__weak_ptrIN5telux6common12ISDKListenerELN9__gnu_cxx12_Lock_policyE2EEC1INS0_4wlan16IWlanQcmListenerEvEERKS_IT_LS4_2EE=so_stub_for_libtelux_wlan
-Wl,--defsym=_ZNSt10__weak_ptrIN5telux6common12ISDKListenerELN9__gnu_cxx12_Lock_policyE2EEC2INS0_4wlan11IApListenerEvEERKS_IT_LS4_2EE=so_stub_for_libtelux_wlan
-Wl,--defsym=_ZNSt10__weak_ptrIN5telux6common12ISDKListenerELN9__gnu_cxx12_Lock_policyE2EEC2INS0_4wlan12IStaListenerEvEERKS_IT_LS4_2EE=so_stub_for_libtelux_wlan
-Wl,--defsym=_ZNSt10__weak_ptrIN5telux6common12ISDKListenerELN9__gnu_cxx12_Lock_policyE2EEC2INS0_4wlan13IWlanListenerEvEERKS_IT_LS4_2EE=so_stub_for_libtelux_wlan
-Wl,--defsym=_ZNSt10__weak_ptrIN5telux6common12ISDKListenerELN9__gnu_cxx12_Lock_policyE2EEC2INS0_4wlan16IWlanQcmListenerEvEERKS_IT_LS4_2EE=so_stub_for_libtelux_wlan
-Wl,--defsym=_ZNSt11__copy_moveILb0ELb0ESt26random_access_iterator_tagE8__copy_mIPSt13shared_futureIvES5_EET0_T_S7_S6_=so_stub_for_libtelux_wlan
-Wl,--defsym=_ZNSt11_Deque_baseISt13shared_futureIvESaIS1_EE15_M_create_nodesEPPS1_S5_=so_stub_for_libtelux_wlan
-Wl,--defsym=_ZNSt11_Deque_baseISt13shared_futureIvESaIS1_EE16_M_destroy_nodesEPPS1_S5_=so_stub_for_libtelux_wlan
-Wl,--defsym=_ZNSt11_Deque_baseISt13shared_futureIvESaIS1_EE17_M_initialize_mapEm=so_stub_for_libtelux_wlan
-Wl,--defsym=_ZNSt11unique_lockISt5mutexE6unlockEv=so_stub_for_libtelux_wlan
-Wl,--defsym=_ZNSt12_Destroy_auxILb0EE9__destroyIPN5telux4wlan13DeviceIndInfoEEEvT_S6_=so_stub_for_libtelux_wlan
-Wl,--defsym=_ZNSt12_Destroy_auxILb0EE9__destroyIPN5telux4wlan15InterfaceStatusEEEvT_S6_=so_stub_for_libtelux_wlan
-Wl,--defsym=_ZNSt12_Destroy_auxILb0EE9__destroyIPN5telux4wlan9ApNetInfoEEEvT_S6_=so_stub_for_libtelux_wlan
-Wl,--defsym=_ZNSt12_Destroy_auxILb0EE9__destroyIPNSt7__cxx1112basic_stringIcSt11char_traitsIcESaIcEEEEEvT_S9_=so_stub_for_libtelux_wlan
-Wl,--defsym=_ZNSt12future_errorC1ESt10error_code=so_stub_for_libtelux_wlan
-Wl,--defsym=_ZNSt12future_errorC2ESt10error_code=so_stub_for_libtelux_wlan
-Wl,--defsym=_ZNSt12__shared_ptrIN5telux4wlan21WlanDeviceManagerImplELN9__gnu_cxx12_Lock_policyE2EEC1ISaIS2_EJKSt10shared_ptrINS1_13WlanQcmClientEEEEESt20_Sp_alloc_shared_tagIT_EDpOT0_=so_stub_for_libtelux_wlan
-Wl,--defsym=_ZNSt12__shared_ptrIN5telux4wlan21WlanDeviceManagerImplELN9__gnu_cxx12_Lock_policyE2EEC2ISaIS2_EJKSt10shared_ptrINS1_13WlanQcmClientEEEEESt20_Sp_alloc_shared_tagIT_EDpOT0_=so_stub_for_libtelux_wlan
-Wl,--defsym=_ZNSt12__shared_ptrIN5telux4wlan22ApInterfaceManagerImplELN9__gnu_cxx12_Lock_policyE2EEC1ISaIS2_EJKSt10shared_ptrINS1_13WlanQcmClientEEEEESt20_Sp_alloc_shared_tagIT_EDpOT0_=so_stub_for_libtelux_wlan
-Wl,--defsym=_ZNSt12__shared_ptrIN5telux4wlan22ApInterfaceManagerImplELN9__gnu_cxx12_Lock_policyE2EEC2ISaIS2_EJKSt10shared_ptrINS1_13WlanQcmClientEEEEESt20_Sp_alloc_shared_tagIT_EDpOT0_=so_stub_for_libtelux_wlan
-Wl,--defsym=_ZNSt12__shared_ptrIN5telux4wlan23StaInterfaceManagerImplELN9__gnu_cxx12_Lock_policyE2EEC1ISaIS2_EJKSt10shared_ptrINS1_13WlanQcmClientEEEEESt20_Sp_alloc_shared_tagIT_EDpOT0_=so_stub_for_libtelux_wlan
-Wl,--defsym=_ZNSt12__shared_ptrIN5telux4wlan23StaInterfaceManagerImplELN9__gnu_cxx12_Lock_policyE2EEC2ISaIS2_EJKSt10shared_ptrINS1_13WlanQcmClientEEEEESt20_Sp_alloc_shared_tagIT_EDpOT0_=so_stub_for_libtelux_wlan
-Wl,--defsym=_ZNSt12__shared_ptrIN5telux6common12ISDKListenerELN9__gnu_cxx12_Lock_policyE2EEC1ERKSt10__weak_ptrIS2_LS4_2EESt9nothrow_t=so_stub_for_libtelux_wlan
-Wl,--defsym=_ZNSt12__shared_ptrIN5telux6common12ISDKListenerELN9__gnu_cxx12_Lock_policyE2EEC2ERKSt10__weak_ptrIS2_LS4_2EESt9nothrow_t=so_stub_for_libtelux_wlan
-Wl,--defsym=_ZNSt12__weak_countILN9__gnu_cxx12_Lock_policyE2EEaSERKSt14__shared_countILS1_2EE=so_stub_for_libtelux_wlan
-Wl,--defsym=_ZNSt13__future_base13_State_baseV210wait_untilINSt6chrono3_V212system_clockENS2_8durationIlSt5ratioILl1ELl1000000000EEEEEESt13future_statusRKNS2_10time_pointIT_T0_EE=so_stub_for_libtelux_wlan
-Wl,--defsym=_ZNSt13__future_base13_State_baseV213_M_set_resultESt8functionIFSt10unique_ptrINS_12_Result_baseENS3_8_DeleterEEvEEb=so_stub_for_libtelux_wlan
-Wl,--defsym=_ZNSt13__future_base13_State_baseV216_M_break_promiseESt10unique_ptrINS_12_Result_baseENS2_8_DeleterEE=so_stub_for_libtelux_wlan
-Wl,--defsym=_ZNSt13__future_base13_State_baseV217_M_complete_asyncEv=so_stub_for_libtelux_wlan
-Wl,--defsym=_ZNSt13__future_base13_State_baseV24waitEv=so_stub_for_libtelux_wlan
-Wl,--defsym=_ZNSt13__future_base13_State_baseV29_M_do_setEPSt8functionIFSt10unique_ptrINS_12_Result_baseENS3_8_DeleterEEvEEPb=so_stub_for_libtelux_wlan
-Wl,--defsym=_ZNSt13__future_base13_State_baseV2D0Ev=so_stub_for_libtelux_wlan
-Wl,--defsym=_ZNSt13__future_base13_State_baseV2D1Ev=so_stub_for_libtelux_wlan
-Wl,--defsym=_ZNSt13__future_base13_State_baseV2D2Ev=so_stub_for_libtelux_wlan
-Wl,--defsym=_ZNSt13__future_base21_Async_state_commonV217_M_complete_asyncEv=so_stub_for_libtelux_wlan
-Wl,--defsym=_ZNSt13__future_base21_Async_state_commonV2D0Ev=so_stub_for_libtelux_wlan
-Wl,--defsym=_ZNSt13__future_base21_Async_state_commonV2D1Ev=so_stub_for_libtelux_wlan
-Wl,--defsym=_ZNSt13__future_base21_Async_state_commonV2D2Ev=so_stub_for_libtelux_wlan
-Wl,--defsym=_ZNSt13__future_base7_ResultIvE10_M_destroyEv=so_stub_for_libtelux_wlan
-Wl,--defsym=_ZNSt13__future_base7_ResultIvED0Ev=so_stub_for_libtelux_wlan
-Wl,--defsym=_ZNSt13__future_base7_ResultIvED1Ev=so_stub_for_libtelux_wlan
-Wl,--defsym=_ZNSt13__future_base7_ResultIvED2Ev=so_stub_for_libtelux_wlan
-Wl,--defsym=_ZNSt14__basic_futureIvEC1ERKSt10shared_ptrINSt13__future_base13_State_baseV2EE=so_stub_for_libtelux_wlan
-Wl,--defsym=_ZNSt14__basic_futureIvEC2ERKSt10shared_ptrINSt13__future_base13_State_baseV2EE=so_stub_for_libtelux_wlan
-Wl,--defsym=_ZNSt14_Function_base13_Base_managerISt5_BindIFMN5telux4wlan15WlanFactoryImplEFvNS2_6common13ServiceStatusEEPS4_St12_PlaceholderILi1EEEEE10_M_managerERSt9_Any_dataRKSF_St18_Manager_operation=so_stub_for_libtelux_wlan
-Wl,--defsym=_ZNSt14_Function_baseD1Ev=so_stub_for_libtelux_wlan
-Wl,--defsym=_ZNSt14_Function_baseD2Ev=so_stub_for_libtelux_wlan
-Wl,--defsym=_ZNSt14__shared_countILN9__gnu_cxx12_Lock_policyE2EEC1ERKSt12__weak_countILS1_2EESt9nothrow_t=so_stub_for_libtelux_wlan
-Wl,--defsym=_ZNSt14__shared_countILN9__gnu_cxx12_Lock_policyE2EEC1I12QCMAP_ClientSaIS4_EJRFvP17qmi_client_structjPvjS8_ER29qcmap_msgr_arch_type_enum_v01EEERPT_St20_Sp_alloc_shared_tagIT0_EDpOT1_=so_stub_for_libtelux_wlan
-Wl,--defsym=_ZNSt14__shared_countILN9__gnu_cxx12_Lock_policyE2EEC1IN5telux4wlan21WlanDeviceManagerImplESaIS6_EJKSt10shared_ptrINS5_13WlanQcmClientEEEEERPT_St20_Sp_alloc_shared_tagIT0_EDpOT1_=so_stub_for_libtelux_wlan
-Wl,--defsym=_ZNSt14__shared_countILN9__gnu_cxx12_Lock_policyE2EEC1IN5telux4wlan22ApInterfaceManagerImplESaIS6_EJKSt10shared_ptrINS5_13WlanQcmClientEEEEERPT_St20_Sp_alloc_shared_tagIT0_EDpOT1_=so_stub_for_libtelux_wlan
-Wl,--defsym=_ZNSt14__shared_countILN9__gnu_cxx12_Lock_policyE2EEC1IN5telux4wlan23StaInterfaceManagerImplESaIS6_EJKSt10shared_ptrINS5_13WlanQcmClientEEEEERPT_St20_Sp_alloc_shared_tagIT0_EDpOT1_=so_stub_for_libtelux_wlan
-Wl,--defsym=_ZNSt14__shared_countILN9__gnu_cxx12_Lock_policyE2EEC1IPN5telux4wlan13WlanQcmClientEEET_=so_stub_for_libtelux_wlan
-Wl,--defsym=_ZNSt14__shared_countILN9__gnu_cxx12_Lock_policyE2EEC2ERKSt12__weak_countILS1_2EESt9nothrow_t=so_stub_for_libtelux_wlan
-Wl,--defsym=_ZNSt14__shared_countILN9__gnu_cxx12_Lock_policyE2EEC2I12QCMAP_ClientSaIS4_EJRFvP17qmi_client_structjPvjS8_ER29qcmap_msgr_arch_type_enum_v01EEERPT_St20_Sp_alloc_shared_tagIT0_EDpOT1_=so_stub_for_libtelux_wlan
-Wl,--defsym=_ZNSt14__shared_countILN9__gnu_cxx12_Lock_policyE2EEC2IN5telux4wlan21WlanDeviceManagerImplESaIS6_EJKSt10shared_ptrINS5_13WlanQcmClientEEEEERPT_St20_Sp_alloc_shared_tagIT0_EDpOT1_=so_stub_for_libtelux_wlan
-Wl,--defsym=_ZNSt14__shared_countILN9__gnu_cxx12_Lock_policyE2EEC2IN5telux4wlan22ApInterfaceManagerImplESaIS6_EJKSt10shared_ptrINS5_13WlanQcmClientEEEEERPT_St20_Sp_alloc_shared_tagIT0_EDpOT1_=so_stub_for_libtelux_wlan
-Wl,--defsym=_ZNSt14__shared_countILN9__gnu_cxx12_Lock_policyE2EEC2IN5telux4wlan23StaInterfaceManagerImplESaIS6_EJKSt10shared_ptrINS5_13WlanQcmClientEEEEERPT_St20_Sp_alloc_shared_tagIT0_EDpOT1_=so_stub_for_libtelux_wlan
-Wl,--defsym=_ZNSt14__shared_countILN9__gnu_cxx12_Lock_policyE2EEC2IPN5telux4wlan13WlanQcmClientEEET_=so_stub_for_libtelux_wlan
-Wl,--defsym=_ZNSt15_Deque_iteratorISt13shared_futureIvERKS1_PS2_EpLEl=so_stub_for_libtelux_wlan
-Wl,--defsym=_ZNSt15_Deque_iteratorISt13shared_futureIvERS1_PS1_EpLEl=so_stub_for_libtelux_wlan
-Wl,--defsym=_ZNSt15__exception_ptr12__dest_thunkISt12future_errorEEvPv=so_stub_for_libtelux_wlan
-Wl,--defsym=_ZNSt15__exception_ptr13exception_ptraSEOS0_=so_stub_for_libtelux_wlan
-Wl,--defsym=_ZNSt15_Sp_counted_ptrIPN5telux4wlan13WlanQcmClientELN9__gnu_cxx12_Lock_policyE2EE10_M_destroyEv=so_stub_for_libtelux_wlan
-Wl,--defsym=_ZNSt15_Sp_counted_ptrIPN5telux4wlan13WlanQcmClientELN9__gnu_cxx12_Lock_policyE2EE10_M_disposeEv=so_stub_for_libtelux_wlan
-Wl,--defsym=_ZNSt15_Sp_counted_ptrIPN5telux4wlan13WlanQcmClientELN9__gnu_cxx12_Lock_policyE2EE14_M_get_deleterERKSt9type_info=so_stub_for_libtelux_wlan
-Wl,--defsym=_ZNSt15_Sp_counted_ptrIPN5telux4wlan13WlanQcmClientELN9__gnu_cxx12_Lock_policyE2EED0Ev=so_stub_for_libtelux_wlan
-Wl,--defsym=_ZNSt15_Sp_counted_ptrIPN5telux4wlan13WlanQcmClientELN9__gnu_cxx12_Lock_policyE2EED1Ev=so_stub_for_libtelux_wlan
-Wl,--defsym=_ZNSt15_Sp_counted_ptrIPN5telux4wlan13WlanQcmClientELN9__gnu_cxx12_Lock_policyE2EED2Ev=so_stub_for_libtelux_wlan
-Wl,--defsym=_ZNSt16_Sp_counted_baseILN9__gnu_cxx12_Lock_policyE2EE10_M_releaseEv=so_stub_for_libtelux_wlan
-Wl,--defsym=_ZNSt16_Sp_counted_baseILN9__gnu_cxx12_Lock_policyE2EE15_M_weak_releaseEv=so_stub_for_libtelux_wlan
-Wl,--defsym=_ZNSt17_Function_handlerIFvN5telux6common13ServiceStatusEESt5_BindIFMNS0_4wlan15WlanFactoryImplEFvS2_EPS6_St12_PlaceholderILi1EEEEE10_M_managerERSt9_Any_dataRKSF_St18_Manager_operation=so_stub_for_libtelux_wlan
-Wl,--defsym=_ZNSt17_Function_handlerIFvN5telux6common13ServiceStatusEESt5_BindIFMNS0_4wlan15WlanFactoryImplEFvS2_EPS6_St12_PlaceholderILi1EEEEE9_M_invokeERKSt9_Any_dataOS2_=so_stub_for_libtelux_wlan
-Wl,--defsym=_ZNSt18condition_variable4waitIZN5telux6common14AsyncTaskQueueIvE11executeTaskEvEUlvE_EEvRSt11unique_lockISt5mutexET_=so_stub_for_libtelux_wlan
-Wl,--defsym=_ZNSt20__uninitialized_copyILb0EE13__uninit_copyIN9__gnu_cxx17__normal_iteratorIPKN5telux4wlan11ApNetConfigESt6vectorIS6_SaIS6_EEEEPS6_EET0_T_SF_SE_=so_stub_for_libtelux_wlan
-Wl,--defsym=_ZNSt20__uninitialized_copyILb0EE13__uninit_copyIN9__gnu_cxx17__normal_iteratorIPKN5telux4wlan13DeviceIndInfoESt6vectorIS6_SaIS6_EEEEPS6_EET0_T_SF_SE_=so_stub_for_libtelux_wlan
-Wl,--defsym=_ZNSt20__uninitialized_copyILb0EE13__uninit_copyIN9__gnu_cxx17__normal_iteratorIPKN5telux4wlan8ApConfigESt6vectorIS6_SaIS6_EEEEPS6_EET0_T_SF_SE_=so_stub_for_libtelux_wlan
-Wl,--defsym=_ZNSt20__uninitialized_copyILb0EE13__uninit_copyIN9__gnu_cxx17__normal_iteratorIPKN5telux4wlan8ApStatusESt6vectorIS6_SaIS6_EEEEPS6_EET0_T_SF_SE_=so_stub_for_libtelux_wlan
-Wl,--defsym=_ZNSt20__uninitialized_copyILb0EE13__uninit_copyIN9__gnu_cxx17__normal_iteratorIPKN5telux4wlan9ApNetInfoESt6vectorIS6_SaIS6_EEEEPS6_EET0_T_SF_SE_=so_stub_for_libtelux_wlan
-Wl,--defsym=_ZNSt20__uninitialized_copyILb0EE13__uninit_copyIN9__gnu_cxx17__normal_iteratorIPKN5telux4wlan9StaConfigESt6vectorIS6_SaIS6_EEEEPS6_EET0_T_SF_SE_=so_stub_for_libtelux_wlan
-Wl,--defsym=_ZNSt20__uninitialized_copyILb0EE13__uninit_copyIN9__gnu_cxx17__normal_iteratorIPKN5telux4wlan9StaStatusESt6vectorIS6_SaIS6_EEEEPS6_EET0_T_SF_SE_=so_stub_for_libtelux_wlan
-Wl,--defsym=_ZNSt20__uninitialized_copyILb0EE13__uninit_copyIN9__gnu_cxx17__normal_iteratorIPKNSt7__cxx1112basic_stringIcSt11char_traitsIcESaIcEEESt6vectorIS9_SaIS9_EEEEPS9_EET0_T_SI_SH_=so_stub_for_libtelux_wlan
-Wl,--defsym=_ZNSt20__uninitialized_copyILb0EE13__uninit_copyIN9__gnu_cxx17__normal_iteratorIPKSt8functionIFvN5telux6common13ServiceStatusEEESt6vectorIS9_SaIS9_EEEEPS9_EET0_T_SI_SH_=so_stub_for_libtelux_wlan
-Wl,--defsym=_ZNSt20__uninitialized_copyILb0EE13__uninit_copyIPN5telux4wlan11ApNetConfigES5_EET0_T_S7_S6_=so_stub_for_libtelux_wlan
-Wl,--defsym=_ZNSt20__uninitialized_copyILb0EE13__uninit_copyIPN5telux4wlan8ApConfigES5_EET0_T_S7_S6_=so_stub_for_libtelux_wlan
-Wl,--defsym=_ZNSt20__uninitialized_copyILb0EE13__uninit_copyIPN5telux4wlan8ApStatusES5_EET0_T_S7_S6_=so_stub_for_libtelux_wlan
-Wl,--defsym=_ZNSt20__uninitialized_copyILb0EE13__uninit_copyIPN5telux4wlan9ApNetInfoES5_EET0_T_S7_S6_=so_stub_for_libtelux_wlan
-Wl,--defsym=_ZNSt20__uninitialized_copyILb0EE13__uninit_copyIPN5telux4wlan9StaConfigES5_EET0_T_S7_S6_=so_stub_for_libtelux_wlan
-Wl,--defsym=_ZNSt20__uninitialized_copyILb0EE13__uninit_copyIPN5telux4wlan9StaStatusES5_EET0_T_S7_S6_=so_stub_for_libtelux_wlan
-Wl,--defsym=_ZNSt20__uninitialized_copyILb0EE13__uninit_copyIPSt8functionIFvN5telux6common13ServiceStatusEEES8_EET0_T_SA_S9_=so_stub_for_libtelux_wlan
-Wl,--defsym=_ZNSt20__uninitialized_copyILb0EE13__uninit_copyISt15_Deque_iteratorISt13shared_futureIvERKS4_PS5_ES2_IS4_RS4_PS4_EEET0_T_SD_SC_=so_stub_for_libtelux_wlan
-Wl,--defsym=_ZNSt23_Sp_counted_ptr_inplaceI12QCMAP_ClientSaIS0_ELN9__gnu_cxx12_Lock_policyE2EE10_M_destroyEv=so_stub_for_libtelux_wlan
-Wl,--defsym=_ZNSt23_Sp_counted_ptr_inplaceI12QCMAP_ClientSaIS0_ELN9__gnu_cxx12_Lock_policyE2EE10_M_disposeEv=so_stub_for_libtelux_wlan
-Wl,--defsym=_ZNSt23_Sp_counted_ptr_inplaceI12QCMAP_ClientSaIS0_ELN9__gnu_cxx12_Lock_policyE2EE14_M_get_deleterERKSt9type_info=so_stub_for_libtelux_wlan
-Wl,--defsym=_ZNSt23_Sp_counted_ptr_inplaceI12QCMAP_ClientSaIS0_ELN9__gnu_cxx12_Lock_policyE2EED0Ev=so_stub_for_libtelux_wlan
-Wl,--defsym=_ZNSt23_Sp_counted_ptr_inplaceI12QCMAP_ClientSaIS0_ELN9__gnu_cxx12_Lock_policyE2EED1Ev=so_stub_for_libtelux_wlan
-Wl,--defsym=_ZNSt23_Sp_counted_ptr_inplaceI12QCMAP_ClientSaIS0_ELN9__gnu_cxx12_Lock_policyE2EED2Ev=so_stub_for_libtelux_wlan
-Wl,--defsym=_ZNSt23_Sp_counted_ptr_inplaceIN5telux4wlan21WlanDeviceManagerImplESaIS2_ELN9__gnu_cxx12_Lock_policyE2EE10_M_destroyEv=so_stub_for_libtelux_wlan
-Wl,--defsym=_ZNSt23_Sp_counted_ptr_inplaceIN5telux4wlan21WlanDeviceManagerImplESaIS2_ELN9__gnu_cxx12_Lock_policyE2EE10_M_disposeEv=so_stub_for_libtelux_wlan
-Wl,--defsym=_ZNSt23_Sp_counted_ptr_inplaceIN5telux4wlan21WlanDeviceManagerImplESaIS2_ELN9__gnu_cxx12_Lock_policyE2EE14_M_get_deleterERKSt9type_info=so_stub_for_libtelux_wlan
-Wl,--defsym=_ZNSt23_Sp_counted_ptr_inplaceIN5telux4wlan21WlanDeviceManagerImplESaIS2_ELN9__gnu_cxx12_Lock_policyE2EED0Ev=so_stub_for_libtelux_wlan
-Wl,--defsym=_ZNSt23_Sp_counted_ptr_inplaceIN5telux4wlan21WlanDeviceManagerImplESaIS2_ELN9__gnu_cxx12_Lock_policyE2EED1Ev=so_stub_for_libtelux_wlan
-Wl,--defsym=_ZNSt23_Sp_counted_ptr_inplaceIN5telux4wlan21WlanDeviceManagerImplESaIS2_ELN9__gnu_cxx12_Lock_policyE2EED2Ev=so_stub_for_libtelux_wlan
-Wl,--defsym=_ZNSt23_Sp_counted_ptr_inplaceIN5telux4wlan22ApInterfaceManagerImplESaIS2_ELN9__gnu_cxx12_Lock_policyE2EE10_M_destroyEv=so_stub_for_libtelux_wlan
-Wl,--defsym=_ZNSt23_Sp_counted_ptr_inplaceIN5telux4wlan22ApInterfaceManagerImplESaIS2_ELN9__gnu_cxx12_Lock_policyE2EE10_M_disposeEv=so_stub_for_libtelux_wlan
-Wl,--defsym=_ZNSt23_Sp_counted_ptr_inplaceIN5telux4wlan22ApInterfaceManagerImplESaIS2_ELN9__gnu_cxx12_Lock_policyE2EE14_M_get_deleterERKSt9type_info=so_stub_for_libtelux_wlan
-Wl,--defsym=_ZNSt23_Sp_counted_ptr_inplaceIN5telux4wlan22ApInterfaceManagerImplESaIS2_ELN9__gnu_cxx12_Lock_policyE2EED0Ev=so_stub_for_libtelux_wlan
-Wl,--defsym=_ZNSt23_Sp_counted_ptr_inplaceIN5telux4wlan22ApInterfaceManagerImplESaIS2_ELN9__gnu_cxx12_Lock_policyE2EED1Ev=so_stub_for_libtelux_wlan
-Wl,--defsym=_ZNSt23_Sp_counted_ptr_inplaceIN5telux4wlan22ApInterfaceManagerImplESaIS2_ELN9__gnu_cxx12_Lock_policyE2EED2Ev=so_stub_for_libtelux_wlan
-Wl,--defsym=_ZNSt23_Sp_counted_ptr_inplaceIN5telux4wlan23StaInterfaceManagerImplESaIS2_ELN9__gnu_cxx12_Lock_policyE2EE10_M_destroyEv=so_stub_for_libtelux_wlan
-Wl,--defsym=_ZNSt23_Sp_counted_ptr_inplaceIN5telux4wlan23StaInterfaceManagerImplESaIS2_ELN9__gnu_cxx12_Lock_policyE2EE10_M_disposeEv=so_stub_for_libtelux_wlan
-Wl,--defsym=_ZNSt23_Sp_counted_ptr_inplaceIN5telux4wlan23StaInterfaceManagerImplESaIS2_ELN9__gnu_cxx12_Lock_policyE2EE14_M_get_deleterERKSt9type_info=so_stub_for_libtelux_wlan
-Wl,--defsym=_ZNSt23_Sp_counted_ptr_inplaceIN5telux4wlan23StaInterfaceManagerImplESaIS2_ELN9__gnu_cxx12_Lock_policyE2EED0Ev=so_stub_for_libtelux_wlan
-Wl,--defsym=_ZNSt23_Sp_counted_ptr_inplaceIN5telux4wlan23StaInterfaceManagerImplESaIS2_ELN9__gnu_cxx12_Lock_policyE2EED1Ev=so_stub_for_libtelux_wlan
-Wl,--defsym=_ZNSt23_Sp_counted_ptr_inplaceIN5telux4wlan23StaInterfaceManagerImplESaIS2_ELN9__gnu_cxx12_Lock_policyE2EED2Ev=so_stub_for_libtelux_wlan
-Wl,--defsym=_ZNSt23_Sp_counted_ptr_inplaceIN5telux6common14AsyncTaskQueueIvEESaIS3_ELN9__gnu_cxx12_Lock_policyE2EE10_M_destroyEv=so_stub_for_libtelux_wlan
-Wl,--defsym=_ZNSt23_Sp_counted_ptr_inplaceIN5telux6common14AsyncTaskQueueIvEESaIS3_ELN9__gnu_cxx12_Lock_policyE2EE10_M_disposeEv=so_stub_for_libtelux_wlan
-Wl,--defsym=_ZNSt23_Sp_counted_ptr_inplaceIN5telux6common14AsyncTaskQueueIvEESaIS3_ELN9__gnu_cxx12_Lock_policyE2EE14_M_get_deleterERKSt9type_info=so_stub_for_libtelux_wlan
-Wl,--defsym=_ZNSt23_Sp_counted_ptr_inplaceIN5telux6common14AsyncTaskQueueIvEESaIS3_ELN9__gnu_cxx12_Lock_policyE2EED0Ev=so_stub_for_libtelux_wlan
-Wl,--defsym=_ZNSt23_Sp_counted_ptr_inplaceIN5telux6common14AsyncTaskQueueIvEESaIS3_ELN9__gnu_cxx12_Lock_policyE2EED1Ev=so_stub_for_libtelux_wlan
-Wl,--defsym=_ZNSt23_Sp_counted_ptr_inplaceIN5telux6common14AsyncTaskQueueIvEESaIS3_ELN9__gnu_cxx12_Lock_policyE2EED2Ev=so_stub_for_libtelux_wlan
-Wl,--defsym=_ZNSt23_Sp_counted_ptr_inplaceIN5telux6common15ListenerManagerESaIS2_ELN9__gnu_cxx12_Lock_policyE2EE10_M_destroyEv=so_stub_for_libtelux_wlan
-Wl,--defsym=_ZNSt23_Sp_counted_ptr_inplaceIN5telux6common15ListenerManagerESaIS2_ELN9__gnu_cxx12_Lock_policyE2EE10_M_disposeEv=so_stub_for_libtelux_wlan
-Wl,--defsym=_ZNSt23_Sp_counted_ptr_inplaceIN5telux6common15ListenerManagerESaIS2_ELN9__gnu_cxx12_Lock_policyE2EE14_M_get_deleterERKSt9type_info=so_stub_for_libtelux_wlan
-Wl,--defsym=_ZNSt23_Sp_counted_ptr_inplaceIN5telux6common15ListenerManagerESaIS2_ELN9__gnu_cxx12_Lock_policyE2EED0Ev=so_stub_for_libtelux_wlan
-Wl,--defsym=_ZNSt23_Sp_counted_ptr_inplaceIN5telux6common15ListenerManagerESaIS2_ELN9__gnu_cxx12_Lock_policyE2EED1Ev=so_stub_for_libtelux_wlan
-Wl,--defsym=_ZNSt23_Sp_counted_ptr_inplaceIN5telux6common15ListenerManagerESaIS2_ELN9__gnu_cxx12_Lock_policyE2EED2Ev=so_stub_for_libtelux_wlan
-Wl,--defsym=_ZNSt23_Sp_counted_ptr_inplaceISt6threadSaIS0_ELN9__gnu_cxx12_Lock_policyE2EE10_M_destroyEv=so_stub_for_libtelux_wlan
-Wl,--defsym=_ZNSt23_Sp_counted_ptr_inplaceISt6threadSaIS0_ELN9__gnu_cxx12_Lock_policyE2EE10_M_disposeEv=so_stub_for_libtelux_wlan
-Wl,--defsym=_ZNSt23_Sp_counted_ptr_inplaceISt6threadSaIS0_ELN9__gnu_cxx12_Lock_policyE2EE14_M_get_deleterERKSt9type_info=so_stub_for_libtelux_wlan
-Wl,--defsym=_ZNSt23_Sp_counted_ptr_inplaceISt6threadSaIS0_ELN9__gnu_cxx12_Lock_policyE2EED0Ev=so_stub_for_libtelux_wlan
-Wl,--defsym=_ZNSt23_Sp_counted_ptr_inplaceISt6threadSaIS0_ELN9__gnu_cxx12_Lock_policyE2EED1Ev=so_stub_for_libtelux_wlan
-Wl,--defsym=_ZNSt23_Sp_counted_ptr_inplaceISt6threadSaIS0_ELN9__gnu_cxx12_Lock_policyE2EED2Ev=so_stub_for_libtelux_wlan
-Wl,--defsym=_ZNSt3mapI29qcmap_msgr_wlan_mode_enum_v01St4pairIiiESt4lessIS0_ESaIS1_IKS0_S2_EEEixEOS0_=so_stub_for_libtelux_wlan
-Wl,--defsym=_ZNSt3mapI31qcmap_msgr_device_type_enum_v01N5telux4wlan2IdESt4lessIS0_ESaISt4pairIKS0_S3_EEEixEOS0_=so_stub_for_libtelux_wlan
-Wl,--defsym=_ZNSt3mapI31qcmap_msgr_device_type_enum_v01N5telux4wlan2IdESt4lessIS0_ESaISt4pairIKS0_S3_EEEixERS7_=so_stub_for_libtelux_wlan
-Wl,--defsym=_ZNSt3mapI31qcmap_msgr_wlan_device_type_v01N5telux4wlan12HwDeviceTypeESt4lessIS0_ESaISt4pairIKS0_S3_EEEixEOS0_=so_stub_for_libtelux_wlan
-Wl,--defsym=_ZNSt3mapIN5telux4wlan12HwDeviceTypeESt4pairImmESt4lessIS2_ESaIS3_IKS2_S4_EEEixERS7_=so_stub_for_libtelux_wlan
-Wl,--defsym=_ZNSt3mapIN5telux4wlan12HwDeviceTypeESt4pairISt6vectorINS1_8ApStatusESaIS5_EES4_INS1_9StaStatusESaIS8_EEESt4lessIS2_ESaIS3_IKS2_SB_EEEixERSE_=so_stub_for_libtelux_wlan
-Wl,--defsym=_ZNSt5dequeISt13shared_futureIvESaIS1_EE13_M_insert_auxISt15_Deque_iteratorIS1_RKS1_PS6_EEEvS5_IS1_RS1_PS1_ET_SD_m=so_stub_for_libtelux_wlan
-Wl,--defsym=_ZNSt5dequeISt13shared_futureIvESaIS1_EE15_M_erase_at_endESt15_Deque_iteratorIS1_RS1_PS1_E=so_stub_for_libtelux_wlan
-Wl,--defsym=_ZNSt5dequeISt13shared_futureIvESaIS1_EE16_M_pop_front_auxEv=so_stub_for_libtelux_wlan
-Wl,--defsym=_ZNSt5dequeISt13shared_futureIvESaIS1_EE16_M_push_back_auxIJRKS1_EEEvDpOT_=so_stub_for_libtelux_wlan
-Wl,--defsym=_ZNSt5dequeISt13shared_futureIvESaIS1_EE17_M_reallocate_mapEmb=so_stub_for_libtelux_wlan
-Wl,--defsym=_ZNSt5dequeISt13shared_futureIvESaIS1_EE19_M_destroy_data_auxESt15_Deque_iteratorIS1_RS1_PS1_ES7_=so_stub_for_libtelux_wlan
-Wl,--defsym=_ZNSt5dequeISt13shared_futureIvESaIS1_EE19_M_range_insert_auxISt15_Deque_iteratorIS1_RKS1_PS6_EEEvS5_IS1_RS1_PS1_ET_SD_St20forward_iterator_tag=so_stub_for_libtelux_wlan
-Wl,--defsym=_ZNSt5dequeISt13shared_futureIvESaIS1_EE23_M_new_elements_at_backEm=so_stub_for_libtelux_wlan
-Wl,--defsym=_ZNSt5dequeISt13shared_futureIvESaIS1_EE24_M_new_elements_at_frontEm=so_stub_for_libtelux_wlan
-Wl,--defsym=_ZNSt5dequeISt13shared_futureIvESaIS1_EE8_M_eraseESt15_Deque_iteratorIS1_RS1_PS1_E=so_stub_for_libtelux_wlan
-Wl,--defsym=_ZNSt5dequeISt13shared_futureIvESaIS1_EEaSERKS3_=so_stub_for_libtelux_wlan
-Wl,--defsym=_ZNSt5dequeISt13shared_futureIvESaIS1_EED1Ev=so_stub_for_libtelux_wlan
-Wl,--defsym=_ZNSt5dequeISt13shared_futureIvESaIS1_EED2Ev=so_stub_for_libtelux_wlan
-Wl,--defsym=_ZNSt6thread11_State_implINS_8_InvokerISt5tupleIJMN5telux6common14AsyncTaskQueueIvEEFvvEPS6_EEEEE6_M_runEv=so_stub_for_libtelux_wlan
-Wl,--defsym=_ZNSt6thread11_State_implINS_8_InvokerISt5tupleIJMN5telux6common14AsyncTaskQueueIvEEFvvEPS6_EEEEED0Ev=so_stub_for_libtelux_wlan
-Wl,--defsym=_ZNSt6thread11_State_implINS_8_InvokerISt5tupleIJMN5telux6common14AsyncTaskQueueIvEEFvvEPS6_EEEEED1Ev=so_stub_for_libtelux_wlan
-Wl,--defsym=_ZNSt6thread11_State_implINS_8_InvokerISt5tupleIJMN5telux6common14AsyncTaskQueueIvEEFvvEPS6_EEEEED2Ev=so_stub_for_libtelux_wlan
-Wl,--defsym=_ZNSt6threadC1IMN5telux6common14AsyncTaskQueueIvEEFvvEJPS4_EvEEOT_DpOT0_=so_stub_for_libtelux_wlan
-Wl,--defsym=_ZNSt6threadC2IMN5telux6common14AsyncTaskQueueIvEEFvvEJPS4_EvEEOT_DpOT0_=so_stub_for_libtelux_wlan
-Wl,--defsym=_ZNSt6vectorIfSaIfEE17_M_realloc_insertIJRKfEEEvN9__gnu_cxx17__normal_iteratorIPfS1_EEDpOT_=so_stub_for_libtelux_wlan
-Wl,--defsym=_ZNSt6vectorIN5telux4wlan10DeviceInfoESaIS2_EE17_M_realloc_insertIJRKS2_EEEvN9__gnu_cxx17__normal_iteratorIPS2_S4_EEDpOT_=so_stub_for_libtelux_wlan
-Wl,--defsym=_ZNSt6vectorIN5telux4wlan11ApNetConfigESaIS2_EE17_M_realloc_insertIJRKS2_EEEvN9__gnu_cxx17__normal_iteratorIPS2_S4_EEDpOT_=so_stub_for_libtelux_wlan
-Wl,--defsym=_ZNSt6vectorIN5telux4wlan11ApNetConfigESaIS2_EE20_M_allocate_and_copyIN9__gnu_cxx17__normal_iteratorIPKS2_S4_EEEEPS2_mT_SC_=so_stub_for_libtelux_wlan
-Wl,--defsym=_ZNSt6vectorIN5telux4wlan11ApNetConfigESaIS2_EEaSERKS4_=so_stub_for_libtelux_wlan
-Wl,--defsym=_ZNSt6vectorIN5telux4wlan11ApNetConfigESaIS2_EEC1ERKS4_=so_stub_for_libtelux_wlan
-Wl,--defsym=_ZNSt6vectorIN5telux4wlan11ApNetConfigESaIS2_EEC2ERKS4_=so_stub_for_libtelux_wlan
-Wl,--defsym=_ZNSt6vectorIN5telux4wlan11ApNetConfigESaIS2_EED1Ev=so_stub_for_libtelux_wlan
-Wl,--defsym=_ZNSt6vectorIN5telux4wlan11ApNetConfigESaIS2_EED2Ev=so_stub_for_libtelux_wlan
-Wl,--defsym=_ZNSt6vectorIN5telux4wlan13DeviceIndInfoESaIS2_EE17_M_realloc_insertIJRKS2_EEEvN9__gnu_cxx17__normal_iteratorIPS2_S4_EEDpOT_=so_stub_for_libtelux_wlan
-Wl,--defsym=_ZNSt6vectorIN5telux4wlan13DeviceIndInfoESaIS2_EEC1ERKS4_=so_stub_for_libtelux_wlan
-Wl,--defsym=_ZNSt6vectorIN5telux4wlan13DeviceIndInfoESaIS2_EEC2ERKS4_=so_stub_for_libtelux_wlan
-Wl,--defsym=_ZNSt6vectorIN5telux4wlan13DeviceIndInfoESaIS2_EED1Ev=so_stub_for_libtelux_wlan
-Wl,--defsym=_ZNSt6vectorIN5telux4wlan13DeviceIndInfoESaIS2_EED2Ev=so_stub_for_libtelux_wlan
-Wl,--defsym=_ZNSt6vectorIN5telux4wlan15InterfaceStatusESaIS2_EE17_M_realloc_insertIJRKS2_EEEvN9__gnu_cxx17__normal_iteratorIPS2_S4_EEDpOT_=so_stub_for_libtelux_wlan
-Wl,--defsym=_ZNSt6vectorIN5telux4wlan8ApConfigESaIS2_EE17_M_realloc_insertIJRKS2_EEEvN9__gnu_cxx17__normal_iteratorIPS2_S4_EEDpOT_=so_stub_for_libtelux_wlan
-Wl,--defsym=_ZNSt6vectorIN5telux4wlan8ApConfigESaIS2_EE20_M_allocate_and_copyIN9__gnu_cxx17__normal_iteratorIPKS2_S4_EEEEPS2_mT_SC_=so_stub_for_libtelux_wlan
-Wl,--defsym=_ZNSt6vectorIN5telux4wlan8ApConfigESaIS2_EEaSERKS4_=so_stub_for_libtelux_wlan
-Wl,--defsym=_ZNSt6vectorIN5telux4wlan8ApStatusESaIS2_EE17_M_realloc_insertIJRKS2_EEEvN9__gnu_cxx17__normal_iteratorIPS2_S4_EEDpOT_=so_stub_for_libtelux_wlan
-Wl,--defsym=_ZNSt6vectorIN5telux4wlan8ApStatusESaIS2_EE20_M_allocate_and_copyIN9__gnu_cxx17__normal_iteratorIPKS2_S4_EEEEPS2_mT_SC_=so_stub_for_libtelux_wlan
-Wl,--defsym=_ZNSt6vectorIN5telux4wlan8ApStatusESaIS2_EEaSERKS4_=so_stub_for_libtelux_wlan
-Wl,--defsym=_ZNSt6vectorIN5telux4wlan8ApStatusESaIS2_EEC1ERKS4_=so_stub_for_libtelux_wlan
-Wl,--defsym=_ZNSt6vectorIN5telux4wlan8ApStatusESaIS2_EEC2ERKS4_=so_stub_for_libtelux_wlan
-Wl,--defsym=_ZNSt6vectorIN5telux4wlan8ApStatusESaIS2_EED1Ev=so_stub_for_libtelux_wlan
-Wl,--defsym=_ZNSt6vectorIN5telux4wlan8ApStatusESaIS2_EED2Ev=so_stub_for_libtelux_wlan
-Wl,--defsym=_ZNSt6vectorIN5telux4wlan9ApNetInfoESaIS2_EE17_M_realloc_insertIJRKS2_EEEvN9__gnu_cxx17__normal_iteratorIPS2_S4_EEDpOT_=so_stub_for_libtelux_wlan
-Wl,--defsym=_ZNSt6vectorIN5telux4wlan9ApNetInfoESaIS2_EE20_M_allocate_and_copyIN9__gnu_cxx17__normal_iteratorIPKS2_S4_EEEEPS2_mT_SC_=so_stub_for_libtelux_wlan
-Wl,--defsym=_ZNSt6vectorIN5telux4wlan9ApNetInfoESaIS2_EEaSERKS4_=so_stub_for_libtelux_wlan
-Wl,--defsym=_ZNSt6vectorIN5telux4wlan9ApNetInfoESaIS2_EEC1ERKS4_=so_stub_for_libtelux_wlan
-Wl,--defsym=_ZNSt6vectorIN5telux4wlan9ApNetInfoESaIS2_EEC2ERKS4_=so_stub_for_libtelux_wlan
-Wl,--defsym=_ZNSt6vectorIN5telux4wlan9StaConfigESaIS2_EE17_M_realloc_insertIJRKS2_EEEvN9__gnu_cxx17__normal_iteratorIPS2_S4_EEDpOT_=so_stub_for_libtelux_wlan
-Wl,--defsym=_ZNSt6vectorIN5telux4wlan9StaConfigESaIS2_EE20_M_allocate_and_copyIN9__gnu_cxx17__normal_iteratorIPKS2_S4_EEEEPS2_mT_SC_=so_stub_for_libtelux_wlan
-Wl,--defsym=_ZNSt6vectorIN5telux4wlan9StaConfigESaIS2_EEaSERKS4_=so_stub_for_libtelux_wlan
-Wl,--defsym=_ZNSt6vectorIN5telux4wlan9StaStatusESaIS2_EE17_M_realloc_insertIJRKS2_EEEvN9__gnu_cxx17__normal_iteratorIPS2_S4_EEDpOT_=so_stub_for_libtelux_wlan
-Wl,--defsym=_ZNSt6vectorIN5telux4wlan9StaStatusESaIS2_EE20_M_allocate_and_copyIN9__gnu_cxx17__normal_iteratorIPKS2_S4_EEEEPS2_mT_SC_=so_stub_for_libtelux_wlan
-Wl,--defsym=_ZNSt6vectorIN5telux4wlan9StaStatusESaIS2_EEaSERKS4_=so_stub_for_libtelux_wlan
-Wl,--defsym=_ZNSt6vectorIN5telux4wlan9StaStatusESaIS2_EEC1ERKS4_=so_stub_for_libtelux_wlan
-Wl,--defsym=_ZNSt6vectorIN5telux4wlan9StaStatusESaIS2_EEC2ERKS4_=so_stub_for_libtelux_wlan
-Wl,--defsym=_ZNSt6vectorIN5telux4wlan9StaStatusESaIS2_EED1Ev=so_stub_for_libtelux_wlan
-Wl,--defsym=_ZNSt6vectorIN5telux4wlan9StaStatusESaIS2_EED2Ev=so_stub_for_libtelux_wlan
-Wl,--defsym=_ZNSt6vectorINSt7__cxx1112basic_stringIcSt11char_traitsIcESaIcEEESaIS5_EE17_M_realloc_insertIJRKS5_EEEvN9__gnu_cxx17__normal_iteratorIPS5_S7_EEDpOT_=so_stub_for_libtelux_wlan
-Wl,--defsym=_ZNSt6vectorINSt7__cxx1112basic_stringIcSt11char_traitsIcESaIcEEESaIS5_EE17_M_realloc_insertIJS5_EEEvN9__gnu_cxx17__normal_iteratorIPS5_S7_EEDpOT_=so_stub_for_libtelux_wlan
-Wl,--defsym=_ZNSt6vectorINSt7__cxx1112basic_stringIcSt11char_traitsIcESaIcEEESaIS5_EEC1ERKS7_=so_stub_for_libtelux_wlan
-Wl,--defsym=_ZNSt6vectorINSt7__cxx1112basic_stringIcSt11char_traitsIcESaIcEEESaIS5_EEC2ERKS7_=so_stub_for_libtelux_wlan
-Wl,--defsym=_ZNSt6vectorINSt7__cxx1112basic_stringIcSt11char_traitsIcESaIcEEESaIS5_EED1Ev=so_stub_for_libtelux_wlan
-Wl,--defsym=_ZNSt6vectorINSt7__cxx1112basic_stringIcSt11char_traitsIcESaIcEEESaIS5_EED2Ev=so_stub_for_libtelux_wlan
-Wl,--defsym=_ZNSt6vectorISt8functionIFvN5telux6common13ServiceStatusEEESaIS5_EE17_M_realloc_insertIJRKS5_EEEvN9__gnu_cxx17__normal_iteratorIPS5_S7_EEDpOT_=so_stub_for_libtelux_wlan
-Wl,--defsym=_ZNSt6vectorISt8functionIFvN5telux6common13ServiceStatusEEESaIS5_EE20_M_allocate_and_copyIN9__gnu_cxx17__normal_iteratorIPKS5_S7_EEEEPS5_mT_SF_=so_stub_for_libtelux_wlan
-Wl,--defsym=_ZNSt6vectorISt8functionIFvN5telux6common13ServiceStatusEEESaIS5_EE9push_backERKS5_=so_stub_for_libtelux_wlan
-Wl,--defsym=_ZNSt6vectorISt8functionIFvN5telux6common13ServiceStatusEEESaIS5_EEaSERKS7_=so_stub_for_libtelux_wlan
-Wl,--defsym=_ZNSt6vectorISt8functionIFvN5telux6common13ServiceStatusEEESaIS5_EED1Ev=so_stub_for_libtelux_wlan
-Wl,--defsym=_ZNSt6vectorISt8functionIFvN5telux6common13ServiceStatusEEESaIS5_EED2Ev=so_stub_for_libtelux_wlan
-Wl,--defsym=_ZNSt6vectorISt8weak_ptrIN5telux6common12ISDKListenerEESaIS4_EE12emplace_backIJRS4_EEEvDpOT_=so_stub_for_libtelux_wlan
-Wl,--defsym=_ZNSt6vectorISt8weak_ptrIN5telux6common12ISDKListenerEESaIS4_EE12emplace_backIJRSt10shared_ptrIS3_EEEEvDpOT_=so_stub_for_libtelux_wlan
-Wl,--defsym=_ZNSt6vectorISt8weak_ptrIN5telux6common12ISDKListenerEESaIS4_EE17_M_realloc_insertIJRS4_EEEvN9__gnu_cxx17__normal_iteratorIPS4_S6_EEDpOT_=so_stub_for_libtelux_wlan
-Wl,--defsym=_ZNSt6vectorISt8weak_ptrIN5telux6common12ISDKListenerEESaIS4_EE17_M_realloc_insertIJRSt10shared_ptrIS3_EEEEvN9__gnu_cxx17__normal_iteratorIPS4_S6_EEDpOT_=so_stub_for_libtelux_wlan
-Wl,--defsym=_ZNSt6vectorISt8weak_ptrIN5telux6common12ISDKListenerEESaIS4_EE8_M_eraseEN9__gnu_cxx17__normal_iteratorIPS4_S6_EE=so_stub_for_libtelux_wlan
-Wl,--defsym=_ZNSt6vectorISt8weak_ptrIN5telux6common12ISDKListenerEESaIS4_EED1Ev=so_stub_for_libtelux_wlan
-Wl,--defsym=_ZNSt6vectorISt8weak_ptrIN5telux6common12ISDKListenerEESaIS4_EED2Ev=so_stub_for_libtelux_wlan
-Wl,--defsym=_ZNSt7__cxx1112basic_stringIcSt11char_traitsIcESaIcEE12_M_constructIPcEEvT_S7_St20forward_iterator_tag=so_stub_for_libtelux_wlan
-Wl,--defsym=_ZNSt7__cxx1112basic_stringIcSt11char_traitsIcESaIcEE12_M_constructIPKcEEvT_S8_St20forward_iterator_tag=so_stub_for_libtelux_wlan
-Wl,--defsym=_ZNSt7__cxx1115basic_stringbufIcSt11char_traitsIcESaIcEED0Ev=so_stub_for_libtelux_wlan
-Wl,--defsym=_ZNSt7__cxx1115basic_stringbufIcSt11char_traitsIcESaIcEED1Ev=so_stub_for_libtelux_wlan
-Wl,--defsym=_ZNSt7__cxx1115basic_stringbufIcSt11char_traitsIcESaIcEED2Ev=so_stub_for_libtelux_wlan
-Wl,--defsym=_ZNSt8functionIFvN5telux6common13ServiceStatusEEEaSERKS4_=so_stub_for_libtelux_wlan
-Wl,--defsym=_ZNSt8_Rb_treeI29qcmap_msgr_wlan_mode_enum_v01St4pairIKS0_S1_IiiEESt10_Select1stIS4_ESt4lessIS0_ESaIS4_EE14_M_lower_boundEPSt13_Rb_tree_nodeIS4_EPSt18_Rb_tree_node_baseRS2_=so_stub_for_libtelux_wlan
-Wl,--defsym=_ZNSt8_Rb_treeI29qcmap_msgr_wlan_mode_enum_v01St4pairIKS0_S1_IiiEESt10_Select1stIS4_ESt4lessIS0_ESaIS4_EE22_M_emplace_hint_uniqueIJRKSt21piecewise_construct_tSt5tupleIJOS0_EESF_IJEEEEESt17_Rb_tree_iteratorIS4_ESt23_Rb_tree_const_iteratorIS4_EDpOT_=so_stub_for_libtelux_wlan
-Wl,--defsym=_ZNSt8_Rb_treeI29qcmap_msgr_wlan_mode_enum_v01St4pairIKS0_S1_IiiEESt10_Select1stIS4_ESt4lessIS0_ESaIS4_EE24_M_get_insert_unique_posERS2_=so_stub_for_libtelux_wlan
-Wl,--defsym=_ZNSt8_Rb_treeI29qcmap_msgr_wlan_mode_enum_v01St4pairIKS0_S1_IiiEESt10_Select1stIS4_ESt4lessIS0_ESaIS4_EE29_M_get_insert_hint_unique_posESt23_Rb_tree_const_iteratorIS4_ERS2_=so_stub_for_libtelux_wlan
-Wl,--defsym=_ZNSt8_Rb_treeI29qcmap_msgr_wlan_mode_enum_v01St4pairIKS0_S1_IiiEESt10_Select1stIS4_ESt4lessIS0_ESaIS4_EE8_M_eraseEPSt13_Rb_tree_nodeIS4_E=so_stub_for_libtelux_wlan
-Wl,--defsym=_ZNSt8_Rb_treeI31qcmap_msgr_device_type_enum_v01St4pairIKS0_N5telux4wlan2IdEESt10_Select1stIS6_ESt4lessIS0_ESaIS6_EE14_M_insert_nodeEPSt18_Rb_tree_node_baseSE_PSt13_Rb_tree_nodeIS6_E=so_stub_for_libtelux_wlan
-Wl,--defsym=_ZNSt8_Rb_treeI31qcmap_msgr_device_type_enum_v01St4pairIKS0_N5telux4wlan2IdEESt10_Select1stIS6_ESt4lessIS0_ESaIS6_EE14_M_lower_boundEPSt13_Rb_tree_nodeIS6_EPSt18_Rb_tree_node_baseRS2_=so_stub_for_libtelux_wlan
-Wl,--defsym=_ZNSt8_Rb_treeI31qcmap_msgr_device_type_enum_v01St4pairIKS0_N5telux4wlan2IdEESt10_Select1stIS6_ESt4lessIS0_ESaIS6_EE22_M_emplace_hint_uniqueIJRKSt21piecewise_construct_tSt5tupleIJOS0_EESH_IJEEEEESt17_Rb_tree_iteratorIS6_ESt23_Rb_tree_const_iteratorIS6_EDpOT_=so_stub_for_libtelux_wlan
-Wl,--defsym=_ZNSt8_Rb_treeI31qcmap_msgr_device_type_enum_v01St4pairIKS0_N5telux4wlan2IdEESt10_Select1stIS6_ESt4lessIS0_ESaIS6_EE22_M_emplace_hint_uniqueIJRKSt21piecewise_construct_tSt5tupleIJRS2_EESH_IJEEEEESt17_Rb_tree_iteratorIS6_ESt23_Rb_tree_const_iteratorIS6_EDpOT_=so_stub_for_libtelux_wlan
-Wl,--defsym=_ZNSt8_Rb_treeI31qcmap_msgr_device_type_enum_v01St4pairIKS0_N5telux4wlan2IdEESt10_Select1stIS6_ESt4lessIS0_ESaIS6_EE24_M_get_insert_unique_posERS2_=so_stub_for_libtelux_wlan
-Wl,--defsym=_ZNSt8_Rb_treeI31qcmap_msgr_device_type_enum_v01St4pairIKS0_N5telux4wlan2IdEESt10_Select1stIS6_ESt4lessIS0_ESaIS6_EE29_M_get_insert_hint_unique_posESt23_Rb_tree_const_iteratorIS6_ERS2_=so_stub_for_libtelux_wlan
-Wl,--defsym=_ZNSt8_Rb_treeI31qcmap_msgr_device_type_enum_v01St4pairIKS0_N5telux4wlan2IdEESt10_Select1stIS6_ESt4lessIS0_ESaIS6_EE8_M_eraseEPSt13_Rb_tree_nodeIS6_E=so_stub_for_libtelux_wlan
-Wl,--defsym=_ZNSt8_Rb_treeI31qcmap_msgr_wlan_device_type_v01St4pairIKS0_N5telux4wlan12HwDeviceTypeEESt10_Select1stIS6_ESt4lessIS0_ESaIS6_EE14_M_lower_boundEPSt13_Rb_tree_nodeIS6_EPSt18_Rb_tree_node_baseRS2_=so_stub_for_libtelux_wlan
-Wl,--defsym=_ZNSt8_Rb_treeI31qcmap_msgr_wlan_device_type_v01St4pairIKS0_N5telux4wlan12HwDeviceTypeEESt10_Select1stIS6_ESt4lessIS0_ESaIS6_EE22_M_emplace_hint_uniqueIJRKSt21piecewise_construct_tSt5tupleIJOS0_EESH_IJEEEEESt17_Rb_tree_iteratorIS6_ESt23_Rb_tree_const_iteratorIS6_EDpOT_=so_stub_for_libtelux_wlan
-Wl,--defsym=_ZNSt8_Rb_treeI31qcmap_msgr_wlan_device_type_v01St4pairIKS0_N5telux4wlan12HwDeviceTypeEESt10_Select1stIS6_ESt4lessIS0_ESaIS6_EE24_M_get_insert_unique_posERS2_=so_stub_for_libtelux_wlan
-Wl,--defsym=_ZNSt8_Rb_treeI31qcmap_msgr_wlan_device_type_v01St4pairIKS0_N5telux4wlan12HwDeviceTypeEESt10_Select1stIS6_ESt4lessIS0_ESaIS6_EE29_M_get_insert_hint_unique_posESt23_Rb_tree_const_iteratorIS6_ERS2_=so_stub_for_libtelux_wlan
-Wl,--defsym=_ZNSt8_Rb_treeI31qcmap_msgr_wlan_device_type_v01St4pairIKS0_N5telux4wlan12HwDeviceTypeEESt10_Select1stIS6_ESt4lessIS0_ESaIS6_EE8_M_eraseEPSt13_Rb_tree_nodeIS6_E=so_stub_for_libtelux_wlan
-Wl,--defsym=_ZNSt8_Rb_treeIjSt4pairIKjSt3setISt8weak_ptrIN5telux6common12ISDKListenerEENS5_15ListenerManager12SetPredicateESaIS7_EEESt10_Select1stISC_ESt4lessIjESaISC_EE8_M_eraseEPSt13_Rb_tree_nodeISC_E=so_stub_for_libtelux_wlan
-Wl,--defsym=_ZNSt8_Rb_treeIN5telux4wlan12HwDeviceTypeESt4pairIKS2_S3_ImmEESt10_Select1stIS6_ESt4lessIS2_ESaIS6_EE22_M_emplace_hint_uniqueIJRKSt21piecewise_construct_tSt5tupleIJRS4_EESH_IJEEEEESt17_Rb_tree_iteratorIS6_ESt23_Rb_tree_const_iteratorIS6_EDpOT_=so_stub_for_libtelux_wlan
-Wl,--defsym=_ZNSt8_Rb_treeIN5telux4wlan12HwDeviceTypeESt4pairIKS2_S3_ImmEESt10_Select1stIS6_ESt4lessIS2_ESaIS6_EE24_M_get_insert_unique_posERS4_=so_stub_for_libtelux_wlan
-Wl,--defsym=_ZNSt8_Rb_treeIN5telux4wlan12HwDeviceTypeESt4pairIKS2_S3_ImmEESt10_Select1stIS6_ESt4lessIS2_ESaIS6_EE29_M_get_insert_hint_unique_posESt23_Rb_tree_const_iteratorIS6_ERS4_=so_stub_for_libtelux_wlan
-Wl,--defsym=_ZNSt8_Rb_treeIN5telux4wlan12HwDeviceTypeESt4pairIKS2_S3_ImmEESt10_Select1stIS6_ESt4lessIS2_ESaIS6_EE8_M_eraseEPSt13_Rb_tree_nodeIS6_E=so_stub_for_libtelux_wlan
-Wl,--defsym=_ZNSt8_Rb_treeIN5telux4wlan12HwDeviceTypeESt4pairIKS2_S3_ISt6vectorINS1_8ApStatusESaIS6_EES5_INS1_9StaStatusESaIS9_EEEESt10_Select1stISD_ESt4lessIS2_ESaISD_EE22_M_emplace_hint_uniqueIJRKSt21piecewise_construct_tSt5tupleIJRS4_EESO_IJEEEEESt17_Rb_tree_iteratorISD_ESt23_Rb_tree_const_iteratorISD_EDpOT_=so_stub_for_libtelux_wlan
-Wl,--defsym=_ZNSt8_Rb_treeIN5telux4wlan12HwDeviceTypeESt4pairIKS2_S3_ISt6vectorINS1_8ApStatusESaIS6_EES5_INS1_9StaStatusESaIS9_EEEESt10_Select1stISD_ESt4lessIS2_ESaISD_EE24_M_get_insert_unique_posERS4_=so_stub_for_libtelux_wlan
-Wl,--defsym=_ZNSt8_Rb_treeIN5telux4wlan12HwDeviceTypeESt4pairIKS2_S3_ISt6vectorINS1_8ApStatusESaIS6_EES5_INS1_9StaStatusESaIS9_EEEESt10_Select1stISD_ESt4lessIS2_ESaISD_EE29_M_get_insert_hint_unique_posESt23_Rb_tree_const_iteratorISD_ERS4_=so_stub_for_libtelux_wlan
-Wl,--defsym=_ZNSt8_Rb_treeIN5telux4wlan12HwDeviceTypeESt4pairIKS2_S3_ISt6vectorINS1_8ApStatusESaIS6_EES5_INS1_9StaStatusESaIS9_EEEESt10_Select1stISD_ESt4lessIS2_ESaISD_EE8_M_eraseEPSt13_Rb_tree_nodeISD_E=so_stub_for_libtelux_wlan
-Wl,--defsym=_ZNSt8_Rb_treeISt8weak_ptrIN5telux6common12ISDKListenerEES4_St9_IdentityIS4_ENS2_15ListenerManager12SetPredicateESaIS4_EE8_M_eraseEPSt13_Rb_tree_nodeIS4_E=so_stub_for_libtelux_wlan
-Wl,--defsym=_ZSt10__invoke_rIvRSt5_BindIFMN5telux4wlan15WlanFactoryImplEFvNS1_6common13ServiceStatusEEPS3_St12_PlaceholderILi1EEEEJS5_EENSt9enable_ifIXsrSt6__and_IJSt7is_voidIT_ESt14__is_invocableIT0_JDpT1_EEEE5valueESH_E4typeEOSK_DpOSL_=so_stub_for_libtelux_wlan
-Wl,--defsym=_ZSt13__copy_move_aILb0EN9__gnu_cxx17__normal_iteratorIPKN5telux4wlan8ApConfigESt6vectorIS4_SaIS4_EEEENS1_IPS4_S9_EEET1_T0_SE_SD_=so_stub_for_libtelux_wlan
-Wl,--defsym=_ZSt13__copy_move_aILb0EN9__gnu_cxx17__normal_iteratorIPKN5telux4wlan8ApStatusESt6vectorIS4_SaIS4_EEEENS1_IPS4_S9_EEET1_T0_SE_SD_=so_stub_for_libtelux_wlan
-Wl,--defsym=_ZSt13__copy_move_aILb0EN9__gnu_cxx17__normal_iteratorIPKN5telux4wlan9StaConfigESt6vectorIS4_SaIS4_EEEENS1_IPS4_S9_EEET1_T0_SE_SD_=so_stub_for_libtelux_wlan
-Wl,--defsym=_ZSt13__copy_move_aILb0EN9__gnu_cxx17__normal_iteratorIPKN5telux4wlan9StaStatusESt6vectorIS4_SaIS4_EEEENS1_IPS4_S9_EEET1_T0_SE_SD_=so_stub_for_libtelux_wlan
-Wl,--defsym=_ZSt13__copy_move_aILb0EN9__gnu_cxx17__normal_iteratorIPKSt8functionIFvN5telux6common13ServiceStatusEEESt6vectorIS7_SaIS7_EEEENS1_IPS7_SC_EEET1_T0_SH_SG_=so_stub_for_libtelux_wlan
-Wl,--defsym=_ZSt13__copy_move_aILb1EN9__gnu_cxx17__normal_iteratorIPSt8weak_ptrIN5telux6common12ISDKListenerEESt6vectorIS6_SaIS6_EEEESB_ET1_T0_SD_SC_=so_stub_for_libtelux_wlan
-Wl,--defsym=_ZSt13move_backwardISt15_Deque_iteratorISt13shared_futureIvERS2_PS2_ES5_ET0_T_S7_S6_=so_stub_for_libtelux_wlan
-Wl,--defsym=_ZSt14__copy_move_a1ILb0EPSt13shared_futureIvES1_EN9__gnu_cxx11__enable_ifIXsrSt23__is_random_access_iterIT0_NSt15iterator_traitsIS6_E17iterator_categoryEE7__valueESt15_Deque_iteratorIT1_RSC_PSC_EE6__typeES6_S6_SF_=so_stub_for_libtelux_wlan
-Wl,--defsym=_ZSt14__copy_move_a1ILb0ESt13shared_futureIvERKS1_PS2_S1_ESt15_Deque_iteratorIT3_RS6_PS6_ES5_IT0_T1_T2_ESD_S9_=so_stub_for_libtelux_wlan
-Wl,--defsym=_ZSt14__copy_move_a1ILb1EPSt13shared_futureIvES1_EN9__gnu_cxx11__enable_ifIXsrSt23__is_random_access_iterIT0_NSt15iterator_traitsIS6_E17iterator_categoryEE7__valueESt15_Deque_iteratorIT1_RSC_PSC_EE6__typeES6_S6_SF_=so_stub_for_libtelux_wlan
-Wl,--defsym=_ZSt14__copy_move_a1ILb1ESt13shared_futureIvERS1_PS1_S1_ESt15_Deque_iteratorIT3_RS5_PS5_ES4_IT0_T1_T2_ESC_S8_=so_stub_for_libtelux_wlan
-Wl,--defsym=_ZSt14__relocate_a_1IPN5telux4wlan10DeviceInfoES3_SaIS2_EET0_T_S6_S5_RT1_=so_stub_for_libtelux_wlan
-Wl,--defsym=_ZSt14__relocate_a_1IPN5telux4wlan11ApNetConfigES3_SaIS2_EET0_T_S6_S5_RT1_=so_stub_for_libtelux_wlan
-Wl,--defsym=_ZSt14__relocate_a_1IPN5telux4wlan8ApStatusES3_SaIS2_EET0_T_S6_S5_RT1_=so_stub_for_libtelux_wlan
-Wl,--defsym=_ZSt14__relocate_a_1IPN5telux4wlan9StaStatusES3_SaIS2_EET0_T_S6_S5_RT1_=so_stub_for_libtelux_wlan
-Wl,--defsym=_ZSt18make_exception_ptrISt12future_errorENSt15__exception_ptr13exception_ptrET_=so_stub_for_libtelux_wlan
-Wl,--defsym=_ZSt18uninitialized_copyISt13move_iteratorISt15_Deque_iteratorISt13shared_futureIvERS3_PS3_EES6_ET0_T_S9_S8_=so_stub_for_libtelux_wlan
-Wl,--defsym=_ZSt19__relocate_object_aIN5telux4wlan9StaConfigES2_SaIS2_EEvPT_PT0_RT1_=so_stub_for_libtelux_wlan
-Wl,--defsym=_ZSt20dynamic_pointer_castIN5telux4wlan16IWlanQcmListenerENS0_6common12ISDKListenerEESt10shared_ptrIT_ERKS5_IT0_E=so_stub_for_libtelux_wlan
-Wl,--defsym=_ZSt22__uninitialized_copy_aISt15_Deque_iteratorISt13shared_futureIvERKS2_PS3_ES0_IS2_RS2_PS2_ES2_ET0_T_SB_SA_RSaIT1_E=so_stub_for_libtelux_wlan
-Wl,--defsym=_ZSt22__uninitialized_move_aISt15_Deque_iteratorISt13shared_futureIvERS2_PS2_ES5_SaIS2_EET0_T_S8_S7_RT1_=so_stub_for_libtelux_wlan
-Wl,--defsym=_ZSt23__copy_move_backward_a1ILb1EPSt13shared_futureIvES1_EN9__gnu_cxx11__enable_ifIXsrSt23__is_random_access_iterIT0_NSt15iterator_traitsIS6_E17iterator_categoryEE7__valueESt15_Deque_iteratorIT1_RSC_PSC_EE6__typeES6_S6_SF_=so_stub_for_libtelux_wlan
-Wl,--defsym=_ZSt23__copy_move_backward_a1ILb1ESt13shared_futureIvERS1_PS1_S1_ESt15_Deque_iteratorIT3_RS5_PS5_ES4_IT0_T1_T2_ESC_S8_=so_stub_for_libtelux_wlan
-Wl,--defsym=_ZSt4copyISt15_Deque_iteratorISt13shared_futureIvERKS2_PS3_ES0_IS2_RS2_PS2_EET0_T_SB_SA_=so_stub_for_libtelux_wlan
-Wl,--defsym=_ZSt4moveISt15_Deque_iteratorISt13shared_futureIvERS2_PS2_ES5_ET0_T_S7_S6_=so_stub_for_libtelux_wlan
-Wl,--defsym=_ZSt7find_ifIN9__gnu_cxx17__normal_iteratorIPSt8weak_ptrIN5telux6common12ISDKListenerEESt6vectorIS6_SaIS6_EEEEZNS4_15ListenerManager16registerListenerES6_EUlS6_E_ET_SE_SE_T0_=so_stub_for_libtelux_wlan
-Wl,--defsym=_ZSt9__advanceISt15_Deque_iteratorISt13shared_futureIvERKS2_PS3_ElEvRT_T0_St26random_access_iterator_tag=so_stub_for_libtelux_wlan
-Wl,--defsym=_ZSt9__find_ifIN9__gnu_cxx17__normal_iteratorIPSt8weak_ptrIN5telux6common12ISDKListenerEESt6vectorIS6_SaIS6_EEEENS0_5__ops10_Iter_predIZNS4_15ListenerManager16registerListenerES6_EUlS6_E_EEET_SH_SH_T0_St26random_access_iterator_tag=so_stub_for_libtelux_wlan
-Wl,--defsym=_ZSteqRKSt10error_codeRKSt15error_condition=so_stub_for_libtelux_wlan
-Wl,--defsym=_ZThn8_N5telux4wlan21WlanDeviceManagerImpl13onTempCrossedEfNS0_15DevicePerfStateE=so_stub_for_libtelux_wlan
-Wl,--defsym=_ZThn8_N5telux4wlan21WlanDeviceManagerImpl15onEnableChangedEb=so_stub_for_libtelux_wlan
-Wl,--defsym=_ZThn8_N5telux4wlan21WlanDeviceManagerImpl21onServiceStatusChangeENS_6common13ServiceStatusE=so_stub_for_libtelux_wlan
-Wl,--defsym=_ZThn8_N5telux4wlan21WlanDeviceManagerImplD0Ev=so_stub_for_libtelux_wlan
-Wl,--defsym=_ZThn8_N5telux4wlan21WlanDeviceManagerImplD1Ev=so_stub_for_libtelux_wlan
-Wl,--defsym=_ZThn8_N5telux4wlan22ApInterfaceManagerImpl15onApBandChangedENS0_8BandTypeE=so_stub_for_libtelux_wlan
-Wl,--defsym=_ZThn8_N5telux4wlan22ApInterfaceManagerImpl17onApConfigChangedENS0_2IdE=so_stub_for_libtelux_wlan
-Wl,--defsym=_ZThn8_N5telux4wlan22ApInterfaceManagerImpl21onServiceStatusChangeENS_6common13ServiceStatusE=so_stub_for_libtelux_wlan
-Wl,--defsym=_ZThn8_N5telux4wlan22ApInterfaceManagerImpl23onApDeviceStatusChangedENS0_23ApDeviceConnectionEventESt6vectorINS0_13DeviceIndInfoESaIS4_EE=so_stub_for_libtelux_wlan
-Wl,--defsym=_ZThn8_N5telux4wlan22ApInterfaceManagerImplD0Ev=so_stub_for_libtelux_wlan
-Wl,--defsym=_ZThn8_N5telux4wlan22ApInterfaceManagerImplD1Ev=so_stub_for_libtelux_wlan
-Wl,--defsym=_ZThn8_N5telux4wlan23StaInterfaceManagerImpl20onStationBandChangedENS0_8BandTypeE=so_stub_for_libtelux_wlan
-Wl,--defsym=_ZThn8_N5telux4wlan23StaInterfaceManagerImpl21onServiceStatusChangeENS_6common13ServiceStatusE=so_stub_for_libtelux_wlan
-Wl,--defsym=_ZThn8_N5telux4wlan23StaInterfaceManagerImpl22onStationStatusChangedESt6vectorINS0_9StaStatusESaIS3_EE=so_stub_for_libtelux_wlan
-Wl,--defsym=_ZThn8_N5telux4wlan23StaInterfaceManagerImplD0Ev=so_stub_for_libtelux_wlan
-Wl,--defsym=_ZThn8_N5telux4wlan23StaInterfaceManagerImplD1Ev=so_stub_for_libtelux_wlan
-Wl,--defsym=_ZTIN5telux4wlan11IApListenerE=so_stub_for_libtelux_wlan
-Wl,--defsym=_ZTIN5telux4wlan11WlanFactoryE=so_stub_for_libtelux_wlan
-Wl,--defsym=_ZTIN5telux4wlan12IStaListenerE=so_stub_for_libtelux_wlan
-Wl,--defsym=_ZTIN5telux4wlan13IWlanListenerE=so_stub_for_libtelux_wlan
-Wl,--defsym=_ZTIN5telux4wlan15WlanFactoryImplE=so_stub_for_libtelux_wlan
-Wl,--defsym=_ZTIN5telux4wlan16IWlanQcmListenerE=so_stub_for_libtelux_wlan
-Wl,--defsym=_ZTIN5telux4wlan18IWlanDeviceManagerE=so_stub_for_libtelux_wlan
-Wl,--defsym=_ZTIN5telux4wlan19IApInterfaceManagerE=so_stub_for_libtelux_wlan
-Wl,--defsym=_ZTIN5telux4wlan20IStaInterfaceManagerE=so_stub_for_libtelux_wlan
-Wl,--defsym=_ZTIN5telux4wlan21WlanDeviceManagerImplE=so_stub_for_libtelux_wlan
-Wl,--defsym=_ZTIN5telux4wlan22ApInterfaceManagerImplE=so_stub_for_libtelux_wlan
-Wl,--defsym=_ZTIN5telux4wlan23StaInterfaceManagerImplE=so_stub_for_libtelux_wlan
-Wl,--defsym=_ZTIN5telux6common12ISDKListenerE=so_stub_for_libtelux_wlan
-Wl,--defsym=_ZTINSt13__future_base13_State_baseV2E=so_stub_for_libtelux_wlan
-Wl,--defsym=_ZTINSt13__future_base21_Async_state_commonV2E=so_stub_for_libtelux_wlan
-Wl,--defsym=_ZTINSt13__future_base7_ResultIvEE=so_stub_for_libtelux_wlan
-Wl,--defsym=_ZTINSt6thread11_State_implINS_8_InvokerISt5tupleIJMN5telux6common14AsyncTaskQueueIvEEFvvEPS6_EEEEEE=so_stub_for_libtelux_wlan
-Wl,--defsym=_ZTISt11_Mutex_baseILN9__gnu_cxx12_Lock_policyE2EE=so_stub_for_libtelux_wlan
-Wl,--defsym=_ZTISt15_Sp_counted_ptrIPN5telux4wlan13WlanQcmClientELN9__gnu_cxx12_Lock_policyE2EE=so_stub_for_libtelux_wlan
-Wl,--defsym=_ZTISt16_Sp_counted_baseILN9__gnu_cxx12_Lock_policyE2EE=so_stub_for_libtelux_wlan
-Wl,--defsym=_ZTISt17_Weak_result_typeIMN5telux4wlan15WlanFactoryImplEFvNS0_6common13ServiceStatusEEE=so_stub_for_libtelux_wlan
-Wl,--defsym=_ZTISt23enable_shared_from_thisIN5telux4wlan21WlanDeviceManagerImplEE=so_stub_for_libtelux_wlan
-Wl,--defsym=_ZTISt23enable_shared_from_thisIN5telux4wlan22ApInterfaceManagerImplEE=so_stub_for_libtelux_wlan
-Wl,--defsym=_ZTISt23enable_shared_from_thisIN5telux4wlan23StaInterfaceManagerImplEE=so_stub_for_libtelux_wlan
-Wl,--defsym=_ZTISt23_Sp_counted_ptr_inplaceI12QCMAP_ClientSaIS0_ELN9__gnu_cxx12_Lock_policyE2EE=so_stub_for_libtelux_wlan
-Wl,--defsym=_ZTISt23_Sp_counted_ptr_inplaceIN5telux4wlan21WlanDeviceManagerImplESaIS2_ELN9__gnu_cxx12_Lock_policyE2EE=so_stub_for_libtelux_wlan
-Wl,--defsym=_ZTISt23_Sp_counted_ptr_inplaceIN5telux4wlan22ApInterfaceManagerImplESaIS2_ELN9__gnu_cxx12_Lock_policyE2EE=so_stub_for_libtelux_wlan
-Wl,--defsym=_ZTISt23_Sp_counted_ptr_inplaceIN5telux4wlan23StaInterfaceManagerImplESaIS2_ELN9__gnu_cxx12_Lock_policyE2EE=so_stub_for_libtelux_wlan
-Wl,--defsym=_ZTISt23_Sp_counted_ptr_inplaceIN5telux6common14AsyncTaskQueueIvEESaIS3_ELN9__gnu_cxx12_Lock_policyE2EE=so_stub_for_libtelux_wlan
-Wl,--defsym=_ZTISt23_Sp_counted_ptr_inplaceIN5telux6common15ListenerManagerESaIS2_ELN9__gnu_cxx12_Lock_policyE2EE=so_stub_for_libtelux_wlan
-Wl,--defsym=_ZTISt23_Sp_counted_ptr_inplaceISt6threadSaIS0_ELN9__gnu_cxx12_Lock_policyE2EE=so_stub_for_libtelux_wlan
-Wl,--defsym=_ZTISt24_Weak_result_type_memfunIMN5telux4wlan15WlanFactoryImplEFvNS0_6common13ServiceStatusEELb1EE=so_stub_for_libtelux_wlan
-Wl,--defsym=_ZTISt5_BindIFMN5telux4wlan15WlanFactoryImplEFvNS0_6common13ServiceStatusEEPS2_St12_PlaceholderILi1EEEE=so_stub_for_libtelux_wlan
-Wl,--defsym=_ZTSN5telux4wlan11IApListenerE=so_stub_for_libtelux_wlan
-Wl,--defsym=_ZTSN5telux4wlan11WlanFactoryE=so_stub_for_libtelux_wlan
-Wl,--defsym=_ZTSN5telux4wlan12IStaListenerE=so_stub_for_libtelux_wlan
-Wl,--defsym=_ZTSN5telux4wlan13IWlanListenerE=so_stub_for_libtelux_wlan
-Wl,--defsym=_ZTSN5telux4wlan15WlanFactoryImplE=so_stub_for_libtelux_wlan
-Wl,--defsym=_ZTSN5telux4wlan16IWlanQcmListenerE=so_stub_for_libtelux_wlan
-Wl,--defsym=_ZTSN5telux4wlan18IWlanDeviceManagerE=so_stub_for_libtelux_wlan
-Wl,--defsym=_ZTSN5telux4wlan19IApInterfaceManagerE=so_stub_for_libtelux_wlan
-Wl,--defsym=_ZTSN5telux4wlan20IStaInterfaceManagerE=so_stub_for_libtelux_wlan
-Wl,--defsym=_ZTSN5telux4wlan21WlanDeviceManagerImplE=so_stub_for_libtelux_wlan
-Wl,--defsym=_ZTSN5telux4wlan22ApInterfaceManagerImplE=so_stub_for_libtelux_wlan
-Wl,--defsym=_ZTSN5telux4wlan23StaInterfaceManagerImplE=so_stub_for_libtelux_wlan
-Wl,--defsym=_ZTSN5telux6common12ISDKListenerE=so_stub_for_libtelux_wlan
-Wl,--defsym=_ZTSNSt13__future_base13_State_baseV2E=so_stub_for_libtelux_wlan
-Wl,--defsym=_ZTSNSt13__future_base21_Async_state_commonV2E=so_stub_for_libtelux_wlan
-Wl,--defsym=_ZTSNSt13__future_base7_ResultIvEE=so_stub_for_libtelux_wlan
-Wl,--defsym=_ZTSNSt6thread11_State_implINS_8_InvokerISt5tupleIJMN5telux6common14AsyncTaskQueueIvEEFvvEPS6_EEEEEE=so_stub_for_libtelux_wlan
-Wl,--defsym=_ZTSSt11_Mutex_baseILN9__gnu_cxx12_Lock_policyE2EE=so_stub_for_libtelux_wlan
-Wl,--defsym=_ZTSSt15_Sp_counted_ptrIPN5telux4wlan13WlanQcmClientELN9__gnu_cxx12_Lock_policyE2EE=so_stub_for_libtelux_wlan
-Wl,--defsym=_ZTSSt16_Sp_counted_baseILN9__gnu_cxx12_Lock_policyE2EE=so_stub_for_libtelux_wlan
-Wl,--defsym=_ZTSSt17_Weak_result_typeIMN5telux4wlan15WlanFactoryImplEFvNS0_6common13ServiceStatusEEE=so_stub_for_libtelux_wlan
-Wl,--defsym=_ZTSSt19_Sp_make_shared_tag=so_stub_for_libtelux_wlan
-Wl,--defsym=_ZTSSt23enable_shared_from_thisIN5telux4wlan21WlanDeviceManagerImplEE=so_stub_for_libtelux_wlan
-Wl,--defsym=_ZTSSt23enable_shared_from_thisIN5telux4wlan22ApInterfaceManagerImplEE=so_stub_for_libtelux_wlan
-Wl,--defsym=_ZTSSt23enable_shared_from_thisIN5telux4wlan23StaInterfaceManagerImplEE=so_stub_for_libtelux_wlan
-Wl,--defsym=_ZTSSt23_Sp_counted_ptr_inplaceI12QCMAP_ClientSaIS0_ELN9__gnu_cxx12_Lock_policyE2EE=so_stub_for_libtelux_wlan
-Wl,--defsym=_ZTSSt23_Sp_counted_ptr_inplaceIN5telux4wlan21WlanDeviceManagerImplESaIS2_ELN9__gnu_cxx12_Lock_policyE2EE=so_stub_for_libtelux_wlan
-Wl,--defsym=_ZTSSt23_Sp_counted_ptr_inplaceIN5telux4wlan22ApInterfaceManagerImplESaIS2_ELN9__gnu_cxx12_Lock_policyE2EE=so_stub_for_libtelux_wlan
-Wl,--defsym=_ZTSSt23_Sp_counted_ptr_inplaceIN5telux4wlan23StaInterfaceManagerImplESaIS2_ELN9__gnu_cxx12_Lock_policyE2EE=so_stub_for_libtelux_wlan
-Wl,--defsym=_ZTSSt23_Sp_counted_ptr_inplaceIN5telux6common14AsyncTaskQueueIvEESaIS3_ELN9__gnu_cxx12_Lock_policyE2EE=so_stub_for_libtelux_wlan
-Wl,--defsym=_ZTSSt23_Sp_counted_ptr_inplaceIN5telux6common15ListenerManagerESaIS2_ELN9__gnu_cxx12_Lock_policyE2EE=so_stub_for_libtelux_wlan
-Wl,--defsym=_ZTSSt23_Sp_counted_ptr_inplaceISt6threadSaIS0_ELN9__gnu_cxx12_Lock_policyE2EE=so_stub_for_libtelux_wlan
-Wl,--defsym=_ZTSSt24_Weak_result_type_memfunIMN5telux4wlan15WlanFactoryImplEFvNS0_6common13ServiceStatusEELb1EE=so_stub_for_libtelux_wlan
-Wl,--defsym=_ZTSSt5_BindIFMN5telux4wlan15WlanFactoryImplEFvNS0_6common13ServiceStatusEEPS2_St12_PlaceholderILi1EEEE=so_stub_for_libtelux_wlan
-Wl,--defsym=_ZTVN5telux4wlan11WlanFactoryE=so_stub_for_libtelux_wlan
-Wl,--defsym=_ZTVN5telux4wlan15WlanFactoryImplE=so_stub_for_libtelux_wlan
-Wl,--defsym=_ZTVN5telux4wlan21WlanDeviceManagerImplE=so_stub_for_libtelux_wlan
-Wl,--defsym=_ZTVN5telux4wlan22ApInterfaceManagerImplE=so_stub_for_libtelux_wlan
-Wl,--defsym=_ZTVN5telux4wlan23StaInterfaceManagerImplE=so_stub_for_libtelux_wlan
-Wl,--defsym=_ZTVNSt13__future_base13_State_baseV2E=so_stub_for_libtelux_wlan
-Wl,--defsym=_ZTVNSt13__future_base21_Async_state_commonV2E=so_stub_for_libtelux_wlan
-Wl,--defsym=_ZTVNSt13__future_base7_ResultIvEE=so_stub_for_libtelux_wlan
-Wl,--defsym=_ZTVNSt6thread11_State_implINS_8_InvokerISt5tupleIJMN5telux6common14AsyncTaskQueueIvEEFvvEPS6_EEEEEE=so_stub_for_libtelux_wlan
-Wl,--defsym=_ZTVSt15_Sp_counted_ptrIPN5telux4wlan13WlanQcmClientELN9__gnu_cxx12_Lock_policyE2EE=so_stub_for_libtelux_wlan
-Wl,--defsym=_ZTVSt23_Sp_counted_ptr_inplaceI12QCMAP_ClientSaIS0_ELN9__gnu_cxx12_Lock_policyE2EE=so_stub_for_libtelux_wlan
-Wl,--defsym=_ZTVSt23_Sp_counted_ptr_inplaceIN5telux4wlan21WlanDeviceManagerImplESaIS2_ELN9__gnu_cxx12_Lock_policyE2EE=so_stub_for_libtelux_wlan
-Wl,--defsym=_ZTVSt23_Sp_counted_ptr_inplaceIN5telux4wlan22ApInterfaceManagerImplESaIS2_ELN9__gnu_cxx12_Lock_policyE2EE=so_stub_for_libtelux_wlan
-Wl,--defsym=_ZTVSt23_Sp_counted_ptr_inplaceIN5telux4wlan23StaInterfaceManagerImplESaIS2_ELN9__gnu_cxx12_Lock_policyE2EE=so_stub_for_libtelux_wlan
-Wl,--defsym=_ZTVSt23_Sp_counted_ptr_inplaceIN5telux6common14AsyncTaskQueueIvEESaIS3_ELN9__gnu_cxx12_Lock_policyE2EE=so_stub_for_libtelux_wlan
-Wl,--defsym=_ZTVSt23_Sp_counted_ptr_inplaceIN5telux6common15ListenerManagerESaIS2_ELN9__gnu_cxx12_Lock_policyE2EE=so_stub_for_libtelux_wlan
-Wl,--defsym=_ZTVSt23_Sp_counted_ptr_inplaceISt6threadSaIS0_ELN9__gnu_cxx12_Lock_policyE2EE=so_stub_for_libtelux_wlan
-Wl,--defsym=_ZZNSt19_Sp_make_shared_tag5_S_tiEvE5__tag=so_stub_for_libtelux_wlan
-Wl,--defsym=_ZZNSt9once_flag18_Prepare_executionC4IZSt9call_onceIMNSt13__future_base13_State_baseV2EFvPSt8functionIFSt10unique_ptrINS3_12_Result_baseENS7_8_DeleterEEvEEPbEJPS4_SC_SD_EEvRS_OT_DpOT0_EUlvE_EERSI_ENUlvE_4_FUNEv=so_stub_for_libtelux_wlan
-Wl,--defsym=_ZZNSt9once_flag18_Prepare_executionC4IZSt9call_onceIMSt6threadFvvEJPS3_EEvRS_OT_DpOT0_EUlvE_EERS8_ENUlvE_4_FUNEv=so_stub_for_libtelux_wlan
