-Wl,--defsym=__gcov_error_file=so_stub_for_libtelux_platform_diag
-Wl,--defsym=__gcov_kvp_dynamic_pool=so_stub_for_libtelux_platform_diag
-Wl,--defsym=__gcov_kvp_dynamic_pool_index=so_stub_for_libtelux_platform_diag
-Wl,--defsym=__gcov_kvp_dynamic_pool_size=so_stub_for_libtelux_platform_diag
-Wl,--defsym=__gcov_master=so_stub_for_libtelux_platform_diag
-Wl,--defsym=__gcov_var=so_stub_for_libtelux_platform_diag
-Wl,--defsym=mangle_path=so_stub_for_libtelux_platform_diag
-Wl,--defsym=_ZN5telux6common13FactoryHelper10getManagerINS_8platform4diag15IDiagLogManagerEEESt10shared_ptrIT_ENSt7__cxx1112basic_stringIcSt11char_traitsIcESaIcEEERSt8weak_ptrIS7_ERSt6vectorISt8functionIFvNS0_13ServiceStatusEEESaISM_EESM_SJ_IFS8_SM_EE=so_stub_for_libtelux_platform_diag
-Wl,--defsym=_ZN5telux6common13FactoryHelper20initCompleteNotifierENSt7__cxx1112basic_stringIcSt11char_traitsIcESaIcEEERSt6vectorISt8functionIFvNS0_13ServiceStatusEEESaISC_EESA_=so_stub_for_libtelux_platform_diag
-Wl,--defsym=_ZN5telux6common14AsyncTaskQueueIvE11executeTaskEv=so_stub_for_libtelux_platform_diag
-Wl,--defsym=_ZN5telux6common14AsyncTaskQueueIvE14purgeCompletedEv=so_stub_for_libtelux_platform_diag
-Wl,--defsym=_ZN5telux6common14AsyncTaskQueueIvE3addERSt13shared_futureIvE=so_stub_for_libtelux_platform_diag
-Wl,--defsym=_ZN5telux6common14AsyncTaskQueueIvE8shutdownEb=so_stub_for_libtelux_platform_diag
-Wl,--defsym=_ZN5telux6common14AsyncTaskQueueIvEC1Ev=so_stub_for_libtelux_platform_diag
-Wl,--defsym=_ZN5telux6common14AsyncTaskQueueIvEC2Ev=so_stub_for_libtelux_platform_diag
-Wl,--defsym=_ZN5telux6common14AsyncTaskQueueIvED1Ev=so_stub_for_libtelux_platform_diag
-Wl,--defsym=_ZN5telux6common14AsyncTaskQueueIvED2Ev=so_stub_for_libtelux_platform_diag
-Wl,--defsym=_ZN5telux6common15ListenerManager16registerListenerESt8weak_ptrINS0_12ISDKListenerEE=so_stub_for_libtelux_platform_diag
-Wl,--defsym=_ZN5telux6common15ListenerManager18deRegisterListenerESt8weak_ptrINS0_12ISDKListenerEE=so_stub_for_libtelux_platform_diag
-Wl,--defsym=_ZN5telux6common15ListenerManager21getAvailableListenersERSt6vectorISt8weak_ptrINS0_12ISDKListenerEESaIS5_EE=so_stub_for_libtelux_platform_diag
-Wl,--defsym=_ZN5telux6common15ListenerManager5purgeEv=so_stub_for_libtelux_platform_diag
-Wl,--defsym=_ZN5telux6common15ListenerManager7cleanupEv=so_stub_for_libtelux_platform_diag
-Wl,--defsym=_ZN5telux6common15ListenerManagerC1Ev=so_stub_for_libtelux_platform_diag
-Wl,--defsym=_ZN5telux6common15ListenerManagerC2Ev=so_stub_for_libtelux_platform_diag
-Wl,--defsym=_ZN5telux6common15ListenerManagerD1Ev=so_stub_for_libtelux_platform_diag
-Wl,--defsym=_ZN5telux6common15ListenerManagerD2Ev=so_stub_for_libtelux_platform_diag
-Wl,--defsym=_ZN5telux6common3Log10logMessageIJNSt7__cxx1112basic_stringIcSt11char_traitsIcESaIcEEEPKcmSA_PNS_8platform4diag15IDiagLogManagerESA_iEEEvNS0_8LogLevelERKS8_SH_RKiDpT_=so_stub_for_libtelux_platform_diag
-Wl,--defsym=_ZN5telux6common3Log10logMessageIJNSt7__cxx1112basic_stringIcSt11char_traitsIcESaIcEEEPKcPNS_8platform4diag15IDiagLogManagerEEEEvNS0_8LogLevelERKS8_SH_RKiDpT_=so_stub_for_libtelux_platform_diag
-Wl,--defsym=_ZN5telux6common3Log10logMessageIJNSt7__cxx1112basic_stringIcSt11char_traitsIcESaIcEEEPKcPNS_8platform4diag15IDiagLogManagerESA_EEEvNS0_8LogLevelERKS8_SH_RKiDpT_=so_stub_for_libtelux_platform_diag
-Wl,--defsym=_ZN5telux6common3Log10logMessageIJNSt7__cxx1112basic_stringIcSt11char_traitsIcESaIcEEEPKcPNS_8platform4diag15IDiagLogManagerESA_iEEEvNS0_8LogLevelERKS8_SH_RKiDpT_=so_stub_for_libtelux_platform_diag
-Wl,--defsym=_ZN5telux6common3Log10logMessageIJPKcEEEvNS0_8LogLevelERKNSt7__cxx1112basic_stringIcSt11char_traitsIcESaIcEEESD_RKiDpT_=so_stub_for_libtelux_platform_diag
-Wl,--defsym=_ZN5telux6common3Log10logMessageIJPKcmEEEvNS0_8LogLevelERKNSt7__cxx1112basic_stringIcSt11char_traitsIcESaIcEEESD_RKiDpT_=so_stub_for_libtelux_platform_diag
-Wl,--defsym=_ZN5telux6common3Log10logMessageIJPKcNSt7__cxx1112basic_stringIcSt11char_traitsIcESaIcEEES4_PNS_8platform4diag15IDiagLogManagerEEEEvNS0_8LogLevelERKSA_SH_RKiDpT_=so_stub_for_libtelux_platform_diag
-Wl,--defsym=_ZN5telux6common3Log10logMessageIJPKcS4_EEEvNS0_8LogLevelERKNSt7__cxx1112basic_stringIcSt11char_traitsIcESaIcEEESD_RKiDpT_=so_stub_for_libtelux_platform_diag
-Wl,--defsym=_ZN5telux6common3Log10logMessageIJPKcS4_iEEEvNS0_8LogLevelERKNSt7__cxx1112basic_stringIcSt11char_traitsIcESaIcEEESD_RKiDpT_=so_stub_for_libtelux_platform_diag
-Wl,--defsym=_ZN5telux6common3Log10logMessageIJPKcS4_jEEEvNS0_8LogLevelERKNSt7__cxx1112basic_stringIcSt11char_traitsIcESaIcEEESD_RKiDpT_=so_stub_for_libtelux_platform_diag
-Wl,--defsym=_ZN5telux6common3Log10logMessageIJPKcS4_jS4_jEEEvNS0_8LogLevelERKNSt7__cxx1112basic_stringIcSt11char_traitsIcESaIcEEESD_RKiDpT_=so_stub_for_libtelux_platform_diag
-Wl,--defsym=_ZN5telux6common3Log10logMessageIJPKcS4_mEEEvNS0_8LogLevelERKNSt7__cxx1112basic_stringIcSt11char_traitsIcESaIcEEESD_RKiDpT_=so_stub_for_libtelux_platform_diag
-Wl,--defsym=_ZN5telux6common3Log10logMessageIJPKcS4_NSt7__cxx1112basic_stringIcSt11char_traitsIcESaIcEEEEEEvNS0_8LogLevelERKSA_SD_RKiDpT_=so_stub_for_libtelux_platform_diag
-Wl,--defsym=_ZN5telux6common3Log10logMessageIJPKcS4_NSt7__cxx1112basic_stringIcSt11char_traitsIcESaIcEEES4_iS4_PSt6vectorISt8functionIFvNS0_13ServiceStatusEEESaISF_EEEEEvNS0_8LogLevelERKSA_SL_RKiDpT_=so_stub_for_libtelux_platform_diag
-Wl,--defsym=_ZN5telux6common3Log10logMessageIJPKcS4_NSt7__cxx1112basic_stringIcSt11char_traitsIcESaIcEEES4_PNS_8platform4diag15IDiagLogManagerEEEEvNS0_8LogLevelERKSA_SH_RKiDpT_=so_stub_for_libtelux_platform_diag
-Wl,--defsym=_ZN5telux6common3Log10logMessageIJPKcS4_NSt7__cxx1112basic_stringIcSt11char_traitsIcESaIcEEES4_S4_EEEvNS0_8LogLevelERKSA_SD_RKiDpT_=so_stub_for_libtelux_platform_diag
-Wl,--defsym=_ZN5telux6common3Log10logMessageIJPKcS4_PSt8functionIFvNS0_13ServiceStatusEEEEEEvNS0_8LogLevelERKNSt7__cxx1112basic_stringIcSt11char_traitsIcESaIcEEESI_RKiDpT_=so_stub_for_libtelux_platform_diag
-Wl,--defsym=_ZN5telux6common3Log10logMessageIJPKcS4_S4_S4_PSt6vectorISt8functionIFvNS0_13ServiceStatusEEESaIS9_EEEEEvNS0_8LogLevelERKNSt7__cxx1112basic_stringIcSt11char_traitsIcESaIcEEESL_RKiDpT_=so_stub_for_libtelux_platform_diag
-Wl,--defsym=_ZN5telux6common3Log16constructMessageINSt7__cxx1119basic_ostringstreamIcSt11char_traitsIcESaIcEEENS3_12basic_stringIcS6_S7_EEJPKciSC_PSt6vectorISt8functionIFvNS0_13ServiceStatusEEESaISH_EEEEEvRT_T0_DpT1_=so_stub_for_libtelux_platform_diag
-Wl,--defsym=_ZN5telux6common3Log16constructMessageINSt7__cxx1119basic_ostringstreamIcSt11char_traitsIcESaIcEEENS3_12basic_stringIcS6_S7_EEJPKcmSC_PNS_8platform4diag15IDiagLogManagerESC_iEEEvRT_T0_DpT1_=so_stub_for_libtelux_platform_diag
-Wl,--defsym=_ZN5telux6common3Log16constructMessageINSt7__cxx1119basic_ostringstreamIcSt11char_traitsIcESaIcEEEPKcJNS3_12basic_stringIcS6_S7_EEEEEvRT_T0_DpT1_=so_stub_for_libtelux_platform_diag
-Wl,--defsym=_ZN5telux6common3Log16constructMessageINSt7__cxx1119basic_ostringstreamIcSt11char_traitsIcESaIcEEEPKcJNS3_12basic_stringIcS6_S7_EESA_iSA_PSt6vectorISt8functionIFvNS0_13ServiceStatusEEESaISH_EEEEEvRT_T0_DpT1_=so_stub_for_libtelux_platform_diag
-Wl,--defsym=_ZN5telux6common3Log16constructMessageINSt7__cxx1119basic_ostringstreamIcSt11char_traitsIcESaIcEEEPKcJNS3_12basic_stringIcS6_S7_EESA_PNS_8platform4diag15IDiagLogManagerEEEEvRT_T0_DpT1_=so_stub_for_libtelux_platform_diag
-Wl,--defsym=_ZN5telux6common3Log16constructMessageINSt7__cxx1119basic_ostringstreamIcSt11char_traitsIcESaIcEEEPKcJNS3_12basic_stringIcS6_S7_EESA_SA_EEEvRT_T0_DpT1_=so_stub_for_libtelux_platform_diag
-Wl,--defsym=_ZN5telux6common3Log16constructMessageINSt7__cxx1119basic_ostringstreamIcSt11char_traitsIcESaIcEEEPKcJSA_jSA_jEEEvRT_T0_DpT1_=so_stub_for_libtelux_platform_diag
-Wl,--defsym=_ZN5telux6common3Log16constructMessageINSt7__cxx1119basic_ostringstreamIcSt11char_traitsIcESaIcEEEPKcJSA_NS3_12basic_stringIcS6_S7_EEEEEvRT_T0_DpT1_=so_stub_for_libtelux_platform_diag
-Wl,--defsym=_ZN5telux6common3Log16constructMessageINSt7__cxx1119basic_ostringstreamIcSt11char_traitsIcESaIcEEEPKcJSA_NS3_12basic_stringIcS6_S7_EESA_iSA_PSt6vectorISt8functionIFvNS0_13ServiceStatusEEESaISH_EEEEEvRT_T0_DpT1_=so_stub_for_libtelux_platform_diag
-Wl,--defsym=_ZN5telux6common3Log16constructMessageINSt7__cxx1119basic_ostringstreamIcSt11char_traitsIcESaIcEEEPKcJSA_NS3_12basic_stringIcS6_S7_EESA_PNS_8platform4diag15IDiagLogManagerEEEEvRT_T0_DpT1_=so_stub_for_libtelux_platform_diag
-Wl,--defsym=_ZN5telux6common3Log16constructMessageINSt7__cxx1119basic_ostringstreamIcSt11char_traitsIcESaIcEEEPKcJSA_NS3_12basic_stringIcS6_S7_EESA_SA_EEEvRT_T0_DpT1_=so_stub_for_libtelux_platform_diag
-Wl,--defsym=_ZN5telux6common3Log16constructMessageINSt7__cxx1119basic_ostringstreamIcSt11char_traitsIcESaIcEEEPKcJSA_SA_SA_PSt6vectorISt8functionIFvNS0_13ServiceStatusEEESaISF_EEEEEvRT_T0_DpT1_=so_stub_for_libtelux_platform_diag
-Wl,--defsym=_ZN5telux8platform4diag10DiagConfigC1ERKS2_=so_stub_for_libtelux_platform_diag
-Wl,--defsym=_ZN5telux8platform4diag10DiagConfigC1Ev=so_stub_for_libtelux_platform_diag
-Wl,--defsym=_ZN5telux8platform4diag10DiagConfigC2ERKS2_=so_stub_for_libtelux_platform_diag
-Wl,--defsym=_ZN5telux8platform4diag10DiagConfigC2Ev=so_stub_for_libtelux_platform_diag
-Wl,--defsym=_ZN5telux8platform4diag10DiagConfigD1Ev=so_stub_for_libtelux_platform_diag
-Wl,--defsym=_ZN5telux8platform4diag10DiagConfigD2Ev=so_stub_for_libtelux_platform_diag
-Wl,--defsym=_ZN5telux8platform4diag18DiagLogManagerImpl11isModeValidENS1_10DiagConfigE=so_stub_for_libtelux_platform_diag
-Wl,--defsym=_ZN5telux8platform4diag18DiagLogManagerImpl13isMethodValidENS1_10DiagConfigERjS4_=so_stub_for_libtelux_platform_diag
-Wl,--defsym=_ZN5telux8platform4diag18DiagLogManagerImpl13isSourceValidENS1_10DiagConfigE=so_stub_for_libtelux_platform_diag
-Wl,--defsym=_ZN5telux8platform4diag18DiagLogManagerImpl14isDeviceBitSetEhNS1_10DeviceTypeE=so_stub_for_libtelux_platform_diag
-Wl,--defsym=_ZN5telux8platform4diag18DiagLogManagerImpl16getServiceStatusEv=so_stub_for_libtelux_platform_diag
-Wl,--defsym=_ZN5telux8platform4diag18DiagLogManagerImpl16registerListenerESt8weak_ptrINS1_13IDiagListenerEE=so_stub_for_libtelux_platform_diag
-Wl,--defsym=_ZN5telux8platform4diag18DiagLogManagerImpl16stopDrainingLogsEv=so_stub_for_libtelux_platform_diag
-Wl,--defsym=_ZN5telux8platform4diag18DiagLogManagerImpl17startDrainingLogsEv=so_stub_for_libtelux_platform_diag
-Wl,--defsym=_ZN5telux8platform4diag18DiagLogManagerImpl17stopLogCollectionEv=so_stub_for_libtelux_platform_diag
-Wl,--defsym=_ZN5telux8platform4diag18DiagLogManagerImpl18deregisterListenerESt8weak_ptrINS1_13IDiagListenerEE=so_stub_for_libtelux_platform_diag
-Wl,--defsym=_ZN5telux8platform4diag18DiagLogManagerImpl18isPeripheralBitSetEhNS1_14PeripheralTypeE=so_stub_for_libtelux_platform_diag
-Wl,--defsym=_ZN5telux8platform4diag18DiagLogManagerImpl18startLogCollectionEv=so_stub_for_libtelux_platform_diag
-Wl,--defsym=_ZN5telux8platform4diag18DiagLogManagerImpl18toDiagPeriperalIdsERSt6vectorIhSaIhEE=so_stub_for_libtelux_platform_diag
-Wl,--defsym=_ZN5telux8platform4diag18DiagLogManagerImpl20isApssOnlyCollectionENS1_10DiagConfigE=so_stub_for_libtelux_platform_diag
-Wl,--defsym=_ZN5telux8platform4diag18DiagLogManagerImpl20isMaskFileAccessibleENS1_10DiagConfigE=so_stub_for_libtelux_platform_diag
-Wl,--defsym=_ZN5telux8platform4diag18DiagLogManagerImpl20logsReceiverCallbackEPhiPv=so_stub_for_libtelux_platform_diag
-Wl,--defsym=_ZN5telux8platform4diag18DiagLogManagerImpl21dispatchLogsToClientsESt10shared_ptrISt6vectorIhSaIhEEEi=so_stub_for_libtelux_platform_diag
-Wl,--defsym=_ZN5telux8platform4diag18DiagLogManagerImpl21isSupportedPeripheralEh=so_stub_for_libtelux_platform_diag
-Wl,--defsym=_ZN5telux8platform4diag18DiagLogManagerImpl21setupCollectionOnFileEv=so_stub_for_libtelux_platform_diag
-Wl,--defsym=_ZN5telux8platform4diag18DiagLogManagerImpl21toDiagPeripheralsMaskERj=so_stub_for_libtelux_platform_diag
-Wl,--defsym=_ZN5telux8platform4diag18DiagLogManagerImpl22drainPeripheralBuffersEh=so_stub_for_libtelux_platform_diag
-Wl,--defsym=_ZN5telux8platform4diag18DiagLogManagerImpl26setupCollectionViaCallbackEv=so_stub_for_libtelux_platform_diag
-Wl,--defsym=_ZN5telux8platform4diag18DiagLogManagerImpl4initESt8functionIFvNS_6common13ServiceStatusEEE=so_stub_for_libtelux_platform_diag
-Wl,--defsym=_ZN5telux8platform4diag18DiagLogManagerImpl8initSyncEv=so_stub_for_libtelux_platform_diag
-Wl,--defsym=_ZN5telux8platform4diag18DiagLogManagerImpl9getConfigEv=so_stub_for_libtelux_platform_diag
-Wl,--defsym=_ZN5telux8platform4diag18DiagLogManagerImpl9getStatusEv=so_stub_for_libtelux_platform_diag
-Wl,--defsym=_ZN5telux8platform4diag18DiagLogManagerImpl9setConfigENS1_10DiagConfigE=so_stub_for_libtelux_platform_diag
-Wl,--defsym=_ZN5telux8platform4diag18DiagLogManagerImplC1Ev=so_stub_for_libtelux_platform_diag
-Wl,--defsym=_ZN5telux8platform4diag18DiagLogManagerImplC2Ev=so_stub_for_libtelux_platform_diag
-Wl,--defsym=_ZN5telux8platform4diag18DiagLogManagerImplD0Ev=so_stub_for_libtelux_platform_diag
-Wl,--defsym=_ZN5telux8platform4diag18DiagLogManagerImplD1Ev=so_stub_for_libtelux_platform_diag
-Wl,--defsym=_ZN5telux8platform4diag18DiagLogManagerImplD2Ev=so_stub_for_libtelux_platform_diag
-Wl,--defsym=_ZN5telux8platform4diag18DiagnosticsFactory11getInstanceEv=so_stub_for_libtelux_platform_diag
-Wl,--defsym=_ZN5telux8platform4diag18DiagnosticsFactoryC1Ev=so_stub_for_libtelux_platform_diag
-Wl,--defsym=_ZN5telux8platform4diag18DiagnosticsFactoryC2Ev=so_stub_for_libtelux_platform_diag
-Wl,--defsym=_ZN5telux8platform4diag18DiagnosticsFactoryD0Ev=so_stub_for_libtelux_platform_diag
-Wl,--defsym=_ZN5telux8platform4diag18DiagnosticsFactoryD1Ev=so_stub_for_libtelux_platform_diag
-Wl,--defsym=_ZN5telux8platform4diag18DiagnosticsFactoryD2Ev=so_stub_for_libtelux_platform_diag
-Wl,--defsym=_ZN5telux8platform4diag22DiagnosticsFactoryImpl11getInstanceEv=so_stub_for_libtelux_platform_diag
-Wl,--defsym=_ZN5telux8platform4diag22DiagnosticsFactoryImpl17getDiagLogManagerESt8functionIFvNS_6common13ServiceStatusEEE=so_stub_for_libtelux_platform_diag
-Wl,--defsym=_ZN5telux8platform4diag22DiagnosticsFactoryImplC1Ev=so_stub_for_libtelux_platform_diag
-Wl,--defsym=_ZN5telux8platform4diag22DiagnosticsFactoryImplC2Ev=so_stub_for_libtelux_platform_diag
-Wl,--defsym=_ZN5telux8platform4diag22DiagnosticsFactoryImplD0Ev=so_stub_for_libtelux_platform_diag
-Wl,--defsym=_ZN5telux8platform4diag22DiagnosticsFactoryImplD1Ev=so_stub_for_libtelux_platform_diag
-Wl,--defsym=_ZN5telux8platform4diag22DiagnosticsFactoryImplD2Ev=so_stub_for_libtelux_platform_diag
-Wl,--defsym=_ZN9__gnu_cxx5__ops10_Iter_predIZN5telux6common15ListenerManager16registerListenerESt8weak_ptrINS3_12ISDKListenerEEEUlS7_E_EclINS_17__normal_iteratorIPS7_St6vectorIS7_SaIS7_EEEEEEbT_=so_stub_for_libtelux_platform_diag
-Wl,--defsym=_ZNKSt13__future_base13_State_baseV221_M_is_deferred_futureEv=so_stub_for_libtelux_platform_diag
-Wl,--defsym=_ZNKSt14__basic_futureIvE13_M_get_resultEv=so_stub_for_libtelux_platform_diag
-Wl,--defsym=_ZNSt10shared_ptrIN5telux6common14AsyncTaskQueueIvEEEC1ISaIS3_EJEEESt20_Sp_alloc_shared_tagIT_EDpOT0_=so_stub_for_libtelux_platform_diag
-Wl,--defsym=_ZNSt10shared_ptrIN5telux6common14AsyncTaskQueueIvEEEC2ISaIS3_EJEEESt20_Sp_alloc_shared_tagIT_EDpOT0_=so_stub_for_libtelux_platform_diag
-Wl,--defsym=_ZNSt10shared_ptrIN5telux6common15ListenerManagerEEC1ISaIS2_EJEEESt20_Sp_alloc_shared_tagIT_EDpOT0_=so_stub_for_libtelux_platform_diag
-Wl,--defsym=_ZNSt10shared_ptrIN5telux6common15ListenerManagerEEC2ISaIS2_EJEEESt20_Sp_alloc_shared_tagIT_EDpOT0_=so_stub_for_libtelux_platform_diag
-Wl,--defsym=_ZNSt10shared_ptrISt6threadEC1ISaIS0_EJMN5telux6common14AsyncTaskQueueIvEEFvvEPS7_EEESt20_Sp_alloc_shared_tagIT_EDpOT0_=so_stub_for_libtelux_platform_diag
-Wl,--defsym=_ZNSt10shared_ptrISt6threadEC2ISaIS0_EJMN5telux6common14AsyncTaskQueueIvEEFvvEPS7_EEESt20_Sp_alloc_shared_tagIT_EDpOT0_=so_stub_for_libtelux_platform_diag
-Wl,--defsym=_ZNSt10unique_ptrINSt13__future_base12_Result_baseENS1_8_DeleterEED1Ev=so_stub_for_libtelux_platform_diag
-Wl,--defsym=_ZNSt10unique_ptrINSt13__future_base12_Result_baseENS1_8_DeleterEED2Ev=so_stub_for_libtelux_platform_diag
-Wl,--defsym=_ZNSt10__weak_ptrIN5telux6common12ISDKListenerELN9__gnu_cxx12_Lock_policyE2EEC1INS0_8platform4diag13IDiagListenerEvEERKS_IT_LS4_2EE=so_stub_for_libtelux_platform_diag
-Wl,--defsym=_ZNSt10__weak_ptrIN5telux6common12ISDKListenerELN9__gnu_cxx12_Lock_policyE2EEC2INS0_8platform4diag13IDiagListenerEvEERKS_IT_LS4_2EE=so_stub_for_libtelux_platform_diag
-Wl,--defsym=_ZNSt11_Deque_baseISt13shared_futureIvESaIS1_EE15_M_create_nodesEPPS1_S5_=so_stub_for_libtelux_platform_diag
-Wl,--defsym=_ZNSt11_Deque_baseISt13shared_futureIvESaIS1_EE16_M_destroy_nodesEPPS1_S5_=so_stub_for_libtelux_platform_diag
-Wl,--defsym=_ZNSt11_Deque_baseISt13shared_futureIvESaIS1_EE17_M_initialize_mapEm=so_stub_for_libtelux_platform_diag
-Wl,--defsym=_ZNSt12future_errorC1ESt10error_code=so_stub_for_libtelux_platform_diag
-Wl,--defsym=_ZNSt12future_errorC2ESt10error_code=so_stub_for_libtelux_platform_diag
-Wl,--defsym=_ZNSt12__shared_ptrIN5telux8platform4diag15IDiagLogManagerELN9__gnu_cxx12_Lock_policyE2EEC1ERKSt10__weak_ptrIS3_LS5_2EESt9nothrow_t=so_stub_for_libtelux_platform_diag
-Wl,--defsym=_ZNSt12__shared_ptrIN5telux8platform4diag15IDiagLogManagerELN9__gnu_cxx12_Lock_policyE2EEC2ERKSt10__weak_ptrIS3_LS5_2EESt9nothrow_t=so_stub_for_libtelux_platform_diag
-Wl,--defsym=_ZNSt12__shared_ptrIN5telux8platform4diag18DiagLogManagerImplELN9__gnu_cxx12_Lock_policyE2EEC1ISaIS3_EJEEESt20_Sp_alloc_shared_tagIT_EDpOT0_=so_stub_for_libtelux_platform_diag
-Wl,--defsym=_ZNSt12__shared_ptrIN5telux8platform4diag18DiagLogManagerImplELN9__gnu_cxx12_Lock_policyE2EEC2ISaIS3_EJEEESt20_Sp_alloc_shared_tagIT_EDpOT0_=so_stub_for_libtelux_platform_diag
-Wl,--defsym=_ZNSt12__weak_countILN9__gnu_cxx12_Lock_policyE2EEaSERKSt14__shared_countILS1_2EE=so_stub_for_libtelux_platform_diag
-Wl,--defsym=_ZNSt13__future_base13_State_baseV210wait_untilINSt6chrono3_V212system_clockENS2_8durationIlSt5ratioILl1ELl1000000000EEEEEESt13future_statusRKNS2_10time_pointIT_T0_EE=so_stub_for_libtelux_platform_diag
-Wl,--defsym=_ZNSt13__future_base13_State_baseV213_M_set_resultESt8functionIFSt10unique_ptrINS_12_Result_baseENS3_8_DeleterEEvEEb=so_stub_for_libtelux_platform_diag
-Wl,--defsym=_ZNSt13__future_base13_State_baseV216_M_break_promiseESt10unique_ptrINS_12_Result_baseENS2_8_DeleterEE=so_stub_for_libtelux_platform_diag
-Wl,--defsym=_ZNSt13__future_base13_State_baseV217_M_complete_asyncEv=so_stub_for_libtelux_platform_diag
-Wl,--defsym=_ZNSt13__future_base13_State_baseV24waitEv=so_stub_for_libtelux_platform_diag
-Wl,--defsym=_ZNSt13__future_base13_State_baseV29_M_do_setEPSt8functionIFSt10unique_ptrINS_12_Result_baseENS3_8_DeleterEEvEEPb=so_stub_for_libtelux_platform_diag
-Wl,--defsym=_ZNSt13__future_base13_State_baseV2D0Ev=so_stub_for_libtelux_platform_diag
-Wl,--defsym=_ZNSt13__future_base13_State_baseV2D1Ev=so_stub_for_libtelux_platform_diag
-Wl,--defsym=_ZNSt13__future_base13_State_baseV2D2Ev=so_stub_for_libtelux_platform_diag
-Wl,--defsym=_ZNSt13__future_base21_Async_state_commonV217_M_complete_asyncEv=so_stub_for_libtelux_platform_diag
-Wl,--defsym=_ZNSt13__future_base21_Async_state_commonV2D0Ev=so_stub_for_libtelux_platform_diag
-Wl,--defsym=_ZNSt13__future_base21_Async_state_commonV2D1Ev=so_stub_for_libtelux_platform_diag
-Wl,--defsym=_ZNSt13__future_base21_Async_state_commonV2D2Ev=so_stub_for_libtelux_platform_diag
-Wl,--defsym=_ZNSt13__future_base7_ResultIvE10_M_destroyEv=so_stub_for_libtelux_platform_diag
-Wl,--defsym=_ZNSt13__future_base7_ResultIvED0Ev=so_stub_for_libtelux_platform_diag
-Wl,--defsym=_ZNSt13__future_base7_ResultIvED1Ev=so_stub_for_libtelux_platform_diag
-Wl,--defsym=_ZNSt13__future_base7_ResultIvED2Ev=so_stub_for_libtelux_platform_diag
-Wl,--defsym=_ZNSt14__basic_futureIvEC1ERKSt10shared_ptrINSt13__future_base13_State_baseV2EE=so_stub_for_libtelux_platform_diag
-Wl,--defsym=_ZNSt14__basic_futureIvEC2ERKSt10shared_ptrINSt13__future_base13_State_baseV2EE=so_stub_for_libtelux_platform_diag
-Wl,--defsym=_ZNSt14_Function_base13_Base_managerIZN5telux6common13FactoryHelper10getManagerINS1_8platform4diag15IDiagLogManagerEEESt10shared_ptrIT_ENSt7__cxx1112basic_stringIcSt11char_traitsIcESaIcEEERSt8weak_ptrIS9_ERSt6vectorISt8functionIFvNS2_13ServiceStatusEEESaISO_EESO_SL_IFSA_SO_EEEUlSM_E0_E10_M_managerERSt9_Any_dataRKSW_St18_Manager_operation=so_stub_for_libtelux_platform_diag
-Wl,--defsym=_ZNSt14_Function_baseD1Ev=so_stub_for_libtelux_platform_diag
-Wl,--defsym=_ZNSt14_Function_baseD2Ev=so_stub_for_libtelux_platform_diag
-Wl,--defsym=_ZNSt14__shared_countILN9__gnu_cxx12_Lock_policyE2EEC1ERKSt12__weak_countILS1_2EESt9nothrow_t=so_stub_for_libtelux_platform_diag
-Wl,--defsym=_ZNSt14__shared_countILN9__gnu_cxx12_Lock_policyE2EEC1ISt6vectorIhSaIhEESaIS6_EJRPhS8_EEERPT_St20_Sp_alloc_shared_tagIT0_EDpOT1_=so_stub_for_libtelux_platform_diag
-Wl,--defsym=_ZNSt14__shared_countILN9__gnu_cxx12_Lock_policyE2EEC2ERKSt12__weak_countILS1_2EESt9nothrow_t=so_stub_for_libtelux_platform_diag
-Wl,--defsym=_ZNSt14__shared_countILN9__gnu_cxx12_Lock_policyE2EEC2ISt6vectorIhSaIhEESaIS6_EJRPhS8_EEERPT_St20_Sp_alloc_shared_tagIT0_EDpOT1_=so_stub_for_libtelux_platform_diag
-Wl,--defsym=_ZNSt15_Deque_iteratorISt13shared_futureIvERKS1_PS2_EpLEl=so_stub_for_libtelux_platform_diag
-Wl,--defsym=_ZNSt15_Deque_iteratorISt13shared_futureIvERS1_PS1_EpLEl=so_stub_for_libtelux_platform_diag
-Wl,--defsym=_ZNSt15__exception_ptr12__dest_thunkISt12future_errorEEvPv=so_stub_for_libtelux_platform_diag
-Wl,--defsym=_ZNSt15__exception_ptr13exception_ptraSEOS0_=so_stub_for_libtelux_platform_diag
-Wl,--defsym=_ZNSt16_Sp_counted_baseILN9__gnu_cxx12_Lock_policyE2EE10_M_releaseEv=so_stub_for_libtelux_platform_diag
-Wl,--defsym=_ZNSt16_Sp_counted_baseILN9__gnu_cxx12_Lock_policyE2EE15_M_weak_releaseEv=so_stub_for_libtelux_platform_diag
-Wl,--defsym=_ZNSt17_Function_handlerIFvN5telux6common13ServiceStatusEEZNS1_13FactoryHelper10getManagerINS0_8platform4diag15IDiagLogManagerEEESt10shared_ptrIT_ENSt7__cxx1112basic_stringIcSt11char_traitsIcESaIcEEERSt8weak_ptrISA_ERSt6vectorISt8functionIS3_ESaISN_EESN_SM_IFSB_SN_EEEUlS2_E0_E10_M_managerERSt9_Any_dataRKSV_St18_Manager_operation=so_stub_for_libtelux_platform_diag
-Wl,--defsym=_ZNSt17_Function_handlerIFvN5telux6common13ServiceStatusEEZNS1_13FactoryHelper10getManagerINS0_8platform4diag15IDiagLogManagerEEESt10shared_ptrIT_ENSt7__cxx1112basic_stringIcSt11char_traitsIcESaIcEEERSt8weak_ptrISA_ERSt6vectorISt8functionIS3_ESaISN_EESN_SM_IFSB_SN_EEEUlS2_E0_E9_M_invokeERKSt9_Any_dataOS2_=so_stub_for_libtelux_platform_diag
-Wl,--defsym=_ZNSt18condition_variable4waitIZN5telux6common14AsyncTaskQueueIvE11executeTaskEvEUlvE_EEvRSt11unique_lockISt5mutexET_=so_stub_for_libtelux_platform_diag
-Wl,--defsym=_ZNSt20__uninitialized_copyILb0EE13__uninit_copyIN9__gnu_cxx17__normal_iteratorIPKSt8functionIFvN5telux6common13ServiceStatusEEESt6vectorIS9_SaIS9_EEEEPS9_EET0_T_SI_SH_=so_stub_for_libtelux_platform_diag
-Wl,--defsym=_ZNSt20__uninitialized_copyILb0EE13__uninit_copyIPSt8functionIFvN5telux6common13ServiceStatusEEES8_EET0_T_SA_S9_=so_stub_for_libtelux_platform_diag
-Wl,--defsym=_ZNSt20__uninitialized_copyILb0EE13__uninit_copyISt15_Deque_iteratorISt13shared_futureIvERKS4_PS5_ES2_IS4_RS4_PS4_EEET0_T_SD_SC_=so_stub_for_libtelux_platform_diag
-Wl,--defsym=_ZNSt23_Sp_counted_ptr_inplaceIN5telux6common14AsyncTaskQueueIvEESaIS3_ELN9__gnu_cxx12_Lock_policyE2EE10_M_destroyEv=so_stub_for_libtelux_platform_diag
-Wl,--defsym=_ZNSt23_Sp_counted_ptr_inplaceIN5telux6common14AsyncTaskQueueIvEESaIS3_ELN9__gnu_cxx12_Lock_policyE2EE10_M_disposeEv=so_stub_for_libtelux_platform_diag
-Wl,--defsym=_ZNSt23_Sp_counted_ptr_inplaceIN5telux6common14AsyncTaskQueueIvEESaIS3_ELN9__gnu_cxx12_Lock_policyE2EE14_M_get_deleterERKSt9type_info=so_stub_for_libtelux_platform_diag
-Wl,--defsym=_ZNSt23_Sp_counted_ptr_inplaceIN5telux6common14AsyncTaskQueueIvEESaIS3_ELN9__gnu_cxx12_Lock_policyE2EED0Ev=so_stub_for_libtelux_platform_diag
-Wl,--defsym=_ZNSt23_Sp_counted_ptr_inplaceIN5telux6common14AsyncTaskQueueIvEESaIS3_ELN9__gnu_cxx12_Lock_policyE2EED1Ev=so_stub_for_libtelux_platform_diag
-Wl,--defsym=_ZNSt23_Sp_counted_ptr_inplaceIN5telux6common14AsyncTaskQueueIvEESaIS3_ELN9__gnu_cxx12_Lock_policyE2EED2Ev=so_stub_for_libtelux_platform_diag
-Wl,--defsym=_ZNSt23_Sp_counted_ptr_inplaceIN5telux6common15ListenerManagerESaIS2_ELN9__gnu_cxx12_Lock_policyE2EE10_M_destroyEv=so_stub_for_libtelux_platform_diag
-Wl,--defsym=_ZNSt23_Sp_counted_ptr_inplaceIN5telux6common15ListenerManagerESaIS2_ELN9__gnu_cxx12_Lock_policyE2EE10_M_disposeEv=so_stub_for_libtelux_platform_diag
-Wl,--defsym=_ZNSt23_Sp_counted_ptr_inplaceIN5telux6common15ListenerManagerESaIS2_ELN9__gnu_cxx12_Lock_policyE2EE14_M_get_deleterERKSt9type_info=so_stub_for_libtelux_platform_diag
-Wl,--defsym=_ZNSt23_Sp_counted_ptr_inplaceIN5telux6common15ListenerManagerESaIS2_ELN9__gnu_cxx12_Lock_policyE2EED0Ev=so_stub_for_libtelux_platform_diag
-Wl,--defsym=_ZNSt23_Sp_counted_ptr_inplaceIN5telux6common15ListenerManagerESaIS2_ELN9__gnu_cxx12_Lock_policyE2EED1Ev=so_stub_for_libtelux_platform_diag
-Wl,--defsym=_ZNSt23_Sp_counted_ptr_inplaceIN5telux6common15ListenerManagerESaIS2_ELN9__gnu_cxx12_Lock_policyE2EED2Ev=so_stub_for_libtelux_platform_diag
-Wl,--defsym=_ZNSt23_Sp_counted_ptr_inplaceIN5telux8platform4diag18DiagLogManagerImplESaIS3_ELN9__gnu_cxx12_Lock_policyE2EE10_M_destroyEv=so_stub_for_libtelux_platform_diag
-Wl,--defsym=_ZNSt23_Sp_counted_ptr_inplaceIN5telux8platform4diag18DiagLogManagerImplESaIS3_ELN9__gnu_cxx12_Lock_policyE2EE10_M_disposeEv=so_stub_for_libtelux_platform_diag
-Wl,--defsym=_ZNSt23_Sp_counted_ptr_inplaceIN5telux8platform4diag18DiagLogManagerImplESaIS3_ELN9__gnu_cxx12_Lock_policyE2EE14_M_get_deleterERKSt9type_info=so_stub_for_libtelux_platform_diag
-Wl,--defsym=_ZNSt23_Sp_counted_ptr_inplaceIN5telux8platform4diag18DiagLogManagerImplESaIS3_ELN9__gnu_cxx12_Lock_policyE2EED0Ev=so_stub_for_libtelux_platform_diag
-Wl,--defsym=_ZNSt23_Sp_counted_ptr_inplaceIN5telux8platform4diag18DiagLogManagerImplESaIS3_ELN9__gnu_cxx12_Lock_policyE2EED1Ev=so_stub_for_libtelux_platform_diag
-Wl,--defsym=_ZNSt23_Sp_counted_ptr_inplaceIN5telux8platform4diag18DiagLogManagerImplESaIS3_ELN9__gnu_cxx12_Lock_policyE2EED2Ev=so_stub_for_libtelux_platform_diag
-Wl,--defsym=_ZNSt23_Sp_counted_ptr_inplaceISt6threadSaIS0_ELN9__gnu_cxx12_Lock_policyE2EE10_M_destroyEv=so_stub_for_libtelux_platform_diag
-Wl,--defsym=_ZNSt23_Sp_counted_ptr_inplaceISt6threadSaIS0_ELN9__gnu_cxx12_Lock_policyE2EE10_M_disposeEv=so_stub_for_libtelux_platform_diag
-Wl,--defsym=_ZNSt23_Sp_counted_ptr_inplaceISt6threadSaIS0_ELN9__gnu_cxx12_Lock_policyE2EE14_M_get_deleterERKSt9type_info=so_stub_for_libtelux_platform_diag
-Wl,--defsym=_ZNSt23_Sp_counted_ptr_inplaceISt6threadSaIS0_ELN9__gnu_cxx12_Lock_policyE2EED0Ev=so_stub_for_libtelux_platform_diag
-Wl,--defsym=_ZNSt23_Sp_counted_ptr_inplaceISt6threadSaIS0_ELN9__gnu_cxx12_Lock_policyE2EED1Ev=so_stub_for_libtelux_platform_diag
-Wl,--defsym=_ZNSt23_Sp_counted_ptr_inplaceISt6threadSaIS0_ELN9__gnu_cxx12_Lock_policyE2EED2Ev=so_stub_for_libtelux_platform_diag
-Wl,--defsym=_ZNSt23_Sp_counted_ptr_inplaceISt6vectorIhSaIhEESaIS2_ELN9__gnu_cxx12_Lock_policyE2EE10_M_destroyEv=so_stub_for_libtelux_platform_diag
-Wl,--defsym=_ZNSt23_Sp_counted_ptr_inplaceISt6vectorIhSaIhEESaIS2_ELN9__gnu_cxx12_Lock_policyE2EE10_M_disposeEv=so_stub_for_libtelux_platform_diag
-Wl,--defsym=_ZNSt23_Sp_counted_ptr_inplaceISt6vectorIhSaIhEESaIS2_ELN9__gnu_cxx12_Lock_policyE2EE14_M_get_deleterERKSt9type_info=so_stub_for_libtelux_platform_diag
-Wl,--defsym=_ZNSt23_Sp_counted_ptr_inplaceISt6vectorIhSaIhEESaIS2_ELN9__gnu_cxx12_Lock_policyE2EED0Ev=so_stub_for_libtelux_platform_diag
-Wl,--defsym=_ZNSt23_Sp_counted_ptr_inplaceISt6vectorIhSaIhEESaIS2_ELN9__gnu_cxx12_Lock_policyE2EED1Ev=so_stub_for_libtelux_platform_diag
-Wl,--defsym=_ZNSt23_Sp_counted_ptr_inplaceISt6vectorIhSaIhEESaIS2_ELN9__gnu_cxx12_Lock_policyE2EED2Ev=so_stub_for_libtelux_platform_diag
-Wl,--defsym=_ZNSt5dequeISt13shared_futureIvESaIS1_EE13_M_insert_auxISt15_Deque_iteratorIS1_RKS1_PS6_EEEvS5_IS1_RS1_PS1_ET_SD_m=so_stub_for_libtelux_platform_diag
-Wl,--defsym=_ZNSt5dequeISt13shared_futureIvESaIS1_EE15_M_erase_at_endESt15_Deque_iteratorIS1_RS1_PS1_E=so_stub_for_libtelux_platform_diag
-Wl,--defsym=_ZNSt5dequeISt13shared_futureIvESaIS1_EE16_M_pop_front_auxEv=so_stub_for_libtelux_platform_diag
-Wl,--defsym=_ZNSt5dequeISt13shared_futureIvESaIS1_EE16_M_push_back_auxIJRKS1_EEEvDpOT_=so_stub_for_libtelux_platform_diag
-Wl,--defsym=_ZNSt5dequeISt13shared_futureIvESaIS1_EE17_M_reallocate_mapEmb=so_stub_for_libtelux_platform_diag
-Wl,--defsym=_ZNSt5dequeISt13shared_futureIvESaIS1_EE19_M_destroy_data_auxESt15_Deque_iteratorIS1_RS1_PS1_ES7_=so_stub_for_libtelux_platform_diag
-Wl,--defsym=_ZNSt5dequeISt13shared_futureIvESaIS1_EE19_M_range_insert_auxISt15_Deque_iteratorIS1_RKS1_PS6_EEEvS5_IS1_RS1_PS1_ET_SD_St20forward_iterator_tag=so_stub_for_libtelux_platform_diag
-Wl,--defsym=_ZNSt5dequeISt13shared_futureIvESaIS1_EE23_M_new_elements_at_backEm=so_stub_for_libtelux_platform_diag
-Wl,--defsym=_ZNSt5dequeISt13shared_futureIvESaIS1_EE24_M_new_elements_at_frontEm=so_stub_for_libtelux_platform_diag
-Wl,--defsym=_ZNSt5dequeISt13shared_futureIvESaIS1_EE8_M_eraseESt15_Deque_iteratorIS1_RS1_PS1_E=so_stub_for_libtelux_platform_diag
-Wl,--defsym=_ZNSt5dequeISt13shared_futureIvESaIS1_EEaSERKS3_=so_stub_for_libtelux_platform_diag
-Wl,--defsym=_ZNSt5dequeISt13shared_futureIvESaIS1_EED1Ev=so_stub_for_libtelux_platform_diag
-Wl,--defsym=_ZNSt5dequeISt13shared_futureIvESaIS1_EED2Ev=so_stub_for_libtelux_platform_diag
-Wl,--defsym=_ZNSt6thread11_State_implINS_8_InvokerISt5tupleIJMN5telux6common14AsyncTaskQueueIvEEFvvEPS6_EEEEE6_M_runEv=so_stub_for_libtelux_platform_diag
-Wl,--defsym=_ZNSt6thread11_State_implINS_8_InvokerISt5tupleIJMN5telux6common14AsyncTaskQueueIvEEFvvEPS6_EEEEED0Ev=so_stub_for_libtelux_platform_diag
-Wl,--defsym=_ZNSt6thread11_State_implINS_8_InvokerISt5tupleIJMN5telux6common14AsyncTaskQueueIvEEFvvEPS6_EEEEED1Ev=so_stub_for_libtelux_platform_diag
-Wl,--defsym=_ZNSt6thread11_State_implINS_8_InvokerISt5tupleIJMN5telux6common14AsyncTaskQueueIvEEFvvEPS6_EEEEED2Ev=so_stub_for_libtelux_platform_diag
-Wl,--defsym=_ZNSt6thread11_State_implINS_8_InvokerISt5tupleIJZN5telux6common13FactoryHelper10getManagerINS3_8platform4diag15IDiagLogManagerEEESt10shared_ptrIT_ENSt7__cxx1112basic_stringIcSt11char_traitsIcESaIcEEERSt8weak_ptrISB_ERSt6vectorISt8functionIFvNS4_13ServiceStatusEEESaISQ_EESQ_SN_IFSC_SQ_EEEUlvE_EEEEE6_M_runEv=so_stub_for_libtelux_platform_diag
-Wl,--defsym=_ZNSt6thread11_State_implINS_8_InvokerISt5tupleIJZN5telux6common13FactoryHelper10getManagerINS3_8platform4diag15IDiagLogManagerEEESt10shared_ptrIT_ENSt7__cxx1112basic_stringIcSt11char_traitsIcESaIcEEERSt8weak_ptrISB_ERSt6vectorISt8functionIFvNS4_13ServiceStatusEEESaISQ_EESQ_SN_IFSC_SQ_EEEUlvE_EEEEED0Ev=so_stub_for_libtelux_platform_diag
-Wl,--defsym=_ZNSt6thread11_State_implINS_8_InvokerISt5tupleIJZN5telux6common13FactoryHelper10getManagerINS3_8platform4diag15IDiagLogManagerEEESt10shared_ptrIT_ENSt7__cxx1112basic_stringIcSt11char_traitsIcESaIcEEERSt8weak_ptrISB_ERSt6vectorISt8functionIFvNS4_13ServiceStatusEEESaISQ_EESQ_SN_IFSC_SQ_EEEUlvE_EEEEED1Ev=so_stub_for_libtelux_platform_diag
-Wl,--defsym=_ZNSt6thread11_State_implINS_8_InvokerISt5tupleIJZN5telux6common13FactoryHelper10getManagerINS3_8platform4diag15IDiagLogManagerEEESt10shared_ptrIT_ENSt7__cxx1112basic_stringIcSt11char_traitsIcESaIcEEERSt8weak_ptrISB_ERSt6vectorISt8functionIFvNS4_13ServiceStatusEEESaISQ_EESQ_SN_IFSC_SQ_EEEUlvE_EEEEED2Ev=so_stub_for_libtelux_platform_diag
-Wl,--defsym=_ZNSt6threadC1IMN5telux6common14AsyncTaskQueueIvEEFvvEJPS4_EvEEOT_DpOT0_=so_stub_for_libtelux_platform_diag
-Wl,--defsym=_ZNSt6threadC1IZN5telux6common13FactoryHelper10getManagerINS1_8platform4diag15IDiagLogManagerEEESt10shared_ptrIT_ENSt7__cxx1112basic_stringIcSt11char_traitsIcESaIcEEERSt8weak_ptrIS9_ERSt6vectorISt8functionIFvNS2_13ServiceStatusEEESaISO_EESO_SL_IFSA_SO_EEEUlvE_JEvEEOS9_DpOT0_=so_stub_for_libtelux_platform_diag
-Wl,--defsym=_ZNSt6threadC2IMN5telux6common14AsyncTaskQueueIvEEFvvEJPS4_EvEEOT_DpOT0_=so_stub_for_libtelux_platform_diag
-Wl,--defsym=_ZNSt6threadC2IZN5telux6common13FactoryHelper10getManagerINS1_8platform4diag15IDiagLogManagerEEESt10shared_ptrIT_ENSt7__cxx1112basic_stringIcSt11char_traitsIcESaIcEEERSt8weak_ptrIS9_ERSt6vectorISt8functionIFvNS2_13ServiceStatusEEESaISO_EESO_SL_IFSA_SO_EEEUlvE_JEvEEOS9_DpOT0_=so_stub_for_libtelux_platform_diag
-Wl,--defsym=_ZNSt6vectorIhSaIhEE12emplace_backIJhEEEvDpOT_=so_stub_for_libtelux_platform_diag
-Wl,--defsym=_ZNSt6vectorIhSaIhEE17_M_realloc_insertIJhEEEvN9__gnu_cxx17__normal_iteratorIPhS1_EEDpOT_=so_stub_for_libtelux_platform_diag
-Wl,--defsym=_ZNSt6vectorIhSaIhEEaSERKS1_=so_stub_for_libtelux_platform_diag
-Wl,--defsym=_ZNSt6vectorIhSaIhEEC1ESt16initializer_listIhERKS0_=so_stub_for_libtelux_platform_diag
-Wl,--defsym=_ZNSt6vectorIhSaIhEEC1IPhvEET_S4_RKS0_=so_stub_for_libtelux_platform_diag
-Wl,--defsym=_ZNSt6vectorIhSaIhEEC2ESt16initializer_listIhERKS0_=so_stub_for_libtelux_platform_diag
-Wl,--defsym=_ZNSt6vectorIhSaIhEEC2IPhvEET_S4_RKS0_=so_stub_for_libtelux_platform_diag
-Wl,--defsym=_ZNSt6vectorISt8functionIFvN5telux6common13ServiceStatusEEESaIS5_EE15_M_erase_at_endEPS5_=so_stub_for_libtelux_platform_diag
-Wl,--defsym=_ZNSt6vectorISt8functionIFvN5telux6common13ServiceStatusEEESaIS5_EE17_M_realloc_insertIJRKS5_EEEvN9__gnu_cxx17__normal_iteratorIPS5_S7_EEDpOT_=so_stub_for_libtelux_platform_diag
-Wl,--defsym=_ZNSt6vectorISt8functionIFvN5telux6common13ServiceStatusEEESaIS5_EE20_M_allocate_and_copyIN9__gnu_cxx17__normal_iteratorIPKS5_S7_EEEEPS5_mT_SF_=so_stub_for_libtelux_platform_diag
-Wl,--defsym=_ZNSt6vectorISt8functionIFvN5telux6common13ServiceStatusEEESaIS5_EEaSERKS7_=so_stub_for_libtelux_platform_diag
-Wl,--defsym=_ZNSt6vectorISt8functionIFvN5telux6common13ServiceStatusEEESaIS5_EED1Ev=so_stub_for_libtelux_platform_diag
-Wl,--defsym=_ZNSt6vectorISt8functionIFvN5telux6common13ServiceStatusEEESaIS5_EED2Ev=so_stub_for_libtelux_platform_diag
-Wl,--defsym=_ZNSt6vectorISt8weak_ptrIN5telux6common12ISDKListenerEESaIS4_EE12emplace_backIJRS4_EEEvDpOT_=so_stub_for_libtelux_platform_diag
-Wl,--defsym=_ZNSt6vectorISt8weak_ptrIN5telux6common12ISDKListenerEESaIS4_EE12emplace_backIJRSt10shared_ptrIS3_EEEEvDpOT_=so_stub_for_libtelux_platform_diag
-Wl,--defsym=_ZNSt6vectorISt8weak_ptrIN5telux6common12ISDKListenerEESaIS4_EE17_M_realloc_insertIJRS4_EEEvN9__gnu_cxx17__normal_iteratorIPS4_S6_EEDpOT_=so_stub_for_libtelux_platform_diag
-Wl,--defsym=_ZNSt6vectorISt8weak_ptrIN5telux6common12ISDKListenerEESaIS4_EE17_M_realloc_insertIJRSt10shared_ptrIS3_EEEEvN9__gnu_cxx17__normal_iteratorIPS4_S6_EEDpOT_=so_stub_for_libtelux_platform_diag
-Wl,--defsym=_ZNSt6vectorISt8weak_ptrIN5telux6common12ISDKListenerEESaIS4_EE8_M_eraseEN9__gnu_cxx17__normal_iteratorIPS4_S6_EE=so_stub_for_libtelux_platform_diag
-Wl,--defsym=_ZNSt6vectorISt8weak_ptrIN5telux6common12ISDKListenerEESaIS4_EED1Ev=so_stub_for_libtelux_platform_diag
-Wl,--defsym=_ZNSt6vectorISt8weak_ptrIN5telux6common12ISDKListenerEESaIS4_EED2Ev=so_stub_for_libtelux_platform_diag
-Wl,--defsym=_ZNSt7__cxx1112basic_stringIcSt11char_traitsIcESaIcEE12_M_constructIPcEEvT_S7_St20forward_iterator_tag=so_stub_for_libtelux_platform_diag
-Wl,--defsym=_ZNSt7__cxx1112basic_stringIcSt11char_traitsIcESaIcEE12_M_constructIPKcEEvT_S8_St20forward_iterator_tag=so_stub_for_libtelux_platform_diag
-Wl,--defsym=_ZNSt7__cxx1115basic_stringbufIcSt11char_traitsIcESaIcEED0Ev=so_stub_for_libtelux_platform_diag
-Wl,--defsym=_ZNSt7__cxx1115basic_stringbufIcSt11char_traitsIcESaIcEED1Ev=so_stub_for_libtelux_platform_diag
-Wl,--defsym=_ZNSt7__cxx1115basic_stringbufIcSt11char_traitsIcESaIcEED2Ev=so_stub_for_libtelux_platform_diag
-Wl,--defsym=_ZNSt8__detail14__to_chars_lenIjEEjT_i=so_stub_for_libtelux_platform_diag
-Wl,--defsym=_ZNSt8__detail18__to_chars_10_implIjEEvPcjT_=so_stub_for_libtelux_platform_diag
-Wl,--defsym=_ZNSt8functionIFvN5telux6common13ServiceStatusEEEaSERKS4_=so_stub_for_libtelux_platform_diag
-Wl,--defsym=_ZNSt8functionIFvN5telux6common13ServiceStatusEEEC1IRZNS1_13FactoryHelper10getManagerINS0_8platform4diag15IDiagLogManagerEEESt10shared_ptrIT_ENSt7__cxx1112basic_stringIcSt11char_traitsIcESaIcEEERSt8weak_ptrISC_ERSt6vectorIS4_SaIS4_EES4_S_IFSD_S4_EEEUlS2_E0_vEEOSC_=so_stub_for_libtelux_platform_diag
-Wl,--defsym=_ZNSt8functionIFvN5telux6common13ServiceStatusEEEC2IRZNS1_13FactoryHelper10getManagerINS0_8platform4diag15IDiagLogManagerEEESt10shared_ptrIT_ENSt7__cxx1112basic_stringIcSt11char_traitsIcESaIcEEERSt8weak_ptrISC_ERSt6vectorIS4_SaIS4_EES4_S_IFSD_S4_EEEUlS2_E0_vEEOSC_=so_stub_for_libtelux_platform_diag
-Wl,--defsym=_ZNSt8_Rb_treeIjSt4pairIKjSt3setISt8weak_ptrIN5telux6common12ISDKListenerEENS5_15ListenerManager12SetPredicateESaIS7_EEESt10_Select1stISC_ESt4lessIjESaISC_EE8_M_eraseEPSt13_Rb_tree_nodeISC_E=so_stub_for_libtelux_platform_diag
-Wl,--defsym=_ZNSt8_Rb_treeISt8weak_ptrIN5telux6common12ISDKListenerEES4_St9_IdentityIS4_ENS2_15ListenerManager12SetPredicateESaIS4_EE8_M_eraseEPSt13_Rb_tree_nodeIS4_E=so_stub_for_libtelux_platform_diag
-Wl,--defsym=_ZSt13__copy_move_aILb0EN9__gnu_cxx17__normal_iteratorIPKSt8functionIFvN5telux6common13ServiceStatusEEESt6vectorIS7_SaIS7_EEEENS1_IPS7_SC_EEET1_T0_SH_SG_=so_stub_for_libtelux_platform_diag
-Wl,--defsym=_ZSt13__copy_move_aILb1EN9__gnu_cxx17__normal_iteratorIPSt8weak_ptrIN5telux6common12ISDKListenerEESt6vectorIS6_SaIS6_EEEESB_ET1_T0_SD_SC_=so_stub_for_libtelux_platform_diag
-Wl,--defsym=_ZSt13move_backwardISt15_Deque_iteratorISt13shared_futureIvERS2_PS2_ES5_ET0_T_S7_S6_=so_stub_for_libtelux_platform_diag
-Wl,--defsym=_ZSt14__copy_move_a1ILb0EPSt13shared_futureIvES1_EN9__gnu_cxx11__enable_ifIXsrSt23__is_random_access_iterIT0_NSt15iterator_traitsIS6_E17iterator_categoryEE7__valueESt15_Deque_iteratorIT1_RSC_PSC_EE6__typeES6_S6_SF_=so_stub_for_libtelux_platform_diag
-Wl,--defsym=_ZSt14__copy_move_a1ILb0ESt13shared_futureIvERKS1_PS2_S1_ESt15_Deque_iteratorIT3_RS6_PS6_ES5_IT0_T1_T2_ESD_S9_=so_stub_for_libtelux_platform_diag
-Wl,--defsym=_ZSt14__copy_move_a1ILb1EPSt13shared_futureIvES1_EN9__gnu_cxx11__enable_ifIXsrSt23__is_random_access_iterIT0_NSt15iterator_traitsIS6_E17iterator_categoryEE7__valueESt15_Deque_iteratorIT1_RSC_PSC_EE6__typeES6_S6_SF_=so_stub_for_libtelux_platform_diag
-Wl,--defsym=_ZSt14__copy_move_a1ILb1ESt13shared_futureIvERS1_PS1_S1_ESt15_Deque_iteratorIT3_RS5_PS5_ES4_IT0_T1_T2_ESC_S8_=so_stub_for_libtelux_platform_diag
-Wl,--defsym=_ZSt18make_exception_ptrISt12future_errorENSt15__exception_ptr13exception_ptrET_=so_stub_for_libtelux_platform_diag
-Wl,--defsym=_ZSt18uninitialized_copyISt13move_iteratorISt15_Deque_iteratorISt13shared_futureIvERS3_PS3_EES6_ET0_T_S9_S8_=so_stub_for_libtelux_platform_diag
-Wl,--defsym=_ZSt22__uninitialized_copy_aISt15_Deque_iteratorISt13shared_futureIvERKS2_PS3_ES0_IS2_RS2_PS2_ES2_ET0_T_SB_SA_RSaIT1_E=so_stub_for_libtelux_platform_diag
-Wl,--defsym=_ZSt22__uninitialized_move_aISt15_Deque_iteratorISt13shared_futureIvERS2_PS2_ES5_SaIS2_EET0_T_S8_S7_RT1_=so_stub_for_libtelux_platform_diag
-Wl,--defsym=_ZSt23__copy_move_backward_a1ILb1EPSt13shared_futureIvES1_EN9__gnu_cxx11__enable_ifIXsrSt23__is_random_access_iterIT0_NSt15iterator_traitsIS6_E17iterator_categoryEE7__valueESt15_Deque_iteratorIT1_RSC_PSC_EE6__typeES6_S6_SF_=so_stub_for_libtelux_platform_diag
-Wl,--defsym=_ZSt23__copy_move_backward_a1ILb1ESt13shared_futureIvERS1_PS1_S1_ESt15_Deque_iteratorIT3_RS5_PS5_ES4_IT0_T1_T2_ESC_S8_=so_stub_for_libtelux_platform_diag
-Wl,--defsym=_ZSt4copyISt15_Deque_iteratorISt13shared_futureIvERKS2_PS3_ES0_IS2_RS2_PS2_EET0_T_SB_SA_=so_stub_for_libtelux_platform_diag
-Wl,--defsym=_ZSt4moveISt15_Deque_iteratorISt13shared_futureIvERS2_PS2_ES5_ET0_T_S7_S6_=so_stub_for_libtelux_platform_diag
-Wl,--defsym=_ZSt7find_ifIN9__gnu_cxx17__normal_iteratorIPSt8weak_ptrIN5telux6common12ISDKListenerEESt6vectorIS6_SaIS6_EEEEZNS4_15ListenerManager16registerListenerES6_EUlS6_E_ET_SE_SE_T0_=so_stub_for_libtelux_platform_diag
-Wl,--defsym=_ZSt9__advanceISt15_Deque_iteratorISt13shared_futureIvERKS2_PS3_ElEvRT_T0_St26random_access_iterator_tag=so_stub_for_libtelux_platform_diag
-Wl,--defsym=_ZSt9__find_ifIN9__gnu_cxx17__normal_iteratorIPSt8weak_ptrIN5telux6common12ISDKListenerEESt6vectorIS6_SaIS6_EEEENS0_5__ops10_Iter_predIZNS4_15ListenerManager16registerListenerES6_EUlS6_E_EEET_SH_SH_T0_St26random_access_iterator_tag=so_stub_for_libtelux_platform_diag
-Wl,--defsym=_ZStplIcSt11char_traitsIcESaIcEENSt7__cxx1112basic_stringIT_T0_T1_EEPKS5_OS8_=so_stub_for_libtelux_platform_diag
-Wl,--defsym=_ZStplIcSt11char_traitsIcESaIcEENSt7__cxx1112basic_stringIT_T0_T1_EEPKS5_RKS8_=so_stub_for_libtelux_platform_diag
-Wl,--defsym=_ZTIN5telux6common12ISDKListenerE=so_stub_for_libtelux_platform_diag
-Wl,--defsym=_ZTIN5telux6common13FactoryHelperE=so_stub_for_libtelux_platform_diag
-Wl,--defsym=_ZTIN5telux8platform4diag13IDiagListenerE=so_stub_for_libtelux_platform_diag
-Wl,--defsym=_ZTIN5telux8platform4diag15IDiagLogManagerE=so_stub_for_libtelux_platform_diag
-Wl,--defsym=_ZTIN5telux8platform4diag18DiagLogManagerImplE=so_stub_for_libtelux_platform_diag
-Wl,--defsym=_ZTIN5telux8platform4diag18DiagnosticsFactoryE=so_stub_for_libtelux_platform_diag
-Wl,--defsym=_ZTIN5telux8platform4diag22DiagnosticsFactoryImplE=so_stub_for_libtelux_platform_diag
-Wl,--defsym=_ZTINSt13__future_base13_State_baseV2E=so_stub_for_libtelux_platform_diag
-Wl,--defsym=_ZTINSt13__future_base21_Async_state_commonV2E=so_stub_for_libtelux_platform_diag
-Wl,--defsym=_ZTINSt13__future_base7_ResultIvEE=so_stub_for_libtelux_platform_diag
-Wl,--defsym=_ZTINSt6thread11_State_implINS_8_InvokerISt5tupleIJMN5telux6common14AsyncTaskQueueIvEEFvvEPS6_EEEEEE=so_stub_for_libtelux_platform_diag
-Wl,--defsym=_ZTINSt6thread11_State_implINS_8_InvokerISt5tupleIJZN5telux6common13FactoryHelper10getManagerINS3_8platform4diag15IDiagLogManagerEEESt10shared_ptrIT_ENSt7__cxx1112basic_stringIcSt11char_traitsIcESaIcEEERSt8weak_ptrISB_ERSt6vectorISt8functionIFvNS4_13ServiceStatusEEESaISQ_EESQ_SN_IFSC_SQ_EEEUlvE_EEEEEE=so_stub_for_libtelux_platform_diag
-Wl,--defsym=_ZTISt11_Mutex_baseILN9__gnu_cxx12_Lock_policyE2EE=so_stub_for_libtelux_platform_diag
-Wl,--defsym=_ZTISt16_Sp_counted_baseILN9__gnu_cxx12_Lock_policyE2EE=so_stub_for_libtelux_platform_diag
-Wl,--defsym=_ZTISt23enable_shared_from_thisIN5telux8platform4diag18DiagLogManagerImplEE=so_stub_for_libtelux_platform_diag
-Wl,--defsym=_ZTISt23_Sp_counted_ptr_inplaceIN5telux6common14AsyncTaskQueueIvEESaIS3_ELN9__gnu_cxx12_Lock_policyE2EE=so_stub_for_libtelux_platform_diag
-Wl,--defsym=_ZTISt23_Sp_counted_ptr_inplaceIN5telux6common15ListenerManagerESaIS2_ELN9__gnu_cxx12_Lock_policyE2EE=so_stub_for_libtelux_platform_diag
-Wl,--defsym=_ZTISt23_Sp_counted_ptr_inplaceIN5telux8platform4diag18DiagLogManagerImplESaIS3_ELN9__gnu_cxx12_Lock_policyE2EE=so_stub_for_libtelux_platform_diag
-Wl,--defsym=_ZTISt23_Sp_counted_ptr_inplaceISt6threadSaIS0_ELN9__gnu_cxx12_Lock_policyE2EE=so_stub_for_libtelux_platform_diag
-Wl,--defsym=_ZTISt23_Sp_counted_ptr_inplaceISt6vectorIhSaIhEESaIS2_ELN9__gnu_cxx12_Lock_policyE2EE=so_stub_for_libtelux_platform_diag
-Wl,--defsym=_ZTIZN5telux6common13FactoryHelper10getManagerINS_8platform4diag15IDiagLogManagerEEESt10shared_ptrIT_ENSt7__cxx1112basic_stringIcSt11char_traitsIcESaIcEEERSt8weak_ptrIS7_ERSt6vectorISt8functionIFvNS0_13ServiceStatusEEESaISM_EESM_SJ_IFS8_SM_EEEUlSK_E0_=so_stub_for_libtelux_platform_diag
-Wl,--defsym=_ZTSN5telux6common12ISDKListenerE=so_stub_for_libtelux_platform_diag
-Wl,--defsym=_ZTSN5telux6common13FactoryHelperE=so_stub_for_libtelux_platform_diag
-Wl,--defsym=_ZTSN5telux8platform4diag13IDiagListenerE=so_stub_for_libtelux_platform_diag
-Wl,--defsym=_ZTSN5telux8platform4diag15IDiagLogManagerE=so_stub_for_libtelux_platform_diag
-Wl,--defsym=_ZTSN5telux8platform4diag18DiagLogManagerImplE=so_stub_for_libtelux_platform_diag
-Wl,--defsym=_ZTSN5telux8platform4diag18DiagnosticsFactoryE=so_stub_for_libtelux_platform_diag
-Wl,--defsym=_ZTSN5telux8platform4diag22DiagnosticsFactoryImplE=so_stub_for_libtelux_platform_diag
-Wl,--defsym=_ZTSNSt13__future_base13_State_baseV2E=so_stub_for_libtelux_platform_diag
-Wl,--defsym=_ZTSNSt13__future_base21_Async_state_commonV2E=so_stub_for_libtelux_platform_diag
-Wl,--defsym=_ZTSNSt13__future_base7_ResultIvEE=so_stub_for_libtelux_platform_diag
-Wl,--defsym=_ZTSNSt6thread11_State_implINS_8_InvokerISt5tupleIJMN5telux6common14AsyncTaskQueueIvEEFvvEPS6_EEEEEE=so_stub_for_libtelux_platform_diag
-Wl,--defsym=_ZTSNSt6thread11_State_implINS_8_InvokerISt5tupleIJZN5telux6common13FactoryHelper10getManagerINS3_8platform4diag15IDiagLogManagerEEESt10shared_ptrIT_ENSt7__cxx1112basic_stringIcSt11char_traitsIcESaIcEEERSt8weak_ptrISB_ERSt6vectorISt8functionIFvNS4_13ServiceStatusEEESaISQ_EESQ_SN_IFSC_SQ_EEEUlvE_EEEEEE=so_stub_for_libtelux_platform_diag
-Wl,--defsym=_ZTSSt11_Mutex_baseILN9__gnu_cxx12_Lock_policyE2EE=so_stub_for_libtelux_platform_diag
-Wl,--defsym=_ZTSSt16_Sp_counted_baseILN9__gnu_cxx12_Lock_policyE2EE=so_stub_for_libtelux_platform_diag
-Wl,--defsym=_ZTSSt19_Sp_make_shared_tag=so_stub_for_libtelux_platform_diag
-Wl,--defsym=_ZTSSt23enable_shared_from_thisIN5telux8platform4diag18DiagLogManagerImplEE=so_stub_for_libtelux_platform_diag
-Wl,--defsym=_ZTSSt23_Sp_counted_ptr_inplaceIN5telux6common14AsyncTaskQueueIvEESaIS3_ELN9__gnu_cxx12_Lock_policyE2EE=so_stub_for_libtelux_platform_diag
-Wl,--defsym=_ZTSSt23_Sp_counted_ptr_inplaceIN5telux6common15ListenerManagerESaIS2_ELN9__gnu_cxx12_Lock_policyE2EE=so_stub_for_libtelux_platform_diag
-Wl,--defsym=_ZTSSt23_Sp_counted_ptr_inplaceIN5telux8platform4diag18DiagLogManagerImplESaIS3_ELN9__gnu_cxx12_Lock_policyE2EE=so_stub_for_libtelux_platform_diag
-Wl,--defsym=_ZTSSt23_Sp_counted_ptr_inplaceISt6threadSaIS0_ELN9__gnu_cxx12_Lock_policyE2EE=so_stub_for_libtelux_platform_diag
-Wl,--defsym=_ZTSSt23_Sp_counted_ptr_inplaceISt6vectorIhSaIhEESaIS2_ELN9__gnu_cxx12_Lock_policyE2EE=so_stub_for_libtelux_platform_diag
-Wl,--defsym=_ZTSZN5telux6common13FactoryHelper10getManagerINS_8platform4diag15IDiagLogManagerEEESt10shared_ptrIT_ENSt7__cxx1112basic_stringIcSt11char_traitsIcESaIcEEERSt8weak_ptrIS7_ERSt6vectorISt8functionIFvNS0_13ServiceStatusEEESaISM_EESM_SJ_IFS8_SM_EEEUlSK_E0_=so_stub_for_libtelux_platform_diag
-Wl,--defsym=_ZTVN5telux8platform4diag18DiagLogManagerImplE=so_stub_for_libtelux_platform_diag
-Wl,--defsym=_ZTVN5telux8platform4diag18DiagnosticsFactoryE=so_stub_for_libtelux_platform_diag
-Wl,--defsym=_ZTVN5telux8platform4diag22DiagnosticsFactoryImplE=so_stub_for_libtelux_platform_diag
-Wl,--defsym=_ZTVNSt13__future_base13_State_baseV2E=so_stub_for_libtelux_platform_diag
-Wl,--defsym=_ZTVNSt13__future_base21_Async_state_commonV2E=so_stub_for_libtelux_platform_diag
-Wl,--defsym=_ZTVNSt13__future_base7_ResultIvEE=so_stub_for_libtelux_platform_diag
-Wl,--defsym=_ZTVNSt6thread11_State_implINS_8_InvokerISt5tupleIJMN5telux6common14AsyncTaskQueueIvEEFvvEPS6_EEEEEE=so_stub_for_libtelux_platform_diag
-Wl,--defsym=_ZTVNSt6thread11_State_implINS_8_InvokerISt5tupleIJZN5telux6common13FactoryHelper10getManagerINS3_8platform4diag15IDiagLogManagerEEESt10shared_ptrIT_ENSt7__cxx1112basic_stringIcSt11char_traitsIcESaIcEEERSt8weak_ptrISB_ERSt6vectorISt8functionIFvNS4_13ServiceStatusEEESaISQ_EESQ_SN_IFSC_SQ_EEEUlvE_EEEEEE=so_stub_for_libtelux_platform_diag
-Wl,--defsym=_ZTVSt23_Sp_counted_ptr_inplaceIN5telux6common14AsyncTaskQueueIvEESaIS3_ELN9__gnu_cxx12_Lock_policyE2EE=so_stub_for_libtelux_platform_diag
-Wl,--defsym=_ZTVSt23_Sp_counted_ptr_inplaceIN5telux6common15ListenerManagerESaIS2_ELN9__gnu_cxx12_Lock_policyE2EE=so_stub_for_libtelux_platform_diag
-Wl,--defsym=_ZTVSt23_Sp_counted_ptr_inplaceIN5telux8platform4diag18DiagLogManagerImplESaIS3_ELN9__gnu_cxx12_Lock_policyE2EE=so_stub_for_libtelux_platform_diag
-Wl,--defsym=_ZTVSt23_Sp_counted_ptr_inplaceISt6threadSaIS0_ELN9__gnu_cxx12_Lock_policyE2EE=so_stub_for_libtelux_platform_diag
-Wl,--defsym=_ZTVSt23_Sp_counted_ptr_inplaceISt6vectorIhSaIhEESaIS2_ELN9__gnu_cxx12_Lock_policyE2EE=so_stub_for_libtelux_platform_diag
-Wl,--defsym=_ZZN5telux6common13FactoryHelper10getManagerINS_8platform4diag15IDiagLogManagerEEESt10shared_ptrIT_ENSt7__cxx1112basic_stringIcSt11char_traitsIcESaIcEEERSt8weak_ptrIS7_ERSt6vectorISt8functionIFvNS0_13ServiceStatusEEESaISM_EESM_SJ_IFS8_SM_EEENKUlSK_E0_clESK_=so_stub_for_libtelux_platform_diag
-Wl,--defsym=_ZZNSt19_Sp_make_shared_tag5_S_tiEvE5__tag=so_stub_for_libtelux_platform_diag
-Wl,--defsym=_ZZNSt8__detail18__to_chars_10_implIjEEvPcjT_E8__digits=so_stub_for_libtelux_platform_diag
-Wl,--defsym=_ZZNSt9once_flag18_Prepare_executionC4IZSt9call_onceIMNSt13__future_base13_State_baseV2EFvPSt8functionIFSt10unique_ptrINS3_12_Result_baseENS7_8_DeleterEEvEEPbEJPS4_SC_SD_EEvRS_OT_DpOT0_EUlvE_EERSI_ENUlvE_4_FUNEv=so_stub_for_libtelux_platform_diag
-Wl,--defsym=_ZZNSt9once_flag18_Prepare_executionC4IZSt9call_onceIMSt6threadFvvEJPS3_EEvRS_OT_DpOT0_EUlvE_EERS8_ENUlvE_4_FUNEv=so_stub_for_libtelux_platform_diag
