-Wl,--defsym=__gcov_error_file=so_stub_for_libtelux_cv2x
-Wl,--defsym=__gcov_kvp_dynamic_pool=so_stub_for_libtelux_cv2x
-Wl,--defsym=__gcov_kvp_dynamic_pool_index=so_stub_for_libtelux_cv2x
-Wl,--defsym=__gcov_kvp_dynamic_pool_size=so_stub_for_libtelux_cv2x
-Wl,--defsym=__gcov_master=so_stub_for_libtelux_cv2x
-Wl,--defsym=__gcov_var=so_stub_for_libtelux_cv2x
-Wl,--defsym=mangle_path=so_stub_for_libtelux_cv2x
-Wl,--defsym=_ZGVZN5telux4cv2x21ServiceStatusListener15onCv2xStatusIndERKNS_3qmi13Cv2xStatusIndEE8statusEx=so_stub_for_libtelux_cv2x
-Wl,--defsym=_ZN5telux3qmi15IQmiDmsListener21onOperatingModeChangeEi=so_stub_for_libtelux_cv2x
-Wl,--defsym=_ZN5telux3qmi15IQmiDmsListener21onRFBandCapabilityIndEPK34dms_band_capability_ex_ind_msg_v01=so_stub_for_libtelux_cv2x
-Wl,--defsym=_ZN5telux3qmi15IQmiDmsListener24onDmsServiceStatusChangeENS_6common13ServiceStatusEi=so_stub_for_libtelux_cv2x
-Wl,--defsym=_ZN5telux3qmi15IQmiDmsListener26onModemActivityClientReadyEb=so_stub_for_libtelux_cv2x
-Wl,--defsym=_ZN5telux3qmi16ICv2xQmiListener15onCv2xStatusIndERKNS0_13Cv2xStatusIndE=so_stub_for_libtelux_cv2x
-Wl,--defsym=_ZN5telux3qmi16ICv2xQmiListener15onSlssRxInfoIndERKNS0_14Cv2xSlssRxInfoE=so_stub_for_libtelux_cv2x
-Wl,--defsym=_ZN5telux3qmi16ICv2xQmiListener16onSrcIdCollisionEj=so_stub_for_libtelux_cv2x
-Wl,--defsym=_ZN5telux3qmi16ICv2xQmiListener16onTxStatusReportERKNS0_21Cv2xTxStatusReportIndE=so_stub_for_libtelux_cv2x
-Wl,--defsym=_ZN5telux3qmi16ICv2xQmiListener19onCv2xUtcTimeReportERNS0_17Cv2xUtcTimeReportE=so_stub_for_libtelux_cv2x
-Wl,--defsym=_ZN5telux3qmi16ICv2xQmiListener22onCv2xQmiServiceChangeENS_6common13ServiceStatusE=so_stub_for_libtelux_cv2x
-Wl,--defsym=_ZN5telux4cv2x10Cv2xConfig16getServiceStatusEv=so_stub_for_libtelux_cv2x
-Wl,--defsym=_ZN5telux4cv2x10Cv2xConfig16registerListenerESt8weak_ptrINS0_19ICv2xConfigListenerEE=so_stub_for_libtelux_cv2x
-Wl,--defsym=_ZN5telux4cv2x10Cv2xConfig18deregisterListenerESt8weak_ptrINS0_19ICv2xConfigListenerEE=so_stub_for_libtelux_cv2x
-Wl,--defsym=_ZN5telux4cv2x10Cv2xConfig18sendConfigFileSyncERKNSt7__cxx1112basic_stringIcSt11char_traitsIcESaIcEEESt8functionIFvNS_6common9ErrorCodeEEE=so_stub_for_libtelux_cv2x
-Wl,--defsym=_ZN5telux4cv2x10Cv2xConfig19updateConfigurationERKNSt7__cxx1112basic_stringIcSt11char_traitsIcESaIcEEESt8functionIFvNS_6common9ErrorCodeEEE=so_stub_for_libtelux_cv2x
-Wl,--defsym=_ZN5telux4cv2x10Cv2xConfig20setInitializedStatusENS_6common6StatusE=so_stub_for_libtelux_cv2x
-Wl,--defsym=_ZN5telux4cv2x10Cv2xConfig21initSysCtrlClientSyncEv=so_stub_for_libtelux_cv2x
-Wl,--defsym=_ZN5telux4cv2x10Cv2xConfig21retrieveConfigurationERKNSt7__cxx1112basic_stringIcSt11char_traitsIcESaIcEEESt8functionIFvNS_6common9ErrorCodeEEE=so_stub_for_libtelux_cv2x
-Wl,--defsym=_ZN5telux4cv2x10Cv2xConfig21waitForInitializationEv=so_stub_for_libtelux_cv2x
-Wl,--defsym=_ZN5telux4cv2x10Cv2xConfig22retrieveConfigFileSyncERKNSt7__cxx1112basic_stringIcSt11char_traitsIcESaIcEEESt8functionIFvNS_6common9ErrorCodeEEE=so_stub_for_libtelux_cv2x
-Wl,--defsym=_ZN5telux4cv2x10Cv2xConfig4initESt8weak_ptrINS_6common14AsyncTaskQueueIvEEES2_IS1_ESt8functionIFvNS3_13ServiceStatusEEE=so_stub_for_libtelux_cv2x
-Wl,--defsym=_ZN5telux4cv2x10Cv2xConfig7isReadyEv=so_stub_for_libtelux_cv2x
-Wl,--defsym=_ZN5telux4cv2x10Cv2xConfig7onReadyEv=so_stub_for_libtelux_cv2x
-Wl,--defsym=_ZN5telux4cv2x10Cv2xConfig8initSyncEv=so_stub_for_libtelux_cv2x
-Wl,--defsym=_ZN5telux4cv2x10Cv2xConfigC1Ev=so_stub_for_libtelux_cv2x
-Wl,--defsym=_ZN5telux4cv2x10Cv2xConfigC2Ev=so_stub_for_libtelux_cv2x
-Wl,--defsym=_ZN5telux4cv2x10Cv2xConfigD0Ev=so_stub_for_libtelux_cv2x
-Wl,--defsym=_ZN5telux4cv2x10Cv2xConfigD1Ev=so_stub_for_libtelux_cv2x
-Wl,--defsym=_ZN5telux4cv2x10Cv2xConfigD2Ev=so_stub_for_libtelux_cv2x
-Wl,--defsym=_ZN5telux4cv2x11Cv2xFactory11getInstanceEv=so_stub_for_libtelux_cv2x
-Wl,--defsym=_ZN5telux4cv2x11Cv2xFactory13getCv2xConfigESt8functionIFvNS_6common13ServiceStatusEEE=so_stub_for_libtelux_cv2x
-Wl,--defsym=_ZN5telux4cv2x11Cv2xFactory19getCv2xRadioManagerESt8functionIFvNS_6common13ServiceStatusEEE=so_stub_for_libtelux_cv2x
-Wl,--defsym=_ZN5telux4cv2x11Cv2xFactory22getCv2xThrottleManagerESt8functionIFvNS_6common13ServiceStatusEEE=so_stub_for_libtelux_cv2x
-Wl,--defsym=_ZN5telux4cv2x11Cv2xFactoryC1Ev=so_stub_for_libtelux_cv2x
-Wl,--defsym=_ZN5telux4cv2x11Cv2xFactoryC2Ev=so_stub_for_libtelux_cv2x
-Wl,--defsym=_ZN5telux4cv2x11Cv2xFactoryD0Ev=so_stub_for_libtelux_cv2x
-Wl,--defsym=_ZN5telux4cv2x11Cv2xFactoryD1Ev=so_stub_for_libtelux_cv2x
-Wl,--defsym=_ZN5telux4cv2x11Cv2xFactoryD2Ev=so_stub_for_libtelux_cv2x
-Wl,--defsym=_ZN5telux4cv2x11Cv2xSysCtrl11getInstanceEv=so_stub_for_libtelux_cv2x
-Wl,--defsym=_ZN5telux4cv2x11Cv2xSysCtrl13releaseHandleEPv=so_stub_for_libtelux_cv2x
-Wl,--defsym=_ZN5telux4cv2x11Cv2xSysCtrl16setL2FiltersSyncERKSt6vectorINS0_12L2FilterInfoESaIS3_EE=so_stub_for_libtelux_cv2x
-Wl,--defsym=_ZN5telux4cv2x11Cv2xSysCtrl18handleSrcL2InfoIndESt10shared_ptrINS0_14IndicationDataEE=so_stub_for_libtelux_cv2x
-Wl,--defsym=_ZN5telux4cv2x11Cv2xSysCtrl18sendConfigFileSyncERKNSt7__cxx1112basic_stringIcSt11char_traitsIcESaIcEEE=so_stub_for_libtelux_cv2x
-Wl,--defsym=_ZN5telux4cv2x11Cv2xSysCtrl19removeL2FiltersSyncERKSt6vectorIjSaIjEE=so_stub_for_libtelux_cv2x
-Wl,--defsym=_ZN5telux4cv2x11Cv2xSysCtrl19setGlobalIPInfoSyncERKNS0_12IPv6AddrTypeE=so_stub_for_libtelux_cv2x
-Wl,--defsym=_ZN5telux4cv2x11Cv2xSysCtrl19updateSrcL2InfoSyncEv=so_stub_for_libtelux_cv2x
-Wl,--defsym=_ZN5telux4cv2x11Cv2xSysCtrl20handleSpsScheduleIndESt10shared_ptrINS0_14IndicationDataEE=so_stub_for_libtelux_cv2x
-Wl,--defsym=_ZN5telux4cv2x11Cv2xSysCtrl21handleConfigChangeIndESt10shared_ptrINS0_14IndicationDataEE=so_stub_for_libtelux_cv2x
-Wl,--defsym=_ZN5telux4cv2x11Cv2xSysCtrl21serviceStatusCallbackEtPv=so_stub_for_libtelux_cv2x
-Wl,--defsym=_ZN5telux4cv2x11Cv2xSysCtrl22retrieveConfigFileSyncESt8weak_ptrINS0_20ICv2xSysCtrlListenerEE=so_stub_for_libtelux_cv2x
-Wl,--defsym=_ZN5telux4cv2x11Cv2xSysCtrl23handleCapabilityInfoIndESt10shared_ptrINS0_14IndicationDataEE=so_stub_for_libtelux_cv2x
-Wl,--defsym=_ZN5telux4cv2x11Cv2xSysCtrl23requestCapabilitiesSyncERNS0_21Cv2xRadioCapabilitiesE=so_stub_for_libtelux_cv2x
-Wl,--defsym=_ZN5telux4cv2x11Cv2xSysCtrl23updateTrustedUEListSyncERKNS0_17TrustedUEInfoListE=so_stub_for_libtelux_cv2x
-Wl,--defsym=_ZN5telux4cv2x11Cv2xSysCtrl24convertCapabilityInfoMsgERNS0_21Cv2xRadioCapabilitiesERK35cv2x_get_capability_info_resp_msg_t=so_stub_for_libtelux_cv2x
-Wl,--defsym=_ZN5telux4cv2x11Cv2xSysCtrl24initTunnelModeInfoReqMsgER31cv2x_tunnel_mode_info_req_msg_tRKNS0_17TrustedUEInfoListE=so_stub_for_libtelux_cv2x
-Wl,--defsym=_ZN5telux4cv2x11Cv2xSysCtrl27handleServiceStatusCallbackESt10shared_ptrINS0_17ServiceStatusDataEE=so_stub_for_libtelux_cv2x
-Wl,--defsym=_ZN5telux4cv2x11Cv2xSysCtrl28spsSchedulingInfoIndToStringB5cxx11ERK34cv2x_sps_scheduling_info_ind_msg_t=so_stub_for_libtelux_cv2x
-Wl,--defsym=_ZN5telux4cv2x11Cv2xSysCtrl28tunnelModeInfoReqMsgToStringB5cxx11ERK31cv2x_tunnel_mode_info_req_msg_t=so_stub_for_libtelux_cv2x
-Wl,--defsym=_ZN5telux4cv2x11Cv2xSysCtrl33setGlobalIPUnicastRoutingInfoSyncERKNS0_26GlobalIPUnicastRoutingInfoE=so_stub_for_libtelux_cv2x
-Wl,--defsym=_ZN5telux4cv2x11Cv2xSysCtrl4initEv=so_stub_for_libtelux_cv2x
-Wl,--defsym=_ZN5telux4cv2x11Cv2xSysCtrl9getHandleEPFvPv15cv2x_msg_type_tP15cv2x_msg_info_tS2_ES2_=so_stub_for_libtelux_cv2x
-Wl,--defsym=_ZN5telux4cv2x11Cv2xSysCtrl9postEventEPv15cv2x_msg_type_tP15cv2x_msg_info_tS2_=so_stub_for_libtelux_cv2x
-Wl,--defsym=_ZN5telux4cv2x11Cv2xSysCtrl9postEventEtPv=so_stub_for_libtelux_cv2x
-Wl,--defsym=_ZN5telux4cv2x11Cv2xSysCtrlC1Ev=so_stub_for_libtelux_cv2x
-Wl,--defsym=_ZN5telux4cv2x11Cv2xSysCtrlC2Ev=so_stub_for_libtelux_cv2x
-Wl,--defsym=_ZN5telux4cv2x11Cv2xSysCtrlD1Ev=so_stub_for_libtelux_cv2x
-Wl,--defsym=_ZN5telux4cv2x11Cv2xSysCtrlD2Ev=so_stub_for_libtelux_cv2x
-Wl,--defsym=_ZN5telux4cv2x11TxnCallbackaSERKS1_=so_stub_for_libtelux_cv2x
-Wl,--defsym=_ZN5telux4cv2x11TxnCallbackD1Ev=so_stub_for_libtelux_cv2x
-Wl,--defsym=_ZN5telux4cv2x11TxnCallbackD2Ev=so_stub_for_libtelux_cv2x
-Wl,--defsym=_ZN5telux4cv2x12Cv2xStatusExD1Ev=so_stub_for_libtelux_cv2x
-Wl,--defsym=_ZN5telux4cv2x12Cv2xStatusExD2Ev=so_stub_for_libtelux_cv2x
-Wl,--defsym=_ZN5telux4cv2x12DsiCv2xRadio10dsiClient_E=so_stub_for_libtelux_cv2x
-Wl,--defsym=_ZN5telux4cv2x12DsiCv2xRadio10initRxSockENS0_13TrafficIpTypeERitR12sockaddr_in6=so_stub_for_libtelux_cv2x
-Wl,--defsym=_ZN5telux4cv2x12DsiCv2xRadio10removeFlowINS0_13Cv2xTxSpsFlowEEENS_6common6StatusESt10shared_ptrIT_ERSt3mapIjS6_INS0_11ICv2xTxFlowEESt4lessIjESaISt4pairIKjSB_EEE=so_stub_for_libtelux_cv2x
-Wl,--defsym=_ZN5telux4cv2x12DsiCv2xRadio10removeFlowINS0_15Cv2xTxEventFlowEEENS_6common6StatusESt10shared_ptrIT_ERSt3mapIjS6_INS0_11ICv2xTxFlowEESt4lessIjESaISt4pairIKjSB_EEE=so_stub_for_libtelux_cv2x
-Wl,--defsym=_ZN5telux4cv2x12DsiCv2xRadio11closeTxFlowESt10shared_ptrINS0_11ICv2xTxFlowEESt8functionIFvS4_NS_6common9ErrorCodeEEE=so_stub_for_libtelux_cv2x
-Wl,--defsym=_ZN5telux4cv2x12DsiCv2xRadio11getSockAddrENS0_13TrafficIpTypeEtR12sockaddr_in6Rb=so_stub_for_libtelux_cv2x
-Wl,--defsym=_ZN5telux4cv2x12DsiCv2xRadio11initTcpSockERKNS0_10SocketInfoERiR12sockaddr_in6=so_stub_for_libtelux_cv2x
-Wl,--defsym=_ZN5telux4cv2x12DsiCv2xRadio12addTcpSocketESt10shared_ptrINS0_15ICv2xTxRxSocketEE=so_stub_for_libtelux_cv2x
-Wl,--defsym=_ZN5telux4cv2x12DsiCv2xRadio12closeTcpSockEi=so_stub_for_libtelux_cv2x
-Wl,--defsym=_ZN5telux4cv2x12DsiCv2xRadio12getNextReqIdEv=so_stub_for_libtelux_cv2x
-Wl,--defsym=_ZN5telux4cv2x12DsiCv2xRadio12showAllFlowsB5cxx11Ev=so_stub_for_libtelux_cv2x
-Wl,--defsym=_ZN5telux4cv2x12DsiCv2xRadio13initIpcClientEv=so_stub_for_libtelux_cv2x
-Wl,--defsym=_ZN5telux4cv2x12DsiCv2xRadio13initTxSpsFlowENS0_13TrafficIpTypeEjRKNS0_11SpsFlowInfoEtbtRSt10shared_ptrINS0_11ICv2xTxFlowEES9_RNS_6common6StatusESC_=so_stub_for_libtelux_cv2x
-Wl,--defsym=_ZN5telux4cv2x12DsiCv2xRadio13initTxUdpSockENS0_13TrafficIpTypeERitR12sockaddr_in6=so_stub_for_libtelux_cv2x
-Wl,--defsym=_ZN5telux4cv2x12DsiCv2xRadio13onIfaceChangeENS0_13TrafficIpTypeENSt7__cxx1112basic_stringIcSt11char_traitsIcESaIcEEE8in6_addr=so_stub_for_libtelux_cv2x
-Wl,--defsym=_ZN5telux4cv2x12DsiCv2xRadio14getIfaceNameIPB5cxx11Ev=so_stub_for_libtelux_cv2x
-Wl,--defsym=_ZN5telux4cv2x12DsiCv2xRadio15addSubscriptionESt10shared_ptrINS0_19ICv2xRxSubscriptionEE=so_stub_for_libtelux_cv2x
-Wl,--defsym=_ZN5telux4cv2x12DsiCv2xRadio15createTxSpsFlowENS0_13TrafficIpTypeEjRKNS0_11SpsFlowInfoEtbtSt8functionIFvSt10shared_ptrINS0_11ICv2xTxFlowEES9_NS_6common9ErrorCodeESB_EE=so_stub_for_libtelux_cv2x
-Wl,--defsym=_ZN5telux4cv2x12DsiCv2xRadio15initTxEventFlowENS0_13TrafficIpTypeEjRKNS0_13EventFlowInfoEtRSt10shared_ptrINS0_11ICv2xTxFlowEE=so_stub_for_libtelux_cv2x
-Wl,--defsym=_ZN5telux4cv2x12DsiCv2xRadio15onStatusChangedENS0_10Cv2xStatusE=so_stub_for_libtelux_cv2x
-Wl,--defsym=_ZN5telux4cv2x12DsiCv2xRadio15removeTcpSocketESt10shared_ptrINS0_15ICv2xTxRxSocketEE=so_stub_for_libtelux_cv2x
-Wl,--defsym=_ZN5telux4cv2x12DsiCv2xRadio15setGlobalIPInfoERKNS0_12IPv6AddrTypeESt8functionIFvNS_6common9ErrorCodeEEE=so_stub_for_libtelux_cv2x
-Wl,--defsym=_ZN5telux4cv2x12DsiCv2xRadio15updateSrcL2InfoESt8functionIFvNS_6common9ErrorCodeEEE=so_stub_for_libtelux_cv2x
-Wl,--defsym=_ZN5telux4cv2x12DsiCv2xRadio16getServiceStatusEv=so_stub_for_libtelux_cv2x
-Wl,--defsym=_ZN5telux4cv2x12DsiCv2xRadio16registerListenerESt8weak_ptrINS0_18ICv2xRadioListenerEE=so_stub_for_libtelux_cv2x
-Wl,--defsym=_ZN5telux4cv2x12DsiCv2xRadio17changeSpsFlowInfoESt10shared_ptrINS0_11ICv2xTxFlowEERKNS0_11SpsFlowInfoESt8functionIFvS4_NS_6common9ErrorCodeEEE=so_stub_for_libtelux_cv2x
-Wl,--defsym=_ZN5telux4cv2x12DsiCv2xRadio17createTxEventFlowENS0_13TrafficIpTypeEjRKNS0_13EventFlowInfoEtSt8functionIFvSt10shared_ptrINS0_11ICv2xTxFlowEENS_6common9ErrorCodeEEE=so_stub_for_libtelux_cv2x
-Wl,--defsym=_ZN5telux4cv2x12DsiCv2xRadio17createTxEventFlowENS0_13TrafficIpTypeEjtSt8functionIFvSt10shared_ptrINS0_11ICv2xTxFlowEENS_6common9ErrorCodeEEE=so_stub_for_libtelux_cv2x
-Wl,--defsym=_ZN5telux4cv2x12DsiCv2xRadio17getCv2xIfaceNamesEv=so_stub_for_libtelux_cv2x
-Wl,--defsym=_ZN5telux4cv2x12DsiCv2xRadio17getIfaceNameNonIPB5cxx11Ev=so_stub_for_libtelux_cv2x
-Wl,--defsym=_ZN5telux4cv2x12DsiCv2xRadio17handleSetGlobalIPENS0_12IPv6AddrTypeESt8functionIFvNS_6common9ErrorCodeEEE=so_stub_for_libtelux_cv2x
-Wl,--defsym=_ZN5telux4cv2x12DsiCv2xRadio18cleanupAllSpsFlowsEv=so_stub_for_libtelux_cv2x
-Wl,--defsym=_ZN5telux4cv2x12DsiCv2xRadio18clearCachedTxFlowsEv=so_stub_for_libtelux_cv2x
-Wl,--defsym=_ZN5telux4cv2x12DsiCv2xRadio18closeCv2xTcpSocketESt10shared_ptrINS0_15ICv2xTxRxSocketEESt8functionIFvS4_NS_6common9ErrorCodeEEE=so_stub_for_libtelux_cv2x
-Wl,--defsym=_ZN5telux4cv2x12DsiCv2xRadio18closeTxSpsFlowSyncESt10shared_ptrINS0_11ICv2xTxFlowEESt8functionIFvS4_NS_6common9ErrorCodeEEEb=so_stub_for_libtelux_cv2x
-Wl,--defsym=_ZN5telux4cv2x12DsiCv2xRadio18deregisterListenerESt8weak_ptrINS0_18ICv2xRadioListenerEE=so_stub_for_libtelux_cv2x
-Wl,--defsym=_ZN5telux4cv2x12DsiCv2xRadio18injectVehicleSpeedEjSt8functionIFvNS_6common9ErrorCodeEEE=so_stub_for_libtelux_cv2x
-Wl,--defsym=_ZN5telux4cv2x12DsiCv2xRadio18isTcpSocketPresentEjbj=so_stub_for_libtelux_cv2x
-Wl,--defsym=_ZN5telux4cv2x12DsiCv2xRadio18removeSubscriptionESt10shared_ptrINS0_19ICv2xRxSubscriptionEE=so_stub_for_libtelux_cv2x
-Wl,--defsym=_ZN5telux4cv2x12DsiCv2xRadio18requestSpsFlowInfoESt10shared_ptrINS0_11ICv2xTxFlowEESt8functionIFvS4_RKNS0_11SpsFlowInfoENS_6common9ErrorCodeEEE=so_stub_for_libtelux_cv2x
-Wl,--defsym=_ZN5telux4cv2x12DsiCv2xRadio19changeEventFlowInfoESt10shared_ptrINS0_11ICv2xTxFlowEERKNS0_13EventFlowInfoESt8functionIFvS4_NS_6common9ErrorCodeEEE=so_stub_for_libtelux_cv2x
-Wl,--defsym=_ZN5telux4cv2x12DsiCv2xRadio19clearCachedTCPSocksEv=so_stub_for_libtelux_cv2x
-Wl,--defsym=_ZN5telux4cv2x12DsiCv2xRadio19closeRxSubscriptionESt10shared_ptrINS0_19ICv2xRxSubscriptionEESt8functionIFvS4_NS_6common9ErrorCodeEEE=so_stub_for_libtelux_cv2x
-Wl,--defsym=_ZN5telux4cv2x12DsiCv2xRadio19createCv2xTcpSocketERKNS0_13EventFlowInfoERKNS0_10SocketInfoESt8functionIFvSt10shared_ptrINS0_15ICv2xTxRxSocketEENS_6common9ErrorCodeEEE=so_stub_for_libtelux_cv2x
-Wl,--defsym=_ZN5telux4cv2x12DsiCv2xRadio19createTxSpsFlowSyncENS0_13TrafficIpTypeEjRKNS0_11SpsFlowInfoEtbtSt8functionIFvSt10shared_ptrINS0_11ICv2xTxFlowEES9_NS_6common9ErrorCodeESB_EE=so_stub_for_libtelux_cv2x
-Wl,--defsym=_ZN5telux4cv2x12DsiCv2xRadio19onCv2xDataCallsDownEv=so_stub_for_libtelux_cv2x
-Wl,--defsym=_ZN5telux4cv2x12DsiCv2xRadio19requestCapabilitiesESt8functionIFvRKNS0_21Cv2xRadioCapabilitiesENS_6common9ErrorCodeEEE=so_stub_for_libtelux_cv2x
-Wl,--defsym=_ZN5telux4cv2x12DsiCv2xRadio19updateSrcL2InfoSyncESt8functionIFvNS_6common9ErrorCodeEEE=so_stub_for_libtelux_cv2x
-Wl,--defsym=_ZN5telux4cv2x12DsiCv2xRadio19updateTrustedUEListERKNS0_17TrustedUEInfoListESt8functionIFvNS_6common9ErrorCodeEEE=so_stub_for_libtelux_cv2x
-Wl,--defsym=_ZN5telux4cv2x12DsiCv2xRadio20cleanupAllEventFlowsEv=so_stub_for_libtelux_cv2x
-Wl,--defsym=_ZN5telux4cv2x12DsiCv2xRadio20closeTxEventFlowSyncESt10shared_ptrINS0_11ICv2xTxFlowEESt8functionIFvS4_NS_6common9ErrorCodeEEE=so_stub_for_libtelux_cv2x
-Wl,--defsym=_ZN5telux4cv2x12DsiCv2xRadio20createRxSubscriptionENS0_13TrafficIpTypeEtSt8functionIFvSt10shared_ptrINS0_19ICv2xRxSubscriptionEENS_6common9ErrorCodeEEES4_ISt6vectorIjSaIjEEE=so_stub_for_libtelux_cv2x
-Wl,--defsym=_ZN5telux4cv2x12DsiCv2xRadio20DEFAULT_DEST_IP_ADDRB5cxx11E=so_stub_for_libtelux_cv2x
-Wl,--defsym=_ZN5telux4cv2x12DsiCv2xRadio20setInitializedStatusENS_6common6StatusE=so_stub_for_libtelux_cv2x
-Wl,--defsym=_ZN5telux4cv2x12DsiCv2xRadio20unsubscribeAllRxSubsEv=so_stub_for_libtelux_cv2x
-Wl,--defsym=_ZN5telux4cv2x12DsiCv2xRadio21changeSpsFlowInfoSyncESt10shared_ptrINS0_11ICv2xTxFlowEERKNS0_11SpsFlowInfoESt8functionIFvS4_NS_6common9ErrorCodeEEE=so_stub_for_libtelux_cv2x
-Wl,--defsym=_ZN5telux4cv2x12DsiCv2xRadio21changeSpsPrioritySyncESt10shared_ptrINS0_13Cv2xTxSpsFlowEERKNS0_11SpsFlowInfoE=so_stub_for_libtelux_cv2x
-Wl,--defsym=_ZN5telux4cv2x12DsiCv2xRadio21closeTxEventFlowsSyncERSt6vectorISt10shared_ptrINS0_11ICv2xTxFlowEESaIS5_EE=so_stub_for_libtelux_cv2x
-Wl,--defsym=_ZN5telux4cv2x12DsiCv2xRadio21createTxEventFlowSyncENS0_13TrafficIpTypeEjRKNS0_13EventFlowInfoEtSt8functionIFvSt10shared_ptrINS0_11ICv2xTxFlowEENS_6common9ErrorCodeEEE=so_stub_for_libtelux_cv2x
-Wl,--defsym=_ZN5telux4cv2x12DsiCv2xRadio21deferResponseGlobalIPEPKh=so_stub_for_libtelux_cv2x
-Wl,--defsym=_ZN5telux4cv2x12DsiCv2xRadio21deregisterSpsFlowSyncENS0_13TrafficIpTypeEhb=so_stub_for_libtelux_cv2x
-Wl,--defsym=_ZN5telux4cv2x12DsiCv2xRadio21registerEventFlowSyncESt10shared_ptrINS0_11ICv2xTxFlowEERKNS0_13EventFlowInfoE=so_stub_for_libtelux_cv2x
-Wl,--defsym=_ZN5telux4cv2x12DsiCv2xRadio21waitForInitializationEv=so_stub_for_libtelux_cv2x
-Wl,--defsym=_ZN5telux4cv2x12DsiCv2xRadio22closeAllCv2xTcpSocketsEv=so_stub_for_libtelux_cv2x
-Wl,--defsym=_ZN5telux4cv2x12DsiCv2xRadio22closeCv2xTcpSocketSyncESt10shared_ptrINS0_15ICv2xTxRxSocketEESt8functionIFvS4_NS_6common9ErrorCodeEEEb=so_stub_for_libtelux_cv2x
-Wl,--defsym=_ZN5telux4cv2x12DsiCv2xRadio22enableRxMetaDataReportENS0_13TrafficIpTypeEbSt10shared_ptrISt6vectorIjSaIjEEESt8functionIFvNS_6common9ErrorCodeEEE=so_stub_for_libtelux_cv2x
-Wl,--defsym=_ZN5telux4cv2x12DsiCv2xRadio22getDestinationIPv6AddrB5cxx11Ev=so_stub_for_libtelux_cv2x
-Wl,--defsym=_ZN5telux4cv2x12DsiCv2xRadio22getIfaceNameFromIpTypeB5cxx11ENS0_13TrafficIpTypeE=so_stub_for_libtelux_cv2x
-Wl,--defsym=_ZN5telux4cv2x12DsiCv2xRadio22requestSpsFlowInfoSyncESt10shared_ptrINS0_11ICv2xTxFlowEESt8functionIFvS4_RKNS0_11SpsFlowInfoENS_6common9ErrorCodeEEE=so_stub_for_libtelux_cv2x
-Wl,--defsym=_ZN5telux4cv2x12DsiCv2xRadio22setDestinationIPv6AddrENSt7__cxx1112basic_stringIcSt11char_traitsIcESaIcEEE=so_stub_for_libtelux_cv2x
-Wl,--defsym=_ZN5telux4cv2x12DsiCv2xRadio23changeEventFlowInfoSyncESt10shared_ptrINS0_11ICv2xTxFlowEERKNS0_13EventFlowInfoESt8functionIFvS4_NS_6common9ErrorCodeEEE=so_stub_for_libtelux_cv2x
-Wl,--defsym=_ZN5telux4cv2x12DsiCv2xRadio23closeRxSubscriptionSyncESt10shared_ptrINS0_19ICv2xRxSubscriptionEESt8functionIFvS4_NS_6common9ErrorCodeEEEb=so_stub_for_libtelux_cv2x
-Wl,--defsym=_ZN5telux4cv2x12DsiCv2xRadio23createCv2xTcpSocketSyncERKNS0_13EventFlowInfoERKNS0_10SocketInfoESt8functionIFvSt10shared_ptrINS0_15ICv2xTxRxSocketEENS_6common9ErrorCodeEEE=so_stub_for_libtelux_cv2x
-Wl,--defsym=_ZN5telux4cv2x12DsiCv2xRadio23requestCapabilitiesSyncESt8functionIFvRKNS0_21Cv2xRadioCapabilitiesENS_6common9ErrorCodeEEE=so_stub_for_libtelux_cv2x
-Wl,--defsym=_ZN5telux4cv2x12DsiCv2xRadio23updateTrustedUEListSyncERKNS0_17TrustedUEInfoListESt8functionIFvNS_6common9ErrorCodeEEE=so_stub_for_libtelux_cv2x
-Wl,--defsym=_ZN5telux4cv2x12DsiCv2xRadio24createRxSubscriptionSyncENS0_13TrafficIpTypeEtSt8functionIFvSt10shared_ptrINS0_19ICv2xRxSubscriptionEENS_6common9ErrorCodeEEES4_ISt6vectorIjSaIjEEE=so_stub_for_libtelux_cv2x
-Wl,--defsym=_ZN5telux4cv2x12DsiCv2xRadio25initCv2xRadioCapabilitiesERNS0_21Cv2xRadioCapabilitiesE=so_stub_for_libtelux_cv2x
-Wl,--defsym=_ZN5telux4cv2x12DsiCv2xRadio26clearCachedRxSubscriptionsEv=so_stub_for_libtelux_cv2x
-Wl,--defsym=_ZN5telux4cv2x12DsiCv2xRadio26enableRxMetaDataReportSyncENS0_13TrafficIpTypeEbSt10shared_ptrISt6vectorIjSaIjEEESt8functionIFvNS_6common9ErrorCodeEEE=so_stub_for_libtelux_cv2x
-Wl,--defsym=_ZN5telux4cv2x12DsiCv2xRadio26registerTxStatusReportSyncESt8functionIFvNS_6common9ErrorCodeEEE=so_stub_for_libtelux_cv2x
-Wl,--defsym=_ZN5telux4cv2x12DsiCv2xRadio26requestDataSessionSettingsESt8functionIFvRKNS0_19DataSessionSettingsENS_6common9ErrorCodeEEE=so_stub_for_libtelux_cv2x
-Wl,--defsym=_ZN5telux4cv2x12DsiCv2xRadio28deregisterTxStatusReportSyncESt8functionIFvNS_6common9ErrorCodeEEE=so_stub_for_libtelux_cv2x
-Wl,--defsym=_ZN5telux4cv2x12DsiCv2xRadio29setGlobalIPUnicastRoutingInfoERKNS0_26GlobalIPUnicastRoutingInfoESt8functionIFvNS_6common9ErrorCodeEEE=so_stub_for_libtelux_cv2x
-Wl,--defsym=_ZN5telux4cv2x12DsiCv2xRadio29unsubscribeRxSubscriptionSyncENS0_13TrafficIpTypeESt10shared_ptrISt6vectorIjSaIjEEEb=so_stub_for_libtelux_cv2x
-Wl,--defsym=_ZN5telux4cv2x12DsiCv2xRadio30registerTxStatusReportListenerEtSt10shared_ptrINS0_27ICv2xTxStatusReportListenerEESt8functionIFvNS_6common9ErrorCodeEEE=so_stub_for_libtelux_cv2x
-Wl,--defsym=_ZN5telux4cv2x12DsiCv2xRadio30requestDataSessionSettingsSyncESt8functionIFvRKNS0_19DataSessionSettingsENS_6common9ErrorCodeEEE=so_stub_for_libtelux_cv2x
-Wl,--defsym=_ZN5telux4cv2x12DsiCv2xRadio32deregisterTxStatusReportListenerEtSt8functionIFvNS_6common9ErrorCodeEEE=so_stub_for_libtelux_cv2x
-Wl,--defsym=_ZN5telux4cv2x12DsiCv2xRadio4initESt8weak_ptrINS_6common14AsyncTaskQueueIvEEES2_IS1_ESt8functionIFvNS3_13ServiceStatusEEE=so_stub_for_libtelux_cv2x
-Wl,--defsym=_ZN5telux4cv2x12DsiCv2xRadio7addFlowINS0_13Cv2xTxSpsFlowEEENS_6common6StatusESt10shared_ptrIT_ERSt3mapIjS6_INS0_11ICv2xTxFlowEESt4lessIjESaISt4pairIKjSB_EEE=so_stub_for_libtelux_cv2x
-Wl,--defsym=_ZN5telux4cv2x12DsiCv2xRadio7addFlowINS0_15Cv2xTxEventFlowEEENS_6common6StatusESt10shared_ptrIT_ERSt3mapIjS6_INS0_11ICv2xTxFlowEESt4lessIjESaISt4pairIKjSB_EEE=so_stub_for_libtelux_cv2x
-Wl,--defsym=_ZN5telux4cv2x12DsiCv2xRadio7onReadyEv=so_stub_for_libtelux_cv2x
-Wl,--defsym=_ZN5telux4cv2x12DsiCv2xRadio8findFlowEjRSt3mapIjSt10shared_ptrINS0_11ICv2xTxFlowEESt4lessIjESaISt4pairIKjS5_EEE=so_stub_for_libtelux_cv2x
-Wl,--defsym=_ZN5telux4cv2x12DsiCv2xRadio8initSyncEv=so_stub_for_libtelux_cv2x
-Wl,--defsym=_ZN5telux4cv2x12DsiCv2xRadioC1Ev=so_stub_for_libtelux_cv2x
-Wl,--defsym=_ZN5telux4cv2x12DsiCv2xRadioC2Ev=so_stub_for_libtelux_cv2x
-Wl,--defsym=_ZN5telux4cv2x12DsiCv2xRadioD0Ev=so_stub_for_libtelux_cv2x
-Wl,--defsym=_ZN5telux4cv2x12DsiCv2xRadioD1Ev=so_stub_for_libtelux_cv2x
-Wl,--defsym=_ZN5telux4cv2x12DsiCv2xRadioD2Ev=so_stub_for_libtelux_cv2x
-Wl,--defsym=_ZN5telux4cv2x12EventHandler14eventProcessorEv=so_stub_for_libtelux_cv2x
-Wl,--defsym=_ZN5telux4cv2x12EventHandler4postESt10shared_ptrINS0_13EventInfoBaseEE=so_stub_for_libtelux_cv2x
-Wl,--defsym=_ZN5telux4cv2x12EventHandler4stopEv=so_stub_for_libtelux_cv2x
-Wl,--defsym=_ZN5telux4cv2x12EventHandler5startEv=so_stub_for_libtelux_cv2x
-Wl,--defsym=_ZN5telux4cv2x13cv2xIpcHelper10evtStrMap_B5cxx11E=so_stub_for_libtelux_cv2x
-Wl,--defsym=_ZN5telux4cv2x13cv2xIpcHelper13msgIdToStringB5cxx11ENS0_12IpcMessageIdE=so_stub_for_libtelux_cv2x
-Wl,--defsym=_ZN5telux4cv2x13cv2xIpcHelper9mapMutex_E=so_stub_for_libtelux_cv2x
-Wl,--defsym=_ZN5telux4cv2x13Cv2xTxSpsFlow14getSpsFlowInfoEv=so_stub_for_libtelux_cv2x
-Wl,--defsym=_ZN5telux4cv2x13Cv2xTxSpsFlow14setSpsFlowInfoERKNS0_11SpsFlowInfoE=so_stub_for_libtelux_cv2x
-Wl,--defsym=_ZN5telux4cv2x13Cv2xTxSpsFlow15getCombinedPortEv=so_stub_for_libtelux_cv2x
-Wl,--defsym=_ZN5telux4cv2x13Cv2xTxSpsFlowC1EjNS0_13TrafficIpTypeEjiRK12sockaddr_in6RKNS0_11SpsFlowInfoEbt=so_stub_for_libtelux_cv2x
-Wl,--defsym=_ZN5telux4cv2x13Cv2xTxSpsFlowC2EjNS0_13TrafficIpTypeEjiRK12sockaddr_in6RKNS0_11SpsFlowInfoEbt=so_stub_for_libtelux_cv2x
-Wl,--defsym=_ZN5telux4cv2x13Cv2xTxSpsFlowD0Ev=so_stub_for_libtelux_cv2x
-Wl,--defsym=_ZN5telux4cv2x13Cv2xTxSpsFlowD1Ev=so_stub_for_libtelux_cv2x
-Wl,--defsym=_ZN5telux4cv2x13Cv2xTxSpsFlowD2Ev=so_stub_for_libtelux_cv2x
-Wl,--defsym=_ZN5telux4cv2x14Cv2xTxRxSocket2idE=so_stub_for_libtelux_cv2x
-Wl,--defsym=_ZN5telux4cv2x14Cv2xTxRxSocketC1EjiRK12sockaddr_in6=so_stub_for_libtelux_cv2x
-Wl,--defsym=_ZN5telux4cv2x14Cv2xTxRxSocketC2EjiRK12sockaddr_in6=so_stub_for_libtelux_cv2x
-Wl,--defsym=_ZN5telux4cv2x14Cv2xTxRxSocketD0Ev=so_stub_for_libtelux_cv2x
-Wl,--defsym=_ZN5telux4cv2x14Cv2xTxRxSocketD1Ev=so_stub_for_libtelux_cv2x
-Wl,--defsym=_ZN5telux4cv2x14Cv2xTxRxSocketD2Ev=so_stub_for_libtelux_cv2x
-Wl,--defsym=_ZN5telux4cv2x15Cv2xFactoryImpl11getInstanceEv=so_stub_for_libtelux_cv2x
-Wl,--defsym=_ZN5telux4cv2x15Cv2xFactoryImpl13getCv2xConfigESt8functionIFvNS_6common13ServiceStatusEEE=so_stub_for_libtelux_cv2x
-Wl,--defsym=_ZN5telux4cv2x15Cv2xFactoryImpl18getCv2xFactoryImplEv=so_stub_for_libtelux_cv2x
-Wl,--defsym=_ZN5telux4cv2x15Cv2xFactoryImpl19getCv2xRadioManagerEbSt8functionIFvNS_6common13ServiceStatusEEE=so_stub_for_libtelux_cv2x
-Wl,--defsym=_ZN5telux4cv2x15Cv2xFactoryImpl19getCv2xRadioManagerESt8functionIFvNS_6common13ServiceStatusEEE=so_stub_for_libtelux_cv2x
-Wl,--defsym=_ZN5telux4cv2x15Cv2xFactoryImpl22getCv2xThrottleManagerESt8functionIFvNS_6common13ServiceStatusEEE=so_stub_for_libtelux_cv2x
-Wl,--defsym=_ZN5telux4cv2x15Cv2xFactoryImpl23onGetCv2xConfigResponseENS_6common13ServiceStatusE=so_stub_for_libtelux_cv2x
-Wl,--defsym=_ZN5telux4cv2x15Cv2xFactoryImpl29onGetCv2xRadioManagerResponseENS_6common13ServiceStatusE=so_stub_for_libtelux_cv2x
-Wl,--defsym=_ZN5telux4cv2x15Cv2xFactoryImpl32onGetCv2xThrottleManagerResponseENS_6common13ServiceStatusE=so_stub_for_libtelux_cv2x
-Wl,--defsym=_ZN5telux4cv2x15Cv2xFactoryImplC1Ev=so_stub_for_libtelux_cv2x
-Wl,--defsym=_ZN5telux4cv2x15Cv2xFactoryImplC2Ev=so_stub_for_libtelux_cv2x
-Wl,--defsym=_ZN5telux4cv2x15Cv2xFactoryImplD0Ev=so_stub_for_libtelux_cv2x
-Wl,--defsym=_ZN5telux4cv2x15Cv2xFactoryImplD1Ev=so_stub_for_libtelux_cv2x
-Wl,--defsym=_ZN5telux4cv2x15Cv2xFactoryImplD2Ev=so_stub_for_libtelux_cv2x
-Wl,--defsym=_ZN5telux4cv2x15Cv2xRadioHelper11getV2xIpApnB5cxx11Ev=so_stub_for_libtelux_cv2x
-Wl,--defsym=_ZN5telux4cv2x15Cv2xRadioHelper14getV2xNonIpApnB5cxx11Ev=so_stub_for_libtelux_cv2x
-Wl,--defsym=_ZN5telux4cv2x15Cv2xRadioHelper15APN_NAME_V2X_IPB5cxx11E=so_stub_for_libtelux_cv2x
-Wl,--defsym=_ZN5telux4cv2x15Cv2xRadioHelper15convertV2xCauseENS_3qmi16Cv2xFailureCauseE=so_stub_for_libtelux_cv2x
-Wl,--defsym=_ZN5telux4cv2x15Cv2xRadioHelper15priorityToUint8ENS0_8PriorityERh=so_stub_for_libtelux_cv2x
-Wl,--defsym=_ZN5telux4cv2x15Cv2xRadioHelper15uint8ToPriorityEhRNS0_8PriorityE=so_stub_for_libtelux_cv2x
-Wl,--defsym=_ZN5telux4cv2x15Cv2xRadioHelper16getInterfaceDataENSt7__cxx1112basic_stringIcSt11char_traitsIcESaIcEEERjS8_=so_stub_for_libtelux_cv2x
-Wl,--defsym=_ZN5telux4cv2x15Cv2xRadioHelper16INVALID_TX_POWERE=so_stub_for_libtelux_cv2x
-Wl,--defsym=_ZN5telux4cv2x15Cv2xRadioHelper16resetV2xStatusExERNS0_12Cv2xStatusExE=so_stub_for_libtelux_cv2x
-Wl,--defsym=_ZN5telux4cv2x15Cv2xRadioHelper17getMaxPayloadSizeEjRj=so_stub_for_libtelux_cv2x
-Wl,--defsym=_ZN5telux4cv2x15Cv2xRadioHelper19APN_NAME_V2X_NON_IPB5cxx11E=so_stub_for_libtelux_cv2x
-Wl,--defsym=_ZN5telux4cv2x15Cv2xRadioHelper19periodicityToUint32ENS0_11PeriodicityE=so_stub_for_libtelux_cv2x
-Wl,--defsym=_ZN5telux4cv2x15Cv2xRadioHelper19periodicityToUint32ENS0_11PeriodicityERj=so_stub_for_libtelux_cv2x
-Wl,--defsym=_ZN5telux4cv2x15Cv2xRadioHelper19printCv2xStatusDiffERNS0_10Cv2xStatusES3_=so_stub_for_libtelux_cv2x
-Wl,--defsym=_ZN5telux4cv2x15Cv2xRadioHelper19uint32ToPeriodicityEj=so_stub_for_libtelux_cv2x
-Wl,--defsym=_ZN5telux4cv2x15Cv2xRadioHelper19uint32ToPeriodicityEjRNS0_11PeriodicityE=so_stub_for_libtelux_cv2x
-Wl,--defsym=_ZN5telux4cv2x15Cv2xRadioHelper20priorityListToBitsetI19cv2x_pppp_info_typeEESt6bitsetILm8EEPKT_j=so_stub_for_libtelux_cv2x
-Wl,--defsym=_ZN5telux4cv2x15Cv2xRadioHelper21convertCv2xSlssRxInfoERKNS_3qmi14Cv2xSlssRxInfoERNS0_10SlssRxInfoE=so_stub_for_libtelux_cv2x
-Wl,--defsym=_ZN5telux4cv2x15Cv2xRadioHelper21convertTxStatusReportERKNS_3qmi21Cv2xTxStatusReportIndERNS0_14TxStatusReportE=so_stub_for_libtelux_cv2x
-Wl,--defsym=_ZN5telux4cv2x15Cv2xRadioHelper22convertQmiV2xStatusMsgINS_3qmi13Cv2xStatusIndEEEbRNS0_12Cv2xStatusExERKT_=so_stub_for_libtelux_cv2x
-Wl,--defsym=_ZN5telux4cv2x15Cv2xRadioHelper22convertQmiV2xStatusMsgINS_3qmi17Cv2xGetStatusRespEEEbRNS0_12Cv2xStatusExERKT_=so_stub_for_libtelux_cv2x
-Wl,--defsym=_ZN5telux4cv2x15Cv2xRadioHelper23periodicityListToBitsetEPKjj=so_stub_for_libtelux_cv2x
-Wl,--defsym=_ZN5telux4cv2x15Cv2xRadioHelper23periodicityListToVectorEPKjj=so_stub_for_libtelux_cv2x
-Wl,--defsym=_ZN5telux4cv2x15Cv2xRadioHelper23updateCv2xStatusFromIndERNS0_12Cv2xStatusExERKNS_3qmi13Cv2xStatusIndE=so_stub_for_libtelux_cv2x
-Wl,--defsym=_ZN5telux4cv2x15Cv2xRadioHelper24updateCv2xStatusFromRespERNS0_12Cv2xStatusExERKNS_3qmi17Cv2xGetStatusRespE=so_stub_for_libtelux_cv2x
-Wl,--defsym=_ZN5telux4cv2x15Cv2xRadioHelper30ipcCv2xStatusToTeluxCv2xStatusINS0_16Cv2xIpcV2xStatusEEEvRNS0_12Cv2xStatusExERKT_=so_stub_for_libtelux_cv2x
-Wl,--defsym=_ZN5telux4cv2x15Cv2xRadioHelper6getMTUENSt7__cxx1112basic_stringIcSt11char_traitsIcESaIcEEERj=so_stub_for_libtelux_cv2x
-Wl,--defsym=_ZN5telux4cv2x15Cv2xTxEventFlow14isCombinedFlowEv=so_stub_for_libtelux_cv2x
-Wl,--defsym=_ZN5telux4cv2x15Cv2xTxEventFlow2IdE=so_stub_for_libtelux_cv2x
-Wl,--defsym=_ZN5telux4cv2x15Cv2xTxEventFlow9closeSockEv=so_stub_for_libtelux_cv2x
-Wl,--defsym=_ZN5telux4cv2x15Cv2xTxEventFlow9setFlowIdEj=so_stub_for_libtelux_cv2x
-Wl,--defsym=_ZN5telux4cv2x15Cv2xTxEventFlowC1EjNS0_13TrafficIpTypeEjiRK12sockaddr_in6b=so_stub_for_libtelux_cv2x
-Wl,--defsym=_ZN5telux4cv2x15Cv2xTxEventFlowC1ENS0_13TrafficIpTypeEjiRK12sockaddr_in6b=so_stub_for_libtelux_cv2x
-Wl,--defsym=_ZN5telux4cv2x15Cv2xTxEventFlowC2EjNS0_13TrafficIpTypeEjiRK12sockaddr_in6b=so_stub_for_libtelux_cv2x
-Wl,--defsym=_ZN5telux4cv2x15Cv2xTxEventFlowC2ENS0_13TrafficIpTypeEjiRK12sockaddr_in6b=so_stub_for_libtelux_cv2x
-Wl,--defsym=_ZN5telux4cv2x15Cv2xTxEventFlowD0Ev=so_stub_for_libtelux_cv2x
-Wl,--defsym=_ZN5telux4cv2x15Cv2xTxEventFlowD1Ev=so_stub_for_libtelux_cv2x
-Wl,--defsym=_ZN5telux4cv2x15Cv2xTxEventFlowD2Ev=so_stub_for_libtelux_cv2x
-Wl,--defsym=_ZN5telux4cv2x15EventDispatcher9postEventESt10shared_ptrINS0_14IndicationDataEE=so_stub_for_libtelux_cv2x
-Wl,--defsym=_ZN5telux4cv2x15EventDispatcher9postEventESt10shared_ptrINS0_17ServiceStatusDataEE=so_stub_for_libtelux_cv2x
-Wl,--defsym=_ZN5telux4cv2x15EventDispatcherC1Ev=so_stub_for_libtelux_cv2x
-Wl,--defsym=_ZN5telux4cv2x15EventDispatcherC2Ev=so_stub_for_libtelux_cv2x
-Wl,--defsym=_ZN5telux4cv2x15EventDispatcherD1Ev=so_stub_for_libtelux_cv2x
-Wl,--defsym=_ZN5telux4cv2x15EventDispatcherD2Ev=so_stub_for_libtelux_cv2x
-Wl,--defsym=_ZN5telux4cv2x15QmiCv2xCommonCb10onResponseEiPv=so_stub_for_libtelux_cv2x
-Wl,--defsym=_ZN5telux4cv2x15QmiCv2xCommonCbD0Ev=so_stub_for_libtelux_cv2x
-Wl,--defsym=_ZN5telux4cv2x15QmiCv2xCommonCbD1Ev=so_stub_for_libtelux_cv2x
-Wl,--defsym=_ZN5telux4cv2x15QmiCv2xCommonCbD2Ev=so_stub_for_libtelux_cv2x
-Wl,--defsym=_ZN5telux4cv2x16Cv2xIndsListener15onL2AddrChangedEj=so_stub_for_libtelux_cv2x
-Wl,--defsym=_ZN5telux4cv2x16Cv2xIndsListener16registerListenerESt8weak_ptrINS0_18ICv2xRadioListenerEE=so_stub_for_libtelux_cv2x
-Wl,--defsym=_ZN5telux4cv2x16Cv2xIndsListener18deregisterListenerESt8weak_ptrINS0_18ICv2xRadioListenerEE=so_stub_for_libtelux_cv2x
-Wl,--defsym=_ZN5telux4cv2x16Cv2xIndsListener19onIpcDataCallChangeERKNS0_15Cv2xIpcDataCallE=so_stub_for_libtelux_cv2x
-Wl,--defsym=_ZN5telux4cv2x16Cv2xIndsListener21onCapabilitiesChangedERKNS0_21Cv2xRadioCapabilitiesE=so_stub_for_libtelux_cv2x
-Wl,--defsym=_ZN5telux4cv2x16Cv2xIndsListener21onIpcCv2xStatusChangeERKNS0_16Cv2xIpcV2xStatusE=so_stub_for_libtelux_cv2x
-Wl,--defsym=_ZN5telux4cv2x16Cv2xIndsListener22onSpsSchedulingChangedERKNS0_17SpsSchedulingInfoE=so_stub_for_libtelux_cv2x
-Wl,--defsym=_ZN5telux4cv2x16Cv2xIndsListener23onIpcMacAddrCloneAttackEb=so_stub_for_libtelux_cv2x
-Wl,--defsym=_ZN5telux4cv2x16Cv2xIndsListenerD0Ev=so_stub_for_libtelux_cv2x
-Wl,--defsym=_ZN5telux4cv2x16Cv2xIndsListenerD1Ev=so_stub_for_libtelux_cv2x
-Wl,--defsym=_ZN5telux4cv2x16Cv2xRadioManager12getCv2xRadioENS0_15TrafficCategoryESt8functionIFvNS_6common13ServiceStatusEEE=so_stub_for_libtelux_cv2x
-Wl,--defsym=_ZN5telux4cv2x16Cv2xRadioManager12getNextReqIdEv=so_stub_for_libtelux_cv2x
-Wl,--defsym=_ZN5telux4cv2x16Cv2xRadioManager12setL2FiltersERKSt6vectorINS0_12L2FilterInfoESaIS3_EESt8functionIFvNS_6common9ErrorCodeEEE=so_stub_for_libtelux_cv2x
-Wl,--defsym=_ZN5telux4cv2x16Cv2xRadioManager13getSlssRxInfoESt8functionIFvRKNS0_10SlssRxInfoENS_6common9ErrorCodeEEE=so_stub_for_libtelux_cv2x
-Wl,--defsym=_ZN5telux4cv2x16Cv2xRadioManager13initDmsClientEv=so_stub_for_libtelux_cv2x
-Wl,--defsym=_ZN5telux4cv2x16Cv2xRadioManager14initCv2xClientEv=so_stub_for_libtelux_cv2x
-Wl,--defsym=_ZN5telux4cv2x16Cv2xRadioManager14setPeakTxPowerEaSt8functionIFvNS_6common9ErrorCodeEEE=so_stub_for_libtelux_cv2x
-Wl,--defsym=_ZN5telux4cv2x16Cv2xRadioManager15onStartCv2xFailESt8functionIFvNS_6common9ErrorCodeEEES4_=so_stub_for_libtelux_cv2x
-Wl,--defsym=_ZN5telux4cv2x16Cv2xRadioManager15removeL2FiltersERKSt6vectorIjSaIjEESt8functionIFvNS_6common9ErrorCodeEEE=so_stub_for_libtelux_cv2x
-Wl,--defsym=_ZN5telux4cv2x16Cv2xRadioManager16getCv2xStatusIpcESt8functionIFvNS0_10Cv2xStatusENS_6common9ErrorCodeEEES2_IFvNS0_12Cv2xStatusExES5_EE=so_stub_for_libtelux_cv2x
-Wl,--defsym=_ZN5telux4cv2x16Cv2xRadioManager16getServiceStatusEv=so_stub_for_libtelux_cv2x
-Wl,--defsym=_ZN5telux4cv2x16Cv2xRadioManager16registerListenerESt8weak_ptrINS0_13ICv2xListenerEE=so_stub_for_libtelux_cv2x
-Wl,--defsym=_ZN5telux4cv2x16Cv2xRadioManager16setL2FiltersSyncERKSt6vectorINS0_12L2FilterInfoESaIS3_EESt8functionIFvNS_6common9ErrorCodeEEE=so_stub_for_libtelux_cv2x
-Wl,--defsym=_ZN5telux4cv2x16Cv2xRadioManager16setOperatingModeENS1_13OperatingModeE=so_stub_for_libtelux_cv2x
-Wl,--defsym=_ZN5telux4cv2x16Cv2xRadioManager17cv2xStartDecisionESt8functionIFvNS_6common9ErrorCodeEEE=so_stub_for_libtelux_cv2x
-Wl,--defsym=_ZN5telux4cv2x16Cv2xRadioManager17requestCv2xStatusESt8functionIFvNS0_10Cv2xStatusENS_6common9ErrorCodeEEE=so_stub_for_libtelux_cv2x
-Wl,--defsym=_ZN5telux4cv2x16Cv2xRadioManager17requestCv2xStatusESt8functionIFvNS0_12Cv2xStatusExENS_6common9ErrorCodeEEE=so_stub_for_libtelux_cv2x
-Wl,--defsym=_ZN5telux4cv2x16Cv2xRadioManager18cv2xIpcPingHandlerEiSt10shared_ptrINS0_10Cv2xIPCReqEES2_INS0_11Cv2xIPCRespEE=so_stub_for_libtelux_cv2x
-Wl,--defsym=_ZN5telux4cv2x16Cv2xRadioManager18deregisterListenerESt8weak_ptrINS0_13ICv2xListenerEE=so_stub_for_libtelux_cv2x
-Wl,--defsym=_ZN5telux4cv2x16Cv2xRadioManager19clientPingIpcServerEv=so_stub_for_libtelux_cv2x
-Wl,--defsym=_ZN5telux4cv2x16Cv2xRadioManager19injectCoarseUtcTimeEmSt8functionIFvNS_6common9ErrorCodeEEE=so_stub_for_libtelux_cv2x
-Wl,--defsym=_ZN5telux4cv2x16Cv2xRadioManager19registerIpcHandlersEv=so_stub_for_libtelux_cv2x
-Wl,--defsym=_ZN5telux4cv2x16Cv2xRadioManager19removeL2FiltersSyncERKSt6vectorIjSaIjEESt8functionIFvNS_6common9ErrorCodeEEE=so_stub_for_libtelux_cv2x
-Wl,--defsym=_ZN5telux4cv2x16Cv2xRadioManager20setInitializedStatusENS_6common6StatusE=so_stub_for_libtelux_cv2x
-Wl,--defsym=_ZN5telux4cv2x16Cv2xRadioManager21deregisterIpcHandlersEv=so_stub_for_libtelux_cv2x
-Wl,--defsym=_ZN5telux4cv2x16Cv2xRadioManager21initCv2xSysCtrlClientEv=so_stub_for_libtelux_cv2x
-Wl,--defsym=_ZN5telux4cv2x16Cv2xRadioManager21waitForInitializationEv=so_stub_for_libtelux_cv2x
-Wl,--defsym=_ZN5telux4cv2x16Cv2xRadioManager21waitOprtModeAvailableEv=so_stub_for_libtelux_cv2x
-Wl,--defsym=_ZN5telux4cv2x16Cv2xRadioManager22onGetCv2xRadioResponseENS_6common13ServiceStatusE=so_stub_for_libtelux_cv2x
-Wl,--defsym=_ZN5telux4cv2x16Cv2xRadioManager23updateOperatingModeSyncENS1_13OperatingModeE=so_stub_for_libtelux_cv2x
-Wl,--defsym=_ZN5telux4cv2x16Cv2xRadioManager25setServiceStatusCallbacksEv=so_stub_for_libtelux_cv2x
-Wl,--defsym=_ZN5telux4cv2x16Cv2xRadioManager26registerForCv2xIndicationsEv=so_stub_for_libtelux_cv2x
-Wl,--defsym=_ZN5telux4cv2x16Cv2xRadioManager28deregisterForCv2xIndicationsEv=so_stub_for_libtelux_cv2x
-Wl,--defsym=_ZN5telux4cv2x16Cv2xRadioManager4initESt8weak_ptrINS_6common14AsyncTaskQueueIvEEES2_IS1_ESt8functionIFvNS3_13ServiceStatusEEE=so_stub_for_libtelux_cv2x
-Wl,--defsym=_ZN5telux4cv2x16Cv2xRadioManager7isReadyEv=so_stub_for_libtelux_cv2x
-Wl,--defsym=_ZN5telux4cv2x16Cv2xRadioManager7onReadyEv=so_stub_for_libtelux_cv2x
-Wl,--defsym=_ZN5telux4cv2x16Cv2xRadioManager8initSyncEv=so_stub_for_libtelux_cv2x
-Wl,--defsym=_ZN5telux4cv2x16Cv2xRadioManager8stopCv2xESt8functionIFvNS_6common9ErrorCodeEEE=so_stub_for_libtelux_cv2x
-Wl,--defsym=_ZN5telux4cv2x16Cv2xRadioManager9startCv2xESt8functionIFvNS_6common9ErrorCodeEEE=so_stub_for_libtelux_cv2x
-Wl,--defsym=_ZN5telux4cv2x16Cv2xRadioManagerC1Eb=so_stub_for_libtelux_cv2x
-Wl,--defsym=_ZN5telux4cv2x16Cv2xRadioManagerC1Ev=so_stub_for_libtelux_cv2x
-Wl,--defsym=_ZN5telux4cv2x16Cv2xRadioManagerC2Eb=so_stub_for_libtelux_cv2x
-Wl,--defsym=_ZN5telux4cv2x16Cv2xRadioManagerC2Ev=so_stub_for_libtelux_cv2x
-Wl,--defsym=_ZN5telux4cv2x16Cv2xRadioManagerD0Ev=so_stub_for_libtelux_cv2x
-Wl,--defsym=_ZN5telux4cv2x16Cv2xRadioManagerD1Ev=so_stub_for_libtelux_cv2x
-Wl,--defsym=_ZN5telux4cv2x16Cv2xRadioManagerD2Ev=so_stub_for_libtelux_cv2x
-Wl,--defsym=_ZN5telux4cv2x16ICv2xIpcListener19onIpcDataCallChangeERKNS0_15Cv2xIpcDataCallE=so_stub_for_libtelux_cv2x
-Wl,--defsym=_ZN5telux4cv2x16ICv2xIpcListener21onIpcCv2xStatusChangeERKNS0_16Cv2xIpcV2xStatusE=so_stub_for_libtelux_cv2x
-Wl,--defsym=_ZN5telux4cv2x16ICv2xIpcListener23onIpcMacAddrCloneAttackEb=so_stub_for_libtelux_cv2x
-Wl,--defsym=_ZN5telux4cv2x16ICv2xIpcListener23onIPCServiceStateChangeENS_6common13ServiceStatusE=so_stub_for_libtelux_cv2x
-Wl,--defsym=_ZN5telux4cv2x17logMetaDataReportERNS0_22RxPacketMetaDataReportE=so_stub_for_libtelux_cv2x
-Wl,--defsym=_ZN5telux4cv2x17TrustedUEInfoListD1Ev=so_stub_for_libtelux_cv2x
-Wl,--defsym=_ZN5telux4cv2x17TrustedUEInfoListD2Ev=so_stub_for_libtelux_cv2x
-Wl,--defsym=_ZN5telux4cv2x18CommonCallbackDataD1Ev=so_stub_for_libtelux_cv2x
-Wl,--defsym=_ZN5telux4cv2x18CommonCallbackDataD2Ev=so_stub_for_libtelux_cv2x
-Wl,--defsym=_ZN5telux4cv2x18Cv2xConfigListener15onConfigChangedERKNS0_15ConfigEventInfoE=so_stub_for_libtelux_cv2x
-Wl,--defsym=_ZN5telux4cv2x18Cv2xConfigListener16registerListenerESt8weak_ptrINS0_19ICv2xConfigListenerEE=so_stub_for_libtelux_cv2x
-Wl,--defsym=_ZN5telux4cv2x18Cv2xConfigListener18deregisterListenerESt8weak_ptrINS0_19ICv2xConfigListenerEE=so_stub_for_libtelux_cv2x
-Wl,--defsym=_ZN5telux4cv2x18Cv2xConfigListenerC1Ev=so_stub_for_libtelux_cv2x
-Wl,--defsym=_ZN5telux4cv2x18Cv2xConfigListenerD0Ev=so_stub_for_libtelux_cv2x
-Wl,--defsym=_ZN5telux4cv2x18Cv2xConfigListenerD1Ev=so_stub_for_libtelux_cv2x
-Wl,--defsym=_ZN5telux4cv2x18Cv2xRxSubscription16setServiceIDListESt10shared_ptrISt6vectorIjSaIjEEE=so_stub_for_libtelux_cv2x
-Wl,--defsym=_ZN5telux4cv2x18Cv2xRxSubscription2IdE=so_stub_for_libtelux_cv2x
-Wl,--defsym=_ZN5telux4cv2x18Cv2xRxSubscription9closeSockEv=so_stub_for_libtelux_cv2x
-Wl,--defsym=_ZN5telux4cv2x18Cv2xRxSubscriptionC1ENS0_13TrafficIpTypeEiRK12sockaddr_in6St10shared_ptrISt6vectorIjSaIjEEE=so_stub_for_libtelux_cv2x
-Wl,--defsym=_ZN5telux4cv2x18Cv2xRxSubscriptionC2ENS0_13TrafficIpTypeEiRK12sockaddr_in6St10shared_ptrISt6vectorIjSaIjEEE=so_stub_for_libtelux_cv2x
-Wl,--defsym=_ZN5telux4cv2x18Cv2xRxSubscriptionD0Ev=so_stub_for_libtelux_cv2x
-Wl,--defsym=_ZN5telux4cv2x18Cv2xRxSubscriptionD1Ev=so_stub_for_libtelux_cv2x
-Wl,--defsym=_ZN5telux4cv2x18Cv2xRxSubscriptionD2Ev=so_stub_for_libtelux_cv2x
-Wl,--defsym=_ZN5telux4cv2x18ICv2xRadioListener15onL2AddrChangedEj=so_stub_for_libtelux_cv2x
-Wl,--defsym=_ZN5telux4cv2x18ICv2xRadioListener15onStatusChangedENS0_10Cv2xStatusE=so_stub_for_libtelux_cv2x
-Wl,--defsym=_ZN5telux4cv2x18ICv2xRadioListener15onStatusChangedENS0_12Cv2xStatusExE=so_stub_for_libtelux_cv2x
-Wl,--defsym=_ZN5telux4cv2x18ICv2xRadioListener18onSpsOffsetChangedEiNS0_10MacDetailsE=so_stub_for_libtelux_cv2x
-Wl,--defsym=_ZN5telux4cv2x18ICv2xRadioListener21onCapabilitiesChangedERKNS0_21Cv2xRadioCapabilitiesE=so_stub_for_libtelux_cv2x
-Wl,--defsym=_ZN5telux4cv2x18ICv2xRadioListener22onSpsSchedulingChangedERKNS0_17SpsSchedulingInfoE=so_stub_for_libtelux_cv2x
-Wl,--defsym=_ZN5telux4cv2x18ICv2xRadioListener23onMacAddressCloneAttackEb=so_stub_for_libtelux_cv2x
-Wl,--defsym=_ZN5telux4cv2x18indicationCallbackEPv15cv2x_msg_type_tP15cv2x_msg_info_tS1_=so_stub_for_libtelux_cv2x
-Wl,--defsym=_ZN5telux4cv2x19Cv2xIpcSocketClient11getInstanceEv=so_stub_for_libtelux_cv2x
-Wl,--defsym=_ZN5telux4cv2x19Cv2xIpcSocketClient11initAndPollEv=so_stub_for_libtelux_cv2x
-Wl,--defsym=_ZN5telux4cv2x19Cv2xIpcSocketClient12onDisconnectEv=so_stub_for_libtelux_cv2x
-Wl,--defsym=_ZN5telux4cv2x19Cv2xIpcSocketClient13onIndicationsERNS0_11Cv2xIPCRespE=so_stub_for_libtelux_cv2x
-Wl,--defsym=_ZN5telux4cv2x19Cv2xIpcSocketClient14sendIpcRequestESt10shared_ptrINS0_10Cv2xIPCReqEES2_INS0_11Cv2xIPCRespEE=so_stub_for_libtelux_cv2x
-Wl,--defsym=_ZN5telux4cv2x19Cv2xIpcSocketClient14sendIpcRequestESt10shared_ptrINS0_10Cv2xIPCReqEESt8functionIFvPKNS0_11Cv2xIPCRespEPvEES9_=so_stub_for_libtelux_cv2x
-Wl,--defsym=_ZN5telux4cv2x19Cv2xIpcSocketClient15startRetryTimerEv=so_stub_for_libtelux_cv2x
-Wl,--defsym=_ZN5telux4cv2x19Cv2xIpcSocketClient16registerListenerESt8weak_ptrINS0_16ICv2xIpcListenerEE=so_stub_for_libtelux_cv2x
-Wl,--defsym=_ZN5telux4cv2x19Cv2xIpcSocketClient16respPendingList_E=so_stub_for_libtelux_cv2x
-Wl,--defsym=_ZN5telux4cv2x19Cv2xIpcSocketClient16syncMsgDefaultCbEPKNS0_11Cv2xIPCRespEPv=so_stub_for_libtelux_cv2x
-Wl,--defsym=_ZN5telux4cv2x19Cv2xIpcSocketClient17onMessageResponseERNS0_11Cv2xIPCRespE=so_stub_for_libtelux_cv2x
-Wl,--defsym=_ZN5telux4cv2x19Cv2xIpcSocketClient18deRegisterListenerESt8weak_ptrINS0_16ICv2xIpcListenerEE=so_stub_for_libtelux_cv2x
-Wl,--defsym=_ZN5telux4cv2x19Cv2xIpcSocketClient18initRequestDefaultERSt10shared_ptrINS0_10Cv2xIPCReqEENS0_12IpcMessageIdE=so_stub_for_libtelux_cv2x
-Wl,--defsym=_ZN5telux4cv2x19Cv2xIpcSocketClient18setSubSystemStatusENS_6common6StatusE=so_stub_for_libtelux_cv2x
-Wl,--defsym=_ZN5telux4cv2x19Cv2xIpcSocketClient21respPendingListMutex_E=so_stub_for_libtelux_cv2x
-Wl,--defsym=_ZN5telux4cv2x19Cv2xIpcSocketClient21waitForInitializationEv=so_stub_for_libtelux_cv2x
-Wl,--defsym=_ZN5telux4cv2x19Cv2xIpcSocketClient24notifyServiceStateChangeENS_6common13ServiceStatusE=so_stub_for_libtelux_cv2x
-Wl,--defsym=_ZN5telux4cv2x19Cv2xIpcSocketClient7isReadyEv=so_stub_for_libtelux_cv2x
-Wl,--defsym=_ZN5telux4cv2x19Cv2xIpcSocketClient7sockCv_E=so_stub_for_libtelux_cv2x
-Wl,--defsym=_ZN5telux4cv2x19Cv2xIpcSocketClientC1Ev=so_stub_for_libtelux_cv2x
-Wl,--defsym=_ZN5telux4cv2x19Cv2xIpcSocketClientC2Ev=so_stub_for_libtelux_cv2x
-Wl,--defsym=_ZN5telux4cv2x19Cv2xIpcSocketClientD0Ev=so_stub_for_libtelux_cv2x
-Wl,--defsym=_ZN5telux4cv2x19Cv2xIpcSocketClientD1Ev=so_stub_for_libtelux_cv2x
-Wl,--defsym=_ZN5telux4cv2x19Cv2xIpcSocketClientD2Ev=so_stub_for_libtelux_cv2x
-Wl,--defsym=_ZN5telux4cv2x19Cv2xIpcSocketServer10eventsLoopEv=so_stub_for_libtelux_cv2x
-Wl,--defsym=_ZN5telux4cv2x19Cv2xIpcSocketServer10sockMutex_E=so_stub_for_libtelux_cv2x
-Wl,--defsym=_ZN5telux4cv2x19Cv2xIpcSocketServer11closeClientEi=so_stub_for_libtelux_cv2x
-Wl,--defsym=_ZN5telux4cv2x19Cv2xIpcSocketServer11getInstanceEv=so_stub_for_libtelux_cv2x
-Wl,--defsym=_ZN5telux4cv2x19Cv2xIpcSocketServer14respondsClientERSt10shared_ptrINS0_11Cv2xIPCRespEEi=so_stub_for_libtelux_cv2x
-Wl,--defsym=_ZN5telux4cv2x19Cv2xIpcSocketServer14sendIndicationENS0_12IpcMessageIdERSt10shared_ptrINS0_11Cv2xIPCRespEEi=so_stub_for_libtelux_cv2x
-Wl,--defsym=_ZN5telux4cv2x19Cv2xIpcSocketServer15onClientConnectEi=so_stub_for_libtelux_cv2x
-Wl,--defsym=_ZN5telux4cv2x19Cv2xIpcSocketServer15onClientRequestEiSt10shared_ptrINS0_10Cv2xIPCReqEE=so_stub_for_libtelux_cv2x
-Wl,--defsym=_ZN5telux4cv2x19Cv2xIpcSocketServer15sendMsgToClientERSt10shared_ptrINS0_11Cv2xIPCRespEEi=so_stub_for_libtelux_cv2x
-Wl,--defsym=_ZN5telux4cv2x19Cv2xIpcSocketServer16registerListenerESt8weak_ptrINS0_18IIpcServerListenerEE=so_stub_for_libtelux_cv2x
-Wl,--defsym=_ZN5telux4cv2x19Cv2xIpcSocketServer18deRegisterListenerESt8weak_ptrINS0_18IIpcServerListenerEE=so_stub_for_libtelux_cv2x
-Wl,--defsym=_ZN5telux4cv2x19Cv2xIpcSocketServer18onClientDisconnectEi=so_stub_for_libtelux_cv2x
-Wl,--defsym=_ZN5telux4cv2x19Cv2xIpcSocketServer19broadcastIndicationENS0_12IpcMessageIdERSt10shared_ptrINS0_11Cv2xIPCRespEE=so_stub_for_libtelux_cv2x
-Wl,--defsym=_ZN5telux4cv2x19Cv2xIpcSocketServer21initIndicationDefaultERSt10shared_ptrINS0_11Cv2xIPCRespEENS0_12IpcMessageIdE=so_stub_for_libtelux_cv2x
-Wl,--defsym=_ZN5telux4cv2x19Cv2xIpcSocketServer21validateClientRequestEiSt10shared_ptrINS0_10Cv2xIPCReqEE=so_stub_for_libtelux_cv2x
-Wl,--defsym=_ZN5telux4cv2x19Cv2xIpcSocketServer22registerMessageHandlerENS0_12IpcMessageIdESt8functionIFNS_6common9ErrorCodeEiSt10shared_ptrINS0_10Cv2xIPCReqEES6_INS0_11Cv2xIPCRespEEEE=so_stub_for_libtelux_cv2x
-Wl,--defsym=_ZN5telux4cv2x19Cv2xIpcSocketServer22registerMessageHandlerESt10shared_ptrISt6vectorINS0_17MessageAndHanlderESaIS4_EEE=so_stub_for_libtelux_cv2x
-Wl,--defsym=_ZN5telux4cv2x19Cv2xIpcSocketServer24deregisterMessageHandlerENS0_12IpcMessageIdE=so_stub_for_libtelux_cv2x
-Wl,--defsym=_ZN5telux4cv2x19Cv2xIpcSocketServer24deregisterMessageHandlerESt10shared_ptrISt6vectorINS0_12IpcMessageIdESaIS4_EEE=so_stub_for_libtelux_cv2x
-Wl,--defsym=_ZN5telux4cv2x19Cv2xIpcSocketServer4initEv=so_stub_for_libtelux_cv2x
-Wl,--defsym=_ZN5telux4cv2x19Cv2xIpcSocketServerC1Ev=so_stub_for_libtelux_cv2x
-Wl,--defsym=_ZN5telux4cv2x19Cv2xIpcSocketServerC2Ev=so_stub_for_libtelux_cv2x
-Wl,--defsym=_ZN5telux4cv2x19Cv2xIpcSocketServerD0Ev=so_stub_for_libtelux_cv2x
-Wl,--defsym=_ZN5telux4cv2x19Cv2xIpcSocketServerD1Ev=so_stub_for_libtelux_cv2x
-Wl,--defsym=_ZN5telux4cv2x19Cv2xIpcSocketServerD2Ev=so_stub_for_libtelux_cv2x
-Wl,--defsym=_ZN5telux4cv2x19Cv2xThrottleManager16getServiceStatusEv=so_stub_for_libtelux_cv2x
-Wl,--defsym=_ZN5telux4cv2x19Cv2xThrottleManager16onTmStatusUpdateE9Tm_status=so_stub_for_libtelux_cv2x
-Wl,--defsym=_ZN5telux4cv2x19Cv2xThrottleManager16registerListenerESt8weak_ptrINS0_28ICv2xThrottleManagerListenerEE=so_stub_for_libtelux_cv2x
-Wl,--defsym=_ZN5telux4cv2x19Cv2xThrottleManager18deregisterListenerESt8weak_ptrINS0_28ICv2xThrottleManagerListenerEE=so_stub_for_libtelux_cv2x
-Wl,--defsym=_ZN5telux4cv2x19Cv2xThrottleManager18onFilterRateUpdateEi=so_stub_for_libtelux_cv2x
-Wl,--defsym=_ZN5telux4cv2x19Cv2xThrottleManager19onSanityStateUpdateE12Sanity_state=so_stub_for_libtelux_cv2x
-Wl,--defsym=_ZN5telux4cv2x19Cv2xThrottleManager19setVerificationLoadEiSt8functionIFvNS_6common9ErrorCodeEEE=so_stub_for_libtelux_cv2x
-Wl,--defsym=_ZN5telux4cv2x19Cv2xThrottleManager4initESt8weak_ptrINS_6common14AsyncTaskQueueIvEEES2_IS1_ESt8functionIFvNS3_13ServiceStatusEEE=so_stub_for_libtelux_cv2x
-Wl,--defsym=_ZN5telux4cv2x19Cv2xThrottleManager8initSyncEv=so_stub_for_libtelux_cv2x
-Wl,--defsym=_ZN5telux4cv2x19Cv2xThrottleManagerC1Ev=so_stub_for_libtelux_cv2x
-Wl,--defsym=_ZN5telux4cv2x19Cv2xThrottleManagerC2Ev=so_stub_for_libtelux_cv2x
-Wl,--defsym=_ZN5telux4cv2x19Cv2xThrottleManagerD0Ev=so_stub_for_libtelux_cv2x
-Wl,--defsym=_ZN5telux4cv2x19Cv2xThrottleManagerD1Ev=so_stub_for_libtelux_cv2x
-Wl,--defsym=_ZN5telux4cv2x19Cv2xThrottleManagerD2Ev=so_stub_for_libtelux_cv2x
-Wl,--defsym=_ZN5telux4cv2x19ICv2xConfigListener15onConfigChangedERKNS0_15ConfigEventInfoE=so_stub_for_libtelux_cv2x
-Wl,--defsym=_ZN5telux4cv2x19QmiV2xStartCallback10onResponseEiPv=so_stub_for_libtelux_cv2x
-Wl,--defsym=_ZN5telux4cv2x19QmiV2xStartCallbackD0Ev=so_stub_for_libtelux_cv2x
-Wl,--defsym=_ZN5telux4cv2x19QmiV2xStartCallbackD1Ev=so_stub_for_libtelux_cv2x
-Wl,--defsym=_ZN5telux4cv2x19QmiV2xStartCallbackD2Ev=so_stub_for_libtelux_cv2x
-Wl,--defsym=_ZN5telux4cv2x20Cv2xRxMetaDataHelper17getRxMetaDataInfoEPKhjRmSt10shared_ptrISt6vectorINS0_22RxPacketMetaDataReportESaIS7_EEE=so_stub_for_libtelux_cv2x
-Wl,--defsym=_ZN5telux4cv2x20ICv2xSysCtrlListener24onV2xGetConfigurationIndEhttjPh=so_stub_for_libtelux_cv2x
-Wl,--defsym=_ZN5telux4cv2x20QmiV2xStatusCallback10onResponseEPNS_3qmi17Cv2xGetStatusRespEPv=so_stub_for_libtelux_cv2x
-Wl,--defsym=_ZN5telux4cv2x20QmiV2xStatusCallbackD0Ev=so_stub_for_libtelux_cv2x
-Wl,--defsym=_ZN5telux4cv2x20QmiV2xStatusCallbackD1Ev=so_stub_for_libtelux_cv2x
-Wl,--defsym=_ZN5telux4cv2x20QmiV2xStatusCallbackD2Ev=so_stub_for_libtelux_cv2x
-Wl,--defsym=_ZN5telux4cv2x21Cv2xRadioCapabilitiesD1Ev=so_stub_for_libtelux_cv2x
-Wl,--defsym=_ZN5telux4cv2x21Cv2xRadioCapabilitiesD2Ev=so_stub_for_libtelux_cv2x
-Wl,--defsym=_ZN5telux4cv2x21QmiGetV2xSlssRxInfoCb10onResponseEPNS_3qmi16GetV2xSlssRxRespEPv=so_stub_for_libtelux_cv2x
-Wl,--defsym=_ZN5telux4cv2x21QmiGetV2xSlssRxInfoCbD0Ev=so_stub_for_libtelux_cv2x
-Wl,--defsym=_ZN5telux4cv2x21QmiGetV2xSlssRxInfoCbD1Ev=so_stub_for_libtelux_cv2x
-Wl,--defsym=_ZN5telux4cv2x21QmiGetV2xSlssRxInfoCbD2Ev=so_stub_for_libtelux_cv2x
-Wl,--defsym=_ZN5telux4cv2x21ServiceStatusListener15onCv2xStatusIndERKNS_3qmi13Cv2xStatusIndE=so_stub_for_libtelux_cv2x
-Wl,--defsym=_ZN5telux4cv2x21ServiceStatusListener15onSlssRxInfoIndERKNS_3qmi14Cv2xSlssRxInfoE=so_stub_for_libtelux_cv2x
-Wl,--defsym=_ZN5telux4cv2x21ServiceStatusListener16registerListenerESt8weak_ptrINS0_13ICv2xListenerEE=so_stub_for_libtelux_cv2x
-Wl,--defsym=_ZN5telux4cv2x21ServiceStatusListener18deregisterListenerESt8weak_ptrINS0_13ICv2xListenerEE=so_stub_for_libtelux_cv2x
-Wl,--defsym=_ZN5telux4cv2x21ServiceStatusListener18onCv2xStatusChangeERNS0_12Cv2xStatusExE=so_stub_for_libtelux_cv2x
-Wl,--defsym=_ZN5telux4cv2x21ServiceStatusListener21onIpcCv2xStatusChangeERKNS0_16Cv2xIpcV2xStatusE=so_stub_for_libtelux_cv2x
-Wl,--defsym=_ZN5telux4cv2x21ServiceStatusListener21onOperatingModeChangeEi=so_stub_for_libtelux_cv2x
-Wl,--defsym=_ZN5telux4cv2x21ServiceStatusListener21onServiceStatusChangeENS_6common13ServiceStatusE=so_stub_for_libtelux_cv2x
-Wl,--defsym=_ZN5telux4cv2x21ServiceStatusListener22onCv2xQmiServiceChangeENS_6common13ServiceStatusE=so_stub_for_libtelux_cv2x
-Wl,--defsym=_ZN5telux4cv2x21ServiceStatusListener22setServiceAvailabilityENS1_17ServiceStatusTypeENS_6common13ServiceStatusERb=so_stub_for_libtelux_cv2x
-Wl,--defsym=_ZN5telux4cv2x21ServiceStatusListener23onIPCServiceStateChangeENS_6common13ServiceStatusE=so_stub_for_libtelux_cv2x
-Wl,--defsym=_ZN5telux4cv2x21ServiceStatusListener24onDmsServiceStatusChangeENS_6common13ServiceStatusEi=so_stub_for_libtelux_cv2x
-Wl,--defsym=_ZN5telux4cv2x21ServiceStatusListener25setUpdateRequiredCallbackESt8functionIFbNS_6common13ServiceStatusEEES6_S2_IFviEE=so_stub_for_libtelux_cv2x
-Wl,--defsym=_ZN5telux4cv2x21ServiceStatusListener28onOverallServiceStatusChangeENS_6common13ServiceStatusE=so_stub_for_libtelux_cv2x
-Wl,--defsym=_ZN5telux4cv2x21ServiceStatusListener5onSSRENS1_17ServiceStatusTypeENS_6common13ServiceStatusE=so_stub_for_libtelux_cv2x
-Wl,--defsym=_ZN5telux4cv2x21ServiceStatusListenerC1Ev=so_stub_for_libtelux_cv2x
-Wl,--defsym=_ZN5telux4cv2x21ServiceStatusListenerD0Ev=so_stub_for_libtelux_cv2x
-Wl,--defsym=_ZN5telux4cv2x21ServiceStatusListenerD1Ev=so_stub_for_libtelux_cv2x
-Wl,--defsym=_ZN5telux4cv2x21StatusCallbackWrapper10c_callbackE9Tm_status=so_stub_for_libtelux_cv2x
-Wl,--defsym=_ZN5telux4cv2x21StatusCallbackWrapper4funcE=so_stub_for_libtelux_cv2x
-Wl,--defsym=_ZN5telux4cv2x22Cv2xSysRequestResponse18indicationCallbackEPv15cv2x_msg_type_tP15cv2x_msg_info_tS2_=so_stub_for_libtelux_cv2x
-Wl,--defsym=_ZN5telux4cv2x22Cv2xSysRequestResponse21onServiceStatusChangeENS_6common13ServiceStatusE=so_stub_for_libtelux_cv2x
-Wl,--defsym=_ZN5telux4cv2x22Cv2xSysRequestResponseC1E15cv2x_msg_type_tSt8functionIFNS_6common9ErrorCodeEPK15cv2x_msg_info_tEE=so_stub_for_libtelux_cv2x
-Wl,--defsym=_ZN5telux4cv2x22Cv2xSysRequestResponseD0Ev=so_stub_for_libtelux_cv2x
-Wl,--defsym=_ZN5telux4cv2x22Cv2xSysRequestResponseD1Ev=so_stub_for_libtelux_cv2x
-Wl,--defsym=_ZN5telux4cv2x22QmiV2xStatusCallbackEx10onResponseEPNS_3qmi17Cv2xGetStatusRespEPv=so_stub_for_libtelux_cv2x
-Wl,--defsym=_ZN5telux4cv2x22QmiV2xStatusCallbackExD0Ev=so_stub_for_libtelux_cv2x
-Wl,--defsym=_ZN5telux4cv2x22QmiV2xStatusCallbackExD1Ev=so_stub_for_libtelux_cv2x
-Wl,--defsym=_ZN5telux4cv2x22QmiV2xStatusCallbackExD2Ev=so_stub_for_libtelux_cv2x
-Wl,--defsym=_ZN5telux4cv2x22requestResponseWrapperEPv15cv2x_msg_type_tP15cv2x_msg_info_tS1_=so_stub_for_libtelux_cv2x
-Wl,--defsym=_ZN5telux4cv2x22TxStatusReportListener16onTxStatusReportERKNS_3qmi21Cv2xTxStatusReportIndE=so_stub_for_libtelux_cv2x
-Wl,--defsym=_ZN5telux4cv2x22TxStatusReportListener18registerTxListenerEtSt10shared_ptrINS0_27ICv2xTxStatusReportListenerEE=so_stub_for_libtelux_cv2x
-Wl,--defsym=_ZN5telux4cv2x22TxStatusReportListener20deregisterTxListenerEt=so_stub_for_libtelux_cv2x
-Wl,--defsym=_ZN5telux4cv2x22TxStatusReportListenerD0Ev=so_stub_for_libtelux_cv2x
-Wl,--defsym=_ZN5telux4cv2x22TxStatusReportListenerD1Ev=so_stub_for_libtelux_cv2x
-Wl,--defsym=_ZN5telux4cv2x22V2xWrConfigurationCtrl19cacheConfigAndWriteEttjPKc=so_stub_for_libtelux_cv2x
-Wl,--defsym=_ZN5telux4cv2x25QmiSetEventReportCallback22setEventReportResponseEiPv=so_stub_for_libtelux_cv2x
-Wl,--defsym=_ZN5telux4cv2x25QmiSetEventReportCallback24onDmsServiceStatusChangeENS_6common13ServiceStatusEi=so_stub_for_libtelux_cv2x
-Wl,--defsym=_ZN5telux4cv2x25QmiSetEventReportCallbackD0Ev=so_stub_for_libtelux_cv2x
-Wl,--defsym=_ZN5telux4cv2x25QmiSetEventReportCallbackD1Ev=so_stub_for_libtelux_cv2x
-Wl,--defsym=_ZN5telux4cv2x25RateUpdateCallbackWrapper10c_callbackEi=so_stub_for_libtelux_cv2x
-Wl,--defsym=_ZN5telux4cv2x25RateUpdateCallbackWrapper4funcE=so_stub_for_libtelux_cv2x
-Wl,--defsym=_ZN5telux4cv2x26SanityStateCallbackWrapper10c_callbackE12Sanity_state=so_stub_for_libtelux_cv2x
-Wl,--defsym=_ZN5telux4cv2x26SanityStateCallbackWrapper4funcE=so_stub_for_libtelux_cv2x
-Wl,--defsym=_ZN5telux4cv2x27QmiGetOperatingModeCallback24getOperatingModeResponseEiiPv=so_stub_for_libtelux_cv2x
-Wl,--defsym=_ZN5telux4cv2x27QmiGetOperatingModeCallback24onDmsServiceStatusChangeENS_6common13ServiceStatusEi=so_stub_for_libtelux_cv2x
-Wl,--defsym=_ZN5telux4cv2x27QmiGetOperatingModeCallbackD0Ev=so_stub_for_libtelux_cv2x
-Wl,--defsym=_ZN5telux4cv2x27QmiGetOperatingModeCallbackD1Ev=so_stub_for_libtelux_cv2x
-Wl,--defsym=_ZN5telux4cv2x27QmiSetOperatingModeCallback24onDmsServiceStatusChangeENS_6common13ServiceStatusEi=so_stub_for_libtelux_cv2x
-Wl,--defsym=_ZN5telux4cv2x27QmiSetOperatingModeCallback24setOperatingModeResponseEiPv=so_stub_for_libtelux_cv2x
-Wl,--defsym=_ZN5telux4cv2x27QmiSetOperatingModeCallbackD0Ev=so_stub_for_libtelux_cv2x
-Wl,--defsym=_ZN5telux4cv2x27QmiSetOperatingModeCallbackD1Ev=so_stub_for_libtelux_cv2x
-Wl,--defsym=_ZN5telux4cv2x31SysctrlGetConfigurationCallback24onV2xGetConfigurationIndEhttjPh=so_stub_for_libtelux_cv2x
-Wl,--defsym=_ZN5telux4cv2x31SysctrlGetConfigurationCallbackD0Ev=so_stub_for_libtelux_cv2x
-Wl,--defsym=_ZN5telux4cv2x31SysctrlGetConfigurationCallbackD1Ev=so_stub_for_libtelux_cv2x
-Wl,--defsym=_ZN5telux4cv2x8Cv2xUtil22priorityToTrafficClassENS0_8PriorityE=so_stub_for_libtelux_cv2x
-Wl,--defsym=_ZN5telux4cv2x8Cv2xUtil22TrafficClassToPriorityEh=so_stub_for_libtelux_cv2x
-Wl,--defsym=_ZN5telux4cv2x9EventInfoINS0_14IndicationDataEE7processEv=so_stub_for_libtelux_cv2x
-Wl,--defsym=_ZN5telux4cv2x9EventInfoINS0_14IndicationDataEEC1ESt10shared_ptrIS2_ESt8functionIFvS5_EE=so_stub_for_libtelux_cv2x
-Wl,--defsym=_ZN5telux4cv2x9EventInfoINS0_14IndicationDataEEC2ESt10shared_ptrIS2_ESt8functionIFvS5_EE=so_stub_for_libtelux_cv2x
-Wl,--defsym=_ZN5telux4cv2x9EventInfoINS0_17ServiceStatusDataEE7processEv=so_stub_for_libtelux_cv2x
-Wl,--defsym=_ZN5telux4cv2x9EventInfoINS0_17ServiceStatusDataEEC1ESt10shared_ptrIS2_ESt8functionIFvS5_EE=so_stub_for_libtelux_cv2x
-Wl,--defsym=_ZN5telux4cv2x9EventInfoINS0_17ServiceStatusDataEEC2ESt10shared_ptrIS2_ESt8functionIFvS5_EE=so_stub_for_libtelux_cv2x
-Wl,--defsym=_ZN5telux4data23IDataConnectionListener21onDataCallInfoChangedERKSt10shared_ptrINS0_9IDataCallEE=so_stub_for_libtelux_cv2x
-Wl,--defsym=_ZN5telux4data23IDataConnectionListener23onHwAccelerationChangedENS0_12ServiceStateE=so_stub_for_libtelux_cv2x
-Wl,--defsym=_ZN5telux4data23IDataConnectionListener25onThrottledApnInfoChangedERKSt6vectorINS0_15APNThrottleInfoESaIS3_EE=so_stub_for_libtelux_cv2x
-Wl,--defsym=_ZN5telux4data23IDataConnectionListener27onTrafficFlowTemplateChangeERKSt10shared_ptrINS0_9IDataCallEERKSt6vectorIS2_INS0_13TftChangeInfoEESaIS9_EE=so_stub_for_libtelux_cv2x
-Wl,--defsym=_ZN5telux4data23IDataConnectionListener30onWwanConnectivityConfigChangeE6SlotIdb=so_stub_for_libtelux_cv2x
-Wl,--defsym=_ZN5telux5utils23getGlobalIn6AddrByIfaceERNSt7__cxx1112basic_stringIcSt11char_traitsIcESaIcEEER8in6_addr=so_stub_for_libtelux_cv2x
-Wl,--defsym=_ZN5telux6common12ISDKListenerD0Ev=so_stub_for_libtelux_cv2x
-Wl,--defsym=_ZN5telux6common12ISDKListenerD1Ev=so_stub_for_libtelux_cv2x
-Wl,--defsym=_ZN5telux6common12ISDKListenerD2Ev=so_stub_for_libtelux_cv2x
-Wl,--defsym=_ZN5telux6common14AsyncTaskQueueIvE11executeTaskEv=so_stub_for_libtelux_cv2x
-Wl,--defsym=_ZN5telux6common14AsyncTaskQueueIvE14purgeCompletedEv=so_stub_for_libtelux_cv2x
-Wl,--defsym=_ZN5telux6common14AsyncTaskQueueIvE3addERSt13shared_futureIvE=so_stub_for_libtelux_cv2x
-Wl,--defsym=_ZN5telux6common14AsyncTaskQueueIvE8shutdownEb=so_stub_for_libtelux_cv2x
-Wl,--defsym=_ZN5telux6common14AsyncTaskQueueIvEC1Ev=so_stub_for_libtelux_cv2x
-Wl,--defsym=_ZN5telux6common14AsyncTaskQueueIvEC2Ev=so_stub_for_libtelux_cv2x
-Wl,--defsym=_ZN5telux6common14AsyncTaskQueueIvED1Ev=so_stub_for_libtelux_cv2x
-Wl,--defsym=_ZN5telux6common14AsyncTaskQueueIvED2Ev=so_stub_for_libtelux_cv2x
-Wl,--defsym=_ZN5telux6common15ListenerManager16registerListenerESt8weak_ptrINS0_12ISDKListenerEE=so_stub_for_libtelux_cv2x
-Wl,--defsym=_ZN5telux6common15ListenerManager18deRegisterListenerESt8weak_ptrINS0_12ISDKListenerEE=so_stub_for_libtelux_cv2x
-Wl,--defsym=_ZN5telux6common15ListenerManager21getAvailableListenersERSt6vectorISt8weak_ptrINS0_12ISDKListenerEESaIS5_EE=so_stub_for_libtelux_cv2x
-Wl,--defsym=_ZN5telux6common15ListenerManager5purgeEv=so_stub_for_libtelux_cv2x
-Wl,--defsym=_ZN5telux6common15ListenerManager7cleanupEv=so_stub_for_libtelux_cv2x
-Wl,--defsym=_ZN5telux6common15ListenerManagerC1Ev=so_stub_for_libtelux_cv2x
-Wl,--defsym=_ZN5telux6common15ListenerManagerC2Ev=so_stub_for_libtelux_cv2x
-Wl,--defsym=_ZN5telux6common15ListenerManagerD1Ev=so_stub_for_libtelux_cv2x
-Wl,--defsym=_ZN5telux6common15ListenerManagerD2Ev=so_stub_for_libtelux_cv2x
-Wl,--defsym=_ZN5telux6common22IServiceStatusListener21onServiceStatusChangeENS0_13ServiceStatusE=so_stub_for_libtelux_cv2x
-Wl,--defsym=_ZN5telux6common3Log10logMessageIJPKc15cv2x_msg_type_tS4_EEEvNS0_8LogLevelERKNSt7__cxx1112basic_stringIcSt11char_traitsIcESaIcEEESE_RKiDpT_=so_stub_for_libtelux_cv2x
-Wl,--defsym=_ZN5telux6common3Log10logMessageIJPKcEEEvNS0_8LogLevelERKNSt7__cxx1112basic_stringIcSt11char_traitsIcESaIcEEESD_RKiDpT_=so_stub_for_libtelux_cv2x
-Wl,--defsym=_ZN5telux6common3Log10logMessageIJPKciEEEvNS0_8LogLevelERKNSt7__cxx1112basic_stringIcSt11char_traitsIcESaIcEEESD_RKiDpT_=so_stub_for_libtelux_cv2x
-Wl,--defsym=_ZN5telux6common3Log10logMessageIJPKciS4_EEEvNS0_8LogLevelERKNSt7__cxx1112basic_stringIcSt11char_traitsIcESaIcEEESD_RKiDpT_=so_stub_for_libtelux_cv2x
-Wl,--defsym=_ZN5telux6common3Log10logMessageIJPKciS4_iS4_iEEEvNS0_8LogLevelERKNSt7__cxx1112basic_stringIcSt11char_traitsIcESaIcEEESD_RKiDpT_=so_stub_for_libtelux_cv2x
-Wl,--defsym=_ZN5telux6common3Log10logMessageIJPKcmEEEvNS0_8LogLevelERKNSt7__cxx1112basic_stringIcSt11char_traitsIcESaIcEEESD_RKiDpT_=so_stub_for_libtelux_cv2x
-Wl,--defsym=_ZN5telux6common3Log10logMessageIJPKcNSt7__cxx1112basic_stringIcSt11char_traitsIcESaIcEEEEEEvNS0_8LogLevelERKSA_SD_RKiDpT_=so_stub_for_libtelux_cv2x
-Wl,--defsym=_ZN5telux6common3Log10logMessageIJPKcNSt7__cxx1112basic_stringIcSt11char_traitsIcESaIcEEES4_EEEvNS0_8LogLevelERKSA_SD_RKiDpT_=so_stub_for_libtelux_cv2x
-Wl,--defsym=_ZN5telux6common3Log10logMessageIJPKcS4_15cv2x_msg_type_tS4_EEEvNS0_8LogLevelERKNSt7__cxx1112basic_stringIcSt11char_traitsIcESaIcEEESE_RKiDpT_=so_stub_for_libtelux_cv2x
-Wl,--defsym=_ZN5telux6common3Log10logMessageIJPKcS4_bEEEvNS0_8LogLevelERKNSt7__cxx1112basic_stringIcSt11char_traitsIcESaIcEEESD_RKiDpT_=so_stub_for_libtelux_cv2x
-Wl,--defsym=_ZN5telux6common3Log10logMessageIJPKcS4_EEEvNS0_8LogLevelERKNSt7__cxx1112basic_stringIcSt11char_traitsIcESaIcEEESD_RKiDpT_=so_stub_for_libtelux_cv2x
-Wl,--defsym=_ZN5telux6common3Log10logMessageIJPKcS4_iEEEvNS0_8LogLevelERKNSt7__cxx1112basic_stringIcSt11char_traitsIcESaIcEEESD_RKiDpT_=so_stub_for_libtelux_cv2x
-Wl,--defsym=_ZN5telux6common3Log10logMessageIJPKcS4_iS4_bEEEvNS0_8LogLevelERKNSt7__cxx1112basic_stringIcSt11char_traitsIcESaIcEEESD_RKiDpT_=so_stub_for_libtelux_cv2x
-Wl,--defsym=_ZN5telux6common3Log10logMessageIJPKcS4_iS4_iEEEvNS0_8LogLevelERKNSt7__cxx1112basic_stringIcSt11char_traitsIcESaIcEEESD_RKiDpT_=so_stub_for_libtelux_cv2x
-Wl,--defsym=_ZN5telux6common3Log10logMessageIJPKcS4_iS4_jEEEvNS0_8LogLevelERKNSt7__cxx1112basic_stringIcSt11char_traitsIcESaIcEEESD_RKiDpT_=so_stub_for_libtelux_cv2x
-Wl,--defsym=_ZN5telux6common3Log10logMessageIJPKcS4_iS4_NSt7__cxx1112basic_stringIcSt11char_traitsIcESaIcEEEEEEvNS0_8LogLevelERKSA_SD_RKiDpT_=so_stub_for_libtelux_cv2x
-Wl,--defsym=_ZN5telux6common3Log10logMessageIJPKcS4_iS4_PcEEEvNS0_8LogLevelERKNSt7__cxx1112basic_stringIcSt11char_traitsIcESaIcEEESE_RKiDpT_=so_stub_for_libtelux_cv2x
-Wl,--defsym=_ZN5telux6common3Log10logMessageIJPKcS4_iS4_tEEEvNS0_8LogLevelERKNSt7__cxx1112basic_stringIcSt11char_traitsIcESaIcEEESD_RKiDpT_=so_stub_for_libtelux_cv2x
-Wl,--defsym=_ZN5telux6common3Log10logMessageIJPKcS4_jEEEvNS0_8LogLevelERKNSt7__cxx1112basic_stringIcSt11char_traitsIcESaIcEEESD_RKiDpT_=so_stub_for_libtelux_cv2x
-Wl,--defsym=_ZN5telux6common3Log10logMessageIJPKcS4_jS4_bEEEvNS0_8LogLevelERKNSt7__cxx1112basic_stringIcSt11char_traitsIcESaIcEEESD_RKiDpT_=so_stub_for_libtelux_cv2x
-Wl,--defsym=_ZN5telux6common3Log10logMessageIJPKcS4_jS4_iEEEvNS0_8LogLevelERKNSt7__cxx1112basic_stringIcSt11char_traitsIcESaIcEEESD_RKiDpT_=so_stub_for_libtelux_cv2x
-Wl,--defsym=_ZN5telux6common3Log10logMessageIJPKcS4_jS4_iS4_tEEEvNS0_8LogLevelERKNSt7__cxx1112basic_stringIcSt11char_traitsIcESaIcEEESD_RKiDpT_=so_stub_for_libtelux_cv2x
-Wl,--defsym=_ZN5telux6common3Log10logMessageIJPKcS4_jS4_jS4_EEEvNS0_8LogLevelERKNSt7__cxx1112basic_stringIcSt11char_traitsIcESaIcEEESD_RKiDpT_=so_stub_for_libtelux_cv2x
-Wl,--defsym=_ZN5telux6common3Log10logMessageIJPKcS4_jS4_jS4_iEEEvNS0_8LogLevelERKNSt7__cxx1112basic_stringIcSt11char_traitsIcESaIcEEESD_RKiDpT_=so_stub_for_libtelux_cv2x
-Wl,--defsym=_ZN5telux6common3Log10logMessageIJPKcS4_jS4_S4_EEEvNS0_8LogLevelERKNSt7__cxx1112basic_stringIcSt11char_traitsIcESaIcEEESD_RKiDpT_=so_stub_for_libtelux_cv2x
-Wl,--defsym=_ZN5telux6common3Log10logMessageIJPKcS4_jS4_tEEEvNS0_8LogLevelERKNSt7__cxx1112basic_stringIcSt11char_traitsIcESaIcEEESD_RKiDpT_=so_stub_for_libtelux_cv2x
-Wl,--defsym=_ZN5telux6common3Log10logMessageIJPKcS4_mEEEvNS0_8LogLevelERKNSt7__cxx1112basic_stringIcSt11char_traitsIcESaIcEEESD_RKiDpT_=so_stub_for_libtelux_cv2x
-Wl,--defsym=_ZN5telux6common3Log10logMessageIJPKcS4_NSt7__cxx1112basic_stringIcSt11char_traitsIcESaIcEEEEEEvNS0_8LogLevelERKSA_SD_RKiDpT_=so_stub_for_libtelux_cv2x
-Wl,--defsym=_ZN5telux6common3Log10logMessageIJPKcS4_NSt7__cxx1112basic_stringIcSt11char_traitsIcESaIcEEES4_EEEvNS0_8LogLevelERKSA_SD_RKiDpT_=so_stub_for_libtelux_cv2x
-Wl,--defsym=_ZN5telux6common3Log10logMessageIJPKcS4_NSt7__cxx1112basic_stringIcSt11char_traitsIcESaIcEEES4_iEEEvNS0_8LogLevelERKSA_SD_RKiDpT_=so_stub_for_libtelux_cv2x
-Wl,--defsym=_ZN5telux6common3Log10logMessageIJPKcS4_NSt7__cxx1112basic_stringIcSt11char_traitsIcESaIcEEES4_jEEEvNS0_8LogLevelERKSA_SD_RKiDpT_=so_stub_for_libtelux_cv2x
-Wl,--defsym=_ZN5telux6common3Log10logMessageIJPKcS4_NSt7__cxx1112basic_stringIcSt11char_traitsIcESaIcEEES4_PcEEEvNS0_8LogLevelERKSA_SE_RKiDpT_=so_stub_for_libtelux_cv2x
-Wl,--defsym=_ZN5telux6common3Log10logMessageIJPKcS4_PcEEEvNS0_8LogLevelERKNSt7__cxx1112basic_stringIcSt11char_traitsIcESaIcEEESE_RKiDpT_=so_stub_for_libtelux_cv2x
-Wl,--defsym=_ZN5telux6common3Log10logMessageIJPKcS4_PcS4_tEEEvNS0_8LogLevelERKNSt7__cxx1112basic_stringIcSt11char_traitsIcESaIcEEESE_RKiDpT_=so_stub_for_libtelux_cv2x
-Wl,--defsym=_ZN5telux6common3Log10logMessageIJPKcS4_S4_EEEvNS0_8LogLevelERKNSt7__cxx1112basic_stringIcSt11char_traitsIcESaIcEEESD_RKiDpT_=so_stub_for_libtelux_cv2x
-Wl,--defsym=_ZN5telux6common3Log10logMessageIJPKcS4_S4_iS4_iEEEvNS0_8LogLevelERKNSt7__cxx1112basic_stringIcSt11char_traitsIcESaIcEEESD_RKiDpT_=so_stub_for_libtelux_cv2x
-Wl,--defsym=_ZN5telux6common3Log10logMessageIJPKcS4_tEEEvNS0_8LogLevelERKNSt7__cxx1112basic_stringIcSt11char_traitsIcESaIcEEESD_RKiDpT_=so_stub_for_libtelux_cv2x
-Wl,--defsym=_ZN5telux6common3Log10logMessageIJPKcS4_ttEEEvNS0_8LogLevelERKNSt7__cxx1112basic_stringIcSt11char_traitsIcESaIcEEESD_RKiDpT_=so_stub_for_libtelux_cv2x
-Wl,--defsym=_ZN5telux6common3Log10logMessageIJPKctS4_EEEvNS0_8LogLevelERKNSt7__cxx1112basic_stringIcSt11char_traitsIcESaIcEEESD_RKiDpT_=so_stub_for_libtelux_cv2x
-Wl,--defsym=_ZN5telux6common3Log16constructMessageINSt7__cxx1119basic_ostringstreamIcSt11char_traitsIcESaIcEEEiJPKciSA_iEEEvRT_T0_DpT1_=so_stub_for_libtelux_cv2x
-Wl,--defsym=_ZN5telux6common3Log16constructMessageINSt7__cxx1119basic_ostringstreamIcSt11char_traitsIcESaIcEEEiJPKcNS3_12basic_stringIcS6_S7_EEEEEvRT_T0_DpT1_=so_stub_for_libtelux_cv2x
-Wl,--defsym=_ZN5telux6common3Log16constructMessageINSt7__cxx1119basic_ostringstreamIcSt11char_traitsIcESaIcEEEPKcJiSA_NS3_12basic_stringIcS6_S7_EEEEEvRT_T0_DpT1_=so_stub_for_libtelux_cv2x
-Wl,--defsym=_ZN5telux6common3Log16constructMessageINSt7__cxx1119basic_ostringstreamIcSt11char_traitsIcESaIcEEEPKcJjSA_jSA_EEEvRT_T0_DpT1_=so_stub_for_libtelux_cv2x
-Wl,--defsym=_ZN5telux6common3Log16constructMessageINSt7__cxx1119basic_ostringstreamIcSt11char_traitsIcESaIcEEEPKcJNS3_12basic_stringIcS6_S7_EEEEEvRT_T0_DpT1_=so_stub_for_libtelux_cv2x
-Wl,--defsym=_ZN5telux6common3Log16constructMessageINSt7__cxx1119basic_ostringstreamIcSt11char_traitsIcESaIcEEEPKcJNS3_12basic_stringIcS6_S7_EESA_EEEvRT_T0_DpT1_=so_stub_for_libtelux_cv2x
-Wl,--defsym=_ZN5telux6common3Log16constructMessageINSt7__cxx1119basic_ostringstreamIcSt11char_traitsIcESaIcEEEPKcJNS3_12basic_stringIcS6_S7_EESA_iEEEvRT_T0_DpT1_=so_stub_for_libtelux_cv2x
-Wl,--defsym=_ZN5telux6common3Log16constructMessageINSt7__cxx1119basic_ostringstreamIcSt11char_traitsIcESaIcEEEPKcJNS3_12basic_stringIcS6_S7_EESA_jEEEvRT_T0_DpT1_=so_stub_for_libtelux_cv2x
-Wl,--defsym=_ZN5telux6common3Log16constructMessageINSt7__cxx1119basic_ostringstreamIcSt11char_traitsIcESaIcEEEPKcJNS3_12basic_stringIcS6_S7_EESA_PcEEEvRT_T0_DpT1_=so_stub_for_libtelux_cv2x
-Wl,--defsym=_ZN5telux6common3Log16constructMessageINSt7__cxx1119basic_ostringstreamIcSt11char_traitsIcESaIcEEEPKcJSA_iSA_bEEEvRT_T0_DpT1_=so_stub_for_libtelux_cv2x
-Wl,--defsym=_ZN5telux6common3Log16constructMessageINSt7__cxx1119basic_ostringstreamIcSt11char_traitsIcESaIcEEEPKcJSA_iSA_iEEEvRT_T0_DpT1_=so_stub_for_libtelux_cv2x
-Wl,--defsym=_ZN5telux6common3Log16constructMessageINSt7__cxx1119basic_ostringstreamIcSt11char_traitsIcESaIcEEEPKcJSA_iSA_jEEEvRT_T0_DpT1_=so_stub_for_libtelux_cv2x
-Wl,--defsym=_ZN5telux6common3Log16constructMessageINSt7__cxx1119basic_ostringstreamIcSt11char_traitsIcESaIcEEEPKcJSA_iSA_NS3_12basic_stringIcS6_S7_EEEEEvRT_T0_DpT1_=so_stub_for_libtelux_cv2x
-Wl,--defsym=_ZN5telux6common3Log16constructMessageINSt7__cxx1119basic_ostringstreamIcSt11char_traitsIcESaIcEEEPKcJSA_iSA_PcEEEvRT_T0_DpT1_=so_stub_for_libtelux_cv2x
-Wl,--defsym=_ZN5telux6common3Log16constructMessageINSt7__cxx1119basic_ostringstreamIcSt11char_traitsIcESaIcEEEPKcJSA_iSA_tEEEvRT_T0_DpT1_=so_stub_for_libtelux_cv2x
-Wl,--defsym=_ZN5telux6common3Log16constructMessageINSt7__cxx1119basic_ostringstreamIcSt11char_traitsIcESaIcEEEPKcJSA_jSA_bEEEvRT_T0_DpT1_=so_stub_for_libtelux_cv2x
-Wl,--defsym=_ZN5telux6common3Log16constructMessageINSt7__cxx1119basic_ostringstreamIcSt11char_traitsIcESaIcEEEPKcJSA_jSA_iEEEvRT_T0_DpT1_=so_stub_for_libtelux_cv2x
-Wl,--defsym=_ZN5telux6common3Log16constructMessageINSt7__cxx1119basic_ostringstreamIcSt11char_traitsIcESaIcEEEPKcJSA_jSA_iSA_tEEEvRT_T0_DpT1_=so_stub_for_libtelux_cv2x
-Wl,--defsym=_ZN5telux6common3Log16constructMessageINSt7__cxx1119basic_ostringstreamIcSt11char_traitsIcESaIcEEEPKcJSA_jSA_jSA_iEEEvRT_T0_DpT1_=so_stub_for_libtelux_cv2x
-Wl,--defsym=_ZN5telux6common3Log16constructMessageINSt7__cxx1119basic_ostringstreamIcSt11char_traitsIcESaIcEEEPKcJSA_jSA_SA_EEEvRT_T0_DpT1_=so_stub_for_libtelux_cv2x
-Wl,--defsym=_ZN5telux6common3Log16constructMessageINSt7__cxx1119basic_ostringstreamIcSt11char_traitsIcESaIcEEEPKcJSA_jSA_tEEEvRT_T0_DpT1_=so_stub_for_libtelux_cv2x
-Wl,--defsym=_ZN5telux6common3Log16constructMessageINSt7__cxx1119basic_ostringstreamIcSt11char_traitsIcESaIcEEEPKcJSA_NS3_12basic_stringIcS6_S7_EEEEEvRT_T0_DpT1_=so_stub_for_libtelux_cv2x
-Wl,--defsym=_ZN5telux6common3Log16constructMessageINSt7__cxx1119basic_ostringstreamIcSt11char_traitsIcESaIcEEEPKcJSA_NS3_12basic_stringIcS6_S7_EESA_EEEvRT_T0_DpT1_=so_stub_for_libtelux_cv2x
-Wl,--defsym=_ZN5telux6common3Log16constructMessageINSt7__cxx1119basic_ostringstreamIcSt11char_traitsIcESaIcEEEPKcJSA_NS3_12basic_stringIcS6_S7_EESA_iEEEvRT_T0_DpT1_=so_stub_for_libtelux_cv2x
-Wl,--defsym=_ZN5telux6common3Log16constructMessageINSt7__cxx1119basic_ostringstreamIcSt11char_traitsIcESaIcEEEPKcJSA_NS3_12basic_stringIcS6_S7_EESA_jEEEvRT_T0_DpT1_=so_stub_for_libtelux_cv2x
-Wl,--defsym=_ZN5telux6common3Log16constructMessageINSt7__cxx1119basic_ostringstreamIcSt11char_traitsIcESaIcEEEPKcJSA_NS3_12basic_stringIcS6_S7_EESA_PcEEEvRT_T0_DpT1_=so_stub_for_libtelux_cv2x
-Wl,--defsym=_ZN5telux6common3Log16constructMessageINSt7__cxx1119basic_ostringstreamIcSt11char_traitsIcESaIcEEEPKcJSA_PcSA_tEEEvRT_T0_DpT1_=so_stub_for_libtelux_cv2x
-Wl,--defsym=_ZN9__gnu_cxx13new_allocatorIN5telux4cv2x18Cv2xRxSubscriptionEE9constructIS3_JRNS2_13TrafficIpTypeERiR12sockaddr_in6RSt10shared_ptrISt6vectorIjSaIjEEEEEEvPT_DpOT0_=so_stub_for_libtelux_cv2x
-Wl,--defsym=_ZN9__gnu_cxx13new_allocatorIN5telux4cv2x9EventInfoINS2_14IndicationDataEEEE9constructIS5_JRKSt10shared_ptrIS4_ERSt8functionIFvS9_EEEEEvPT_DpOT0_=so_stub_for_libtelux_cv2x
-Wl,--defsym=_ZN9__gnu_cxx13new_allocatorIN5telux4cv2x9EventInfoINS2_17ServiceStatusDataEEEE9constructIS5_JRKSt10shared_ptrIS4_ERSt8functionIFvS9_EEEEEvPT_DpOT0_=so_stub_for_libtelux_cv2x
-Wl,--defsym=_ZN9__gnu_cxx5__ops10_Iter_predIZN5telux4cv2x16Cv2xIndsListener16registerListenerESt8weak_ptrINS3_18ICv2xRadioListenerEEEUlSt4pairIbS7_EE_EclINS_17__normal_iteratorIPS9_St6vectorIS9_SaIS9_EEEEEEbT_=so_stub_for_libtelux_cv2x
-Wl,--defsym=_ZN9__gnu_cxx5__ops10_Iter_predIZN5telux6common15ListenerManager16registerListenerESt8weak_ptrINS3_12ISDKListenerEEEUlS7_E_EclINS_17__normal_iteratorIPS7_St6vectorIS7_SaIS7_EEEEEEbT_=so_stub_for_libtelux_cv2x
-Wl,--defsym=_ZNK5telux4cv2x12DsiCv2xRadio13isInitializedEv=so_stub_for_libtelux_cv2x
-Wl,--defsym=_ZNK5telux4cv2x12DsiCv2xRadio15getCapabilitiesEv=so_stub_for_libtelux_cv2x
-Wl,--defsym=_ZNK5telux4cv2x12DsiCv2xRadio7isReadyEv=so_stub_for_libtelux_cv2x
-Wl,--defsym=_ZNK5telux4cv2x13Cv2xTxSpsFlow11getFlowTypeEv=so_stub_for_libtelux_cv2x
-Wl,--defsym=_ZNK5telux4cv2x14Cv2xTxRxSocket10getPortNumEv=so_stub_for_libtelux_cv2x
-Wl,--defsym=_ZNK5telux4cv2x14Cv2xTxRxSocket12getServiceIdEv=so_stub_for_libtelux_cv2x
-Wl,--defsym=_ZNK5telux4cv2x14Cv2xTxRxSocket13getSocketAddrEv=so_stub_for_libtelux_cv2x
-Wl,--defsym=_ZNK5telux4cv2x14Cv2xTxRxSocket5getIdEv=so_stub_for_libtelux_cv2x
-Wl,--defsym=_ZNK5telux4cv2x14Cv2xTxRxSocket9getSocketEv=so_stub_for_libtelux_cv2x
-Wl,--defsym=_ZNK5telux4cv2x15Cv2xTxEventFlow10getPortNumEv=so_stub_for_libtelux_cv2x
-Wl,--defsym=_ZNK5telux4cv2x15Cv2xTxEventFlow11getFlowTypeEv=so_stub_for_libtelux_cv2x
-Wl,--defsym=_ZNK5telux4cv2x15Cv2xTxEventFlow11getSockAddrEv=so_stub_for_libtelux_cv2x
-Wl,--defsym=_ZNK5telux4cv2x15Cv2xTxEventFlow12getServiceIdEv=so_stub_for_libtelux_cv2x
-Wl,--defsym=_ZNK5telux4cv2x15Cv2xTxEventFlow7getSockEv=so_stub_for_libtelux_cv2x
-Wl,--defsym=_ZNK5telux4cv2x15Cv2xTxEventFlow9getFlowIdEv=so_stub_for_libtelux_cv2x
-Wl,--defsym=_ZNK5telux4cv2x15Cv2xTxEventFlow9getIpTypeEv=so_stub_for_libtelux_cv2x
-Wl,--defsym=_ZNK5telux4cv2x16Cv2xRadioManager18queryOperatingModeERNS1_13OperatingModeE=so_stub_for_libtelux_cv2x
-Wl,--defsym=_ZNK5telux4cv2x16Cv2xRadioManager28requestModeChangeEventReportEv=so_stub_for_libtelux_cv2x
-Wl,--defsym=_ZNK5telux4cv2x18Cv2xRxSubscription10getPortNumEv=so_stub_for_libtelux_cv2x
-Wl,--defsym=_ZNK5telux4cv2x18Cv2xRxSubscription11getSockAddrEv=so_stub_for_libtelux_cv2x
-Wl,--defsym=_ZNK5telux4cv2x18Cv2xRxSubscription16getServiceIDListEv=so_stub_for_libtelux_cv2x
-Wl,--defsym=_ZNK5telux4cv2x18Cv2xRxSubscription17getSubscriptionIdEv=so_stub_for_libtelux_cv2x
-Wl,--defsym=_ZNK5telux4cv2x18Cv2xRxSubscription7getSockEv=so_stub_for_libtelux_cv2x
-Wl,--defsym=_ZNK5telux4cv2x18Cv2xRxSubscription9getIpTypeEv=so_stub_for_libtelux_cv2x
-Wl,--defsym=_ZNKSt13__future_base12_Task_setterISt10unique_ptrINS_7_ResultIvEENS_12_Result_base8_DeleterEENSt6thread8_InvokerISt5tupleIJZN5telux6common14AsyncTaskQueueIvE3addIRZNSA_4cv2x16Cv2xIndsListener15onL2AddrChangedEjEUlvE_SG_EENSB_6StatusEOT_St8weak_ptrIT0_ESt6launchEUlvE0_EEEEvEclEv=so_stub_for_libtelux_cv2x
-Wl,--defsym=_ZNKSt13__future_base12_Task_setterISt10unique_ptrINS_7_ResultIvEENS_12_Result_base8_DeleterEENSt6thread8_InvokerISt5tupleIJZN5telux6common14AsyncTaskQueueIvE3addIRZNSA_4cv2x16Cv2xIndsListener19onIpcDataCallChangeERKNSF_15Cv2xIpcDataCallEEUlvE_NSF_12DsiCv2xRadioEEENSB_6StatusEOT_St8weak_ptrIT0_ESt6launchEUlvE0_EEEEvEclEv=so_stub_for_libtelux_cv2x
-Wl,--defsym=_ZNKSt13__future_base12_Task_setterISt10unique_ptrINS_7_ResultIvEENS_12_Result_base8_DeleterEENSt6thread8_InvokerISt5tupleIJZN5telux6common14AsyncTaskQueueIvE3addIRZNSA_4cv2x16Cv2xIndsListener21onIpcCv2xStatusChangeERKNSF_16Cv2xIpcV2xStatusEEUlvE_SG_EENSB_6StatusEOT_St8weak_ptrIT0_ESt6launchEUlvE0_EEEEvEclEv=so_stub_for_libtelux_cv2x
-Wl,--defsym=_ZNKSt13__future_base13_State_baseV221_M_is_deferred_futureEv=so_stub_for_libtelux_cv2x
-Wl,--defsym=_ZNKSt13__future_base15_Deferred_stateINSt6thread8_InvokerISt5tupleIJZN5telux6common14AsyncTaskQueueIvE3addIRZNS4_4cv2x16Cv2xIndsListener15onL2AddrChangedEjEUlvE_SA_EENS5_6StatusEOT_St8weak_ptrIT0_ESt6launchEUlvE0_EEEEvE21_M_is_deferred_futureEv=so_stub_for_libtelux_cv2x
-Wl,--defsym=_ZNKSt13__future_base15_Deferred_stateINSt6thread8_InvokerISt5tupleIJZN5telux6common14AsyncTaskQueueIvE3addIRZNS4_4cv2x16Cv2xIndsListener19onIpcDataCallChangeERKNS9_15Cv2xIpcDataCallEEUlvE_NS9_12DsiCv2xRadioEEENS5_6StatusEOT_St8weak_ptrIT0_ESt6launchEUlvE0_EEEEvE21_M_is_deferred_futureEv=so_stub_for_libtelux_cv2x
-Wl,--defsym=_ZNKSt13__future_base15_Deferred_stateINSt6thread8_InvokerISt5tupleIJZN5telux6common14AsyncTaskQueueIvE3addIRZNS4_4cv2x16Cv2xIndsListener21onIpcCv2xStatusChangeERKNS9_16Cv2xIpcV2xStatusEEUlvE_SA_EENS5_6StatusEOT_St8weak_ptrIT0_ESt6launchEUlvE0_EEEEvE21_M_is_deferred_futureEv=so_stub_for_libtelux_cv2x
-Wl,--defsym=_ZNKSt14__basic_futureIbE13_M_get_resultEv=so_stub_for_libtelux_cv2x
-Wl,--defsym=_ZNKSt14__basic_futureIN5telux6common9ErrorCodeEE13_M_get_resultEv=so_stub_for_libtelux_cv2x
-Wl,--defsym=_ZNKSt14__basic_futureIvE13_M_get_resultEv=so_stub_for_libtelux_cv2x
-Wl,--defsym=_ZNSt10shared_ptrIN5telux4cv2x10Cv2xConfigEEC1ISaIS2_EJEEESt20_Sp_alloc_shared_tagIT_EDpOT0_=so_stub_for_libtelux_cv2x
-Wl,--defsym=_ZNSt10shared_ptrIN5telux4cv2x10Cv2xConfigEEC2ISaIS2_EJEEESt20_Sp_alloc_shared_tagIT_EDpOT0_=so_stub_for_libtelux_cv2x
-Wl,--defsym=_ZNSt10shared_ptrIN5telux4cv2x11Cv2xSysCtrlEEC1ISaIS2_EJEEESt20_Sp_alloc_shared_tagIT_EDpOT0_=so_stub_for_libtelux_cv2x
-Wl,--defsym=_ZNSt10shared_ptrIN5telux4cv2x11Cv2xSysCtrlEEC2ISaIS2_EJEEESt20_Sp_alloc_shared_tagIT_EDpOT0_=so_stub_for_libtelux_cv2x
-Wl,--defsym=_ZNSt10shared_ptrIN5telux4cv2x11Cv2xSysCtrlEED1Ev=so_stub_for_libtelux_cv2x
-Wl,--defsym=_ZNSt10shared_ptrIN5telux4cv2x11Cv2xSysCtrlEED2Ev=so_stub_for_libtelux_cv2x
-Wl,--defsym=_ZNSt10shared_ptrIN5telux4cv2x12DsiCv2xRadioEEC1ISaIS2_EJEEESt20_Sp_alloc_shared_tagIT_EDpOT0_=so_stub_for_libtelux_cv2x
-Wl,--defsym=_ZNSt10shared_ptrIN5telux4cv2x12DsiCv2xRadioEEC2ISaIS2_EJEEESt20_Sp_alloc_shared_tagIT_EDpOT0_=so_stub_for_libtelux_cv2x
-Wl,--defsym=_ZNSt10shared_ptrIN5telux4cv2x15EventDispatcherEEC1ISaIS2_EJEEESt20_Sp_alloc_shared_tagIT_EDpOT0_=so_stub_for_libtelux_cv2x
-Wl,--defsym=_ZNSt10shared_ptrIN5telux4cv2x15EventDispatcherEEC2ISaIS2_EJEEESt20_Sp_alloc_shared_tagIT_EDpOT0_=so_stub_for_libtelux_cv2x
-Wl,--defsym=_ZNSt10shared_ptrIN5telux4cv2x16Cv2xIndsListenerEEC1ISaIS2_EJEEESt20_Sp_alloc_shared_tagIT_EDpOT0_=so_stub_for_libtelux_cv2x
-Wl,--defsym=_ZNSt10shared_ptrIN5telux4cv2x16Cv2xIndsListenerEEC2ISaIS2_EJEEESt20_Sp_alloc_shared_tagIT_EDpOT0_=so_stub_for_libtelux_cv2x
-Wl,--defsym=_ZNSt10shared_ptrIN5telux4cv2x18Cv2xConfigListenerEEC1ISaIS2_EJEEESt20_Sp_alloc_shared_tagIT_EDpOT0_=so_stub_for_libtelux_cv2x
-Wl,--defsym=_ZNSt10shared_ptrIN5telux4cv2x18Cv2xConfigListenerEEC2ISaIS2_EJEEESt20_Sp_alloc_shared_tagIT_EDpOT0_=so_stub_for_libtelux_cv2x
-Wl,--defsym=_ZNSt10shared_ptrIN5telux4cv2x19Cv2xIpcSocketClientEED1Ev=so_stub_for_libtelux_cv2x
-Wl,--defsym=_ZNSt10shared_ptrIN5telux4cv2x19Cv2xIpcSocketClientEED2Ev=so_stub_for_libtelux_cv2x
-Wl,--defsym=_ZNSt10shared_ptrIN5telux4cv2x19Cv2xIpcSocketServerEED1Ev=so_stub_for_libtelux_cv2x
-Wl,--defsym=_ZNSt10shared_ptrIN5telux4cv2x19Cv2xIpcSocketServerEED2Ev=so_stub_for_libtelux_cv2x
-Wl,--defsym=_ZNSt10shared_ptrIN5telux4cv2x19Cv2xThrottleManagerEEC1ISaIS2_EJEEESt20_Sp_alloc_shared_tagIT_EDpOT0_=so_stub_for_libtelux_cv2x
-Wl,--defsym=_ZNSt10shared_ptrIN5telux4cv2x19Cv2xThrottleManagerEEC2ISaIS2_EJEEESt20_Sp_alloc_shared_tagIT_EDpOT0_=so_stub_for_libtelux_cv2x
-Wl,--defsym=_ZNSt10shared_ptrIN5telux4cv2x21ServiceStatusListenerEEC1ISaIS2_EJEEESt20_Sp_alloc_shared_tagIT_EDpOT0_=so_stub_for_libtelux_cv2x
-Wl,--defsym=_ZNSt10shared_ptrIN5telux4cv2x21ServiceStatusListenerEEC2ISaIS2_EJEEESt20_Sp_alloc_shared_tagIT_EDpOT0_=so_stub_for_libtelux_cv2x
-Wl,--defsym=_ZNSt10shared_ptrIN5telux4cv2x22TxStatusReportListenerEEC1ISaIS2_EJEEESt20_Sp_alloc_shared_tagIT_EDpOT0_=so_stub_for_libtelux_cv2x
-Wl,--defsym=_ZNSt10shared_ptrIN5telux4cv2x22TxStatusReportListenerEEC2ISaIS2_EJEEESt20_Sp_alloc_shared_tagIT_EDpOT0_=so_stub_for_libtelux_cv2x
-Wl,--defsym=_ZNSt10shared_ptrIN5telux4cv2x31SysctrlGetConfigurationCallbackEEC1ISaIS2_EJEEESt20_Sp_alloc_shared_tagIT_EDpOT0_=so_stub_for_libtelux_cv2x
-Wl,--defsym=_ZNSt10shared_ptrIN5telux4cv2x31SysctrlGetConfigurationCallbackEEC2ISaIS2_EJEEESt20_Sp_alloc_shared_tagIT_EDpOT0_=so_stub_for_libtelux_cv2x
-Wl,--defsym=_ZNSt10shared_ptrIN5telux4data9DsiClientEED1Ev=so_stub_for_libtelux_cv2x
-Wl,--defsym=_ZNSt10shared_ptrIN5telux4data9DsiClientEED2Ev=so_stub_for_libtelux_cv2x
-Wl,--defsym=_ZNSt10shared_ptrIN5telux6common14AsyncTaskQueueIvEEEC1ISaIS3_EJEEESt20_Sp_alloc_shared_tagIT_EDpOT0_=so_stub_for_libtelux_cv2x
-Wl,--defsym=_ZNSt10shared_ptrIN5telux6common14AsyncTaskQueueIvEEEC2ISaIS3_EJEEESt20_Sp_alloc_shared_tagIT_EDpOT0_=so_stub_for_libtelux_cv2x
-Wl,--defsym=_ZNSt10shared_ptrIN5telux6common15ListenerManagerEEC1ISaIS2_EJEEESt20_Sp_alloc_shared_tagIT_EDpOT0_=so_stub_for_libtelux_cv2x
-Wl,--defsym=_ZNSt10shared_ptrIN5telux6common15ListenerManagerEEC2ISaIS2_EJEEESt20_Sp_alloc_shared_tagIT_EDpOT0_=so_stub_for_libtelux_cv2x
-Wl,--defsym=_ZNSt10shared_ptrINSt13__future_base15_Deferred_stateINSt6thread8_InvokerISt5tupleIJZN5telux6common14AsyncTaskQueueIvE3addIRZNS5_4cv2x16Cv2xIndsListener15onL2AddrChangedEjEUlvE_SB_EENS6_6StatusEOT_St8weak_ptrIT0_ESt6launchEUlvE0_EEEEvEEEC1ISaISO_EJSL_EEESt20_Sp_alloc_shared_tagISF_EDpOT0_=so_stub_for_libtelux_cv2x
-Wl,--defsym=_ZNSt10shared_ptrINSt13__future_base15_Deferred_stateINSt6thread8_InvokerISt5tupleIJZN5telux6common14AsyncTaskQueueIvE3addIRZNS5_4cv2x16Cv2xIndsListener15onL2AddrChangedEjEUlvE_SB_EENS6_6StatusEOT_St8weak_ptrIT0_ESt6launchEUlvE0_EEEEvEEEC2ISaISO_EJSL_EEESt20_Sp_alloc_shared_tagISF_EDpOT0_=so_stub_for_libtelux_cv2x
-Wl,--defsym=_ZNSt10shared_ptrINSt13__future_base15_Deferred_stateINSt6thread8_InvokerISt5tupleIJZN5telux6common14AsyncTaskQueueIvE3addIRZNS5_4cv2x16Cv2xIndsListener19onIpcDataCallChangeERKNSA_15Cv2xIpcDataCallEEUlvE_NSA_12DsiCv2xRadioEEENS6_6StatusEOT_St8weak_ptrIT0_ESt6launchEUlvE0_EEEEvEEEC1ISaISS_EJSP_EEESt20_Sp_alloc_shared_tagISJ_EDpOT0_=so_stub_for_libtelux_cv2x
-Wl,--defsym=_ZNSt10shared_ptrINSt13__future_base15_Deferred_stateINSt6thread8_InvokerISt5tupleIJZN5telux6common14AsyncTaskQueueIvE3addIRZNS5_4cv2x16Cv2xIndsListener19onIpcDataCallChangeERKNSA_15Cv2xIpcDataCallEEUlvE_NSA_12DsiCv2xRadioEEENS6_6StatusEOT_St8weak_ptrIT0_ESt6launchEUlvE0_EEEEvEEEC2ISaISS_EJSP_EEESt20_Sp_alloc_shared_tagISJ_EDpOT0_=so_stub_for_libtelux_cv2x
-Wl,--defsym=_ZNSt10shared_ptrINSt13__future_base15_Deferred_stateINSt6thread8_InvokerISt5tupleIJZN5telux6common14AsyncTaskQueueIvE3addIRZNS5_4cv2x16Cv2xIndsListener21onIpcCv2xStatusChangeERKNSA_16Cv2xIpcV2xStatusEEUlvE_SB_EENS6_6StatusEOT_St8weak_ptrIT0_ESt6launchEUlvE0_EEEEvEEEC1ISaISR_EJSO_EEESt20_Sp_alloc_shared_tagISI_EDpOT0_=so_stub_for_libtelux_cv2x
-Wl,--defsym=_ZNSt10shared_ptrINSt13__future_base15_Deferred_stateINSt6thread8_InvokerISt5tupleIJZN5telux6common14AsyncTaskQueueIvE3addIRZNS5_4cv2x16Cv2xIndsListener21onIpcCv2xStatusChangeERKNSA_16Cv2xIpcV2xStatusEEUlvE_SB_EENS6_6StatusEOT_St8weak_ptrIT0_ESt6launchEUlvE0_EEEEvEEEC2ISaISR_EJSO_EEESt20_Sp_alloc_shared_tagISI_EDpOT0_=so_stub_for_libtelux_cv2x
-Wl,--defsym=_ZNSt10shared_ptrISt6threadEC1ISaIS0_EJMN5telux6common14AsyncTaskQueueIvEEFvvEPS7_EEESt20_Sp_alloc_shared_tagIT_EDpOT0_=so_stub_for_libtelux_cv2x
-Wl,--defsym=_ZNSt10shared_ptrISt6threadEC2ISaIS0_EJMN5telux6common14AsyncTaskQueueIvEEFvvEPS7_EEESt20_Sp_alloc_shared_tagIT_EDpOT0_=so_stub_for_libtelux_cv2x
-Wl,--defsym=_ZNSt10shared_ptrISt6vectorIjSaIjEEEC1ISaIS2_EJRS2_EEESt20_Sp_alloc_shared_tagIT_EDpOT0_=so_stub_for_libtelux_cv2x
-Wl,--defsym=_ZNSt10shared_ptrISt6vectorIjSaIjEEEC2ISaIS2_EJRS2_EEESt20_Sp_alloc_shared_tagIT_EDpOT0_=so_stub_for_libtelux_cv2x
-Wl,--defsym=_ZNSt10unique_ptrINSt13__future_base12_Result_baseENS1_8_DeleterEED1Ev=so_stub_for_libtelux_cv2x
-Wl,--defsym=_ZNSt10unique_ptrINSt13__future_base12_Result_baseENS1_8_DeleterEED2Ev=so_stub_for_libtelux_cv2x
-Wl,--defsym=_ZNSt10unique_ptrINSt13__future_base7_ResultIvEENS0_12_Result_base8_DeleterEED1Ev=so_stub_for_libtelux_cv2x
-Wl,--defsym=_ZNSt10unique_ptrINSt13__future_base7_ResultIvEENS0_12_Result_base8_DeleterEED2Ev=so_stub_for_libtelux_cv2x
-Wl,--defsym=_ZNSt10unique_ptrINSt6thread6_StateESt14default_deleteIS1_EED1Ev=so_stub_for_libtelux_cv2x
-Wl,--defsym=_ZNSt10unique_ptrINSt6thread6_StateESt14default_deleteIS1_EED2Ev=so_stub_for_libtelux_cv2x
-Wl,--defsym=_ZNSt10unique_ptrINSt7__cxx1112basic_stringIcSt11char_traitsIcESaIcEEESt14default_deleteIS5_EED1Ev=so_stub_for_libtelux_cv2x
-Wl,--defsym=_ZNSt10unique_ptrINSt7__cxx1112basic_stringIcSt11char_traitsIcESaIcEEESt14default_deleteIS5_EED2Ev=so_stub_for_libtelux_cv2x
-Wl,--defsym=_ZNSt10__weak_ptrIN5telux6common12ISDKListenerELN9__gnu_cxx12_Lock_policyE2EEC1INS0_4cv2x13ICv2xListenerEvEERKS_IT_LS4_2EE=so_stub_for_libtelux_cv2x
-Wl,--defsym=_ZNSt10__weak_ptrIN5telux6common12ISDKListenerELN9__gnu_cxx12_Lock_policyE2EEC1INS0_4cv2x16ICv2xIpcListenerEvEERKS_IT_LS4_2EE=so_stub_for_libtelux_cv2x
-Wl,--defsym=_ZNSt10__weak_ptrIN5telux6common12ISDKListenerELN9__gnu_cxx12_Lock_policyE2EEC1INS0_4cv2x18IIpcServerListenerEvEERKS_IT_LS4_2EE=so_stub_for_libtelux_cv2x
-Wl,--defsym=_ZNSt10__weak_ptrIN5telux6common12ISDKListenerELN9__gnu_cxx12_Lock_policyE2EEC1INS0_4cv2x19ICv2xConfigListenerEvEERKS_IT_LS4_2EE=so_stub_for_libtelux_cv2x
-Wl,--defsym=_ZNSt10__weak_ptrIN5telux6common12ISDKListenerELN9__gnu_cxx12_Lock_policyE2EEC1INS0_4cv2x22Cv2xSysRequestResponseEvEERKSt12__shared_ptrIT_LS4_2EE=so_stub_for_libtelux_cv2x
-Wl,--defsym=_ZNSt10__weak_ptrIN5telux6common12ISDKListenerELN9__gnu_cxx12_Lock_policyE2EEC1INS0_4cv2x28ICv2xThrottleManagerListenerEvEERKS_IT_LS4_2EE=so_stub_for_libtelux_cv2x
-Wl,--defsym=_ZNSt10__weak_ptrIN5telux6common12ISDKListenerELN9__gnu_cxx12_Lock_policyE2EEC2INS0_4cv2x13ICv2xListenerEvEERKS_IT_LS4_2EE=so_stub_for_libtelux_cv2x
-Wl,--defsym=_ZNSt10__weak_ptrIN5telux6common12ISDKListenerELN9__gnu_cxx12_Lock_policyE2EEC2INS0_4cv2x16ICv2xIpcListenerEvEERKS_IT_LS4_2EE=so_stub_for_libtelux_cv2x
-Wl,--defsym=_ZNSt10__weak_ptrIN5telux6common12ISDKListenerELN9__gnu_cxx12_Lock_policyE2EEC2INS0_4cv2x18IIpcServerListenerEvEERKS_IT_LS4_2EE=so_stub_for_libtelux_cv2x
-Wl,--defsym=_ZNSt10__weak_ptrIN5telux6common12ISDKListenerELN9__gnu_cxx12_Lock_policyE2EEC2INS0_4cv2x19ICv2xConfigListenerEvEERKS_IT_LS4_2EE=so_stub_for_libtelux_cv2x
-Wl,--defsym=_ZNSt10__weak_ptrIN5telux6common12ISDKListenerELN9__gnu_cxx12_Lock_policyE2EEC2INS0_4cv2x22Cv2xSysRequestResponseEvEERKSt12__shared_ptrIT_LS4_2EE=so_stub_for_libtelux_cv2x
-Wl,--defsym=_ZNSt10__weak_ptrIN5telux6common12ISDKListenerELN9__gnu_cxx12_Lock_policyE2EEC2INS0_4cv2x28ICv2xThrottleManagerListenerEvEERKS_IT_LS4_2EE=so_stub_for_libtelux_cv2x
-Wl,--defsym=_ZNSt11__copy_moveILb0ELb0ESt26random_access_iterator_tagE8__copy_mIPSt13shared_futureIvES5_EET0_T_S7_S6_=so_stub_for_libtelux_cv2x
-Wl,--defsym=_ZNSt11_Deque_baseISt13shared_futureIvESaIS1_EE15_M_create_nodesEPPS1_S5_=so_stub_for_libtelux_cv2x
-Wl,--defsym=_ZNSt11_Deque_baseISt13shared_futureIvESaIS1_EE16_M_destroy_nodesEPPS1_S5_=so_stub_for_libtelux_cv2x
-Wl,--defsym=_ZNSt11_Deque_baseISt13shared_futureIvESaIS1_EE17_M_initialize_mapEm=so_stub_for_libtelux_cv2x
-Wl,--defsym=_ZNSt11unique_lockISt5mutexE6unlockEv=so_stub_for_libtelux_cv2x
-Wl,--defsym=_ZNSt12future_errorC1ESt10error_code=so_stub_for_libtelux_cv2x
-Wl,--defsym=_ZNSt12future_errorC2ESt10error_code=so_stub_for_libtelux_cv2x
-Wl,--defsym=_ZNSt12__shared_ptrIN5telux6common14AsyncTaskQueueIvEELN9__gnu_cxx12_Lock_policyE2EEC1ERKSt10__weak_ptrIS3_LS5_2EESt9nothrow_t=so_stub_for_libtelux_cv2x
-Wl,--defsym=_ZNSt12__shared_ptrIN5telux6common14AsyncTaskQueueIvEELN9__gnu_cxx12_Lock_policyE2EEC2ERKSt10__weak_ptrIS3_LS5_2EESt9nothrow_t=so_stub_for_libtelux_cv2x
-Wl,--defsym=_ZNSt12__shared_ptrINSt13__future_base13_State_baseV2ELN9__gnu_cxx12_Lock_policyE2EE5resetEv=so_stub_for_libtelux_cv2x
-Wl,--defsym=_ZNSt12__shared_ptrISt6threadLN9__gnu_cxx12_Lock_policyE2EEaSEOS3_=so_stub_for_libtelux_cv2x
-Wl,--defsym=_ZNSt12__weak_countILN9__gnu_cxx12_Lock_policyE2EEaSERKSt14__shared_countILS1_2EE=so_stub_for_libtelux_cv2x
-Wl,--defsym=_ZNSt13__future_base13_State_baseV210wait_untilINSt6chrono3_V212system_clockENS2_8durationIlSt5ratioILl1ELl1000000000EEEEEESt13future_statusRKNS2_10time_pointIT_T0_EE=so_stub_for_libtelux_cv2x
-Wl,--defsym=_ZNSt13__future_base13_State_baseV213_M_set_resultESt8functionIFSt10unique_ptrINS_12_Result_baseENS3_8_DeleterEEvEEb=so_stub_for_libtelux_cv2x
-Wl,--defsym=_ZNSt13__future_base13_State_baseV216_M_break_promiseESt10unique_ptrINS_12_Result_baseENS2_8_DeleterEE=so_stub_for_libtelux_cv2x
-Wl,--defsym=_ZNSt13__future_base13_State_baseV217_M_complete_asyncEv=so_stub_for_libtelux_cv2x
-Wl,--defsym=_ZNSt13__future_base13_State_baseV24waitEv=so_stub_for_libtelux_cv2x
-Wl,--defsym=_ZNSt13__future_base13_State_baseV29_M_do_setEPSt8functionIFSt10unique_ptrINS_12_Result_baseENS3_8_DeleterEEvEEPb=so_stub_for_libtelux_cv2x
-Wl,--defsym=_ZNSt13__future_base13_State_baseV2D0Ev=so_stub_for_libtelux_cv2x
-Wl,--defsym=_ZNSt13__future_base13_State_baseV2D1Ev=so_stub_for_libtelux_cv2x
-Wl,--defsym=_ZNSt13__future_base13_State_baseV2D2Ev=so_stub_for_libtelux_cv2x
-Wl,--defsym=_ZNSt13__future_base15_Deferred_stateINSt6thread8_InvokerISt5tupleIJZN5telux6common14AsyncTaskQueueIvE3addIRZNS4_4cv2x16Cv2xIndsListener15onL2AddrChangedEjEUlvE_SA_EENS5_6StatusEOT_St8weak_ptrIT0_ESt6launchEUlvE0_EEEEvE17_M_complete_asyncEv=so_stub_for_libtelux_cv2x
-Wl,--defsym=_ZNSt13__future_base15_Deferred_stateINSt6thread8_InvokerISt5tupleIJZN5telux6common14AsyncTaskQueueIvE3addIRZNS4_4cv2x16Cv2xIndsListener15onL2AddrChangedEjEUlvE_SA_EENS5_6StatusEOT_St8weak_ptrIT0_ESt6launchEUlvE0_EEEEvEC1IJSK_EEEDpOT_=so_stub_for_libtelux_cv2x
-Wl,--defsym=_ZNSt13__future_base15_Deferred_stateINSt6thread8_InvokerISt5tupleIJZN5telux6common14AsyncTaskQueueIvE3addIRZNS4_4cv2x16Cv2xIndsListener15onL2AddrChangedEjEUlvE_SA_EENS5_6StatusEOT_St8weak_ptrIT0_ESt6launchEUlvE0_EEEEvEC2IJSK_EEEDpOT_=so_stub_for_libtelux_cv2x
-Wl,--defsym=_ZNSt13__future_base15_Deferred_stateINSt6thread8_InvokerISt5tupleIJZN5telux6common14AsyncTaskQueueIvE3addIRZNS4_4cv2x16Cv2xIndsListener15onL2AddrChangedEjEUlvE_SA_EENS5_6StatusEOT_St8weak_ptrIT0_ESt6launchEUlvE0_EEEEvED0Ev=so_stub_for_libtelux_cv2x
-Wl,--defsym=_ZNSt13__future_base15_Deferred_stateINSt6thread8_InvokerISt5tupleIJZN5telux6common14AsyncTaskQueueIvE3addIRZNS4_4cv2x16Cv2xIndsListener15onL2AddrChangedEjEUlvE_SA_EENS5_6StatusEOT_St8weak_ptrIT0_ESt6launchEUlvE0_EEEEvED1Ev=so_stub_for_libtelux_cv2x
-Wl,--defsym=_ZNSt13__future_base15_Deferred_stateINSt6thread8_InvokerISt5tupleIJZN5telux6common14AsyncTaskQueueIvE3addIRZNS4_4cv2x16Cv2xIndsListener15onL2AddrChangedEjEUlvE_SA_EENS5_6StatusEOT_St8weak_ptrIT0_ESt6launchEUlvE0_EEEEvED2Ev=so_stub_for_libtelux_cv2x
-Wl,--defsym=_ZNSt13__future_base15_Deferred_stateINSt6thread8_InvokerISt5tupleIJZN5telux6common14AsyncTaskQueueIvE3addIRZNS4_4cv2x16Cv2xIndsListener19onIpcDataCallChangeERKNS9_15Cv2xIpcDataCallEEUlvE_NS9_12DsiCv2xRadioEEENS5_6StatusEOT_St8weak_ptrIT0_ESt6launchEUlvE0_EEEEvE17_M_complete_asyncEv=so_stub_for_libtelux_cv2x
-Wl,--defsym=_ZNSt13__future_base15_Deferred_stateINSt6thread8_InvokerISt5tupleIJZN5telux6common14AsyncTaskQueueIvE3addIRZNS4_4cv2x16Cv2xIndsListener19onIpcDataCallChangeERKNS9_15Cv2xIpcDataCallEEUlvE_NS9_12DsiCv2xRadioEEENS5_6StatusEOT_St8weak_ptrIT0_ESt6launchEUlvE0_EEEEvEC1IJSO_EEEDpOT_=so_stub_for_libtelux_cv2x
-Wl,--defsym=_ZNSt13__future_base15_Deferred_stateINSt6thread8_InvokerISt5tupleIJZN5telux6common14AsyncTaskQueueIvE3addIRZNS4_4cv2x16Cv2xIndsListener19onIpcDataCallChangeERKNS9_15Cv2xIpcDataCallEEUlvE_NS9_12DsiCv2xRadioEEENS5_6StatusEOT_St8weak_ptrIT0_ESt6launchEUlvE0_EEEEvEC2IJSO_EEEDpOT_=so_stub_for_libtelux_cv2x
-Wl,--defsym=_ZNSt13__future_base15_Deferred_stateINSt6thread8_InvokerISt5tupleIJZN5telux6common14AsyncTaskQueueIvE3addIRZNS4_4cv2x16Cv2xIndsListener19onIpcDataCallChangeERKNS9_15Cv2xIpcDataCallEEUlvE_NS9_12DsiCv2xRadioEEENS5_6StatusEOT_St8weak_ptrIT0_ESt6launchEUlvE0_EEEEvED0Ev=so_stub_for_libtelux_cv2x
-Wl,--defsym=_ZNSt13__future_base15_Deferred_stateINSt6thread8_InvokerISt5tupleIJZN5telux6common14AsyncTaskQueueIvE3addIRZNS4_4cv2x16Cv2xIndsListener19onIpcDataCallChangeERKNS9_15Cv2xIpcDataCallEEUlvE_NS9_12DsiCv2xRadioEEENS5_6StatusEOT_St8weak_ptrIT0_ESt6launchEUlvE0_EEEEvED1Ev=so_stub_for_libtelux_cv2x
-Wl,--defsym=_ZNSt13__future_base15_Deferred_stateINSt6thread8_InvokerISt5tupleIJZN5telux6common14AsyncTaskQueueIvE3addIRZNS4_4cv2x16Cv2xIndsListener19onIpcDataCallChangeERKNS9_15Cv2xIpcDataCallEEUlvE_NS9_12DsiCv2xRadioEEENS5_6StatusEOT_St8weak_ptrIT0_ESt6launchEUlvE0_EEEEvED2Ev=so_stub_for_libtelux_cv2x
-Wl,--defsym=_ZNSt13__future_base15_Deferred_stateINSt6thread8_InvokerISt5tupleIJZN5telux6common14AsyncTaskQueueIvE3addIRZNS4_4cv2x16Cv2xIndsListener21onIpcCv2xStatusChangeERKNS9_16Cv2xIpcV2xStatusEEUlvE_SA_EENS5_6StatusEOT_St8weak_ptrIT0_ESt6launchEUlvE0_EEEEvE17_M_complete_asyncEv=so_stub_for_libtelux_cv2x
-Wl,--defsym=_ZNSt13__future_base15_Deferred_stateINSt6thread8_InvokerISt5tupleIJZN5telux6common14AsyncTaskQueueIvE3addIRZNS4_4cv2x16Cv2xIndsListener21onIpcCv2xStatusChangeERKNS9_16Cv2xIpcV2xStatusEEUlvE_SA_EENS5_6StatusEOT_St8weak_ptrIT0_ESt6launchEUlvE0_EEEEvEC1IJSN_EEEDpOT_=so_stub_for_libtelux_cv2x
-Wl,--defsym=_ZNSt13__future_base15_Deferred_stateINSt6thread8_InvokerISt5tupleIJZN5telux6common14AsyncTaskQueueIvE3addIRZNS4_4cv2x16Cv2xIndsListener21onIpcCv2xStatusChangeERKNS9_16Cv2xIpcV2xStatusEEUlvE_SA_EENS5_6StatusEOT_St8weak_ptrIT0_ESt6launchEUlvE0_EEEEvEC2IJSN_EEEDpOT_=so_stub_for_libtelux_cv2x
-Wl,--defsym=_ZNSt13__future_base15_Deferred_stateINSt6thread8_InvokerISt5tupleIJZN5telux6common14AsyncTaskQueueIvE3addIRZNS4_4cv2x16Cv2xIndsListener21onIpcCv2xStatusChangeERKNS9_16Cv2xIpcV2xStatusEEUlvE_SA_EENS5_6StatusEOT_St8weak_ptrIT0_ESt6launchEUlvE0_EEEEvED0Ev=so_stub_for_libtelux_cv2x
-Wl,--defsym=_ZNSt13__future_base15_Deferred_stateINSt6thread8_InvokerISt5tupleIJZN5telux6common14AsyncTaskQueueIvE3addIRZNS4_4cv2x16Cv2xIndsListener21onIpcCv2xStatusChangeERKNS9_16Cv2xIpcV2xStatusEEUlvE_SA_EENS5_6StatusEOT_St8weak_ptrIT0_ESt6launchEUlvE0_EEEEvED1Ev=so_stub_for_libtelux_cv2x
-Wl,--defsym=_ZNSt13__future_base15_Deferred_stateINSt6thread8_InvokerISt5tupleIJZN5telux6common14AsyncTaskQueueIvE3addIRZNS4_4cv2x16Cv2xIndsListener21onIpcCv2xStatusChangeERKNS9_16Cv2xIpcV2xStatusEEUlvE_SA_EENS5_6StatusEOT_St8weak_ptrIT0_ESt6launchEUlvE0_EEEEvED2Ev=so_stub_for_libtelux_cv2x
-Wl,--defsym=_ZNSt13__future_base21_Async_state_commonV217_M_complete_asyncEv=so_stub_for_libtelux_cv2x
-Wl,--defsym=_ZNSt13__future_base21_Async_state_commonV2D0Ev=so_stub_for_libtelux_cv2x
-Wl,--defsym=_ZNSt13__future_base21_Async_state_commonV2D1Ev=so_stub_for_libtelux_cv2x
-Wl,--defsym=_ZNSt13__future_base21_Async_state_commonV2D2Ev=so_stub_for_libtelux_cv2x
-Wl,--defsym=_ZNSt13__future_base7_ResultIbE10_M_destroyEv=so_stub_for_libtelux_cv2x
-Wl,--defsym=_ZNSt13__future_base7_ResultIbED0Ev=so_stub_for_libtelux_cv2x
-Wl,--defsym=_ZNSt13__future_base7_ResultIbED1Ev=so_stub_for_libtelux_cv2x
-Wl,--defsym=_ZNSt13__future_base7_ResultIbED2Ev=so_stub_for_libtelux_cv2x
-Wl,--defsym=_ZNSt13__future_base7_ResultIN5telux6common6StatusEE10_M_destroyEv=so_stub_for_libtelux_cv2x
-Wl,--defsym=_ZNSt13__future_base7_ResultIN5telux6common6StatusEED0Ev=so_stub_for_libtelux_cv2x
-Wl,--defsym=_ZNSt13__future_base7_ResultIN5telux6common6StatusEED1Ev=so_stub_for_libtelux_cv2x
-Wl,--defsym=_ZNSt13__future_base7_ResultIN5telux6common6StatusEED2Ev=so_stub_for_libtelux_cv2x
-Wl,--defsym=_ZNSt13__future_base7_ResultIN5telux6common9ErrorCodeEE10_M_destroyEv=so_stub_for_libtelux_cv2x
-Wl,--defsym=_ZNSt13__future_base7_ResultIN5telux6common9ErrorCodeEED0Ev=so_stub_for_libtelux_cv2x
-Wl,--defsym=_ZNSt13__future_base7_ResultIN5telux6common9ErrorCodeEED1Ev=so_stub_for_libtelux_cv2x
-Wl,--defsym=_ZNSt13__future_base7_ResultIN5telux6common9ErrorCodeEED2Ev=so_stub_for_libtelux_cv2x
-Wl,--defsym=_ZNSt13__future_base7_ResultIvE10_M_destroyEv=so_stub_for_libtelux_cv2x
-Wl,--defsym=_ZNSt13__future_base7_ResultIvED0Ev=so_stub_for_libtelux_cv2x
-Wl,--defsym=_ZNSt13__future_base7_ResultIvED1Ev=so_stub_for_libtelux_cv2x
-Wl,--defsym=_ZNSt13__future_base7_ResultIvED2Ev=so_stub_for_libtelux_cv2x
-Wl,--defsym=_ZNSt14__basic_futureIbEC1ERKSt10shared_ptrINSt13__future_base13_State_baseV2EE=so_stub_for_libtelux_cv2x
-Wl,--defsym=_ZNSt14__basic_futureIbEC2ERKSt10shared_ptrINSt13__future_base13_State_baseV2EE=so_stub_for_libtelux_cv2x
-Wl,--defsym=_ZNSt14__basic_futureIN5telux6common6StatusEEC1ERKSt10shared_ptrINSt13__future_base13_State_baseV2EE=so_stub_for_libtelux_cv2x
-Wl,--defsym=_ZNSt14__basic_futureIN5telux6common6StatusEEC2ERKSt10shared_ptrINSt13__future_base13_State_baseV2EE=so_stub_for_libtelux_cv2x
-Wl,--defsym=_ZNSt14__basic_futureIN5telux6common9ErrorCodeEEC1ERKSt10shared_ptrINSt13__future_base13_State_baseV2EE=so_stub_for_libtelux_cv2x
-Wl,--defsym=_ZNSt14__basic_futureIN5telux6common9ErrorCodeEEC2ERKSt10shared_ptrINSt13__future_base13_State_baseV2EE=so_stub_for_libtelux_cv2x
-Wl,--defsym=_ZNSt14__basic_futureIvEC1ERKSt10shared_ptrINSt13__future_base13_State_baseV2EE=so_stub_for_libtelux_cv2x
-Wl,--defsym=_ZNSt14__basic_futureIvEC2ERKSt10shared_ptrINSt13__future_base13_State_baseV2EE=so_stub_for_libtelux_cv2x
-Wl,--defsym=_ZNSt14_Function_base13_Base_managerISt5_BindIFMN5telux4cv2x11Cv2xSysCtrlEFvSt10shared_ptrINS3_14IndicationDataEEEPS4_St12_PlaceholderILi1EEEEE10_M_managerERSt9_Any_dataRKSG_St18_Manager_operation=so_stub_for_libtelux_cv2x
-Wl,--defsym=_ZNSt14_Function_base13_Base_managerISt5_BindIFMN5telux4cv2x11Cv2xSysCtrlEFvSt10shared_ptrINS3_17ServiceStatusDataEEEPS4_St12_PlaceholderILi1EEEEE10_M_managerERSt9_Any_dataRKSG_St18_Manager_operation=so_stub_for_libtelux_cv2x
-Wl,--defsym=_ZNSt14_Function_base13_Base_managerISt5_BindIFMN5telux4cv2x16Cv2xRadioManagerEFNS2_6common9ErrorCodeEiSt10shared_ptrINS3_10Cv2xIPCReqEES7_INS3_11Cv2xIPCRespEEEPS4_St12_PlaceholderILi1EESF_ILi2EESF_ILi3EEEEE10_M_managerERSt9_Any_dataRKSM_St18_Manager_operation=so_stub_for_libtelux_cv2x
-Wl,--defsym=_ZNSt14_Function_base13_Base_managerISt5_BindIFMN5telux4cv2x19Cv2xThrottleManagerEFv12Sanity_stateEPS4_St12_PlaceholderILi1EEEEE10_M_managerERSt9_Any_dataRKSE_St18_Manager_operation=so_stub_for_libtelux_cv2x
-Wl,--defsym=_ZNSt14_Function_base13_Base_managerISt5_BindIFMN5telux4cv2x19Cv2xThrottleManagerEFv9Tm_statusEPS4_St12_PlaceholderILi1EEEEE10_M_managerERSt9_Any_dataRKSE_St18_Manager_operation=so_stub_for_libtelux_cv2x
-Wl,--defsym=_ZNSt14_Function_base13_Base_managerISt5_BindIFMN5telux4cv2x19Cv2xThrottleManagerEFviEPS4_St12_PlaceholderILi1EEEEE10_M_managerERSt9_Any_dataRKSD_St18_Manager_operation=so_stub_for_libtelux_cv2x
-Wl,--defsym=_ZNSt14_Function_baseD1Ev=so_stub_for_libtelux_cv2x
-Wl,--defsym=_ZNSt14_Function_baseD2Ev=so_stub_for_libtelux_cv2x
-Wl,--defsym=_ZNSt14__shared_countILN9__gnu_cxx12_Lock_policyE2EEaSERKS2_=so_stub_for_libtelux_cv2x
-Wl,--defsym=_ZNSt14__shared_countILN9__gnu_cxx12_Lock_policyE2EEC1ERKSt12__weak_countILS1_2EESt9nothrow_t=so_stub_for_libtelux_cv2x
-Wl,--defsym=_ZNSt14__shared_countILN9__gnu_cxx12_Lock_policyE2EEC1IN5telux4cv2x12EventHandlerESaIS6_EJEEERPT_St20_Sp_alloc_shared_tagIT0_EDpOT1_=so_stub_for_libtelux_cv2x
-Wl,--defsym=_ZNSt14__shared_countILN9__gnu_cxx12_Lock_policyE2EEC1IN5telux4cv2x16Cv2xRadioManagerESaIS6_EJRbEEERPT_St20_Sp_alloc_shared_tagIT0_EDpOT1_=so_stub_for_libtelux_cv2x
-Wl,--defsym=_ZNSt14__shared_countILN9__gnu_cxx12_Lock_policyE2EEC1IN5telux4cv2x22Cv2xSysRequestResponseESaIS6_EJ15cv2x_msg_type_tRSt8functionIFNS4_6common9ErrorCodeEPK15cv2x_msg_info_tEEEEERPT_St20_Sp_alloc_shared_tagIT0_EDpOT1_=so_stub_for_libtelux_cv2x
-Wl,--defsym=_ZNSt14__shared_countILN9__gnu_cxx12_Lock_policyE2EEC1IN5telux4cv2x25QmiSetEventReportCallbackESaIS6_EJEEERPT_St20_Sp_alloc_shared_tagIT0_EDpOT1_=so_stub_for_libtelux_cv2x
-Wl,--defsym=_ZNSt14__shared_countILN9__gnu_cxx12_Lock_policyE2EEC1IN5telux4cv2x27QmiGetOperatingModeCallbackESaIS6_EJEEERPT_St20_Sp_alloc_shared_tagIT0_EDpOT1_=so_stub_for_libtelux_cv2x
-Wl,--defsym=_ZNSt14__shared_countILN9__gnu_cxx12_Lock_policyE2EEC1IN5telux4cv2x27QmiSetOperatingModeCallbackESaIS6_EJEEERPT_St20_Sp_alloc_shared_tagIT0_EDpOT1_=so_stub_for_libtelux_cv2x
-Wl,--defsym=_ZNSt14__shared_countILN9__gnu_cxx12_Lock_policyE2EEC1IN5telux4cv2x9EventInfoINS5_14IndicationDataEEESaIS8_EJRKSt10shared_ptrIS7_ERSt8functionIFvSB_EEEEERPT_St20_Sp_alloc_shared_tagIT0_EDpOT1_=so_stub_for_libtelux_cv2x
-Wl,--defsym=_ZNSt14__shared_countILN9__gnu_cxx12_Lock_policyE2EEC1IN5telux4cv2x9EventInfoINS5_17ServiceStatusDataEEESaIS8_EJRKSt10shared_ptrIS7_ERSt8functionIFvSB_EEEEERPT_St20_Sp_alloc_shared_tagIT0_EDpOT1_=so_stub_for_libtelux_cv2x
-Wl,--defsym=_ZNSt14__shared_countILN9__gnu_cxx12_Lock_policyE2EEC1IPN5telux4cv2x19Cv2xIpcSocketClientEEET_=so_stub_for_libtelux_cv2x
-Wl,--defsym=_ZNSt14__shared_countILN9__gnu_cxx12_Lock_policyE2EEC1IPN5telux4cv2x19Cv2xIpcSocketServerEEET_=so_stub_for_libtelux_cv2x
-Wl,--defsym=_ZNSt14__shared_countILN9__gnu_cxx12_Lock_policyE2EEC2ERKSt12__weak_countILS1_2EESt9nothrow_t=so_stub_for_libtelux_cv2x
-Wl,--defsym=_ZNSt14__shared_countILN9__gnu_cxx12_Lock_policyE2EEC2IN5telux4cv2x12EventHandlerESaIS6_EJEEERPT_St20_Sp_alloc_shared_tagIT0_EDpOT1_=so_stub_for_libtelux_cv2x
-Wl,--defsym=_ZNSt14__shared_countILN9__gnu_cxx12_Lock_policyE2EEC2IN5telux4cv2x16Cv2xRadioManagerESaIS6_EJRbEEERPT_St20_Sp_alloc_shared_tagIT0_EDpOT1_=so_stub_for_libtelux_cv2x
-Wl,--defsym=_ZNSt14__shared_countILN9__gnu_cxx12_Lock_policyE2EEC2IN5telux4cv2x22Cv2xSysRequestResponseESaIS6_EJ15cv2x_msg_type_tRSt8functionIFNS4_6common9ErrorCodeEPK15cv2x_msg_info_tEEEEERPT_St20_Sp_alloc_shared_tagIT0_EDpOT1_=so_stub_for_libtelux_cv2x
-Wl,--defsym=_ZNSt14__shared_countILN9__gnu_cxx12_Lock_policyE2EEC2IN5telux4cv2x25QmiSetEventReportCallbackESaIS6_EJEEERPT_St20_Sp_alloc_shared_tagIT0_EDpOT1_=so_stub_for_libtelux_cv2x
-Wl,--defsym=_ZNSt14__shared_countILN9__gnu_cxx12_Lock_policyE2EEC2IN5telux4cv2x27QmiGetOperatingModeCallbackESaIS6_EJEEERPT_St20_Sp_alloc_shared_tagIT0_EDpOT1_=so_stub_for_libtelux_cv2x
-Wl,--defsym=_ZNSt14__shared_countILN9__gnu_cxx12_Lock_policyE2EEC2IN5telux4cv2x27QmiSetOperatingModeCallbackESaIS6_EJEEERPT_St20_Sp_alloc_shared_tagIT0_EDpOT1_=so_stub_for_libtelux_cv2x
-Wl,--defsym=_ZNSt14__shared_countILN9__gnu_cxx12_Lock_policyE2EEC2IN5telux4cv2x9EventInfoINS5_14IndicationDataEEESaIS8_EJRKSt10shared_ptrIS7_ERSt8functionIFvSB_EEEEERPT_St20_Sp_alloc_shared_tagIT0_EDpOT1_=so_stub_for_libtelux_cv2x
-Wl,--defsym=_ZNSt14__shared_countILN9__gnu_cxx12_Lock_policyE2EEC2IN5telux4cv2x9EventInfoINS5_17ServiceStatusDataEEESaIS8_EJRKSt10shared_ptrIS7_ERSt8functionIFvSB_EEEEERPT_St20_Sp_alloc_shared_tagIT0_EDpOT1_=so_stub_for_libtelux_cv2x
-Wl,--defsym=_ZNSt14__shared_countILN9__gnu_cxx12_Lock_policyE2EEC2IPN5telux4cv2x19Cv2xIpcSocketClientEEET_=so_stub_for_libtelux_cv2x
-Wl,--defsym=_ZNSt14__shared_countILN9__gnu_cxx12_Lock_policyE2EEC2IPN5telux4cv2x19Cv2xIpcSocketServerEEET_=so_stub_for_libtelux_cv2x
-Wl,--defsym=_ZNSt15_Deque_iteratorISt13shared_futureIvERKS1_PS2_EpLEl=so_stub_for_libtelux_cv2x
-Wl,--defsym=_ZNSt15_Deque_iteratorISt13shared_futureIvERS1_PS1_EpLEl=so_stub_for_libtelux_cv2x
-Wl,--defsym=_ZNSt15__exception_ptr12__dest_thunkISt12future_errorEEvPv=so_stub_for_libtelux_cv2x
-Wl,--defsym=_ZNSt15__exception_ptr13exception_ptraSEOS0_=so_stub_for_libtelux_cv2x
-Wl,--defsym=_ZNSt15_Sp_counted_ptrIPN5telux4cv2x19Cv2xIpcSocketClientELN9__gnu_cxx12_Lock_policyE2EE10_M_destroyEv=so_stub_for_libtelux_cv2x
-Wl,--defsym=_ZNSt15_Sp_counted_ptrIPN5telux4cv2x19Cv2xIpcSocketClientELN9__gnu_cxx12_Lock_policyE2EE10_M_disposeEv=so_stub_for_libtelux_cv2x
-Wl,--defsym=_ZNSt15_Sp_counted_ptrIPN5telux4cv2x19Cv2xIpcSocketClientELN9__gnu_cxx12_Lock_policyE2EE14_M_get_deleterERKSt9type_info=so_stub_for_libtelux_cv2x
-Wl,--defsym=_ZNSt15_Sp_counted_ptrIPN5telux4cv2x19Cv2xIpcSocketClientELN9__gnu_cxx12_Lock_policyE2EED0Ev=so_stub_for_libtelux_cv2x
-Wl,--defsym=_ZNSt15_Sp_counted_ptrIPN5telux4cv2x19Cv2xIpcSocketClientELN9__gnu_cxx12_Lock_policyE2EED1Ev=so_stub_for_libtelux_cv2x
-Wl,--defsym=_ZNSt15_Sp_counted_ptrIPN5telux4cv2x19Cv2xIpcSocketClientELN9__gnu_cxx12_Lock_policyE2EED2Ev=so_stub_for_libtelux_cv2x
-Wl,--defsym=_ZNSt15_Sp_counted_ptrIPN5telux4cv2x19Cv2xIpcSocketServerELN9__gnu_cxx12_Lock_policyE2EE10_M_destroyEv=so_stub_for_libtelux_cv2x
-Wl,--defsym=_ZNSt15_Sp_counted_ptrIPN5telux4cv2x19Cv2xIpcSocketServerELN9__gnu_cxx12_Lock_policyE2EE10_M_disposeEv=so_stub_for_libtelux_cv2x
-Wl,--defsym=_ZNSt15_Sp_counted_ptrIPN5telux4cv2x19Cv2xIpcSocketServerELN9__gnu_cxx12_Lock_policyE2EE14_M_get_deleterERKSt9type_info=so_stub_for_libtelux_cv2x
-Wl,--defsym=_ZNSt15_Sp_counted_ptrIPN5telux4cv2x19Cv2xIpcSocketServerELN9__gnu_cxx12_Lock_policyE2EED0Ev=so_stub_for_libtelux_cv2x
-Wl,--defsym=_ZNSt15_Sp_counted_ptrIPN5telux4cv2x19Cv2xIpcSocketServerELN9__gnu_cxx12_Lock_policyE2EED1Ev=so_stub_for_libtelux_cv2x
-Wl,--defsym=_ZNSt15_Sp_counted_ptrIPN5telux4cv2x19Cv2xIpcSocketServerELN9__gnu_cxx12_Lock_policyE2EED2Ev=so_stub_for_libtelux_cv2x
-Wl,--defsym=_ZNSt16_Sp_counted_baseILN9__gnu_cxx12_Lock_policyE2EE10_M_releaseEv=so_stub_for_libtelux_cv2x
-Wl,--defsym=_ZNSt16_Sp_counted_baseILN9__gnu_cxx12_Lock_policyE2EE15_M_add_ref_copyEv=so_stub_for_libtelux_cv2x
-Wl,--defsym=_ZNSt16_Sp_counted_baseILN9__gnu_cxx12_Lock_policyE2EE15_M_weak_add_refEv=so_stub_for_libtelux_cv2x
-Wl,--defsym=_ZNSt16_Sp_counted_baseILN9__gnu_cxx12_Lock_policyE2EE15_M_weak_releaseEv=so_stub_for_libtelux_cv2x
-Wl,--defsym=_ZNSt17_Function_handlerIFN5telux6common9ErrorCodeEiSt10shared_ptrINS0_4cv2x10Cv2xIPCReqEES3_INS4_11Cv2xIPCRespEEESt5_BindIFMNS4_16Cv2xRadioManagerEFS2_iS6_S8_EPSB_St12_PlaceholderILi1EESF_ILi2EESF_ILi3EEEEE10_M_managerERSt9_Any_dataRKSM_St18_Manager_operation=so_stub_for_libtelux_cv2x
-Wl,--defsym=_ZNSt17_Function_handlerIFN5telux6common9ErrorCodeEiSt10shared_ptrINS0_4cv2x10Cv2xIPCReqEES3_INS4_11Cv2xIPCRespEEESt5_BindIFMNS4_16Cv2xRadioManagerEFS2_iS6_S8_EPSB_St12_PlaceholderILi1EESF_ILi2EESF_ILi3EEEEE9_M_invokeERKSt9_Any_dataOiOS6_OS8_=so_stub_for_libtelux_cv2x
-Wl,--defsym=_ZNSt17_Function_handlerIFSt10unique_ptrINSt13__future_base12_Result_baseENS2_8_DeleterEEvENS1_12_Task_setterIS0_INS1_7_ResultIvEES3_ENSt6thread8_InvokerISt5tupleIJZN5telux6common14AsyncTaskQueueIvE3addIRZNSD_4cv2x16Cv2xIndsListener15onL2AddrChangedEjEUlvE_SJ_EENSE_6StatusEOT_St8weak_ptrIT0_ESt6launchEUlvE0_EEEEvEEE10_M_managerERSt9_Any_dataRKSY_St18_Manager_operation=so_stub_for_libtelux_cv2x
-Wl,--defsym=_ZNSt17_Function_handlerIFSt10unique_ptrINSt13__future_base12_Result_baseENS2_8_DeleterEEvENS1_12_Task_setterIS0_INS1_7_ResultIvEES3_ENSt6thread8_InvokerISt5tupleIJZN5telux6common14AsyncTaskQueueIvE3addIRZNSD_4cv2x16Cv2xIndsListener15onL2AddrChangedEjEUlvE_SJ_EENSE_6StatusEOT_St8weak_ptrIT0_ESt6launchEUlvE0_EEEEvEEE9_M_invokeERKSt9_Any_data=so_stub_for_libtelux_cv2x
-Wl,--defsym=_ZNSt17_Function_handlerIFSt10unique_ptrINSt13__future_base12_Result_baseENS2_8_DeleterEEvENS1_12_Task_setterIS0_INS1_7_ResultIvEES3_ENSt6thread8_InvokerISt5tupleIJZN5telux6common14AsyncTaskQueueIvE3addIRZNSD_4cv2x16Cv2xIndsListener19onIpcDataCallChangeERKNSI_15Cv2xIpcDataCallEEUlvE_NSI_12DsiCv2xRadioEEENSE_6StatusEOT_St8weak_ptrIT0_ESt6launchEUlvE0_EEEEvEEE10_M_managerERSt9_Any_dataRKS12_St18_Manager_operation=so_stub_for_libtelux_cv2x
-Wl,--defsym=_ZNSt17_Function_handlerIFSt10unique_ptrINSt13__future_base12_Result_baseENS2_8_DeleterEEvENS1_12_Task_setterIS0_INS1_7_ResultIvEES3_ENSt6thread8_InvokerISt5tupleIJZN5telux6common14AsyncTaskQueueIvE3addIRZNSD_4cv2x16Cv2xIndsListener19onIpcDataCallChangeERKNSI_15Cv2xIpcDataCallEEUlvE_NSI_12DsiCv2xRadioEEENSE_6StatusEOT_St8weak_ptrIT0_ESt6launchEUlvE0_EEEEvEEE9_M_invokeERKSt9_Any_data=so_stub_for_libtelux_cv2x
-Wl,--defsym=_ZNSt17_Function_handlerIFSt10unique_ptrINSt13__future_base12_Result_baseENS2_8_DeleterEEvENS1_12_Task_setterIS0_INS1_7_ResultIvEES3_ENSt6thread8_InvokerISt5tupleIJZN5telux6common14AsyncTaskQueueIvE3addIRZNSD_4cv2x16Cv2xIndsListener21onIpcCv2xStatusChangeERKNSI_16Cv2xIpcV2xStatusEEUlvE_SJ_EENSE_6StatusEOT_St8weak_ptrIT0_ESt6launchEUlvE0_EEEEvEEE10_M_managerERSt9_Any_dataRKS11_St18_Manager_operation=so_stub_for_libtelux_cv2x
-Wl,--defsym=_ZNSt17_Function_handlerIFSt10unique_ptrINSt13__future_base12_Result_baseENS2_8_DeleterEEvENS1_12_Task_setterIS0_INS1_7_ResultIvEES3_ENSt6thread8_InvokerISt5tupleIJZN5telux6common14AsyncTaskQueueIvE3addIRZNSD_4cv2x16Cv2xIndsListener21onIpcCv2xStatusChangeERKNSI_16Cv2xIpcV2xStatusEEUlvE_SJ_EENSE_6StatusEOT_St8weak_ptrIT0_ESt6launchEUlvE0_EEEEvEEE9_M_invokeERKSt9_Any_data=so_stub_for_libtelux_cv2x
-Wl,--defsym=_ZNSt17_Function_handlerIFSt10unique_ptrINSt13__future_base12_Result_baseENS2_8_DeleterEEvENS1_13_State_baseV27_SetterIN5telux6common9ErrorCodeEOSA_EEE10_M_managerERSt9_Any_dataRKSE_St18_Manager_operation=so_stub_for_libtelux_cv2x
-Wl,--defsym=_ZNSt17_Function_handlerIFSt10unique_ptrINSt13__future_base12_Result_baseENS2_8_DeleterEEvENS1_13_State_baseV27_SetterIN5telux6common9ErrorCodeEOSA_EEE9_M_invokeERKSt9_Any_data=so_stub_for_libtelux_cv2x
-Wl,--defsym=_ZNSt17_Function_handlerIFSt10unique_ptrINSt13__future_base12_Result_baseENS2_8_DeleterEEvENS1_13_State_baseV27_SetterIN5telux6common9ErrorCodeERKSA_EEE10_M_managerERSt9_Any_dataRKSF_St18_Manager_operation=so_stub_for_libtelux_cv2x
-Wl,--defsym=_ZNSt17_Function_handlerIFSt10unique_ptrINSt13__future_base12_Result_baseENS2_8_DeleterEEvENS1_13_State_baseV27_SetterIN5telux6common9ErrorCodeERKSA_EEE9_M_invokeERKSt9_Any_data=so_stub_for_libtelux_cv2x
-Wl,--defsym=_ZNSt17_Function_handlerIFv12Sanity_stateESt5_BindIFMN5telux4cv2x19Cv2xThrottleManagerEFvS0_EPS5_St12_PlaceholderILi1EEEEE10_M_managerERSt9_Any_dataRKSE_St18_Manager_operation=so_stub_for_libtelux_cv2x
-Wl,--defsym=_ZNSt17_Function_handlerIFv12Sanity_stateESt5_BindIFMN5telux4cv2x19Cv2xThrottleManagerEFvS0_EPS5_St12_PlaceholderILi1EEEEE9_M_invokeERKSt9_Any_dataOS0_=so_stub_for_libtelux_cv2x
-Wl,--defsym=_ZNSt17_Function_handlerIFv9Tm_statusESt5_BindIFMN5telux4cv2x19Cv2xThrottleManagerEFvS0_EPS5_St12_PlaceholderILi1EEEEE10_M_managerERSt9_Any_dataRKSE_St18_Manager_operation=so_stub_for_libtelux_cv2x
-Wl,--defsym=_ZNSt17_Function_handlerIFv9Tm_statusESt5_BindIFMN5telux4cv2x19Cv2xThrottleManagerEFvS0_EPS5_St12_PlaceholderILi1EEEEE9_M_invokeERKSt9_Any_dataOS0_=so_stub_for_libtelux_cv2x
-Wl,--defsym=_ZNSt17_Function_handlerIFviESt5_BindIFMN5telux4cv2x19Cv2xThrottleManagerEFviEPS4_St12_PlaceholderILi1EEEEE10_M_managerERSt9_Any_dataRKSD_St18_Manager_operation=so_stub_for_libtelux_cv2x
-Wl,--defsym=_ZNSt17_Function_handlerIFviESt5_BindIFMN5telux4cv2x19Cv2xThrottleManagerEFviEPS4_St12_PlaceholderILi1EEEEE9_M_invokeERKSt9_Any_dataOi=so_stub_for_libtelux_cv2x
-Wl,--defsym=_ZNSt17_Function_handlerIFvPKN5telux4cv2x11Cv2xIPCRespEPvEPS6_E10_M_managerERSt9_Any_dataRKS9_St18_Manager_operation=so_stub_for_libtelux_cv2x
-Wl,--defsym=_ZNSt17_Function_handlerIFvPKN5telux4cv2x11Cv2xIPCRespEPvEPS6_E9_M_invokeERKSt9_Any_dataOS4_OS5_=so_stub_for_libtelux_cv2x
-Wl,--defsym=_ZNSt17_Function_handlerIFvSt10shared_ptrIN5telux4cv2x14IndicationDataEEESt5_BindIFMNS2_11Cv2xSysCtrlEFvS4_EPS7_St12_PlaceholderILi1EEEEE10_M_managerERSt9_Any_dataRKSG_St18_Manager_operation=so_stub_for_libtelux_cv2x
-Wl,--defsym=_ZNSt17_Function_handlerIFvSt10shared_ptrIN5telux4cv2x14IndicationDataEEESt5_BindIFMNS2_11Cv2xSysCtrlEFvS4_EPS7_St12_PlaceholderILi1EEEEE9_M_invokeERKSt9_Any_dataOS4_=so_stub_for_libtelux_cv2x
-Wl,--defsym=_ZNSt17_Function_handlerIFvSt10shared_ptrIN5telux4cv2x17ServiceStatusDataEEESt5_BindIFMNS2_11Cv2xSysCtrlEFvS4_EPS7_St12_PlaceholderILi1EEEEE10_M_managerERSt9_Any_dataRKSG_St18_Manager_operation=so_stub_for_libtelux_cv2x
-Wl,--defsym=_ZNSt17_Function_handlerIFvSt10shared_ptrIN5telux4cv2x17ServiceStatusDataEEESt5_BindIFMNS2_11Cv2xSysCtrlEFvS4_EPS7_St12_PlaceholderILi1EEEEE9_M_invokeERKSt9_Any_dataOS4_=so_stub_for_libtelux_cv2x
-Wl,--defsym=_ZNSt18condition_variable4waitIZN5telux6common14AsyncTaskQueueIvE11executeTaskEvEUlvE_EEvRSt11unique_lockISt5mutexET_=so_stub_for_libtelux_cv2x
-Wl,--defsym=_ZNSt20__uninitialized_copyILb0EE13__uninit_copyIN9__gnu_cxx17__normal_iteratorIPKSt8functionIFvN5telux6common13ServiceStatusEEESt6vectorIS9_SaIS9_EEEEPS9_EET0_T_SI_SH_=so_stub_for_libtelux_cv2x
-Wl,--defsym=_ZNSt20__uninitialized_copyILb0EE13__uninit_copyIPSt8functionIFvN5telux6common13ServiceStatusEEES8_EET0_T_SA_S9_=so_stub_for_libtelux_cv2x
-Wl,--defsym=_ZNSt20__uninitialized_copyILb0EE13__uninit_copyISt15_Deque_iteratorISt13shared_futureIvERKS4_PS5_ES2_IS4_RS4_PS4_EEET0_T_SD_SC_=so_stub_for_libtelux_cv2x
-Wl,--defsym=_ZNSt23_Sp_counted_ptr_inplaceIN5telux4cv2x10Cv2xConfigESaIS2_ELN9__gnu_cxx12_Lock_policyE2EE10_M_destroyEv=so_stub_for_libtelux_cv2x
-Wl,--defsym=_ZNSt23_Sp_counted_ptr_inplaceIN5telux4cv2x10Cv2xConfigESaIS2_ELN9__gnu_cxx12_Lock_policyE2EE10_M_disposeEv=so_stub_for_libtelux_cv2x
-Wl,--defsym=_ZNSt23_Sp_counted_ptr_inplaceIN5telux4cv2x10Cv2xConfigESaIS2_ELN9__gnu_cxx12_Lock_policyE2EE14_M_get_deleterERKSt9type_info=so_stub_for_libtelux_cv2x
-Wl,--defsym=_ZNSt23_Sp_counted_ptr_inplaceIN5telux4cv2x10Cv2xConfigESaIS2_ELN9__gnu_cxx12_Lock_policyE2EED0Ev=so_stub_for_libtelux_cv2x
-Wl,--defsym=_ZNSt23_Sp_counted_ptr_inplaceIN5telux4cv2x10Cv2xConfigESaIS2_ELN9__gnu_cxx12_Lock_policyE2EED1Ev=so_stub_for_libtelux_cv2x
-Wl,--defsym=_ZNSt23_Sp_counted_ptr_inplaceIN5telux4cv2x10Cv2xConfigESaIS2_ELN9__gnu_cxx12_Lock_policyE2EED2Ev=so_stub_for_libtelux_cv2x
-Wl,--defsym=_ZNSt23_Sp_counted_ptr_inplaceIN5telux4cv2x10Cv2xIPCReqESaIS2_ELN9__gnu_cxx12_Lock_policyE2EE10_M_destroyEv=so_stub_for_libtelux_cv2x
-Wl,--defsym=_ZNSt23_Sp_counted_ptr_inplaceIN5telux4cv2x10Cv2xIPCReqESaIS2_ELN9__gnu_cxx12_Lock_policyE2EE10_M_disposeEv=so_stub_for_libtelux_cv2x
-Wl,--defsym=_ZNSt23_Sp_counted_ptr_inplaceIN5telux4cv2x10Cv2xIPCReqESaIS2_ELN9__gnu_cxx12_Lock_policyE2EE14_M_get_deleterERKSt9type_info=so_stub_for_libtelux_cv2x
-Wl,--defsym=_ZNSt23_Sp_counted_ptr_inplaceIN5telux4cv2x10Cv2xIPCReqESaIS2_ELN9__gnu_cxx12_Lock_policyE2EED0Ev=so_stub_for_libtelux_cv2x
-Wl,--defsym=_ZNSt23_Sp_counted_ptr_inplaceIN5telux4cv2x10Cv2xIPCReqESaIS2_ELN9__gnu_cxx12_Lock_policyE2EED1Ev=so_stub_for_libtelux_cv2x
-Wl,--defsym=_ZNSt23_Sp_counted_ptr_inplaceIN5telux4cv2x10Cv2xIPCReqESaIS2_ELN9__gnu_cxx12_Lock_policyE2EED2Ev=so_stub_for_libtelux_cv2x
-Wl,--defsym=_ZNSt23_Sp_counted_ptr_inplaceIN5telux4cv2x11Cv2xIPCRespESaIS2_ELN9__gnu_cxx12_Lock_policyE2EE10_M_destroyEv=so_stub_for_libtelux_cv2x
-Wl,--defsym=_ZNSt23_Sp_counted_ptr_inplaceIN5telux4cv2x11Cv2xIPCRespESaIS2_ELN9__gnu_cxx12_Lock_policyE2EE10_M_disposeEv=so_stub_for_libtelux_cv2x
-Wl,--defsym=_ZNSt23_Sp_counted_ptr_inplaceIN5telux4cv2x11Cv2xIPCRespESaIS2_ELN9__gnu_cxx12_Lock_policyE2EE14_M_get_deleterERKSt9type_info=so_stub_for_libtelux_cv2x
-Wl,--defsym=_ZNSt23_Sp_counted_ptr_inplaceIN5telux4cv2x11Cv2xIPCRespESaIS2_ELN9__gnu_cxx12_Lock_policyE2EED0Ev=so_stub_for_libtelux_cv2x
-Wl,--defsym=_ZNSt23_Sp_counted_ptr_inplaceIN5telux4cv2x11Cv2xIPCRespESaIS2_ELN9__gnu_cxx12_Lock_policyE2EED1Ev=so_stub_for_libtelux_cv2x
-Wl,--defsym=_ZNSt23_Sp_counted_ptr_inplaceIN5telux4cv2x11Cv2xIPCRespESaIS2_ELN9__gnu_cxx12_Lock_policyE2EED2Ev=so_stub_for_libtelux_cv2x
-Wl,--defsym=_ZNSt23_Sp_counted_ptr_inplaceIN5telux4cv2x11Cv2xSysCtrlESaIS2_ELN9__gnu_cxx12_Lock_policyE2EE10_M_destroyEv=so_stub_for_libtelux_cv2x
-Wl,--defsym=_ZNSt23_Sp_counted_ptr_inplaceIN5telux4cv2x11Cv2xSysCtrlESaIS2_ELN9__gnu_cxx12_Lock_policyE2EE10_M_disposeEv=so_stub_for_libtelux_cv2x
-Wl,--defsym=_ZNSt23_Sp_counted_ptr_inplaceIN5telux4cv2x11Cv2xSysCtrlESaIS2_ELN9__gnu_cxx12_Lock_policyE2EE14_M_get_deleterERKSt9type_info=so_stub_for_libtelux_cv2x
-Wl,--defsym=_ZNSt23_Sp_counted_ptr_inplaceIN5telux4cv2x11Cv2xSysCtrlESaIS2_ELN9__gnu_cxx12_Lock_policyE2EED0Ev=so_stub_for_libtelux_cv2x
-Wl,--defsym=_ZNSt23_Sp_counted_ptr_inplaceIN5telux4cv2x11Cv2xSysCtrlESaIS2_ELN9__gnu_cxx12_Lock_policyE2EED1Ev=so_stub_for_libtelux_cv2x
-Wl,--defsym=_ZNSt23_Sp_counted_ptr_inplaceIN5telux4cv2x11Cv2xSysCtrlESaIS2_ELN9__gnu_cxx12_Lock_policyE2EED2Ev=so_stub_for_libtelux_cv2x
-Wl,--defsym=_ZNSt23_Sp_counted_ptr_inplaceIN5telux4cv2x12DsiCv2xRadioESaIS2_ELN9__gnu_cxx12_Lock_policyE2EE10_M_destroyEv=so_stub_for_libtelux_cv2x
-Wl,--defsym=_ZNSt23_Sp_counted_ptr_inplaceIN5telux4cv2x12DsiCv2xRadioESaIS2_ELN9__gnu_cxx12_Lock_policyE2EE10_M_disposeEv=so_stub_for_libtelux_cv2x
-Wl,--defsym=_ZNSt23_Sp_counted_ptr_inplaceIN5telux4cv2x12DsiCv2xRadioESaIS2_ELN9__gnu_cxx12_Lock_policyE2EE14_M_get_deleterERKSt9type_info=so_stub_for_libtelux_cv2x
-Wl,--defsym=_ZNSt23_Sp_counted_ptr_inplaceIN5telux4cv2x12DsiCv2xRadioESaIS2_ELN9__gnu_cxx12_Lock_policyE2EED0Ev=so_stub_for_libtelux_cv2x
-Wl,--defsym=_ZNSt23_Sp_counted_ptr_inplaceIN5telux4cv2x12DsiCv2xRadioESaIS2_ELN9__gnu_cxx12_Lock_policyE2EED1Ev=so_stub_for_libtelux_cv2x
-Wl,--defsym=_ZNSt23_Sp_counted_ptr_inplaceIN5telux4cv2x12DsiCv2xRadioESaIS2_ELN9__gnu_cxx12_Lock_policyE2EED2Ev=so_stub_for_libtelux_cv2x
-Wl,--defsym=_ZNSt23_Sp_counted_ptr_inplaceIN5telux4cv2x12EventHandlerESaIS2_ELN9__gnu_cxx12_Lock_policyE2EE10_M_destroyEv=so_stub_for_libtelux_cv2x
-Wl,--defsym=_ZNSt23_Sp_counted_ptr_inplaceIN5telux4cv2x12EventHandlerESaIS2_ELN9__gnu_cxx12_Lock_policyE2EE10_M_disposeEv=so_stub_for_libtelux_cv2x
-Wl,--defsym=_ZNSt23_Sp_counted_ptr_inplaceIN5telux4cv2x12EventHandlerESaIS2_ELN9__gnu_cxx12_Lock_policyE2EE14_M_get_deleterERKSt9type_info=so_stub_for_libtelux_cv2x
-Wl,--defsym=_ZNSt23_Sp_counted_ptr_inplaceIN5telux4cv2x12EventHandlerESaIS2_ELN9__gnu_cxx12_Lock_policyE2EED0Ev=so_stub_for_libtelux_cv2x
-Wl,--defsym=_ZNSt23_Sp_counted_ptr_inplaceIN5telux4cv2x12EventHandlerESaIS2_ELN9__gnu_cxx12_Lock_policyE2EED1Ev=so_stub_for_libtelux_cv2x
-Wl,--defsym=_ZNSt23_Sp_counted_ptr_inplaceIN5telux4cv2x12EventHandlerESaIS2_ELN9__gnu_cxx12_Lock_policyE2EED2Ev=so_stub_for_libtelux_cv2x
-Wl,--defsym=_ZNSt23_Sp_counted_ptr_inplaceIN5telux4cv2x13Cv2xTxSpsFlowESaIS2_ELN9__gnu_cxx12_Lock_policyE2EE10_M_destroyEv=so_stub_for_libtelux_cv2x
-Wl,--defsym=_ZNSt23_Sp_counted_ptr_inplaceIN5telux4cv2x13Cv2xTxSpsFlowESaIS2_ELN9__gnu_cxx12_Lock_policyE2EE10_M_disposeEv=so_stub_for_libtelux_cv2x
-Wl,--defsym=_ZNSt23_Sp_counted_ptr_inplaceIN5telux4cv2x13Cv2xTxSpsFlowESaIS2_ELN9__gnu_cxx12_Lock_policyE2EE14_M_get_deleterERKSt9type_info=so_stub_for_libtelux_cv2x
-Wl,--defsym=_ZNSt23_Sp_counted_ptr_inplaceIN5telux4cv2x13Cv2xTxSpsFlowESaIS2_ELN9__gnu_cxx12_Lock_policyE2EED0Ev=so_stub_for_libtelux_cv2x
-Wl,--defsym=_ZNSt23_Sp_counted_ptr_inplaceIN5telux4cv2x13Cv2xTxSpsFlowESaIS2_ELN9__gnu_cxx12_Lock_policyE2EED1Ev=so_stub_for_libtelux_cv2x
-Wl,--defsym=_ZNSt23_Sp_counted_ptr_inplaceIN5telux4cv2x13Cv2xTxSpsFlowESaIS2_ELN9__gnu_cxx12_Lock_policyE2EED2Ev=so_stub_for_libtelux_cv2x
-Wl,--defsym=_ZNSt23_Sp_counted_ptr_inplaceIN5telux4cv2x14Cv2xTxRxSocketESaIS2_ELN9__gnu_cxx12_Lock_policyE2EE10_M_destroyEv=so_stub_for_libtelux_cv2x
-Wl,--defsym=_ZNSt23_Sp_counted_ptr_inplaceIN5telux4cv2x14Cv2xTxRxSocketESaIS2_ELN9__gnu_cxx12_Lock_policyE2EE10_M_disposeEv=so_stub_for_libtelux_cv2x
-Wl,--defsym=_ZNSt23_Sp_counted_ptr_inplaceIN5telux4cv2x14Cv2xTxRxSocketESaIS2_ELN9__gnu_cxx12_Lock_policyE2EE14_M_get_deleterERKSt9type_info=so_stub_for_libtelux_cv2x
-Wl,--defsym=_ZNSt23_Sp_counted_ptr_inplaceIN5telux4cv2x14Cv2xTxRxSocketESaIS2_ELN9__gnu_cxx12_Lock_policyE2EED0Ev=so_stub_for_libtelux_cv2x
-Wl,--defsym=_ZNSt23_Sp_counted_ptr_inplaceIN5telux4cv2x14Cv2xTxRxSocketESaIS2_ELN9__gnu_cxx12_Lock_policyE2EED1Ev=so_stub_for_libtelux_cv2x
-Wl,--defsym=_ZNSt23_Sp_counted_ptr_inplaceIN5telux4cv2x14Cv2xTxRxSocketESaIS2_ELN9__gnu_cxx12_Lock_policyE2EED2Ev=so_stub_for_libtelux_cv2x
-Wl,--defsym=_ZNSt23_Sp_counted_ptr_inplaceIN5telux4cv2x14IndicationDataESaIS2_ELN9__gnu_cxx12_Lock_policyE2EE10_M_destroyEv=so_stub_for_libtelux_cv2x
-Wl,--defsym=_ZNSt23_Sp_counted_ptr_inplaceIN5telux4cv2x14IndicationDataESaIS2_ELN9__gnu_cxx12_Lock_policyE2EE10_M_disposeEv=so_stub_for_libtelux_cv2x
-Wl,--defsym=_ZNSt23_Sp_counted_ptr_inplaceIN5telux4cv2x14IndicationDataESaIS2_ELN9__gnu_cxx12_Lock_policyE2EE14_M_get_deleterERKSt9type_info=so_stub_for_libtelux_cv2x
-Wl,--defsym=_ZNSt23_Sp_counted_ptr_inplaceIN5telux4cv2x14IndicationDataESaIS2_ELN9__gnu_cxx12_Lock_policyE2EED0Ev=so_stub_for_libtelux_cv2x
-Wl,--defsym=_ZNSt23_Sp_counted_ptr_inplaceIN5telux4cv2x14IndicationDataESaIS2_ELN9__gnu_cxx12_Lock_policyE2EED1Ev=so_stub_for_libtelux_cv2x
-Wl,--defsym=_ZNSt23_Sp_counted_ptr_inplaceIN5telux4cv2x14IndicationDataESaIS2_ELN9__gnu_cxx12_Lock_policyE2EED2Ev=so_stub_for_libtelux_cv2x
-Wl,--defsym=_ZNSt23_Sp_counted_ptr_inplaceIN5telux4cv2x15Cv2xTxEventFlowESaIS2_ELN9__gnu_cxx12_Lock_policyE2EE10_M_destroyEv=so_stub_for_libtelux_cv2x
-Wl,--defsym=_ZNSt23_Sp_counted_ptr_inplaceIN5telux4cv2x15Cv2xTxEventFlowESaIS2_ELN9__gnu_cxx12_Lock_policyE2EE10_M_disposeEv=so_stub_for_libtelux_cv2x
-Wl,--defsym=_ZNSt23_Sp_counted_ptr_inplaceIN5telux4cv2x15Cv2xTxEventFlowESaIS2_ELN9__gnu_cxx12_Lock_policyE2EE14_M_get_deleterERKSt9type_info=so_stub_for_libtelux_cv2x
-Wl,--defsym=_ZNSt23_Sp_counted_ptr_inplaceIN5telux4cv2x15Cv2xTxEventFlowESaIS2_ELN9__gnu_cxx12_Lock_policyE2EED0Ev=so_stub_for_libtelux_cv2x
-Wl,--defsym=_ZNSt23_Sp_counted_ptr_inplaceIN5telux4cv2x15Cv2xTxEventFlowESaIS2_ELN9__gnu_cxx12_Lock_policyE2EED1Ev=so_stub_for_libtelux_cv2x
-Wl,--defsym=_ZNSt23_Sp_counted_ptr_inplaceIN5telux4cv2x15Cv2xTxEventFlowESaIS2_ELN9__gnu_cxx12_Lock_policyE2EED2Ev=so_stub_for_libtelux_cv2x
-Wl,--defsym=_ZNSt23_Sp_counted_ptr_inplaceIN5telux4cv2x15EventDispatcherESaIS2_ELN9__gnu_cxx12_Lock_policyE2EE10_M_destroyEv=so_stub_for_libtelux_cv2x
-Wl,--defsym=_ZNSt23_Sp_counted_ptr_inplaceIN5telux4cv2x15EventDispatcherESaIS2_ELN9__gnu_cxx12_Lock_policyE2EE10_M_disposeEv=so_stub_for_libtelux_cv2x
-Wl,--defsym=_ZNSt23_Sp_counted_ptr_inplaceIN5telux4cv2x15EventDispatcherESaIS2_ELN9__gnu_cxx12_Lock_policyE2EE14_M_get_deleterERKSt9type_info=so_stub_for_libtelux_cv2x
-Wl,--defsym=_ZNSt23_Sp_counted_ptr_inplaceIN5telux4cv2x15EventDispatcherESaIS2_ELN9__gnu_cxx12_Lock_policyE2EED0Ev=so_stub_for_libtelux_cv2x
-Wl,--defsym=_ZNSt23_Sp_counted_ptr_inplaceIN5telux4cv2x15EventDispatcherESaIS2_ELN9__gnu_cxx12_Lock_policyE2EED1Ev=so_stub_for_libtelux_cv2x
-Wl,--defsym=_ZNSt23_Sp_counted_ptr_inplaceIN5telux4cv2x15EventDispatcherESaIS2_ELN9__gnu_cxx12_Lock_policyE2EED2Ev=so_stub_for_libtelux_cv2x
-Wl,--defsym=_ZNSt23_Sp_counted_ptr_inplaceIN5telux4cv2x15QmiCv2xCommonCbESaIS2_ELN9__gnu_cxx12_Lock_policyE2EE10_M_destroyEv=so_stub_for_libtelux_cv2x
-Wl,--defsym=_ZNSt23_Sp_counted_ptr_inplaceIN5telux4cv2x15QmiCv2xCommonCbESaIS2_ELN9__gnu_cxx12_Lock_policyE2EE10_M_disposeEv=so_stub_for_libtelux_cv2x
-Wl,--defsym=_ZNSt23_Sp_counted_ptr_inplaceIN5telux4cv2x15QmiCv2xCommonCbESaIS2_ELN9__gnu_cxx12_Lock_policyE2EE14_M_get_deleterERKSt9type_info=so_stub_for_libtelux_cv2x
-Wl,--defsym=_ZNSt23_Sp_counted_ptr_inplaceIN5telux4cv2x15QmiCv2xCommonCbESaIS2_ELN9__gnu_cxx12_Lock_policyE2EED0Ev=so_stub_for_libtelux_cv2x
-Wl,--defsym=_ZNSt23_Sp_counted_ptr_inplaceIN5telux4cv2x15QmiCv2xCommonCbESaIS2_ELN9__gnu_cxx12_Lock_policyE2EED1Ev=so_stub_for_libtelux_cv2x
-Wl,--defsym=_ZNSt23_Sp_counted_ptr_inplaceIN5telux4cv2x15QmiCv2xCommonCbESaIS2_ELN9__gnu_cxx12_Lock_policyE2EED2Ev=so_stub_for_libtelux_cv2x
-Wl,--defsym=_ZNSt23_Sp_counted_ptr_inplaceIN5telux4cv2x16Cv2xIndsListenerESaIS2_ELN9__gnu_cxx12_Lock_policyE2EE10_M_destroyEv=so_stub_for_libtelux_cv2x
-Wl,--defsym=_ZNSt23_Sp_counted_ptr_inplaceIN5telux4cv2x16Cv2xIndsListenerESaIS2_ELN9__gnu_cxx12_Lock_policyE2EE10_M_disposeEv=so_stub_for_libtelux_cv2x
-Wl,--defsym=_ZNSt23_Sp_counted_ptr_inplaceIN5telux4cv2x16Cv2xIndsListenerESaIS2_ELN9__gnu_cxx12_Lock_policyE2EE14_M_get_deleterERKSt9type_info=so_stub_for_libtelux_cv2x
-Wl,--defsym=_ZNSt23_Sp_counted_ptr_inplaceIN5telux4cv2x16Cv2xIndsListenerESaIS2_ELN9__gnu_cxx12_Lock_policyE2EED0Ev=so_stub_for_libtelux_cv2x
-Wl,--defsym=_ZNSt23_Sp_counted_ptr_inplaceIN5telux4cv2x16Cv2xIndsListenerESaIS2_ELN9__gnu_cxx12_Lock_policyE2EED1Ev=so_stub_for_libtelux_cv2x
-Wl,--defsym=_ZNSt23_Sp_counted_ptr_inplaceIN5telux4cv2x16Cv2xIndsListenerESaIS2_ELN9__gnu_cxx12_Lock_policyE2EED2Ev=so_stub_for_libtelux_cv2x
-Wl,--defsym=_ZNSt23_Sp_counted_ptr_inplaceIN5telux4cv2x16Cv2xRadioManagerESaIS2_ELN9__gnu_cxx12_Lock_policyE2EE10_M_destroyEv=so_stub_for_libtelux_cv2x
-Wl,--defsym=_ZNSt23_Sp_counted_ptr_inplaceIN5telux4cv2x16Cv2xRadioManagerESaIS2_ELN9__gnu_cxx12_Lock_policyE2EE10_M_disposeEv=so_stub_for_libtelux_cv2x
-Wl,--defsym=_ZNSt23_Sp_counted_ptr_inplaceIN5telux4cv2x16Cv2xRadioManagerESaIS2_ELN9__gnu_cxx12_Lock_policyE2EE14_M_get_deleterERKSt9type_info=so_stub_for_libtelux_cv2x
-Wl,--defsym=_ZNSt23_Sp_counted_ptr_inplaceIN5telux4cv2x16Cv2xRadioManagerESaIS2_ELN9__gnu_cxx12_Lock_policyE2EED0Ev=so_stub_for_libtelux_cv2x
-Wl,--defsym=_ZNSt23_Sp_counted_ptr_inplaceIN5telux4cv2x16Cv2xRadioManagerESaIS2_ELN9__gnu_cxx12_Lock_policyE2EED1Ev=so_stub_for_libtelux_cv2x
-Wl,--defsym=_ZNSt23_Sp_counted_ptr_inplaceIN5telux4cv2x16Cv2xRadioManagerESaIS2_ELN9__gnu_cxx12_Lock_policyE2EED2Ev=so_stub_for_libtelux_cv2x
-Wl,--defsym=_ZNSt23_Sp_counted_ptr_inplaceIN5telux4cv2x17ServiceStatusDataESaIS2_ELN9__gnu_cxx12_Lock_policyE2EE10_M_destroyEv=so_stub_for_libtelux_cv2x
-Wl,--defsym=_ZNSt23_Sp_counted_ptr_inplaceIN5telux4cv2x17ServiceStatusDataESaIS2_ELN9__gnu_cxx12_Lock_policyE2EE10_M_disposeEv=so_stub_for_libtelux_cv2x
-Wl,--defsym=_ZNSt23_Sp_counted_ptr_inplaceIN5telux4cv2x17ServiceStatusDataESaIS2_ELN9__gnu_cxx12_Lock_policyE2EE14_M_get_deleterERKSt9type_info=so_stub_for_libtelux_cv2x
-Wl,--defsym=_ZNSt23_Sp_counted_ptr_inplaceIN5telux4cv2x17ServiceStatusDataESaIS2_ELN9__gnu_cxx12_Lock_policyE2EED0Ev=so_stub_for_libtelux_cv2x
-Wl,--defsym=_ZNSt23_Sp_counted_ptr_inplaceIN5telux4cv2x17ServiceStatusDataESaIS2_ELN9__gnu_cxx12_Lock_policyE2EED1Ev=so_stub_for_libtelux_cv2x
-Wl,--defsym=_ZNSt23_Sp_counted_ptr_inplaceIN5telux4cv2x17ServiceStatusDataESaIS2_ELN9__gnu_cxx12_Lock_policyE2EED2Ev=so_stub_for_libtelux_cv2x
-Wl,--defsym=_ZNSt23_Sp_counted_ptr_inplaceIN5telux4cv2x18Cv2xConfigListenerESaIS2_ELN9__gnu_cxx12_Lock_policyE2EE10_M_destroyEv=so_stub_for_libtelux_cv2x
-Wl,--defsym=_ZNSt23_Sp_counted_ptr_inplaceIN5telux4cv2x18Cv2xConfigListenerESaIS2_ELN9__gnu_cxx12_Lock_policyE2EE10_M_disposeEv=so_stub_for_libtelux_cv2x
-Wl,--defsym=_ZNSt23_Sp_counted_ptr_inplaceIN5telux4cv2x18Cv2xConfigListenerESaIS2_ELN9__gnu_cxx12_Lock_policyE2EE14_M_get_deleterERKSt9type_info=so_stub_for_libtelux_cv2x
-Wl,--defsym=_ZNSt23_Sp_counted_ptr_inplaceIN5telux4cv2x18Cv2xConfigListenerESaIS2_ELN9__gnu_cxx12_Lock_policyE2EED0Ev=so_stub_for_libtelux_cv2x
-Wl,--defsym=_ZNSt23_Sp_counted_ptr_inplaceIN5telux4cv2x18Cv2xConfigListenerESaIS2_ELN9__gnu_cxx12_Lock_policyE2EED1Ev=so_stub_for_libtelux_cv2x
-Wl,--defsym=_ZNSt23_Sp_counted_ptr_inplaceIN5telux4cv2x18Cv2xConfigListenerESaIS2_ELN9__gnu_cxx12_Lock_policyE2EED2Ev=so_stub_for_libtelux_cv2x
-Wl,--defsym=_ZNSt23_Sp_counted_ptr_inplaceIN5telux4cv2x18Cv2xRxSubscriptionESaIS2_ELN9__gnu_cxx12_Lock_policyE2EE10_M_destroyEv=so_stub_for_libtelux_cv2x
-Wl,--defsym=_ZNSt23_Sp_counted_ptr_inplaceIN5telux4cv2x18Cv2xRxSubscriptionESaIS2_ELN9__gnu_cxx12_Lock_policyE2EE10_M_disposeEv=so_stub_for_libtelux_cv2x
-Wl,--defsym=_ZNSt23_Sp_counted_ptr_inplaceIN5telux4cv2x18Cv2xRxSubscriptionESaIS2_ELN9__gnu_cxx12_Lock_policyE2EE14_M_get_deleterERKSt9type_info=so_stub_for_libtelux_cv2x
-Wl,--defsym=_ZNSt23_Sp_counted_ptr_inplaceIN5telux4cv2x18Cv2xRxSubscriptionESaIS2_ELN9__gnu_cxx12_Lock_policyE2EED0Ev=so_stub_for_libtelux_cv2x
-Wl,--defsym=_ZNSt23_Sp_counted_ptr_inplaceIN5telux4cv2x18Cv2xRxSubscriptionESaIS2_ELN9__gnu_cxx12_Lock_policyE2EED1Ev=so_stub_for_libtelux_cv2x
-Wl,--defsym=_ZNSt23_Sp_counted_ptr_inplaceIN5telux4cv2x18Cv2xRxSubscriptionESaIS2_ELN9__gnu_cxx12_Lock_policyE2EED2Ev=so_stub_for_libtelux_cv2x
-Wl,--defsym=_ZNSt23_Sp_counted_ptr_inplaceIN5telux4cv2x19Cv2xThrottleManagerESaIS2_ELN9__gnu_cxx12_Lock_policyE2EE10_M_destroyEv=so_stub_for_libtelux_cv2x
-Wl,--defsym=_ZNSt23_Sp_counted_ptr_inplaceIN5telux4cv2x19Cv2xThrottleManagerESaIS2_ELN9__gnu_cxx12_Lock_policyE2EE10_M_disposeEv=so_stub_for_libtelux_cv2x
-Wl,--defsym=_ZNSt23_Sp_counted_ptr_inplaceIN5telux4cv2x19Cv2xThrottleManagerESaIS2_ELN9__gnu_cxx12_Lock_policyE2EE14_M_get_deleterERKSt9type_info=so_stub_for_libtelux_cv2x
-Wl,--defsym=_ZNSt23_Sp_counted_ptr_inplaceIN5telux4cv2x19Cv2xThrottleManagerESaIS2_ELN9__gnu_cxx12_Lock_policyE2EED0Ev=so_stub_for_libtelux_cv2x
-Wl,--defsym=_ZNSt23_Sp_counted_ptr_inplaceIN5telux4cv2x19Cv2xThrottleManagerESaIS2_ELN9__gnu_cxx12_Lock_policyE2EED1Ev=so_stub_for_libtelux_cv2x
-Wl,--defsym=_ZNSt23_Sp_counted_ptr_inplaceIN5telux4cv2x19Cv2xThrottleManagerESaIS2_ELN9__gnu_cxx12_Lock_policyE2EED2Ev=so_stub_for_libtelux_cv2x
-Wl,--defsym=_ZNSt23_Sp_counted_ptr_inplaceIN5telux4cv2x19QmiV2xStartCallbackESaIS2_ELN9__gnu_cxx12_Lock_policyE2EE10_M_destroyEv=so_stub_for_libtelux_cv2x
-Wl,--defsym=_ZNSt23_Sp_counted_ptr_inplaceIN5telux4cv2x19QmiV2xStartCallbackESaIS2_ELN9__gnu_cxx12_Lock_policyE2EE10_M_disposeEv=so_stub_for_libtelux_cv2x
-Wl,--defsym=_ZNSt23_Sp_counted_ptr_inplaceIN5telux4cv2x19QmiV2xStartCallbackESaIS2_ELN9__gnu_cxx12_Lock_policyE2EE14_M_get_deleterERKSt9type_info=so_stub_for_libtelux_cv2x
-Wl,--defsym=_ZNSt23_Sp_counted_ptr_inplaceIN5telux4cv2x19QmiV2xStartCallbackESaIS2_ELN9__gnu_cxx12_Lock_policyE2EED0Ev=so_stub_for_libtelux_cv2x
-Wl,--defsym=_ZNSt23_Sp_counted_ptr_inplaceIN5telux4cv2x19QmiV2xStartCallbackESaIS2_ELN9__gnu_cxx12_Lock_policyE2EED1Ev=so_stub_for_libtelux_cv2x
-Wl,--defsym=_ZNSt23_Sp_counted_ptr_inplaceIN5telux4cv2x19QmiV2xStartCallbackESaIS2_ELN9__gnu_cxx12_Lock_policyE2EED2Ev=so_stub_for_libtelux_cv2x
-Wl,--defsym=_ZNSt23_Sp_counted_ptr_inplaceIN5telux4cv2x20QmiV2xStatusCallbackESaIS2_ELN9__gnu_cxx12_Lock_policyE2EE10_M_destroyEv=so_stub_for_libtelux_cv2x
-Wl,--defsym=_ZNSt23_Sp_counted_ptr_inplaceIN5telux4cv2x20QmiV2xStatusCallbackESaIS2_ELN9__gnu_cxx12_Lock_policyE2EE10_M_disposeEv=so_stub_for_libtelux_cv2x
-Wl,--defsym=_ZNSt23_Sp_counted_ptr_inplaceIN5telux4cv2x20QmiV2xStatusCallbackESaIS2_ELN9__gnu_cxx12_Lock_policyE2EE14_M_get_deleterERKSt9type_info=so_stub_for_libtelux_cv2x
-Wl,--defsym=_ZNSt23_Sp_counted_ptr_inplaceIN5telux4cv2x20QmiV2xStatusCallbackESaIS2_ELN9__gnu_cxx12_Lock_policyE2EED0Ev=so_stub_for_libtelux_cv2x
-Wl,--defsym=_ZNSt23_Sp_counted_ptr_inplaceIN5telux4cv2x20QmiV2xStatusCallbackESaIS2_ELN9__gnu_cxx12_Lock_policyE2EED1Ev=so_stub_for_libtelux_cv2x
-Wl,--defsym=_ZNSt23_Sp_counted_ptr_inplaceIN5telux4cv2x20QmiV2xStatusCallbackESaIS2_ELN9__gnu_cxx12_Lock_policyE2EED2Ev=so_stub_for_libtelux_cv2x
-Wl,--defsym=_ZNSt23_Sp_counted_ptr_inplaceIN5telux4cv2x21QmiGetV2xSlssRxInfoCbESaIS2_ELN9__gnu_cxx12_Lock_policyE2EE10_M_destroyEv=so_stub_for_libtelux_cv2x
-Wl,--defsym=_ZNSt23_Sp_counted_ptr_inplaceIN5telux4cv2x21QmiGetV2xSlssRxInfoCbESaIS2_ELN9__gnu_cxx12_Lock_policyE2EE10_M_disposeEv=so_stub_for_libtelux_cv2x
-Wl,--defsym=_ZNSt23_Sp_counted_ptr_inplaceIN5telux4cv2x21QmiGetV2xSlssRxInfoCbESaIS2_ELN9__gnu_cxx12_Lock_policyE2EE14_M_get_deleterERKSt9type_info=so_stub_for_libtelux_cv2x
-Wl,--defsym=_ZNSt23_Sp_counted_ptr_inplaceIN5telux4cv2x21QmiGetV2xSlssRxInfoCbESaIS2_ELN9__gnu_cxx12_Lock_policyE2EED0Ev=so_stub_for_libtelux_cv2x
-Wl,--defsym=_ZNSt23_Sp_counted_ptr_inplaceIN5telux4cv2x21QmiGetV2xSlssRxInfoCbESaIS2_ELN9__gnu_cxx12_Lock_policyE2EED1Ev=so_stub_for_libtelux_cv2x
-Wl,--defsym=_ZNSt23_Sp_counted_ptr_inplaceIN5telux4cv2x21QmiGetV2xSlssRxInfoCbESaIS2_ELN9__gnu_cxx12_Lock_policyE2EED2Ev=so_stub_for_libtelux_cv2x
-Wl,--defsym=_ZNSt23_Sp_counted_ptr_inplaceIN5telux4cv2x21ServiceStatusListenerESaIS2_ELN9__gnu_cxx12_Lock_policyE2EE10_M_destroyEv=so_stub_for_libtelux_cv2x
-Wl,--defsym=_ZNSt23_Sp_counted_ptr_inplaceIN5telux4cv2x21ServiceStatusListenerESaIS2_ELN9__gnu_cxx12_Lock_policyE2EE10_M_disposeEv=so_stub_for_libtelux_cv2x
-Wl,--defsym=_ZNSt23_Sp_counted_ptr_inplaceIN5telux4cv2x21ServiceStatusListenerESaIS2_ELN9__gnu_cxx12_Lock_policyE2EE14_M_get_deleterERKSt9type_info=so_stub_for_libtelux_cv2x
-Wl,--defsym=_ZNSt23_Sp_counted_ptr_inplaceIN5telux4cv2x21ServiceStatusListenerESaIS2_ELN9__gnu_cxx12_Lock_policyE2EED0Ev=so_stub_for_libtelux_cv2x
-Wl,--defsym=_ZNSt23_Sp_counted_ptr_inplaceIN5telux4cv2x21ServiceStatusListenerESaIS2_ELN9__gnu_cxx12_Lock_policyE2EED1Ev=so_stub_for_libtelux_cv2x
-Wl,--defsym=_ZNSt23_Sp_counted_ptr_inplaceIN5telux4cv2x21ServiceStatusListenerESaIS2_ELN9__gnu_cxx12_Lock_policyE2EED2Ev=so_stub_for_libtelux_cv2x
-Wl,--defsym=_ZNSt23_Sp_counted_ptr_inplaceIN5telux4cv2x22Cv2xSysRequestResponseESaIS2_ELN9__gnu_cxx12_Lock_policyE2EE10_M_destroyEv=so_stub_for_libtelux_cv2x
-Wl,--defsym=_ZNSt23_Sp_counted_ptr_inplaceIN5telux4cv2x22Cv2xSysRequestResponseESaIS2_ELN9__gnu_cxx12_Lock_policyE2EE10_M_disposeEv=so_stub_for_libtelux_cv2x
-Wl,--defsym=_ZNSt23_Sp_counted_ptr_inplaceIN5telux4cv2x22Cv2xSysRequestResponseESaIS2_ELN9__gnu_cxx12_Lock_policyE2EE14_M_get_deleterERKSt9type_info=so_stub_for_libtelux_cv2x
-Wl,--defsym=_ZNSt23_Sp_counted_ptr_inplaceIN5telux4cv2x22Cv2xSysRequestResponseESaIS2_ELN9__gnu_cxx12_Lock_policyE2EED0Ev=so_stub_for_libtelux_cv2x
-Wl,--defsym=_ZNSt23_Sp_counted_ptr_inplaceIN5telux4cv2x22Cv2xSysRequestResponseESaIS2_ELN9__gnu_cxx12_Lock_policyE2EED1Ev=so_stub_for_libtelux_cv2x
-Wl,--defsym=_ZNSt23_Sp_counted_ptr_inplaceIN5telux4cv2x22Cv2xSysRequestResponseESaIS2_ELN9__gnu_cxx12_Lock_policyE2EED2Ev=so_stub_for_libtelux_cv2x
-Wl,--defsym=_ZNSt23_Sp_counted_ptr_inplaceIN5telux4cv2x22QmiV2xStatusCallbackExESaIS2_ELN9__gnu_cxx12_Lock_policyE2EE10_M_destroyEv=so_stub_for_libtelux_cv2x
-Wl,--defsym=_ZNSt23_Sp_counted_ptr_inplaceIN5telux4cv2x22QmiV2xStatusCallbackExESaIS2_ELN9__gnu_cxx12_Lock_policyE2EE10_M_disposeEv=so_stub_for_libtelux_cv2x
-Wl,--defsym=_ZNSt23_Sp_counted_ptr_inplaceIN5telux4cv2x22QmiV2xStatusCallbackExESaIS2_ELN9__gnu_cxx12_Lock_policyE2EE14_M_get_deleterERKSt9type_info=so_stub_for_libtelux_cv2x
-Wl,--defsym=_ZNSt23_Sp_counted_ptr_inplaceIN5telux4cv2x22QmiV2xStatusCallbackExESaIS2_ELN9__gnu_cxx12_Lock_policyE2EED0Ev=so_stub_for_libtelux_cv2x
-Wl,--defsym=_ZNSt23_Sp_counted_ptr_inplaceIN5telux4cv2x22QmiV2xStatusCallbackExESaIS2_ELN9__gnu_cxx12_Lock_policyE2EED1Ev=so_stub_for_libtelux_cv2x
-Wl,--defsym=_ZNSt23_Sp_counted_ptr_inplaceIN5telux4cv2x22QmiV2xStatusCallbackExESaIS2_ELN9__gnu_cxx12_Lock_policyE2EED2Ev=so_stub_for_libtelux_cv2x
-Wl,--defsym=_ZNSt23_Sp_counted_ptr_inplaceIN5telux4cv2x22TxStatusReportListenerESaIS2_ELN9__gnu_cxx12_Lock_policyE2EE10_M_destroyEv=so_stub_for_libtelux_cv2x
-Wl,--defsym=_ZNSt23_Sp_counted_ptr_inplaceIN5telux4cv2x22TxStatusReportListenerESaIS2_ELN9__gnu_cxx12_Lock_policyE2EE10_M_disposeEv=so_stub_for_libtelux_cv2x
-Wl,--defsym=_ZNSt23_Sp_counted_ptr_inplaceIN5telux4cv2x22TxStatusReportListenerESaIS2_ELN9__gnu_cxx12_Lock_policyE2EE14_M_get_deleterERKSt9type_info=so_stub_for_libtelux_cv2x
-Wl,--defsym=_ZNSt23_Sp_counted_ptr_inplaceIN5telux4cv2x22TxStatusReportListenerESaIS2_ELN9__gnu_cxx12_Lock_policyE2EED0Ev=so_stub_for_libtelux_cv2x
-Wl,--defsym=_ZNSt23_Sp_counted_ptr_inplaceIN5telux4cv2x22TxStatusReportListenerESaIS2_ELN9__gnu_cxx12_Lock_policyE2EED1Ev=so_stub_for_libtelux_cv2x
-Wl,--defsym=_ZNSt23_Sp_counted_ptr_inplaceIN5telux4cv2x22TxStatusReportListenerESaIS2_ELN9__gnu_cxx12_Lock_policyE2EED2Ev=so_stub_for_libtelux_cv2x
-Wl,--defsym=_ZNSt23_Sp_counted_ptr_inplaceIN5telux4cv2x25QmiSetEventReportCallbackESaIS2_ELN9__gnu_cxx12_Lock_policyE2EE10_M_destroyEv=so_stub_for_libtelux_cv2x
-Wl,--defsym=_ZNSt23_Sp_counted_ptr_inplaceIN5telux4cv2x25QmiSetEventReportCallbackESaIS2_ELN9__gnu_cxx12_Lock_policyE2EE10_M_disposeEv=so_stub_for_libtelux_cv2x
-Wl,--defsym=_ZNSt23_Sp_counted_ptr_inplaceIN5telux4cv2x25QmiSetEventReportCallbackESaIS2_ELN9__gnu_cxx12_Lock_policyE2EE14_M_get_deleterERKSt9type_info=so_stub_for_libtelux_cv2x
-Wl,--defsym=_ZNSt23_Sp_counted_ptr_inplaceIN5telux4cv2x25QmiSetEventReportCallbackESaIS2_ELN9__gnu_cxx12_Lock_policyE2EED0Ev=so_stub_for_libtelux_cv2x
-Wl,--defsym=_ZNSt23_Sp_counted_ptr_inplaceIN5telux4cv2x25QmiSetEventReportCallbackESaIS2_ELN9__gnu_cxx12_Lock_policyE2EED1Ev=so_stub_for_libtelux_cv2x
-Wl,--defsym=_ZNSt23_Sp_counted_ptr_inplaceIN5telux4cv2x25QmiSetEventReportCallbackESaIS2_ELN9__gnu_cxx12_Lock_policyE2EED2Ev=so_stub_for_libtelux_cv2x
-Wl,--defsym=_ZNSt23_Sp_counted_ptr_inplaceIN5telux4cv2x27QmiGetOperatingModeCallbackESaIS2_ELN9__gnu_cxx12_Lock_policyE2EE10_M_destroyEv=so_stub_for_libtelux_cv2x
-Wl,--defsym=_ZNSt23_Sp_counted_ptr_inplaceIN5telux4cv2x27QmiGetOperatingModeCallbackESaIS2_ELN9__gnu_cxx12_Lock_policyE2EE10_M_disposeEv=so_stub_for_libtelux_cv2x
-Wl,--defsym=_ZNSt23_Sp_counted_ptr_inplaceIN5telux4cv2x27QmiGetOperatingModeCallbackESaIS2_ELN9__gnu_cxx12_Lock_policyE2EE14_M_get_deleterERKSt9type_info=so_stub_for_libtelux_cv2x
-Wl,--defsym=_ZNSt23_Sp_counted_ptr_inplaceIN5telux4cv2x27QmiGetOperatingModeCallbackESaIS2_ELN9__gnu_cxx12_Lock_policyE2EED0Ev=so_stub_for_libtelux_cv2x
-Wl,--defsym=_ZNSt23_Sp_counted_ptr_inplaceIN5telux4cv2x27QmiGetOperatingModeCallbackESaIS2_ELN9__gnu_cxx12_Lock_policyE2EED1Ev=so_stub_for_libtelux_cv2x
-Wl,--defsym=_ZNSt23_Sp_counted_ptr_inplaceIN5telux4cv2x27QmiGetOperatingModeCallbackESaIS2_ELN9__gnu_cxx12_Lock_policyE2EED2Ev=so_stub_for_libtelux_cv2x
-Wl,--defsym=_ZNSt23_Sp_counted_ptr_inplaceIN5telux4cv2x27QmiSetOperatingModeCallbackESaIS2_ELN9__gnu_cxx12_Lock_policyE2EE10_M_destroyEv=so_stub_for_libtelux_cv2x
-Wl,--defsym=_ZNSt23_Sp_counted_ptr_inplaceIN5telux4cv2x27QmiSetOperatingModeCallbackESaIS2_ELN9__gnu_cxx12_Lock_policyE2EE10_M_disposeEv=so_stub_for_libtelux_cv2x
-Wl,--defsym=_ZNSt23_Sp_counted_ptr_inplaceIN5telux4cv2x27QmiSetOperatingModeCallbackESaIS2_ELN9__gnu_cxx12_Lock_policyE2EE14_M_get_deleterERKSt9type_info=so_stub_for_libtelux_cv2x
-Wl,--defsym=_ZNSt23_Sp_counted_ptr_inplaceIN5telux4cv2x27QmiSetOperatingModeCallbackESaIS2_ELN9__gnu_cxx12_Lock_policyE2EED0Ev=so_stub_for_libtelux_cv2x
-Wl,--defsym=_ZNSt23_Sp_counted_ptr_inplaceIN5telux4cv2x27QmiSetOperatingModeCallbackESaIS2_ELN9__gnu_cxx12_Lock_policyE2EED1Ev=so_stub_for_libtelux_cv2x
-Wl,--defsym=_ZNSt23_Sp_counted_ptr_inplaceIN5telux4cv2x27QmiSetOperatingModeCallbackESaIS2_ELN9__gnu_cxx12_Lock_policyE2EED2Ev=so_stub_for_libtelux_cv2x
-Wl,--defsym=_ZNSt23_Sp_counted_ptr_inplaceIN5telux4cv2x31SysctrlGetConfigurationCallbackESaIS2_ELN9__gnu_cxx12_Lock_policyE2EE10_M_destroyEv=so_stub_for_libtelux_cv2x
-Wl,--defsym=_ZNSt23_Sp_counted_ptr_inplaceIN5telux4cv2x31SysctrlGetConfigurationCallbackESaIS2_ELN9__gnu_cxx12_Lock_policyE2EE10_M_disposeEv=so_stub_for_libtelux_cv2x
-Wl,--defsym=_ZNSt23_Sp_counted_ptr_inplaceIN5telux4cv2x31SysctrlGetConfigurationCallbackESaIS2_ELN9__gnu_cxx12_Lock_policyE2EE14_M_get_deleterERKSt9type_info=so_stub_for_libtelux_cv2x
-Wl,--defsym=_ZNSt23_Sp_counted_ptr_inplaceIN5telux4cv2x31SysctrlGetConfigurationCallbackESaIS2_ELN9__gnu_cxx12_Lock_policyE2EED0Ev=so_stub_for_libtelux_cv2x
-Wl,--defsym=_ZNSt23_Sp_counted_ptr_inplaceIN5telux4cv2x31SysctrlGetConfigurationCallbackESaIS2_ELN9__gnu_cxx12_Lock_policyE2EED1Ev=so_stub_for_libtelux_cv2x
-Wl,--defsym=_ZNSt23_Sp_counted_ptr_inplaceIN5telux4cv2x31SysctrlGetConfigurationCallbackESaIS2_ELN9__gnu_cxx12_Lock_policyE2EED2Ev=so_stub_for_libtelux_cv2x
-Wl,--defsym=_ZNSt23_Sp_counted_ptr_inplaceIN5telux4cv2x9EventInfoINS1_14IndicationDataEEESaIS4_ELN9__gnu_cxx12_Lock_policyE2EE10_M_destroyEv=so_stub_for_libtelux_cv2x
-Wl,--defsym=_ZNSt23_Sp_counted_ptr_inplaceIN5telux4cv2x9EventInfoINS1_14IndicationDataEEESaIS4_ELN9__gnu_cxx12_Lock_policyE2EE10_M_disposeEv=so_stub_for_libtelux_cv2x
-Wl,--defsym=_ZNSt23_Sp_counted_ptr_inplaceIN5telux4cv2x9EventInfoINS1_14IndicationDataEEESaIS4_ELN9__gnu_cxx12_Lock_policyE2EE14_M_get_deleterERKSt9type_info=so_stub_for_libtelux_cv2x
-Wl,--defsym=_ZNSt23_Sp_counted_ptr_inplaceIN5telux4cv2x9EventInfoINS1_14IndicationDataEEESaIS4_ELN9__gnu_cxx12_Lock_policyE2EED0Ev=so_stub_for_libtelux_cv2x
-Wl,--defsym=_ZNSt23_Sp_counted_ptr_inplaceIN5telux4cv2x9EventInfoINS1_14IndicationDataEEESaIS4_ELN9__gnu_cxx12_Lock_policyE2EED1Ev=so_stub_for_libtelux_cv2x
-Wl,--defsym=_ZNSt23_Sp_counted_ptr_inplaceIN5telux4cv2x9EventInfoINS1_14IndicationDataEEESaIS4_ELN9__gnu_cxx12_Lock_policyE2EED2Ev=so_stub_for_libtelux_cv2x
-Wl,--defsym=_ZNSt23_Sp_counted_ptr_inplaceIN5telux4cv2x9EventInfoINS1_17ServiceStatusDataEEESaIS4_ELN9__gnu_cxx12_Lock_policyE2EE10_M_destroyEv=so_stub_for_libtelux_cv2x
-Wl,--defsym=_ZNSt23_Sp_counted_ptr_inplaceIN5telux4cv2x9EventInfoINS1_17ServiceStatusDataEEESaIS4_ELN9__gnu_cxx12_Lock_policyE2EE10_M_disposeEv=so_stub_for_libtelux_cv2x
-Wl,--defsym=_ZNSt23_Sp_counted_ptr_inplaceIN5telux4cv2x9EventInfoINS1_17ServiceStatusDataEEESaIS4_ELN9__gnu_cxx12_Lock_policyE2EE14_M_get_deleterERKSt9type_info=so_stub_for_libtelux_cv2x
-Wl,--defsym=_ZNSt23_Sp_counted_ptr_inplaceIN5telux4cv2x9EventInfoINS1_17ServiceStatusDataEEESaIS4_ELN9__gnu_cxx12_Lock_policyE2EED0Ev=so_stub_for_libtelux_cv2x
-Wl,--defsym=_ZNSt23_Sp_counted_ptr_inplaceIN5telux4cv2x9EventInfoINS1_17ServiceStatusDataEEESaIS4_ELN9__gnu_cxx12_Lock_policyE2EED1Ev=so_stub_for_libtelux_cv2x
-Wl,--defsym=_ZNSt23_Sp_counted_ptr_inplaceIN5telux4cv2x9EventInfoINS1_17ServiceStatusDataEEESaIS4_ELN9__gnu_cxx12_Lock_policyE2EED2Ev=so_stub_for_libtelux_cv2x
-Wl,--defsym=_ZNSt23_Sp_counted_ptr_inplaceIN5telux6common14AsyncTaskQueueIvEESaIS3_ELN9__gnu_cxx12_Lock_policyE2EE10_M_destroyEv=so_stub_for_libtelux_cv2x
-Wl,--defsym=_ZNSt23_Sp_counted_ptr_inplaceIN5telux6common14AsyncTaskQueueIvEESaIS3_ELN9__gnu_cxx12_Lock_policyE2EE10_M_disposeEv=so_stub_for_libtelux_cv2x
-Wl,--defsym=_ZNSt23_Sp_counted_ptr_inplaceIN5telux6common14AsyncTaskQueueIvEESaIS3_ELN9__gnu_cxx12_Lock_policyE2EE14_M_get_deleterERKSt9type_info=so_stub_for_libtelux_cv2x
-Wl,--defsym=_ZNSt23_Sp_counted_ptr_inplaceIN5telux6common14AsyncTaskQueueIvEESaIS3_ELN9__gnu_cxx12_Lock_policyE2EED0Ev=so_stub_for_libtelux_cv2x
-Wl,--defsym=_ZNSt23_Sp_counted_ptr_inplaceIN5telux6common14AsyncTaskQueueIvEESaIS3_ELN9__gnu_cxx12_Lock_policyE2EED1Ev=so_stub_for_libtelux_cv2x
-Wl,--defsym=_ZNSt23_Sp_counted_ptr_inplaceIN5telux6common14AsyncTaskQueueIvEESaIS3_ELN9__gnu_cxx12_Lock_policyE2EED2Ev=so_stub_for_libtelux_cv2x
-Wl,--defsym=_ZNSt23_Sp_counted_ptr_inplaceIN5telux6common15ListenerManagerESaIS2_ELN9__gnu_cxx12_Lock_policyE2EE10_M_destroyEv=so_stub_for_libtelux_cv2x
-Wl,--defsym=_ZNSt23_Sp_counted_ptr_inplaceIN5telux6common15ListenerManagerESaIS2_ELN9__gnu_cxx12_Lock_policyE2EE10_M_disposeEv=so_stub_for_libtelux_cv2x
-Wl,--defsym=_ZNSt23_Sp_counted_ptr_inplaceIN5telux6common15ListenerManagerESaIS2_ELN9__gnu_cxx12_Lock_policyE2EE14_M_get_deleterERKSt9type_info=so_stub_for_libtelux_cv2x
-Wl,--defsym=_ZNSt23_Sp_counted_ptr_inplaceIN5telux6common15ListenerManagerESaIS2_ELN9__gnu_cxx12_Lock_policyE2EED0Ev=so_stub_for_libtelux_cv2x
-Wl,--defsym=_ZNSt23_Sp_counted_ptr_inplaceIN5telux6common15ListenerManagerESaIS2_ELN9__gnu_cxx12_Lock_policyE2EED1Ev=so_stub_for_libtelux_cv2x
-Wl,--defsym=_ZNSt23_Sp_counted_ptr_inplaceIN5telux6common15ListenerManagerESaIS2_ELN9__gnu_cxx12_Lock_policyE2EED2Ev=so_stub_for_libtelux_cv2x
-Wl,--defsym=_ZNSt23_Sp_counted_ptr_inplaceINSt13__future_base13_State_baseV2ESaIS1_ELN9__gnu_cxx12_Lock_policyE2EE10_M_destroyEv=so_stub_for_libtelux_cv2x
-Wl,--defsym=_ZNSt23_Sp_counted_ptr_inplaceINSt13__future_base13_State_baseV2ESaIS1_ELN9__gnu_cxx12_Lock_policyE2EE10_M_disposeEv=so_stub_for_libtelux_cv2x
-Wl,--defsym=_ZNSt23_Sp_counted_ptr_inplaceINSt13__future_base13_State_baseV2ESaIS1_ELN9__gnu_cxx12_Lock_policyE2EE14_M_get_deleterERKSt9type_info=so_stub_for_libtelux_cv2x
-Wl,--defsym=_ZNSt23_Sp_counted_ptr_inplaceINSt13__future_base13_State_baseV2ESaIS1_ELN9__gnu_cxx12_Lock_policyE2EED0Ev=so_stub_for_libtelux_cv2x
-Wl,--defsym=_ZNSt23_Sp_counted_ptr_inplaceINSt13__future_base13_State_baseV2ESaIS1_ELN9__gnu_cxx12_Lock_policyE2EED1Ev=so_stub_for_libtelux_cv2x
-Wl,--defsym=_ZNSt23_Sp_counted_ptr_inplaceINSt13__future_base13_State_baseV2ESaIS1_ELN9__gnu_cxx12_Lock_policyE2EED2Ev=so_stub_for_libtelux_cv2x
-Wl,--defsym=_ZNSt23_Sp_counted_ptr_inplaceINSt13__future_base15_Deferred_stateINSt6thread8_InvokerISt5tupleIJZN5telux6common14AsyncTaskQueueIvE3addIRZNS5_4cv2x16Cv2xIndsListener15onL2AddrChangedEjEUlvE_SB_EENS6_6StatusEOT_St8weak_ptrIT0_ESt6launchEUlvE0_EEEEvEESaISO_ELN9__gnu_cxx12_Lock_policyE2EE10_M_destroyEv=so_stub_for_libtelux_cv2x
-Wl,--defsym=_ZNSt23_Sp_counted_ptr_inplaceINSt13__future_base15_Deferred_stateINSt6thread8_InvokerISt5tupleIJZN5telux6common14AsyncTaskQueueIvE3addIRZNS5_4cv2x16Cv2xIndsListener15onL2AddrChangedEjEUlvE_SB_EENS6_6StatusEOT_St8weak_ptrIT0_ESt6launchEUlvE0_EEEEvEESaISO_ELN9__gnu_cxx12_Lock_policyE2EE10_M_disposeEv=so_stub_for_libtelux_cv2x
-Wl,--defsym=_ZNSt23_Sp_counted_ptr_inplaceINSt13__future_base15_Deferred_stateINSt6thread8_InvokerISt5tupleIJZN5telux6common14AsyncTaskQueueIvE3addIRZNS5_4cv2x16Cv2xIndsListener15onL2AddrChangedEjEUlvE_SB_EENS6_6StatusEOT_St8weak_ptrIT0_ESt6launchEUlvE0_EEEEvEESaISO_ELN9__gnu_cxx12_Lock_policyE2EE14_M_get_deleterERKSt9type_info=so_stub_for_libtelux_cv2x
-Wl,--defsym=_ZNSt23_Sp_counted_ptr_inplaceINSt13__future_base15_Deferred_stateINSt6thread8_InvokerISt5tupleIJZN5telux6common14AsyncTaskQueueIvE3addIRZNS5_4cv2x16Cv2xIndsListener15onL2AddrChangedEjEUlvE_SB_EENS6_6StatusEOT_St8weak_ptrIT0_ESt6launchEUlvE0_EEEEvEESaISO_ELN9__gnu_cxx12_Lock_policyE2EED0Ev=so_stub_for_libtelux_cv2x
-Wl,--defsym=_ZNSt23_Sp_counted_ptr_inplaceINSt13__future_base15_Deferred_stateINSt6thread8_InvokerISt5tupleIJZN5telux6common14AsyncTaskQueueIvE3addIRZNS5_4cv2x16Cv2xIndsListener15onL2AddrChangedEjEUlvE_SB_EENS6_6StatusEOT_St8weak_ptrIT0_ESt6launchEUlvE0_EEEEvEESaISO_ELN9__gnu_cxx12_Lock_policyE2EED1Ev=so_stub_for_libtelux_cv2x
-Wl,--defsym=_ZNSt23_Sp_counted_ptr_inplaceINSt13__future_base15_Deferred_stateINSt6thread8_InvokerISt5tupleIJZN5telux6common14AsyncTaskQueueIvE3addIRZNS5_4cv2x16Cv2xIndsListener15onL2AddrChangedEjEUlvE_SB_EENS6_6StatusEOT_St8weak_ptrIT0_ESt6launchEUlvE0_EEEEvEESaISO_ELN9__gnu_cxx12_Lock_policyE2EED2Ev=so_stub_for_libtelux_cv2x
-Wl,--defsym=_ZNSt23_Sp_counted_ptr_inplaceINSt13__future_base15_Deferred_stateINSt6thread8_InvokerISt5tupleIJZN5telux6common14AsyncTaskQueueIvE3addIRZNS5_4cv2x16Cv2xIndsListener19onIpcDataCallChangeERKNSA_15Cv2xIpcDataCallEEUlvE_NSA_12DsiCv2xRadioEEENS6_6StatusEOT_St8weak_ptrIT0_ESt6launchEUlvE0_EEEEvEESaISS_ELN9__gnu_cxx12_Lock_policyE2EE10_M_destroyEv=so_stub_for_libtelux_cv2x
-Wl,--defsym=_ZNSt23_Sp_counted_ptr_inplaceINSt13__future_base15_Deferred_stateINSt6thread8_InvokerISt5tupleIJZN5telux6common14AsyncTaskQueueIvE3addIRZNS5_4cv2x16Cv2xIndsListener19onIpcDataCallChangeERKNSA_15Cv2xIpcDataCallEEUlvE_NSA_12DsiCv2xRadioEEENS6_6StatusEOT_St8weak_ptrIT0_ESt6launchEUlvE0_EEEEvEESaISS_ELN9__gnu_cxx12_Lock_policyE2EE10_M_disposeEv=so_stub_for_libtelux_cv2x
-Wl,--defsym=_ZNSt23_Sp_counted_ptr_inplaceINSt13__future_base15_Deferred_stateINSt6thread8_InvokerISt5tupleIJZN5telux6common14AsyncTaskQueueIvE3addIRZNS5_4cv2x16Cv2xIndsListener19onIpcDataCallChangeERKNSA_15Cv2xIpcDataCallEEUlvE_NSA_12DsiCv2xRadioEEENS6_6StatusEOT_St8weak_ptrIT0_ESt6launchEUlvE0_EEEEvEESaISS_ELN9__gnu_cxx12_Lock_policyE2EE14_M_get_deleterERKSt9type_info=so_stub_for_libtelux_cv2x
-Wl,--defsym=_ZNSt23_Sp_counted_ptr_inplaceINSt13__future_base15_Deferred_stateINSt6thread8_InvokerISt5tupleIJZN5telux6common14AsyncTaskQueueIvE3addIRZNS5_4cv2x16Cv2xIndsListener19onIpcDataCallChangeERKNSA_15Cv2xIpcDataCallEEUlvE_NSA_12DsiCv2xRadioEEENS6_6StatusEOT_St8weak_ptrIT0_ESt6launchEUlvE0_EEEEvEESaISS_ELN9__gnu_cxx12_Lock_policyE2EED0Ev=so_stub_for_libtelux_cv2x
-Wl,--defsym=_ZNSt23_Sp_counted_ptr_inplaceINSt13__future_base15_Deferred_stateINSt6thread8_InvokerISt5tupleIJZN5telux6common14AsyncTaskQueueIvE3addIRZNS5_4cv2x16Cv2xIndsListener19onIpcDataCallChangeERKNSA_15Cv2xIpcDataCallEEUlvE_NSA_12DsiCv2xRadioEEENS6_6StatusEOT_St8weak_ptrIT0_ESt6launchEUlvE0_EEEEvEESaISS_ELN9__gnu_cxx12_Lock_policyE2EED1Ev=so_stub_for_libtelux_cv2x
-Wl,--defsym=_ZNSt23_Sp_counted_ptr_inplaceINSt13__future_base15_Deferred_stateINSt6thread8_InvokerISt5tupleIJZN5telux6common14AsyncTaskQueueIvE3addIRZNS5_4cv2x16Cv2xIndsListener19onIpcDataCallChangeERKNSA_15Cv2xIpcDataCallEEUlvE_NSA_12DsiCv2xRadioEEENS6_6StatusEOT_St8weak_ptrIT0_ESt6launchEUlvE0_EEEEvEESaISS_ELN9__gnu_cxx12_Lock_policyE2EED2Ev=so_stub_for_libtelux_cv2x
-Wl,--defsym=_ZNSt23_Sp_counted_ptr_inplaceINSt13__future_base15_Deferred_stateINSt6thread8_InvokerISt5tupleIJZN5telux6common14AsyncTaskQueueIvE3addIRZNS5_4cv2x16Cv2xIndsListener21onIpcCv2xStatusChangeERKNSA_16Cv2xIpcV2xStatusEEUlvE_SB_EENS6_6StatusEOT_St8weak_ptrIT0_ESt6launchEUlvE0_EEEEvEESaISR_ELN9__gnu_cxx12_Lock_policyE2EE10_M_destroyEv=so_stub_for_libtelux_cv2x
-Wl,--defsym=_ZNSt23_Sp_counted_ptr_inplaceINSt13__future_base15_Deferred_stateINSt6thread8_InvokerISt5tupleIJZN5telux6common14AsyncTaskQueueIvE3addIRZNS5_4cv2x16Cv2xIndsListener21onIpcCv2xStatusChangeERKNSA_16Cv2xIpcV2xStatusEEUlvE_SB_EENS6_6StatusEOT_St8weak_ptrIT0_ESt6launchEUlvE0_EEEEvEESaISR_ELN9__gnu_cxx12_Lock_policyE2EE10_M_disposeEv=so_stub_for_libtelux_cv2x
-Wl,--defsym=_ZNSt23_Sp_counted_ptr_inplaceINSt13__future_base15_Deferred_stateINSt6thread8_InvokerISt5tupleIJZN5telux6common14AsyncTaskQueueIvE3addIRZNS5_4cv2x16Cv2xIndsListener21onIpcCv2xStatusChangeERKNSA_16Cv2xIpcV2xStatusEEUlvE_SB_EENS6_6StatusEOT_St8weak_ptrIT0_ESt6launchEUlvE0_EEEEvEESaISR_ELN9__gnu_cxx12_Lock_policyE2EE14_M_get_deleterERKSt9type_info=so_stub_for_libtelux_cv2x
-Wl,--defsym=_ZNSt23_Sp_counted_ptr_inplaceINSt13__future_base15_Deferred_stateINSt6thread8_InvokerISt5tupleIJZN5telux6common14AsyncTaskQueueIvE3addIRZNS5_4cv2x16Cv2xIndsListener21onIpcCv2xStatusChangeERKNSA_16Cv2xIpcV2xStatusEEUlvE_SB_EENS6_6StatusEOT_St8weak_ptrIT0_ESt6launchEUlvE0_EEEEvEESaISR_ELN9__gnu_cxx12_Lock_policyE2EED0Ev=so_stub_for_libtelux_cv2x
-Wl,--defsym=_ZNSt23_Sp_counted_ptr_inplaceINSt13__future_base15_Deferred_stateINSt6thread8_InvokerISt5tupleIJZN5telux6common14AsyncTaskQueueIvE3addIRZNS5_4cv2x16Cv2xIndsListener21onIpcCv2xStatusChangeERKNSA_16Cv2xIpcV2xStatusEEUlvE_SB_EENS6_6StatusEOT_St8weak_ptrIT0_ESt6launchEUlvE0_EEEEvEESaISR_ELN9__gnu_cxx12_Lock_policyE2EED1Ev=so_stub_for_libtelux_cv2x
-Wl,--defsym=_ZNSt23_Sp_counted_ptr_inplaceINSt13__future_base15_Deferred_stateINSt6thread8_InvokerISt5tupleIJZN5telux6common14AsyncTaskQueueIvE3addIRZNS5_4cv2x16Cv2xIndsListener21onIpcCv2xStatusChangeERKNSA_16Cv2xIpcV2xStatusEEUlvE_SB_EENS6_6StatusEOT_St8weak_ptrIT0_ESt6launchEUlvE0_EEEEvEESaISR_ELN9__gnu_cxx12_Lock_policyE2EED2Ev=so_stub_for_libtelux_cv2x
-Wl,--defsym=_ZNSt23_Sp_counted_ptr_inplaceISt6threadSaIS0_ELN9__gnu_cxx12_Lock_policyE2EE10_M_destroyEv=so_stub_for_libtelux_cv2x
-Wl,--defsym=_ZNSt23_Sp_counted_ptr_inplaceISt6threadSaIS0_ELN9__gnu_cxx12_Lock_policyE2EE10_M_disposeEv=so_stub_for_libtelux_cv2x
-Wl,--defsym=_ZNSt23_Sp_counted_ptr_inplaceISt6threadSaIS0_ELN9__gnu_cxx12_Lock_policyE2EE14_M_get_deleterERKSt9type_info=so_stub_for_libtelux_cv2x
-Wl,--defsym=_ZNSt23_Sp_counted_ptr_inplaceISt6threadSaIS0_ELN9__gnu_cxx12_Lock_policyE2EED0Ev=so_stub_for_libtelux_cv2x
-Wl,--defsym=_ZNSt23_Sp_counted_ptr_inplaceISt6threadSaIS0_ELN9__gnu_cxx12_Lock_policyE2EED1Ev=so_stub_for_libtelux_cv2x
-Wl,--defsym=_ZNSt23_Sp_counted_ptr_inplaceISt6threadSaIS0_ELN9__gnu_cxx12_Lock_policyE2EED2Ev=so_stub_for_libtelux_cv2x
-Wl,--defsym=_ZNSt23_Sp_counted_ptr_inplaceISt6vectorIjSaIjEESaIS2_ELN9__gnu_cxx12_Lock_policyE2EE10_M_destroyEv=so_stub_for_libtelux_cv2x
-Wl,--defsym=_ZNSt23_Sp_counted_ptr_inplaceISt6vectorIjSaIjEESaIS2_ELN9__gnu_cxx12_Lock_policyE2EE10_M_disposeEv=so_stub_for_libtelux_cv2x
-Wl,--defsym=_ZNSt23_Sp_counted_ptr_inplaceISt6vectorIjSaIjEESaIS2_ELN9__gnu_cxx12_Lock_policyE2EE14_M_get_deleterERKSt9type_info=so_stub_for_libtelux_cv2x
-Wl,--defsym=_ZNSt23_Sp_counted_ptr_inplaceISt6vectorIjSaIjEESaIS2_ELN9__gnu_cxx12_Lock_policyE2EED0Ev=so_stub_for_libtelux_cv2x
-Wl,--defsym=_ZNSt23_Sp_counted_ptr_inplaceISt6vectorIjSaIjEESaIS2_ELN9__gnu_cxx12_Lock_policyE2EED1Ev=so_stub_for_libtelux_cv2x
-Wl,--defsym=_ZNSt23_Sp_counted_ptr_inplaceISt6vectorIjSaIjEESaIS2_ELN9__gnu_cxx12_Lock_policyE2EED2Ev=so_stub_for_libtelux_cv2x
-Wl,--defsym=_ZNSt23_Sp_counted_ptr_inplaceISt6vectorIN5telux4cv2x12IpcMessageIdESaIS3_EESaIS5_ELN9__gnu_cxx12_Lock_policyE2EE10_M_destroyEv=so_stub_for_libtelux_cv2x
-Wl,--defsym=_ZNSt23_Sp_counted_ptr_inplaceISt6vectorIN5telux4cv2x12IpcMessageIdESaIS3_EESaIS5_ELN9__gnu_cxx12_Lock_policyE2EE10_M_disposeEv=so_stub_for_libtelux_cv2x
-Wl,--defsym=_ZNSt23_Sp_counted_ptr_inplaceISt6vectorIN5telux4cv2x12IpcMessageIdESaIS3_EESaIS5_ELN9__gnu_cxx12_Lock_policyE2EE14_M_get_deleterERKSt9type_info=so_stub_for_libtelux_cv2x
-Wl,--defsym=_ZNSt23_Sp_counted_ptr_inplaceISt6vectorIN5telux4cv2x12IpcMessageIdESaIS3_EESaIS5_ELN9__gnu_cxx12_Lock_policyE2EED0Ev=so_stub_for_libtelux_cv2x
-Wl,--defsym=_ZNSt23_Sp_counted_ptr_inplaceISt6vectorIN5telux4cv2x12IpcMessageIdESaIS3_EESaIS5_ELN9__gnu_cxx12_Lock_policyE2EED1Ev=so_stub_for_libtelux_cv2x
-Wl,--defsym=_ZNSt23_Sp_counted_ptr_inplaceISt6vectorIN5telux4cv2x12IpcMessageIdESaIS3_EESaIS5_ELN9__gnu_cxx12_Lock_policyE2EED2Ev=so_stub_for_libtelux_cv2x
-Wl,--defsym=_ZNSt23_Sp_counted_ptr_inplaceISt6vectorIN5telux4cv2x17MessageAndHanlderESaIS3_EESaIS5_ELN9__gnu_cxx12_Lock_policyE2EE10_M_destroyEv=so_stub_for_libtelux_cv2x
-Wl,--defsym=_ZNSt23_Sp_counted_ptr_inplaceISt6vectorIN5telux4cv2x17MessageAndHanlderESaIS3_EESaIS5_ELN9__gnu_cxx12_Lock_policyE2EE10_M_disposeEv=so_stub_for_libtelux_cv2x
-Wl,--defsym=_ZNSt23_Sp_counted_ptr_inplaceISt6vectorIN5telux4cv2x17MessageAndHanlderESaIS3_EESaIS5_ELN9__gnu_cxx12_Lock_policyE2EE14_M_get_deleterERKSt9type_info=so_stub_for_libtelux_cv2x
-Wl,--defsym=_ZNSt23_Sp_counted_ptr_inplaceISt6vectorIN5telux4cv2x17MessageAndHanlderESaIS3_EESaIS5_ELN9__gnu_cxx12_Lock_policyE2EED0Ev=so_stub_for_libtelux_cv2x
-Wl,--defsym=_ZNSt23_Sp_counted_ptr_inplaceISt6vectorIN5telux4cv2x17MessageAndHanlderESaIS3_EESaIS5_ELN9__gnu_cxx12_Lock_policyE2EED1Ev=so_stub_for_libtelux_cv2x
-Wl,--defsym=_ZNSt23_Sp_counted_ptr_inplaceISt6vectorIN5telux4cv2x17MessageAndHanlderESaIS3_EESaIS5_ELN9__gnu_cxx12_Lock_policyE2EED2Ev=so_stub_for_libtelux_cv2x
-Wl,--defsym=_ZNSt3mapIiN5telux4cv2x10clientInfoESt4lessIiESaISt4pairIKiS2_EEEixERS6_=so_stub_for_libtelux_cv2x
-Wl,--defsym=_ZNSt3mapIiN5telux4cv2x15GlobalIPSessionESt4lessIiESaISt4pairIKiS2_EEEixEOi=so_stub_for_libtelux_cv2x
-Wl,--defsym=_ZNSt3mapIjN5telux4cv2x11TxnCallbackESt4lessIjESaISt4pairIKjS2_EEED1Ev=so_stub_for_libtelux_cv2x
-Wl,--defsym=_ZNSt3mapIjN5telux4cv2x11TxnCallbackESt4lessIjESaISt4pairIKjS2_EEED2Ev=so_stub_for_libtelux_cv2x
-Wl,--defsym=_ZNSt3mapIjN5telux4cv2x11TxnCallbackESt4lessIjESaISt4pairIKjS2_EEEixERS6_=so_stub_for_libtelux_cv2x
-Wl,--defsym=_ZNSt3mapIjSt10shared_ptrIN5telux4cv2x11ICv2xTxFlowEESt4lessIjESaISt4pairIKjS4_EEEixERS8_=so_stub_for_libtelux_cv2x
-Wl,--defsym=_ZNSt3mapIjSt10shared_ptrIN5telux4cv2x15ICv2xTxRxSocketEESt4lessIjESaISt4pairIKjS4_EEEixERS8_=so_stub_for_libtelux_cv2x
-Wl,--defsym=_ZNSt3mapIjSt10shared_ptrIN5telux4cv2x19ICv2xRxSubscriptionEESt4lessIjESaISt4pairIKjS4_EEEixERS8_=so_stub_for_libtelux_cv2x
-Wl,--defsym=_ZNSt3mapIjSt10unique_ptrINSt7__cxx1112basic_stringIcSt11char_traitsIcESaIcEEESt14default_deleteIS6_EESt4lessIjESaISt4pairIKjS9_EEEixEOj=so_stub_for_libtelux_cv2x
-Wl,--defsym=_ZNSt3mapIN5telux4cv2x12IpcMessageIdENSt7__cxx1112basic_stringIcSt11char_traitsIcESaIcEEESt4lessIS2_ESaISt4pairIKS2_S8_EEED1Ev=so_stub_for_libtelux_cv2x
-Wl,--defsym=_ZNSt3mapIN5telux4cv2x12IpcMessageIdENSt7__cxx1112basic_stringIcSt11char_traitsIcESaIcEEESt4lessIS2_ESaISt4pairIKS2_S8_EEED2Ev=so_stub_for_libtelux_cv2x
-Wl,--defsym=_ZNSt3mapIN5telux4cv2x12IpcMessageIdENSt7__cxx1112basic_stringIcSt11char_traitsIcESaIcEEESt4lessIS2_ESaISt4pairIKS2_S8_EEEixEOS2_=so_stub_for_libtelux_cv2x
-Wl,--defsym=_ZNSt3mapIN5telux4cv2x12IpcMessageIdENSt7__cxx1112basic_stringIcSt11char_traitsIcESaIcEEESt4lessIS2_ESaISt4pairIKS2_S8_EEEixERSC_=so_stub_for_libtelux_cv2x
-Wl,--defsym=_ZNSt3mapIN5telux4cv2x12IpcMessageIdESt8functionIFNS0_6common9ErrorCodeEiSt10shared_ptrINS1_10Cv2xIPCReqEES6_INS1_11Cv2xIPCRespEEEESt4lessIS2_ESaISt4pairIKS2_SC_EEEixERSG_=so_stub_for_libtelux_cv2x
-Wl,--defsym=_ZNSt3mapItSt10shared_ptrIN5telux4cv2x27ICv2xTxStatusReportListenerEESt4lessItESaISt4pairIKtS4_EEEixERS8_=so_stub_for_libtelux_cv2x
-Wl,--defsym=_ZNSt5dequeISt13shared_futureIvESaIS1_EE13_M_insert_auxISt15_Deque_iteratorIS1_RKS1_PS6_EEEvS5_IS1_RS1_PS1_ET_SD_m=so_stub_for_libtelux_cv2x
-Wl,--defsym=_ZNSt5dequeISt13shared_futureIvESaIS1_EE15_M_erase_at_endESt15_Deque_iteratorIS1_RS1_PS1_E=so_stub_for_libtelux_cv2x
-Wl,--defsym=_ZNSt5dequeISt13shared_futureIvESaIS1_EE16_M_pop_front_auxEv=so_stub_for_libtelux_cv2x
-Wl,--defsym=_ZNSt5dequeISt13shared_futureIvESaIS1_EE16_M_push_back_auxIJRKS1_EEEvDpOT_=so_stub_for_libtelux_cv2x
-Wl,--defsym=_ZNSt5dequeISt13shared_futureIvESaIS1_EE17_M_reallocate_mapEmb=so_stub_for_libtelux_cv2x
-Wl,--defsym=_ZNSt5dequeISt13shared_futureIvESaIS1_EE19_M_destroy_data_auxESt15_Deque_iteratorIS1_RS1_PS1_ES7_=so_stub_for_libtelux_cv2x
-Wl,--defsym=_ZNSt5dequeISt13shared_futureIvESaIS1_EE19_M_range_insert_auxISt15_Deque_iteratorIS1_RKS1_PS6_EEEvS5_IS1_RS1_PS1_ET_SD_St20forward_iterator_tag=so_stub_for_libtelux_cv2x
-Wl,--defsym=_ZNSt5dequeISt13shared_futureIvESaIS1_EE23_M_new_elements_at_backEm=so_stub_for_libtelux_cv2x
-Wl,--defsym=_ZNSt5dequeISt13shared_futureIvESaIS1_EE24_M_new_elements_at_frontEm=so_stub_for_libtelux_cv2x
-Wl,--defsym=_ZNSt5dequeISt13shared_futureIvESaIS1_EE8_M_eraseESt15_Deque_iteratorIS1_RS1_PS1_E=so_stub_for_libtelux_cv2x
-Wl,--defsym=_ZNSt5dequeISt13shared_futureIvESaIS1_EE9push_backERKS1_=so_stub_for_libtelux_cv2x
-Wl,--defsym=_ZNSt5dequeISt13shared_futureIvESaIS1_EEaSERKS3_=so_stub_for_libtelux_cv2x
-Wl,--defsym=_ZNSt5dequeISt13shared_futureIvESaIS1_EED1Ev=so_stub_for_libtelux_cv2x
-Wl,--defsym=_ZNSt5dequeISt13shared_futureIvESaIS1_EED2Ev=so_stub_for_libtelux_cv2x
-Wl,--defsym=_ZNSt6futureIbE3getEv=so_stub_for_libtelux_cv2x
-Wl,--defsym=_ZNSt6futureIN5telux6common9ErrorCodeEE3getEv=so_stub_for_libtelux_cv2x
-Wl,--defsym=_ZNSt6thread11_State_implINS_8_InvokerISt5tupleIJMN5telux6common14AsyncTaskQueueIvEEFvvEPS6_EEEEE6_M_runEv=so_stub_for_libtelux_cv2x
-Wl,--defsym=_ZNSt6thread11_State_implINS_8_InvokerISt5tupleIJMN5telux6common14AsyncTaskQueueIvEEFvvEPS6_EEEEED0Ev=so_stub_for_libtelux_cv2x
-Wl,--defsym=_ZNSt6thread11_State_implINS_8_InvokerISt5tupleIJMN5telux6common14AsyncTaskQueueIvEEFvvEPS6_EEEEED1Ev=so_stub_for_libtelux_cv2x
-Wl,--defsym=_ZNSt6thread11_State_implINS_8_InvokerISt5tupleIJMN5telux6common14AsyncTaskQueueIvEEFvvEPS6_EEEEED2Ev=so_stub_for_libtelux_cv2x
-Wl,--defsym=_ZNSt6thread11_State_implINS_8_InvokerISt5tupleIJSt8functionIFvN5telux6common13ServiceStatusEEES6_EEEEE6_M_runEv=so_stub_for_libtelux_cv2x
-Wl,--defsym=_ZNSt6thread11_State_implINS_8_InvokerISt5tupleIJSt8functionIFvN5telux6common13ServiceStatusEEES6_EEEEED0Ev=so_stub_for_libtelux_cv2x
-Wl,--defsym=_ZNSt6thread11_State_implINS_8_InvokerISt5tupleIJSt8functionIFvN5telux6common13ServiceStatusEEES6_EEEEED1Ev=so_stub_for_libtelux_cv2x
-Wl,--defsym=_ZNSt6thread11_State_implINS_8_InvokerISt5tupleIJSt8functionIFvN5telux6common13ServiceStatusEEES6_EEEEED2Ev=so_stub_for_libtelux_cv2x
-Wl,--defsym=_ZNSt6threadC1IMN5telux6common14AsyncTaskQueueIvEEFvvEJPS4_EvEEOT_DpOT0_=so_stub_for_libtelux_cv2x
-Wl,--defsym=_ZNSt6threadC1IRSt8functionIFvN5telux6common13ServiceStatusEEEJRS4_EvEEOT_DpOT0_=so_stub_for_libtelux_cv2x
-Wl,--defsym=_ZNSt6threadC2IMN5telux6common14AsyncTaskQueueIvEEFvvEJPS4_EvEEOT_DpOT0_=so_stub_for_libtelux_cv2x
-Wl,--defsym=_ZNSt6threadC2IRSt8functionIFvN5telux6common13ServiceStatusEEEJRS4_EvEEOT_DpOT0_=so_stub_for_libtelux_cv2x
-Wl,--defsym=_ZNSt6vectorIjSaIjEE17_M_realloc_insertIJjEEEvN9__gnu_cxx17__normal_iteratorIPjS1_EEDpOT_=so_stub_for_libtelux_cv2x
-Wl,--defsym=_ZNSt6vectorIjSaIjEE17_M_realloc_insertIJRKjEEEvN9__gnu_cxx17__normal_iteratorIPjS1_EEDpOT_=so_stub_for_libtelux_cv2x
-Wl,--defsym=_ZNSt6vectorIjSaIjEEC1ERKS1_=so_stub_for_libtelux_cv2x
-Wl,--defsym=_ZNSt6vectorIjSaIjEEC2ERKS1_=so_stub_for_libtelux_cv2x
-Wl,--defsym=_ZNSt6vectorImSaImEE17_M_realloc_insertIJmEEEvN9__gnu_cxx17__normal_iteratorIPmS1_EEDpOT_=so_stub_for_libtelux_cv2x
-Wl,--defsym=_ZNSt6vectorImSaImEEC1ERKS1_=so_stub_for_libtelux_cv2x
-Wl,--defsym=_ZNSt6vectorImSaImEEC2ERKS1_=so_stub_for_libtelux_cv2x
-Wl,--defsym=_ZNSt6vectorIN5telux4cv2x12IpcMessageIdESaIS2_EE17_M_realloc_insertIJS2_EEEvN9__gnu_cxx17__normal_iteratorIPS2_S4_EEDpOT_=so_stub_for_libtelux_cv2x
-Wl,--defsym=_ZNSt6vectorIN5telux4cv2x12L2FilterInfoESaIS2_EEC1ERKS4_=so_stub_for_libtelux_cv2x
-Wl,--defsym=_ZNSt6vectorIN5telux4cv2x12L2FilterInfoESaIS2_EEC2ERKS4_=so_stub_for_libtelux_cv2x
-Wl,--defsym=_ZNSt6vectorIN5telux4cv2x12TxPoolIdInfoESaIS2_EE17_M_realloc_insertIJRKS2_EEEvN9__gnu_cxx17__normal_iteratorIPS2_S4_EEDpOT_=so_stub_for_libtelux_cv2x
-Wl,--defsym=_ZNSt6vectorIN5telux4cv2x12TxPoolIdInfoESaIS2_EEC1ERKS4_=so_stub_for_libtelux_cv2x
-Wl,--defsym=_ZNSt6vectorIN5telux4cv2x12TxPoolIdInfoESaIS2_EEC2ERKS4_=so_stub_for_libtelux_cv2x
-Wl,--defsym=_ZNSt6vectorIN5telux4cv2x13SyncRefUeInfoESaIS2_EE17_M_realloc_insertIJRKS2_EEEvN9__gnu_cxx17__normal_iteratorIPS2_S4_EEDpOT_=so_stub_for_libtelux_cv2x
-Wl,--defsym=_ZNSt6vectorIN5telux4cv2x13TrustedUEInfoESaIS2_EEC1ERKS4_=so_stub_for_libtelux_cv2x
-Wl,--defsym=_ZNSt6vectorIN5telux4cv2x13TrustedUEInfoESaIS2_EEC2ERKS4_=so_stub_for_libtelux_cv2x
-Wl,--defsym=_ZNSt6vectorIN5telux4cv2x14Cv2xPoolStatusESaIS2_EE17_M_realloc_insertIJRKS2_EEEvN9__gnu_cxx17__normal_iteratorIPS2_S4_EEDpOT_=so_stub_for_libtelux_cv2x
-Wl,--defsym=_ZNSt6vectorIN5telux4cv2x14Cv2xPoolStatusESaIS2_EEaSERKS4_=so_stub_for_libtelux_cv2x
-Wl,--defsym=_ZNSt6vectorIN5telux4cv2x14Cv2xPoolStatusESaIS2_EEC1ERKS4_=so_stub_for_libtelux_cv2x
-Wl,--defsym=_ZNSt6vectorIN5telux4cv2x14Cv2xPoolStatusESaIS2_EEC2ERKS4_=so_stub_for_libtelux_cv2x
-Wl,--defsym=_ZNSt6vectorIN5telux4cv2x17MessageAndHanlderESaIS2_EE17_M_realloc_insertIJRKS2_EEEvN9__gnu_cxx17__normal_iteratorIPS2_S4_EEDpOT_=so_stub_for_libtelux_cv2x
-Wl,--defsym=_ZNSt6vectorIN5telux4cv2x22RxPacketMetaDataReportESaIS2_EE17_M_realloc_insertIJRKS2_EEEvN9__gnu_cxx17__normal_iteratorIPS2_S4_EEDpOT_=so_stub_for_libtelux_cv2x
-Wl,--defsym=_ZNSt6vectorISt10shared_ptrIN5telux4cv2x11ICv2xTxFlowEESaIS4_EE17_M_realloc_insertIJRKS4_EEEvN9__gnu_cxx17__normal_iteratorIPS4_S6_EEDpOT_=so_stub_for_libtelux_cv2x
-Wl,--defsym=_ZNSt6vectorISt10shared_ptrIN5telux4cv2x11ICv2xTxFlowEESaIS4_EE19_M_range_initializeIPKS4_EEvT_SA_St20forward_iterator_tag=so_stub_for_libtelux_cv2x
-Wl,--defsym=_ZNSt6vectorISt10shared_ptrIN5telux4cv2x11ICv2xTxFlowEESaIS4_EED1Ev=so_stub_for_libtelux_cv2x
-Wl,--defsym=_ZNSt6vectorISt10shared_ptrIN5telux4cv2x11ICv2xTxFlowEESaIS4_EED2Ev=so_stub_for_libtelux_cv2x
-Wl,--defsym=_ZNSt6vectorISt4pairIbSt8weak_ptrIN5telux4cv2x18ICv2xRadioListenerEEESaIS6_EE17_M_realloc_insertIJS6_EEEvN9__gnu_cxx17__normal_iteratorIPS6_S8_EEDpOT_=so_stub_for_libtelux_cv2x
-Wl,--defsym=_ZNSt6vectorISt4pairIbSt8weak_ptrIN5telux4cv2x18ICv2xRadioListenerEEESaIS6_EE8_M_eraseEN9__gnu_cxx17__normal_iteratorIPS6_S8_EE=so_stub_for_libtelux_cv2x
-Wl,--defsym=_ZNSt6vectorISt4pairIbSt8weak_ptrIN5telux4cv2x18ICv2xRadioListenerEEESaIS6_EED1Ev=so_stub_for_libtelux_cv2x
-Wl,--defsym=_ZNSt6vectorISt4pairIbSt8weak_ptrIN5telux4cv2x18ICv2xRadioListenerEEESaIS6_EED2Ev=so_stub_for_libtelux_cv2x
-Wl,--defsym=_ZNSt6vectorISt8functionIFvN5telux6common13ServiceStatusEEESaIS5_EE17_M_realloc_insertIJRKS5_EEEvN9__gnu_cxx17__normal_iteratorIPS5_S7_EEDpOT_=so_stub_for_libtelux_cv2x
-Wl,--defsym=_ZNSt6vectorISt8functionIFvN5telux6common13ServiceStatusEEESaIS5_EE20_M_allocate_and_copyIN9__gnu_cxx17__normal_iteratorIPKS5_S7_EEEEPS5_mT_SF_=so_stub_for_libtelux_cv2x
-Wl,--defsym=_ZNSt6vectorISt8functionIFvN5telux6common13ServiceStatusEEESaIS5_EE9push_backERKS5_=so_stub_for_libtelux_cv2x
-Wl,--defsym=_ZNSt6vectorISt8functionIFvN5telux6common13ServiceStatusEEESaIS5_EEaSERKS7_=so_stub_for_libtelux_cv2x
-Wl,--defsym=_ZNSt6vectorISt8functionIFvN5telux6common13ServiceStatusEEESaIS5_EED1Ev=so_stub_for_libtelux_cv2x
-Wl,--defsym=_ZNSt6vectorISt8functionIFvN5telux6common13ServiceStatusEEESaIS5_EED2Ev=so_stub_for_libtelux_cv2x
-Wl,--defsym=_ZNSt6vectorISt8weak_ptrIN5telux6common12ISDKListenerEESaIS4_EE12emplace_backIJRS4_EEEvDpOT_=so_stub_for_libtelux_cv2x
-Wl,--defsym=_ZNSt6vectorISt8weak_ptrIN5telux6common12ISDKListenerEESaIS4_EE12emplace_backIJRSt10shared_ptrIS3_EEEEvDpOT_=so_stub_for_libtelux_cv2x
-Wl,--defsym=_ZNSt6vectorISt8weak_ptrIN5telux6common12ISDKListenerEESaIS4_EE17_M_realloc_insertIJRS4_EEEvN9__gnu_cxx17__normal_iteratorIPS4_S6_EEDpOT_=so_stub_for_libtelux_cv2x
-Wl,--defsym=_ZNSt6vectorISt8weak_ptrIN5telux6common12ISDKListenerEESaIS4_EE17_M_realloc_insertIJRSt10shared_ptrIS3_EEEEvN9__gnu_cxx17__normal_iteratorIPS4_S6_EEDpOT_=so_stub_for_libtelux_cv2x
-Wl,--defsym=_ZNSt6vectorISt8weak_ptrIN5telux6common12ISDKListenerEESaIS4_EE8_M_eraseEN9__gnu_cxx17__normal_iteratorIPS4_S6_EE=so_stub_for_libtelux_cv2x
-Wl,--defsym=_ZNSt6vectorISt8weak_ptrIN5telux6common12ISDKListenerEESaIS4_EED1Ev=so_stub_for_libtelux_cv2x
-Wl,--defsym=_ZNSt6vectorISt8weak_ptrIN5telux6common12ISDKListenerEESaIS4_EED2Ev=so_stub_for_libtelux_cv2x
-Wl,--defsym=_ZNSt7__cxx1110_List_baseISt10shared_ptrIN5telux4cv2x13EventInfoBaseEESaIS5_EE8_M_clearEv=so_stub_for_libtelux_cv2x
-Wl,--defsym=_ZNSt7__cxx1112basic_stringIcSt11char_traitsIcESaIcEE12_M_constructIPcEEvT_S7_St20forward_iterator_tag=so_stub_for_libtelux_cv2x
-Wl,--defsym=_ZNSt7__cxx1112basic_stringIcSt11char_traitsIcESaIcEE12_M_constructIPKcEEvT_S8_St20forward_iterator_tag=so_stub_for_libtelux_cv2x
-Wl,--defsym=_ZNSt7__cxx1115basic_stringbufIcSt11char_traitsIcESaIcEED0Ev=so_stub_for_libtelux_cv2x
-Wl,--defsym=_ZNSt7__cxx1115basic_stringbufIcSt11char_traitsIcESaIcEED1Ev=so_stub_for_libtelux_cv2x
-Wl,--defsym=_ZNSt7__cxx1115basic_stringbufIcSt11char_traitsIcESaIcEED2Ev=so_stub_for_libtelux_cv2x
-Wl,--defsym=_ZNSt7__cxx114listISt10shared_ptrIN5telux4cv2x13EventInfoBaseEESaIS5_EE9_M_insertIJRS5_EEEvSt14_List_iteratorIS5_EDpOT_=so_stub_for_libtelux_cv2x
-Wl,--defsym=_ZNSt7promiseIN5telux6common9ErrorCodeEE9set_valueEOS2_=so_stub_for_libtelux_cv2x
-Wl,--defsym=_ZNSt7promiseIN5telux6common9ErrorCodeEE9set_valueERKS2_=so_stub_for_libtelux_cv2x
-Wl,--defsym=_ZNSt7promiseIN5telux6common9ErrorCodeEEC1Ev=so_stub_for_libtelux_cv2x
-Wl,--defsym=_ZNSt7promiseIN5telux6common9ErrorCodeEEC2Ev=so_stub_for_libtelux_cv2x
-Wl,--defsym=_ZNSt7promiseIN5telux6common9ErrorCodeEED1Ev=so_stub_for_libtelux_cv2x
-Wl,--defsym=_ZNSt7promiseIN5telux6common9ErrorCodeEED2Ev=so_stub_for_libtelux_cv2x
-Wl,--defsym=_ZNSt8functionIFN5telux6common9ErrorCodeEiSt10shared_ptrINS0_4cv2x10Cv2xIPCReqEES3_INS4_11Cv2xIPCRespEEEEaSERKSA_=so_stub_for_libtelux_cv2x
-Wl,--defsym=_ZNSt8functionIFN5telux6common9ErrorCodeEiSt10shared_ptrINS0_4cv2x10Cv2xIPCReqEES3_INS4_11Cv2xIPCRespEEEEaSISt5_BindIFMNS4_16Cv2xRadioManagerEFS2_iS6_S8_EPSD_St12_PlaceholderILi1EESH_ILi2EESH_ILi3EEEEEENSt9enable_ifIXsrNSA_9_CallableIT_NSN_IXntsrSt7is_sameINSt9remove_cvINSt16remove_referenceISP_E4typeEE4typeESA_E5valueESt5decayISP_EE4type4typeESt15__invoke_resultIRS12_JiS6_S8_EEEE5valueERSA_E4typeEOSP_=so_stub_for_libtelux_cv2x
-Wl,--defsym=_ZNSt8functionIFv12Sanity_stateEEaSISt5_BindIFMN5telux4cv2x19Cv2xThrottleManagerEFvS0_EPS7_St12_PlaceholderILi1EEEEEENSt9enable_ifIXsrNS2_9_CallableIT_NSF_IXntsrSt7is_sameINSt9remove_cvINSt16remove_referenceISH_E4typeEE4typeES2_E5valueESt5decayISH_EE4type4typeESt15__invoke_resultIRSU_JS0_EEEE5valueERS2_E4typeEOSH_=so_stub_for_libtelux_cv2x
-Wl,--defsym=_ZNSt8functionIFv12Sanity_stateEED1Ev=so_stub_for_libtelux_cv2x
-Wl,--defsym=_ZNSt8functionIFv12Sanity_stateEED2Ev=so_stub_for_libtelux_cv2x
-Wl,--defsym=_ZNSt8functionIFv9Tm_statusEEaSISt5_BindIFMN5telux4cv2x19Cv2xThrottleManagerEFvS0_EPS7_St12_PlaceholderILi1EEEEEENSt9enable_ifIXsrNS2_9_CallableIT_NSF_IXntsrSt7is_sameINSt9remove_cvINSt16remove_referenceISH_E4typeEE4typeES2_E5valueESt5decayISH_EE4type4typeESt15__invoke_resultIRSU_JS0_EEEE5valueERS2_E4typeEOSH_=so_stub_for_libtelux_cv2x
-Wl,--defsym=_ZNSt8functionIFv9Tm_statusEED1Ev=so_stub_for_libtelux_cv2x
-Wl,--defsym=_ZNSt8functionIFv9Tm_statusEED2Ev=so_stub_for_libtelux_cv2x
-Wl,--defsym=_ZNSt8functionIFviEEaSISt5_BindIFMN5telux4cv2x19Cv2xThrottleManagerEFviEPS6_St12_PlaceholderILi1EEEEEENSt9enable_ifIXsrNS1_9_CallableIT_NSE_IXntsrSt7is_sameINSt9remove_cvINSt16remove_referenceISG_E4typeEE4typeES1_E5valueESt5decayISG_EE4type4typeESt15__invoke_resultIRST_JiEEEE5valueERS1_E4typeEOSG_=so_stub_for_libtelux_cv2x
-Wl,--defsym=_ZNSt8functionIFviEED1Ev=so_stub_for_libtelux_cv2x
-Wl,--defsym=_ZNSt8functionIFviEED2Ev=so_stub_for_libtelux_cv2x
-Wl,--defsym=_ZNSt8functionIFvN5telux6common13ServiceStatusEEEaSERKS4_=so_stub_for_libtelux_cv2x
-Wl,--defsym=_ZNSt8functionIFvN5telux6common9ErrorCodeEEEaSERKS4_=so_stub_for_libtelux_cv2x
-Wl,--defsym=_ZNSt8functionIFvN5telux6common9ErrorCodeEEEC1ERKS4_=so_stub_for_libtelux_cv2x
-Wl,--defsym=_ZNSt8functionIFvN5telux6common9ErrorCodeEEEC2ERKS4_=so_stub_for_libtelux_cv2x
-Wl,--defsym=_ZNSt8functionIFvPKN5telux4cv2x11Cv2xIPCRespEPvEEaSERKS7_=so_stub_for_libtelux_cv2x
-Wl,--defsym=_ZNSt8functionIFvSt10shared_ptrIN5telux4cv2x11ICv2xTxFlowEENS1_6common9ErrorCodeEEEC1ERKS8_=so_stub_for_libtelux_cv2x
-Wl,--defsym=_ZNSt8functionIFvSt10shared_ptrIN5telux4cv2x11ICv2xTxFlowEENS1_6common9ErrorCodeEEEC2ERKS8_=so_stub_for_libtelux_cv2x
-Wl,--defsym=_ZNSt8functionIFvSt10shared_ptrIN5telux4cv2x14IndicationDataEEEEaSISt5_BindIFMNS2_11Cv2xSysCtrlEFvS4_EPS9_St12_PlaceholderILi1EEEEEENSt9enable_ifIXsrNS6_9_CallableIT_NSH_IXntsrSt7is_sameINSt9remove_cvINSt16remove_referenceISJ_E4typeEE4typeES6_E5valueESt5decayISJ_EE4type4typeESt15__invoke_resultIRSW_JS4_EEEE5valueERS6_E4typeEOSJ_=so_stub_for_libtelux_cv2x
-Wl,--defsym=_ZNSt8_Rb_treeIiSt4pairIKiN5telux4cv2x10clientInfoEESt10_Select1stIS5_ESt4lessIiESaIS5_EE14_M_lower_boundEPSt13_Rb_tree_nodeIS5_EPSt18_Rb_tree_node_baseRS1_=so_stub_for_libtelux_cv2x
-Wl,--defsym=_ZNSt8_Rb_treeIiSt4pairIKiN5telux4cv2x10clientInfoEESt10_Select1stIS5_ESt4lessIiESaIS5_EE22_M_emplace_hint_uniqueIJRKSt21piecewise_construct_tSt5tupleIJRS1_EESG_IJEEEEESt17_Rb_tree_iteratorIS5_ESt23_Rb_tree_const_iteratorIS5_EDpOT_=so_stub_for_libtelux_cv2x
-Wl,--defsym=_ZNSt8_Rb_treeIiSt4pairIKiN5telux4cv2x10clientInfoEESt10_Select1stIS5_ESt4lessIiESaIS5_EE24_M_get_insert_unique_posERS1_=so_stub_for_libtelux_cv2x
-Wl,--defsym=_ZNSt8_Rb_treeIiSt4pairIKiN5telux4cv2x10clientInfoEESt10_Select1stIS5_ESt4lessIiESaIS5_EE29_M_get_insert_hint_unique_posESt23_Rb_tree_const_iteratorIS5_ERS1_=so_stub_for_libtelux_cv2x
-Wl,--defsym=_ZNSt8_Rb_treeIiSt4pairIKiN5telux4cv2x10clientInfoEESt10_Select1stIS5_ESt4lessIiESaIS5_EE8_M_eraseEPSt13_Rb_tree_nodeIS5_E=so_stub_for_libtelux_cv2x
-Wl,--defsym=_ZNSt8_Rb_treeIiSt4pairIKiN5telux4cv2x15GlobalIPSessionEESt10_Select1stIS5_ESt4lessIiESaIS5_EE11equal_rangeERS1_=so_stub_for_libtelux_cv2x
-Wl,--defsym=_ZNSt8_Rb_treeIiSt4pairIKiN5telux4cv2x15GlobalIPSessionEESt10_Select1stIS5_ESt4lessIiESaIS5_EE12_M_erase_auxESt23_Rb_tree_const_iteratorIS5_E=so_stub_for_libtelux_cv2x
-Wl,--defsym=_ZNSt8_Rb_treeIiSt4pairIKiN5telux4cv2x15GlobalIPSessionEESt10_Select1stIS5_ESt4lessIiESaIS5_EE14_M_lower_boundEPSt13_Rb_tree_nodeIS5_EPSt18_Rb_tree_node_baseRS1_=so_stub_for_libtelux_cv2x
-Wl,--defsym=_ZNSt8_Rb_treeIiSt4pairIKiN5telux4cv2x15GlobalIPSessionEESt10_Select1stIS5_ESt4lessIiESaIS5_EE22_M_emplace_hint_uniqueIJRKSt21piecewise_construct_tSt5tupleIJOiEESG_IJEEEEESt17_Rb_tree_iteratorIS5_ESt23_Rb_tree_const_iteratorIS5_EDpOT_=so_stub_for_libtelux_cv2x
-Wl,--defsym=_ZNSt8_Rb_treeIiSt4pairIKiN5telux4cv2x15GlobalIPSessionEESt10_Select1stIS5_ESt4lessIiESaIS5_EE24_M_get_insert_unique_posERS1_=so_stub_for_libtelux_cv2x
-Wl,--defsym=_ZNSt8_Rb_treeIiSt4pairIKiN5telux4cv2x15GlobalIPSessionEESt10_Select1stIS5_ESt4lessIiESaIS5_EE29_M_get_insert_hint_unique_posESt23_Rb_tree_const_iteratorIS5_ERS1_=so_stub_for_libtelux_cv2x
-Wl,--defsym=_ZNSt8_Rb_treeIiSt4pairIKiN5telux4cv2x15GlobalIPSessionEESt10_Select1stIS5_ESt4lessIiESaIS5_EE5eraseERS1_=so_stub_for_libtelux_cv2x
-Wl,--defsym=_ZNSt8_Rb_treeIiSt4pairIKiN5telux4cv2x15GlobalIPSessionEESt10_Select1stIS5_ESt4lessIiESaIS5_EE8_M_eraseEPSt13_Rb_tree_nodeIS5_E=so_stub_for_libtelux_cv2x
-Wl,--defsym=_ZNSt8_Rb_treeIjSt4pairIKjN5telux4cv2x11TxnCallbackEESt10_Select1stIS5_ESt4lessIjESaIS5_EE11equal_rangeERS1_=so_stub_for_libtelux_cv2x
-Wl,--defsym=_ZNSt8_Rb_treeIjSt4pairIKjN5telux4cv2x11TxnCallbackEESt10_Select1stIS5_ESt4lessIjESaIS5_EE12_M_erase_auxESt23_Rb_tree_const_iteratorIS5_E=so_stub_for_libtelux_cv2x
-Wl,--defsym=_ZNSt8_Rb_treeIjSt4pairIKjN5telux4cv2x11TxnCallbackEESt10_Select1stIS5_ESt4lessIjESaIS5_EE14_M_lower_boundEPSt13_Rb_tree_nodeIS5_EPSt18_Rb_tree_node_baseRS1_=so_stub_for_libtelux_cv2x
-Wl,--defsym=_ZNSt8_Rb_treeIjSt4pairIKjN5telux4cv2x11TxnCallbackEESt10_Select1stIS5_ESt4lessIjESaIS5_EE22_M_emplace_hint_uniqueIJRKSt21piecewise_construct_tSt5tupleIJRS1_EESG_IJEEEEESt17_Rb_tree_iteratorIS5_ESt23_Rb_tree_const_iteratorIS5_EDpOT_=so_stub_for_libtelux_cv2x
-Wl,--defsym=_ZNSt8_Rb_treeIjSt4pairIKjN5telux4cv2x11TxnCallbackEESt10_Select1stIS5_ESt4lessIjESaIS5_EE24_M_get_insert_unique_posERS1_=so_stub_for_libtelux_cv2x
-Wl,--defsym=_ZNSt8_Rb_treeIjSt4pairIKjN5telux4cv2x11TxnCallbackEESt10_Select1stIS5_ESt4lessIjESaIS5_EE29_M_get_insert_hint_unique_posESt23_Rb_tree_const_iteratorIS5_ERS1_=so_stub_for_libtelux_cv2x
-Wl,--defsym=_ZNSt8_Rb_treeIjSt4pairIKjN5telux4cv2x11TxnCallbackEESt10_Select1stIS5_ESt4lessIjESaIS5_EE4findERS1_=so_stub_for_libtelux_cv2x
-Wl,--defsym=_ZNSt8_Rb_treeIjSt4pairIKjN5telux4cv2x11TxnCallbackEESt10_Select1stIS5_ESt4lessIjESaIS5_EE5eraseERS1_=so_stub_for_libtelux_cv2x
-Wl,--defsym=_ZNSt8_Rb_treeIjSt4pairIKjN5telux4cv2x11TxnCallbackEESt10_Select1stIS5_ESt4lessIjESaIS5_EE8_M_eraseEPSt13_Rb_tree_nodeIS5_E=so_stub_for_libtelux_cv2x
-Wl,--defsym=_ZNSt8_Rb_treeIjSt4pairIKjSt10shared_ptrIN5telux4cv2x11ICv2xTxFlowEEESt10_Select1stIS7_ESt4lessIjESaIS7_EE12_M_erase_auxESt23_Rb_tree_const_iteratorIS7_E=so_stub_for_libtelux_cv2x
-Wl,--defsym=_ZNSt8_Rb_treeIjSt4pairIKjSt10shared_ptrIN5telux4cv2x11ICv2xTxFlowEEESt10_Select1stIS7_ESt4lessIjESaIS7_EE14_M_lower_boundEPSt13_Rb_tree_nodeIS7_EPSt18_Rb_tree_node_baseRS1_=so_stub_for_libtelux_cv2x
-Wl,--defsym=_ZNSt8_Rb_treeIjSt4pairIKjSt10shared_ptrIN5telux4cv2x11ICv2xTxFlowEEESt10_Select1stIS7_ESt4lessIjESaIS7_EE22_M_emplace_hint_uniqueIJRKSt21piecewise_construct_tSt5tupleIJRS1_EESI_IJEEEEESt17_Rb_tree_iteratorIS7_ESt23_Rb_tree_const_iteratorIS7_EDpOT_=so_stub_for_libtelux_cv2x
-Wl,--defsym=_ZNSt8_Rb_treeIjSt4pairIKjSt10shared_ptrIN5telux4cv2x11ICv2xTxFlowEEESt10_Select1stIS7_ESt4lessIjESaIS7_EE24_M_get_insert_unique_posERS1_=so_stub_for_libtelux_cv2x
-Wl,--defsym=_ZNSt8_Rb_treeIjSt4pairIKjSt10shared_ptrIN5telux4cv2x11ICv2xTxFlowEEESt10_Select1stIS7_ESt4lessIjESaIS7_EE29_M_get_insert_hint_unique_posESt23_Rb_tree_const_iteratorIS7_ERS1_=so_stub_for_libtelux_cv2x
-Wl,--defsym=_ZNSt8_Rb_treeIjSt4pairIKjSt10shared_ptrIN5telux4cv2x11ICv2xTxFlowEEESt10_Select1stIS7_ESt4lessIjESaIS7_EE4findERS1_=so_stub_for_libtelux_cv2x
-Wl,--defsym=_ZNSt8_Rb_treeIjSt4pairIKjSt10shared_ptrIN5telux4cv2x11ICv2xTxFlowEEESt10_Select1stIS7_ESt4lessIjESaIS7_EE8_M_eraseEPSt13_Rb_tree_nodeIS7_E=so_stub_for_libtelux_cv2x
-Wl,--defsym=_ZNSt8_Rb_treeIjSt4pairIKjSt10shared_ptrIN5telux4cv2x15ICv2xTxRxSocketEEESt10_Select1stIS7_ESt4lessIjESaIS7_EE14_M_lower_boundEPSt13_Rb_tree_nodeIS7_EPSt18_Rb_tree_node_baseRS1_=so_stub_for_libtelux_cv2x
-Wl,--defsym=_ZNSt8_Rb_treeIjSt4pairIKjSt10shared_ptrIN5telux4cv2x15ICv2xTxRxSocketEEESt10_Select1stIS7_ESt4lessIjESaIS7_EE22_M_emplace_hint_uniqueIJRKSt21piecewise_construct_tSt5tupleIJRS1_EESI_IJEEEEESt17_Rb_tree_iteratorIS7_ESt23_Rb_tree_const_iteratorIS7_EDpOT_=so_stub_for_libtelux_cv2x
-Wl,--defsym=_ZNSt8_Rb_treeIjSt4pairIKjSt10shared_ptrIN5telux4cv2x15ICv2xTxRxSocketEEESt10_Select1stIS7_ESt4lessIjESaIS7_EE24_M_get_insert_unique_posERS1_=so_stub_for_libtelux_cv2x
-Wl,--defsym=_ZNSt8_Rb_treeIjSt4pairIKjSt10shared_ptrIN5telux4cv2x15ICv2xTxRxSocketEEESt10_Select1stIS7_ESt4lessIjESaIS7_EE29_M_get_insert_hint_unique_posESt23_Rb_tree_const_iteratorIS7_ERS1_=so_stub_for_libtelux_cv2x
-Wl,--defsym=_ZNSt8_Rb_treeIjSt4pairIKjSt10shared_ptrIN5telux4cv2x15ICv2xTxRxSocketEEESt10_Select1stIS7_ESt4lessIjESaIS7_EE4findERS1_=so_stub_for_libtelux_cv2x
-Wl,--defsym=_ZNSt8_Rb_treeIjSt4pairIKjSt10shared_ptrIN5telux4cv2x15ICv2xTxRxSocketEEESt10_Select1stIS7_ESt4lessIjESaIS7_EE8_M_eraseEPSt13_Rb_tree_nodeIS7_E=so_stub_for_libtelux_cv2x
-Wl,--defsym=_ZNSt8_Rb_treeIjSt4pairIKjSt10shared_ptrIN5telux4cv2x19ICv2xRxSubscriptionEEESt10_Select1stIS7_ESt4lessIjESaIS7_EE14_M_lower_boundEPSt13_Rb_tree_nodeIS7_EPSt18_Rb_tree_node_baseRS1_=so_stub_for_libtelux_cv2x
-Wl,--defsym=_ZNSt8_Rb_treeIjSt4pairIKjSt10shared_ptrIN5telux4cv2x19ICv2xRxSubscriptionEEESt10_Select1stIS7_ESt4lessIjESaIS7_EE22_M_emplace_hint_uniqueIJRKSt21piecewise_construct_tSt5tupleIJRS1_EESI_IJEEEEESt17_Rb_tree_iteratorIS7_ESt23_Rb_tree_const_iteratorIS7_EDpOT_=so_stub_for_libtelux_cv2x
-Wl,--defsym=_ZNSt8_Rb_treeIjSt4pairIKjSt10shared_ptrIN5telux4cv2x19ICv2xRxSubscriptionEEESt10_Select1stIS7_ESt4lessIjESaIS7_EE24_M_get_insert_unique_posERS1_=so_stub_for_libtelux_cv2x
-Wl,--defsym=_ZNSt8_Rb_treeIjSt4pairIKjSt10shared_ptrIN5telux4cv2x19ICv2xRxSubscriptionEEESt10_Select1stIS7_ESt4lessIjESaIS7_EE29_M_get_insert_hint_unique_posESt23_Rb_tree_const_iteratorIS7_ERS1_=so_stub_for_libtelux_cv2x
-Wl,--defsym=_ZNSt8_Rb_treeIjSt4pairIKjSt10shared_ptrIN5telux4cv2x19ICv2xRxSubscriptionEEESt10_Select1stIS7_ESt4lessIjESaIS7_EE4findERS1_=so_stub_for_libtelux_cv2x
-Wl,--defsym=_ZNSt8_Rb_treeIjSt4pairIKjSt10shared_ptrIN5telux4cv2x19ICv2xRxSubscriptionEEESt10_Select1stIS7_ESt4lessIjESaIS7_EE8_M_eraseEPSt13_Rb_tree_nodeIS7_E=so_stub_for_libtelux_cv2x
-Wl,--defsym=_ZNSt8_Rb_treeIjSt4pairIKjSt10unique_ptrINSt7__cxx1112basic_stringIcSt11char_traitsIcESaIcEEESt14default_deleteIS8_EEESt10_Select1stISC_ESt4lessIjESaISC_EE14_M_lower_boundEPSt13_Rb_tree_nodeISC_EPSt18_Rb_tree_node_baseRS1_=so_stub_for_libtelux_cv2x
-Wl,--defsym=_ZNSt8_Rb_treeIjSt4pairIKjSt10unique_ptrINSt7__cxx1112basic_stringIcSt11char_traitsIcESaIcEEESt14default_deleteIS8_EEESt10_Select1stISC_ESt4lessIjESaISC_EE22_M_emplace_hint_uniqueIJRKSt21piecewise_construct_tSt5tupleIJOjEESN_IJEEEEESt17_Rb_tree_iteratorISC_ESt23_Rb_tree_const_iteratorISC_EDpOT_=so_stub_for_libtelux_cv2x
-Wl,--defsym=_ZNSt8_Rb_treeIjSt4pairIKjSt10unique_ptrINSt7__cxx1112basic_stringIcSt11char_traitsIcESaIcEEESt14default_deleteIS8_EEESt10_Select1stISC_ESt4lessIjESaISC_EE24_M_get_insert_unique_posERS1_=so_stub_for_libtelux_cv2x
-Wl,--defsym=_ZNSt8_Rb_treeIjSt4pairIKjSt10unique_ptrINSt7__cxx1112basic_stringIcSt11char_traitsIcESaIcEEESt14default_deleteIS8_EEESt10_Select1stISC_ESt4lessIjESaISC_EE29_M_get_insert_hint_unique_posESt23_Rb_tree_const_iteratorISC_ERS1_=so_stub_for_libtelux_cv2x
-Wl,--defsym=_ZNSt8_Rb_treeIjSt4pairIKjSt10unique_ptrINSt7__cxx1112basic_stringIcSt11char_traitsIcESaIcEEESt14default_deleteIS8_EEESt10_Select1stISC_ESt4lessIjESaISC_EE8_M_eraseEPSt13_Rb_tree_nodeISC_E=so_stub_for_libtelux_cv2x
-Wl,--defsym=_ZNSt8_Rb_treeIjSt4pairIKjSt3setISt8weak_ptrIN5telux6common12ISDKListenerEENS5_15ListenerManager12SetPredicateESaIS7_EEESt10_Select1stISC_ESt4lessIjESaISC_EE8_M_eraseEPSt13_Rb_tree_nodeISC_E=so_stub_for_libtelux_cv2x
-Wl,--defsym=_ZNSt8_Rb_treeIN5telux4cv2x12IpcMessageIdESt4pairIKS2_NSt7__cxx1112basic_stringIcSt11char_traitsIcESaIcEEEESt10_Select1stISB_ESt4lessIS2_ESaISB_EE14_M_insert_nodeEPSt18_Rb_tree_node_baseSJ_PSt13_Rb_tree_nodeISB_E=so_stub_for_libtelux_cv2x
-Wl,--defsym=_ZNSt8_Rb_treeIN5telux4cv2x12IpcMessageIdESt4pairIKS2_NSt7__cxx1112basic_stringIcSt11char_traitsIcESaIcEEEESt10_Select1stISB_ESt4lessIS2_ESaISB_EE14_M_lower_boundEPSt13_Rb_tree_nodeISB_EPSt18_Rb_tree_node_baseRS4_=so_stub_for_libtelux_cv2x
-Wl,--defsym=_ZNSt8_Rb_treeIN5telux4cv2x12IpcMessageIdESt4pairIKS2_NSt7__cxx1112basic_stringIcSt11char_traitsIcESaIcEEEESt10_Select1stISB_ESt4lessIS2_ESaISB_EE22_M_emplace_hint_uniqueIJRKSt21piecewise_construct_tSt5tupleIJOS2_EESM_IJEEEEESt17_Rb_tree_iteratorISB_ESt23_Rb_tree_const_iteratorISB_EDpOT_=so_stub_for_libtelux_cv2x
-Wl,--defsym=_ZNSt8_Rb_treeIN5telux4cv2x12IpcMessageIdESt4pairIKS2_NSt7__cxx1112basic_stringIcSt11char_traitsIcESaIcEEEESt10_Select1stISB_ESt4lessIS2_ESaISB_EE22_M_emplace_hint_uniqueIJRKSt21piecewise_construct_tSt5tupleIJRS4_EESM_IJEEEEESt17_Rb_tree_iteratorISB_ESt23_Rb_tree_const_iteratorISB_EDpOT_=so_stub_for_libtelux_cv2x
-Wl,--defsym=_ZNSt8_Rb_treeIN5telux4cv2x12IpcMessageIdESt4pairIKS2_NSt7__cxx1112basic_stringIcSt11char_traitsIcESaIcEEEESt10_Select1stISB_ESt4lessIS2_ESaISB_EE24_M_get_insert_unique_posERS4_=so_stub_for_libtelux_cv2x
-Wl,--defsym=_ZNSt8_Rb_treeIN5telux4cv2x12IpcMessageIdESt4pairIKS2_NSt7__cxx1112basic_stringIcSt11char_traitsIcESaIcEEEESt10_Select1stISB_ESt4lessIS2_ESaISB_EE29_M_get_insert_hint_unique_posESt23_Rb_tree_const_iteratorISB_ERS4_=so_stub_for_libtelux_cv2x
-Wl,--defsym=_ZNSt8_Rb_treeIN5telux4cv2x12IpcMessageIdESt4pairIKS2_NSt7__cxx1112basic_stringIcSt11char_traitsIcESaIcEEEESt10_Select1stISB_ESt4lessIS2_ESaISB_EE8_M_eraseEPSt13_Rb_tree_nodeISB_E=so_stub_for_libtelux_cv2x
-Wl,--defsym=_ZNSt8_Rb_treeIN5telux4cv2x12IpcMessageIdESt4pairIKS2_St8functionIFNS0_6common9ErrorCodeEiSt10shared_ptrINS1_10Cv2xIPCReqEES8_INS1_11Cv2xIPCRespEEEEESt10_Select1stISF_ESt4lessIS2_ESaISF_EE12_M_erase_auxESt23_Rb_tree_const_iteratorISF_E=so_stub_for_libtelux_cv2x
-Wl,--defsym=_ZNSt8_Rb_treeIN5telux4cv2x12IpcMessageIdESt4pairIKS2_St8functionIFNS0_6common9ErrorCodeEiSt10shared_ptrINS1_10Cv2xIPCReqEES8_INS1_11Cv2xIPCRespEEEEESt10_Select1stISF_ESt4lessIS2_ESaISF_EE14_M_lower_boundEPSt13_Rb_tree_nodeISF_EPSt18_Rb_tree_node_baseRS4_=so_stub_for_libtelux_cv2x
-Wl,--defsym=_ZNSt8_Rb_treeIN5telux4cv2x12IpcMessageIdESt4pairIKS2_St8functionIFNS0_6common9ErrorCodeEiSt10shared_ptrINS1_10Cv2xIPCReqEES8_INS1_11Cv2xIPCRespEEEEESt10_Select1stISF_ESt4lessIS2_ESaISF_EE22_M_emplace_hint_uniqueIJRKSt21piecewise_construct_tSt5tupleIJRS4_EESQ_IJEEEEESt17_Rb_tree_iteratorISF_ESt23_Rb_tree_const_iteratorISF_EDpOT_=so_stub_for_libtelux_cv2x
-Wl,--defsym=_ZNSt8_Rb_treeIN5telux4cv2x12IpcMessageIdESt4pairIKS2_St8functionIFNS0_6common9ErrorCodeEiSt10shared_ptrINS1_10Cv2xIPCReqEES8_INS1_11Cv2xIPCRespEEEEESt10_Select1stISF_ESt4lessIS2_ESaISF_EE24_M_get_insert_unique_posERS4_=so_stub_for_libtelux_cv2x
-Wl,--defsym=_ZNSt8_Rb_treeIN5telux4cv2x12IpcMessageIdESt4pairIKS2_St8functionIFNS0_6common9ErrorCodeEiSt10shared_ptrINS1_10Cv2xIPCReqEES8_INS1_11Cv2xIPCRespEEEEESt10_Select1stISF_ESt4lessIS2_ESaISF_EE29_M_get_insert_hint_unique_posESt23_Rb_tree_const_iteratorISF_ERS4_=so_stub_for_libtelux_cv2x
-Wl,--defsym=_ZNSt8_Rb_treeIN5telux4cv2x12IpcMessageIdESt4pairIKS2_St8functionIFNS0_6common9ErrorCodeEiSt10shared_ptrINS1_10Cv2xIPCReqEES8_INS1_11Cv2xIPCRespEEEEESt10_Select1stISF_ESt4lessIS2_ESaISF_EE4findERS4_=so_stub_for_libtelux_cv2x
-Wl,--defsym=_ZNSt8_Rb_treeIN5telux4cv2x12IpcMessageIdESt4pairIKS2_St8functionIFNS0_6common9ErrorCodeEiSt10shared_ptrINS1_10Cv2xIPCReqEES8_INS1_11Cv2xIPCRespEEEEESt10_Select1stISF_ESt4lessIS2_ESaISF_EE8_M_eraseEPSt13_Rb_tree_nodeISF_E=so_stub_for_libtelux_cv2x
-Wl,--defsym=_ZNSt8_Rb_treeISt8weak_ptrIN5telux6common12ISDKListenerEES4_St9_IdentityIS4_ENS2_15ListenerManager12SetPredicateESaIS4_EE8_M_eraseEPSt13_Rb_tree_nodeIS4_E=so_stub_for_libtelux_cv2x
-Wl,--defsym=_ZNSt8_Rb_treeItSt4pairIKtSt10shared_ptrIN5telux4cv2x27ICv2xTxStatusReportListenerEEESt10_Select1stIS7_ESt4lessItESaIS7_EE14_M_lower_boundEPSt13_Rb_tree_nodeIS7_EPSt18_Rb_tree_node_baseRS1_=so_stub_for_libtelux_cv2x
-Wl,--defsym=_ZNSt8_Rb_treeItSt4pairIKtSt10shared_ptrIN5telux4cv2x27ICv2xTxStatusReportListenerEEESt10_Select1stIS7_ESt4lessItESaIS7_EE22_M_emplace_hint_uniqueIJRKSt21piecewise_construct_tSt5tupleIJRS1_EESI_IJEEEEESt17_Rb_tree_iteratorIS7_ESt23_Rb_tree_const_iteratorIS7_EDpOT_=so_stub_for_libtelux_cv2x
-Wl,--defsym=_ZNSt8_Rb_treeItSt4pairIKtSt10shared_ptrIN5telux4cv2x27ICv2xTxStatusReportListenerEEESt10_Select1stIS7_ESt4lessItESaIS7_EE24_M_get_insert_unique_posERS1_=so_stub_for_libtelux_cv2x
-Wl,--defsym=_ZNSt8_Rb_treeItSt4pairIKtSt10shared_ptrIN5telux4cv2x27ICv2xTxStatusReportListenerEEESt10_Select1stIS7_ESt4lessItESaIS7_EE29_M_get_insert_hint_unique_posESt23_Rb_tree_const_iteratorIS7_ERS1_=so_stub_for_libtelux_cv2x
-Wl,--defsym=_ZNSt8_Rb_treeItSt4pairIKtSt10shared_ptrIN5telux4cv2x27ICv2xTxStatusReportListenerEEESt10_Select1stIS7_ESt4lessItESaIS7_EE4findERS1_=so_stub_for_libtelux_cv2x
-Wl,--defsym=_ZNSt8_Rb_treeItSt4pairIKtSt10shared_ptrIN5telux4cv2x27ICv2xTxStatusReportListenerEEESt10_Select1stIS7_ESt4lessItESaIS7_EE8_M_eraseEPSt13_Rb_tree_nodeIS7_E=so_stub_for_libtelux_cv2x
-Wl,--defsym=_ZSt10__invoke_rIvRSt5_BindIFMN5telux4cv2x11Cv2xSysCtrlEFvSt10shared_ptrINS2_14IndicationDataEEEPS3_St12_PlaceholderILi1EEEEJS6_EENSt9enable_ifIXsrSt6__and_IJSt7is_voidIT_ESt14__is_invocableIT0_JDpT1_EEEE5valueESI_E4typeEOSL_DpOSM_=so_stub_for_libtelux_cv2x
-Wl,--defsym=_ZSt10__invoke_rIvRSt5_BindIFMN5telux4cv2x11Cv2xSysCtrlEFvSt10shared_ptrINS2_17ServiceStatusDataEEEPS3_St12_PlaceholderILi1EEEEJS6_EENSt9enable_ifIXsrSt6__and_IJSt7is_voidIT_ESt14__is_invocableIT0_JDpT1_EEEE5valueESI_E4typeEOSL_DpOSM_=so_stub_for_libtelux_cv2x
-Wl,--defsym=_ZSt10__invoke_rIvRSt5_BindIFMN5telux4cv2x19Cv2xThrottleManagerEFv12Sanity_stateEPS3_St12_PlaceholderILi1EEEEJS4_EENSt9enable_ifIXsrSt6__and_IJSt7is_voidIT_ESt14__is_invocableIT0_JDpT1_EEEE5valueESG_E4typeEOSJ_DpOSK_=so_stub_for_libtelux_cv2x
-Wl,--defsym=_ZSt10__invoke_rIvRSt5_BindIFMN5telux4cv2x19Cv2xThrottleManagerEFv9Tm_statusEPS3_St12_PlaceholderILi1EEEEJS4_EENSt9enable_ifIXsrSt6__and_IJSt7is_voidIT_ESt14__is_invocableIT0_JDpT1_EEEE5valueESG_E4typeEOSJ_DpOSK_=so_stub_for_libtelux_cv2x
-Wl,--defsym=_ZSt10__invoke_rIvRSt5_BindIFMN5telux4cv2x19Cv2xThrottleManagerEFviEPS3_St12_PlaceholderILi1EEEEJiEENSt9enable_ifIXsrSt6__and_IJSt7is_voidIT_ESt14__is_invocableIT0_JDpT1_EEEE5valueESF_E4typeEOSI_DpOSJ_=so_stub_for_libtelux_cv2x
-Wl,--defsym=_ZSt13__copy_move_aILb0EN9__gnu_cxx17__normal_iteratorIPKSt8functionIFvN5telux6common13ServiceStatusEEESt6vectorIS7_SaIS7_EEEENS1_IPS7_SC_EEET1_T0_SH_SG_=so_stub_for_libtelux_cv2x
-Wl,--defsym=_ZSt13__copy_move_aILb1EN9__gnu_cxx17__normal_iteratorIPSt4pairIbSt8weak_ptrIN5telux4cv2x18ICv2xRadioListenerEEESt6vectorIS8_SaIS8_EEEESD_ET1_T0_SF_SE_=so_stub_for_libtelux_cv2x
-Wl,--defsym=_ZSt13__copy_move_aILb1EN9__gnu_cxx17__normal_iteratorIPSt8weak_ptrIN5telux6common12ISDKListenerEESt6vectorIS6_SaIS6_EEEESB_ET1_T0_SD_SC_=so_stub_for_libtelux_cv2x
-Wl,--defsym=_ZSt13__invoke_implIN5telux6common9ErrorCodeERMNS0_4cv2x16Cv2xRadioManagerEFS2_iSt10shared_ptrINS3_10Cv2xIPCReqEES5_INS3_11Cv2xIPCRespEEERPS4_JiS7_S9_EET_St21__invoke_memfun_derefOT0_OT1_DpOT2_=so_stub_for_libtelux_cv2x
-Wl,--defsym=_ZSt13move_backwardISt15_Deque_iteratorISt13shared_futureIvERS2_PS2_ES5_ET0_T_S7_S6_=so_stub_for_libtelux_cv2x
-Wl,--defsym=_ZSt14__copy_move_a1ILb0EPSt13shared_futureIvES1_EN9__gnu_cxx11__enable_ifIXsrSt23__is_random_access_iterIT0_NSt15iterator_traitsIS6_E17iterator_categoryEE7__valueESt15_Deque_iteratorIT1_RSC_PSC_EE6__typeES6_S6_SF_=so_stub_for_libtelux_cv2x
-Wl,--defsym=_ZSt14__copy_move_a1ILb0ESt13shared_futureIvERKS1_PS2_S1_ESt15_Deque_iteratorIT3_RS6_PS6_ES5_IT0_T1_T2_ESD_S9_=so_stub_for_libtelux_cv2x
-Wl,--defsym=_ZSt14__copy_move_a1ILb1EPSt13shared_futureIvES1_EN9__gnu_cxx11__enable_ifIXsrSt23__is_random_access_iterIT0_NSt15iterator_traitsIS6_E17iterator_categoryEE7__valueESt15_Deque_iteratorIT1_RSC_PSC_EE6__typeES6_S6_SF_=so_stub_for_libtelux_cv2x
-Wl,--defsym=_ZSt14__copy_move_a1ILb1ESt13shared_futureIvERS1_PS1_S1_ESt15_Deque_iteratorIT3_RS5_PS5_ES4_IT0_T1_T2_ESC_S8_=so_stub_for_libtelux_cv2x
-Wl,--defsym=_ZSt18__allocate_guardedISaISt23_Sp_counted_ptr_inplaceIN5telux4cv2x10Cv2xIPCReqESaIS3_ELN9__gnu_cxx12_Lock_policyE2EEEESt15__allocated_ptrIT_ERSA_=so_stub_for_libtelux_cv2x
-Wl,--defsym=_ZSt18__allocate_guardedISaISt23_Sp_counted_ptr_inplaceIN5telux4cv2x15Cv2xTxEventFlowESaIS3_ELN9__gnu_cxx12_Lock_policyE2EEEESt15__allocated_ptrIT_ERSA_=so_stub_for_libtelux_cv2x
-Wl,--defsym=_ZSt18__allocate_guardedISaISt23_Sp_counted_ptr_inplaceIN5telux4cv2x15QmiCv2xCommonCbESaIS3_ELN9__gnu_cxx12_Lock_policyE2EEEESt15__allocated_ptrIT_ERSA_=so_stub_for_libtelux_cv2x
-Wl,--defsym=_ZSt18__allocate_guardedISaISt23_Sp_counted_ptr_inplaceISt6threadSaIS1_ELN9__gnu_cxx12_Lock_policyE2EEEESt15__allocated_ptrIT_ERS8_=so_stub_for_libtelux_cv2x
-Wl,--defsym=_ZSt18make_exception_ptrISt12future_errorENSt15__exception_ptr13exception_ptrET_=so_stub_for_libtelux_cv2x
-Wl,--defsym=_ZSt18uninitialized_copyISt13move_iteratorISt15_Deque_iteratorISt13shared_futureIvERS3_PS3_EES6_ET0_T_S9_S8_=so_stub_for_libtelux_cv2x
-Wl,--defsym=_ZSt20dynamic_pointer_castIN5telux4cv2x15Cv2xTxEventFlowENS1_11ICv2xTxFlowEESt10shared_ptrIT_ERKS4_IT0_E=so_stub_for_libtelux_cv2x
-Wl,--defsym=_ZSt22__uninitialized_copy_aISt15_Deque_iteratorISt13shared_futureIvERKS2_PS3_ES0_IS2_RS2_PS2_ES2_ET0_T_SB_SA_RSaIT1_E=so_stub_for_libtelux_cv2x
-Wl,--defsym=_ZSt22__uninitialized_move_aISt15_Deque_iteratorISt13shared_futureIvERS2_PS2_ES5_SaIS2_EET0_T_S8_S7_RT1_=so_stub_for_libtelux_cv2x
-Wl,--defsym=_ZSt23__copy_move_backward_a1ILb1EPSt13shared_futureIvES1_EN9__gnu_cxx11__enable_ifIXsrSt23__is_random_access_iterIT0_NSt15iterator_traitsIS6_E17iterator_categoryEE7__valueESt15_Deque_iteratorIT1_RSC_PSC_EE6__typeES6_S6_SF_=so_stub_for_libtelux_cv2x
-Wl,--defsym=_ZSt23__copy_move_backward_a1ILb1ESt13shared_futureIvERS1_PS1_S1_ESt15_Deque_iteratorIT3_RS5_PS5_ES4_IT0_T1_T2_ESC_S8_=so_stub_for_libtelux_cv2x
-Wl,--defsym=_ZSt4copyISt15_Deque_iteratorISt13shared_futureIvERKS2_PS3_ES0_IS2_RS2_PS2_EET0_T_SB_SA_=so_stub_for_libtelux_cv2x
-Wl,--defsym=_ZSt4moveISt15_Deque_iteratorISt13shared_futureIvERS2_PS2_ES5_ET0_T_S7_S6_=so_stub_for_libtelux_cv2x
-Wl,--defsym=_ZSt7find_ifIN9__gnu_cxx17__normal_iteratorIPSt4pairIbSt8weak_ptrIN5telux4cv2x18ICv2xRadioListenerEEESt6vectorIS8_SaIS8_EEEEZNS5_16Cv2xIndsListener16registerListenerES7_EUlS8_E_ET_SG_SG_T0_=so_stub_for_libtelux_cv2x
-Wl,--defsym=_ZSt7find_ifIN9__gnu_cxx17__normal_iteratorIPSt8weak_ptrIN5telux6common12ISDKListenerEESt6vectorIS6_SaIS6_EEEEZNS4_15ListenerManager16registerListenerES6_EUlS6_E_ET_SE_SE_T0_=so_stub_for_libtelux_cv2x
-Wl,--defsym=_ZSt9__advanceISt15_Deque_iteratorISt13shared_futureIvERKS2_PS3_ElEvRT_T0_St26random_access_iterator_tag=so_stub_for_libtelux_cv2x
-Wl,--defsym=_ZSt9__find_ifIN9__gnu_cxx17__normal_iteratorIPSt4pairIbSt8weak_ptrIN5telux4cv2x18ICv2xRadioListenerEEESt6vectorIS8_SaIS8_EEEENS0_5__ops10_Iter_predIZNS5_16Cv2xIndsListener16registerListenerES7_EUlS8_E_EEET_SJ_SJ_T0_St26random_access_iterator_tag=so_stub_for_libtelux_cv2x
-Wl,--defsym=_ZSt9__find_ifIN9__gnu_cxx17__normal_iteratorIPSt8weak_ptrIN5telux6common12ISDKListenerEESt6vectorIS6_SaIS6_EEEENS0_5__ops10_Iter_predIZNS4_15ListenerManager16registerListenerES6_EUlS6_E_EEET_SH_SH_T0_St26random_access_iterator_tag=so_stub_for_libtelux_cv2x
-Wl,--defsym=_ZSteqRKSt10error_codeRKSt15error_condition=so_stub_for_libtelux_cv2x
-Wl,--defsym=_ZThn16_N5telux4cv2x16Cv2xIndsListenerD0Ev=so_stub_for_libtelux_cv2x
-Wl,--defsym=_ZThn16_N5telux4cv2x16Cv2xIndsListenerD1Ev=so_stub_for_libtelux_cv2x
-Wl,--defsym=_ZThn16_N5telux4cv2x18Cv2xConfigListener15onConfigChangedERKNS0_15ConfigEventInfoE=so_stub_for_libtelux_cv2x
-Wl,--defsym=_ZThn16_N5telux4cv2x18Cv2xConfigListenerD0Ev=so_stub_for_libtelux_cv2x
-Wl,--defsym=_ZThn16_N5telux4cv2x18Cv2xConfigListenerD1Ev=so_stub_for_libtelux_cv2x
-Wl,--defsym=_ZThn16_N5telux4cv2x21ServiceStatusListener21onServiceStatusChangeENS_6common13ServiceStatusE=so_stub_for_libtelux_cv2x
-Wl,--defsym=_ZThn16_N5telux4cv2x21ServiceStatusListenerD0Ev=so_stub_for_libtelux_cv2x
-Wl,--defsym=_ZThn16_N5telux4cv2x21ServiceStatusListenerD1Ev=so_stub_for_libtelux_cv2x
-Wl,--defsym=_ZThn16_N5telux4cv2x22Cv2xSysRequestResponseD0Ev=so_stub_for_libtelux_cv2x
-Wl,--defsym=_ZThn16_N5telux4cv2x22Cv2xSysRequestResponseD1Ev=so_stub_for_libtelux_cv2x
-Wl,--defsym=_ZThn16_N5telux4cv2x31SysctrlGetConfigurationCallbackD0Ev=so_stub_for_libtelux_cv2x
-Wl,--defsym=_ZThn16_N5telux4cv2x31SysctrlGetConfigurationCallbackD1Ev=so_stub_for_libtelux_cv2x
-Wl,--defsym=_ZThn24_N5telux4cv2x16Cv2xIndsListenerD0Ev=so_stub_for_libtelux_cv2x
-Wl,--defsym=_ZThn24_N5telux4cv2x16Cv2xIndsListenerD1Ev=so_stub_for_libtelux_cv2x
-Wl,--defsym=_ZThn24_N5telux4cv2x21ServiceStatusListenerD0Ev=so_stub_for_libtelux_cv2x
-Wl,--defsym=_ZThn24_N5telux4cv2x21ServiceStatusListenerD1Ev=so_stub_for_libtelux_cv2x
-Wl,--defsym=_ZThn32_N5telux4cv2x16Cv2xIndsListener19onIpcDataCallChangeERKNS0_15Cv2xIpcDataCallE=so_stub_for_libtelux_cv2x
-Wl,--defsym=_ZThn32_N5telux4cv2x16Cv2xIndsListener21onIpcCv2xStatusChangeERKNS0_16Cv2xIpcV2xStatusE=so_stub_for_libtelux_cv2x
-Wl,--defsym=_ZThn32_N5telux4cv2x16Cv2xIndsListener23onIpcMacAddrCloneAttackEb=so_stub_for_libtelux_cv2x
-Wl,--defsym=_ZThn32_N5telux4cv2x16Cv2xIndsListenerD0Ev=so_stub_for_libtelux_cv2x
-Wl,--defsym=_ZThn32_N5telux4cv2x16Cv2xIndsListenerD1Ev=so_stub_for_libtelux_cv2x
-Wl,--defsym=_ZThn32_N5telux4cv2x21ServiceStatusListener21onOperatingModeChangeEi=so_stub_for_libtelux_cv2x
-Wl,--defsym=_ZThn32_N5telux4cv2x21ServiceStatusListener24onDmsServiceStatusChangeENS_6common13ServiceStatusEi=so_stub_for_libtelux_cv2x
-Wl,--defsym=_ZThn32_N5telux4cv2x21ServiceStatusListenerD0Ev=so_stub_for_libtelux_cv2x
-Wl,--defsym=_ZThn32_N5telux4cv2x21ServiceStatusListenerD1Ev=so_stub_for_libtelux_cv2x
-Wl,--defsym=_ZThn40_N5telux4cv2x21ServiceStatusListener15onCv2xStatusIndERKNS_3qmi13Cv2xStatusIndE=so_stub_for_libtelux_cv2x
-Wl,--defsym=_ZThn40_N5telux4cv2x21ServiceStatusListener15onSlssRxInfoIndERKNS_3qmi14Cv2xSlssRxInfoE=so_stub_for_libtelux_cv2x
-Wl,--defsym=_ZThn40_N5telux4cv2x21ServiceStatusListener22onCv2xQmiServiceChangeENS_6common13ServiceStatusE=so_stub_for_libtelux_cv2x
-Wl,--defsym=_ZThn40_N5telux4cv2x21ServiceStatusListenerD0Ev=so_stub_for_libtelux_cv2x
-Wl,--defsym=_ZThn40_N5telux4cv2x21ServiceStatusListenerD1Ev=so_stub_for_libtelux_cv2x
-Wl,--defsym=_ZThn48_N5telux4cv2x21ServiceStatusListener21onIpcCv2xStatusChangeERKNS0_16Cv2xIpcV2xStatusE=so_stub_for_libtelux_cv2x
-Wl,--defsym=_ZThn48_N5telux4cv2x21ServiceStatusListener23onIPCServiceStateChangeENS_6common13ServiceStatusE=so_stub_for_libtelux_cv2x
-Wl,--defsym=_ZThn48_N5telux4cv2x21ServiceStatusListenerD0Ev=so_stub_for_libtelux_cv2x
-Wl,--defsym=_ZThn48_N5telux4cv2x21ServiceStatusListenerD1Ev=so_stub_for_libtelux_cv2x
-Wl,--defsym=_ZThn8_N5telux4cv2x16Cv2xIndsListener15onL2AddrChangedEj=so_stub_for_libtelux_cv2x
-Wl,--defsym=_ZThn8_N5telux4cv2x16Cv2xIndsListener21onCapabilitiesChangedERKNS0_21Cv2xRadioCapabilitiesE=so_stub_for_libtelux_cv2x
-Wl,--defsym=_ZThn8_N5telux4cv2x16Cv2xIndsListener22onSpsSchedulingChangedERKNS0_17SpsSchedulingInfoE=so_stub_for_libtelux_cv2x
-Wl,--defsym=_ZThn8_N5telux4cv2x16Cv2xIndsListenerD0Ev=so_stub_for_libtelux_cv2x
-Wl,--defsym=_ZThn8_N5telux4cv2x16Cv2xIndsListenerD1Ev=so_stub_for_libtelux_cv2x
-Wl,--defsym=_ZThn8_N5telux4cv2x18Cv2xConfigListenerD0Ev=so_stub_for_libtelux_cv2x
-Wl,--defsym=_ZThn8_N5telux4cv2x18Cv2xConfigListenerD1Ev=so_stub_for_libtelux_cv2x
-Wl,--defsym=_ZThn8_N5telux4cv2x21ServiceStatusListenerD0Ev=so_stub_for_libtelux_cv2x
-Wl,--defsym=_ZThn8_N5telux4cv2x21ServiceStatusListenerD1Ev=so_stub_for_libtelux_cv2x
-Wl,--defsym=_ZThn8_N5telux4cv2x22Cv2xSysRequestResponse21onServiceStatusChangeENS_6common13ServiceStatusE=so_stub_for_libtelux_cv2x
-Wl,--defsym=_ZThn8_N5telux4cv2x22Cv2xSysRequestResponseD0Ev=so_stub_for_libtelux_cv2x
-Wl,--defsym=_ZThn8_N5telux4cv2x22Cv2xSysRequestResponseD1Ev=so_stub_for_libtelux_cv2x
-Wl,--defsym=_ZThn8_N5telux4cv2x25QmiSetEventReportCallback24onDmsServiceStatusChangeENS_6common13ServiceStatusEi=so_stub_for_libtelux_cv2x
-Wl,--defsym=_ZThn8_N5telux4cv2x25QmiSetEventReportCallbackD0Ev=so_stub_for_libtelux_cv2x
-Wl,--defsym=_ZThn8_N5telux4cv2x25QmiSetEventReportCallbackD1Ev=so_stub_for_libtelux_cv2x
-Wl,--defsym=_ZThn8_N5telux4cv2x27QmiGetOperatingModeCallback24onDmsServiceStatusChangeENS_6common13ServiceStatusEi=so_stub_for_libtelux_cv2x
-Wl,--defsym=_ZThn8_N5telux4cv2x27QmiGetOperatingModeCallbackD0Ev=so_stub_for_libtelux_cv2x
-Wl,--defsym=_ZThn8_N5telux4cv2x27QmiGetOperatingModeCallbackD1Ev=so_stub_for_libtelux_cv2x
-Wl,--defsym=_ZThn8_N5telux4cv2x27QmiSetOperatingModeCallback24onDmsServiceStatusChangeENS_6common13ServiceStatusEi=so_stub_for_libtelux_cv2x
-Wl,--defsym=_ZThn8_N5telux4cv2x27QmiSetOperatingModeCallbackD0Ev=so_stub_for_libtelux_cv2x
-Wl,--defsym=_ZThn8_N5telux4cv2x27QmiSetOperatingModeCallbackD1Ev=so_stub_for_libtelux_cv2x
-Wl,--defsym=_ZThn8_N5telux4cv2x31SysctrlGetConfigurationCallbackD0Ev=so_stub_for_libtelux_cv2x
-Wl,--defsym=_ZThn8_N5telux4cv2x31SysctrlGetConfigurationCallbackD1Ev=so_stub_for_libtelux_cv2x
-Wl,--defsym=_ZTIFvPKN5telux4cv2x11Cv2xIPCRespEPvE=so_stub_for_libtelux_cv2x
-Wl,--defsym=_ZTIN5telux3qmi10IQmiCv2xCbE=so_stub_for_libtelux_cv2x
-Wl,--defsym=_ZTIN5telux3qmi12IQmiListenerE=so_stub_for_libtelux_cv2x
-Wl,--defsym=_ZTIN5telux3qmi15IQmiDmsListenerE=so_stub_for_libtelux_cv2x
-Wl,--defsym=_ZTIN5telux3qmi16ICv2xQmiListenerE=so_stub_for_libtelux_cv2x
-Wl,--defsym=_ZTIN5telux3qmi16IQmiCV2xStatusCbE=so_stub_for_libtelux_cv2x
-Wl,--defsym=_ZTIN5telux3qmi19IQmiGetSlssRxInfoCbE=so_stub_for_libtelux_cv2x
-Wl,--defsym=_ZTIN5telux3qmi26IQmiSetEventReportCallbackE=so_stub_for_libtelux_cv2x
-Wl,--defsym=_ZTIN5telux3qmi28IQmiGetOperatingModeCallbackE=so_stub_for_libtelux_cv2x
-Wl,--defsym=_ZTIN5telux3qmi28IQmiSetOperatingModeCallbackE=so_stub_for_libtelux_cv2x
-Wl,--defsym=_ZTIN5telux4cv2x10Cv2xConfigE=so_stub_for_libtelux_cv2x
-Wl,--defsym=_ZTIN5telux4cv2x10ICv2xRadioE=so_stub_for_libtelux_cv2x
-Wl,--defsym=_ZTIN5telux4cv2x11Cv2xFactoryE=so_stub_for_libtelux_cv2x
-Wl,--defsym=_ZTIN5telux4cv2x11ICv2xConfigE=so_stub_for_libtelux_cv2x
-Wl,--defsym=_ZTIN5telux4cv2x11ICv2xTxFlowE=so_stub_for_libtelux_cv2x
-Wl,--defsym=_ZTIN5telux4cv2x12DsiCv2xRadioE=so_stub_for_libtelux_cv2x
-Wl,--defsym=_ZTIN5telux4cv2x13Cv2xTxSpsFlowE=so_stub_for_libtelux_cv2x
-Wl,--defsym=_ZTIN5telux4cv2x13EventInfoBaseE=so_stub_for_libtelux_cv2x
-Wl,--defsym=_ZTIN5telux4cv2x13ICv2xListenerE=so_stub_for_libtelux_cv2x
-Wl,--defsym=_ZTIN5telux4cv2x14Cv2xTxRxSocketE=so_stub_for_libtelux_cv2x
-Wl,--defsym=_ZTIN5telux4cv2x14ICv2xIpcClientE=so_stub_for_libtelux_cv2x
-Wl,--defsym=_ZTIN5telux4cv2x14ICv2xIpcServerE=so_stub_for_libtelux_cv2x
-Wl,--defsym=_ZTIN5telux4cv2x15Cv2xFactoryImplE=so_stub_for_libtelux_cv2x
-Wl,--defsym=_ZTIN5telux4cv2x15Cv2xTxEventFlowE=so_stub_for_libtelux_cv2x
-Wl,--defsym=_ZTIN5telux4cv2x15ICv2xTxRxSocketE=so_stub_for_libtelux_cv2x
-Wl,--defsym=_ZTIN5telux4cv2x15QmiCv2xCommonCbE=so_stub_for_libtelux_cv2x
-Wl,--defsym=_ZTIN5telux4cv2x16Cv2xIndsListenerE=so_stub_for_libtelux_cv2x
-Wl,--defsym=_ZTIN5telux4cv2x16Cv2xRadioManagerE=so_stub_for_libtelux_cv2x
-Wl,--defsym=_ZTIN5telux4cv2x16ICv2xIpcListenerE=so_stub_for_libtelux_cv2x
-Wl,--defsym=_ZTIN5telux4cv2x17ICv2xRadioManagerE=so_stub_for_libtelux_cv2x
-Wl,--defsym=_ZTIN5telux4cv2x18Cv2xConfigListenerE=so_stub_for_libtelux_cv2x
-Wl,--defsym=_ZTIN5telux4cv2x18Cv2xRxSubscriptionE=so_stub_for_libtelux_cv2x
-Wl,--defsym=_ZTIN5telux4cv2x18ICv2xRadioListenerE=so_stub_for_libtelux_cv2x
-Wl,--defsym=_ZTIN5telux4cv2x18IIpcServerListenerE=so_stub_for_libtelux_cv2x
-Wl,--defsym=_ZTIN5telux4cv2x19Cv2xIpcSocketClientE=so_stub_for_libtelux_cv2x
-Wl,--defsym=_ZTIN5telux4cv2x19Cv2xIpcSocketServerE=so_stub_for_libtelux_cv2x
-Wl,--defsym=_ZTIN5telux4cv2x19Cv2xThrottleManagerE=so_stub_for_libtelux_cv2x
-Wl,--defsym=_ZTIN5telux4cv2x19ICv2xConfigListenerE=so_stub_for_libtelux_cv2x
-Wl,--defsym=_ZTIN5telux4cv2x19ICv2xRxSubscriptionE=so_stub_for_libtelux_cv2x
-Wl,--defsym=_ZTIN5telux4cv2x19QmiV2xStartCallbackE=so_stub_for_libtelux_cv2x
-Wl,--defsym=_ZTIN5telux4cv2x20ICv2xSysCtrlListenerE=so_stub_for_libtelux_cv2x
-Wl,--defsym=_ZTIN5telux4cv2x20ICv2xThrottleManagerE=so_stub_for_libtelux_cv2x
-Wl,--defsym=_ZTIN5telux4cv2x20QmiV2xStatusCallbackE=so_stub_for_libtelux_cv2x
-Wl,--defsym=_ZTIN5telux4cv2x21QmiGetV2xSlssRxInfoCbE=so_stub_for_libtelux_cv2x
-Wl,--defsym=_ZTIN5telux4cv2x21ServiceStatusListenerE=so_stub_for_libtelux_cv2x
-Wl,--defsym=_ZTIN5telux4cv2x22Cv2xSysRequestResponseE=so_stub_for_libtelux_cv2x
-Wl,--defsym=_ZTIN5telux4cv2x22QmiV2xStatusCallbackExE=so_stub_for_libtelux_cv2x
-Wl,--defsym=_ZTIN5telux4cv2x22TxStatusReportListenerE=so_stub_for_libtelux_cv2x
-Wl,--defsym=_ZTIN5telux4cv2x22V2xWrConfigurationCtrlE=so_stub_for_libtelux_cv2x
-Wl,--defsym=_ZTIN5telux4cv2x25QmiSetEventReportCallbackE=so_stub_for_libtelux_cv2x
-Wl,--defsym=_ZTIN5telux4cv2x27QmiGetOperatingModeCallbackE=so_stub_for_libtelux_cv2x
-Wl,--defsym=_ZTIN5telux4cv2x27QmiSetOperatingModeCallbackE=so_stub_for_libtelux_cv2x
-Wl,--defsym=_ZTIN5telux4cv2x28ICv2xThrottleManagerListenerE=so_stub_for_libtelux_cv2x
-Wl,--defsym=_ZTIN5telux4cv2x31SysctrlGetConfigurationCallbackE=so_stub_for_libtelux_cv2x
-Wl,--defsym=_ZTIN5telux4cv2x9EventInfoINS0_14IndicationDataEEE=so_stub_for_libtelux_cv2x
-Wl,--defsym=_ZTIN5telux4cv2x9EventInfoINS0_17ServiceStatusDataEEE=so_stub_for_libtelux_cv2x
-Wl,--defsym=_ZTIN5telux4data23IDataConnectionListenerE=so_stub_for_libtelux_cv2x
-Wl,--defsym=_ZTIN5telux6common12ISDKListenerE=so_stub_for_libtelux_cv2x
-Wl,--defsym=_ZTIN5telux6common16ICommandCallbackE=so_stub_for_libtelux_cv2x
-Wl,--defsym=_ZTIN5telux6common22IServiceStatusListenerE=so_stub_for_libtelux_cv2x
-Wl,--defsym=_ZTINSt13__future_base12_Task_setterISt10unique_ptrINS_7_ResultIvEENS_12_Result_base8_DeleterEENSt6thread8_InvokerISt5tupleIJZN5telux6common14AsyncTaskQueueIvE3addIRZNSA_4cv2x16Cv2xIndsListener15onL2AddrChangedEjEUlvE_SG_EENSB_6StatusEOT_St8weak_ptrIT0_ESt6launchEUlvE0_EEEEvEE=so_stub_for_libtelux_cv2x
-Wl,--defsym=_ZTINSt13__future_base12_Task_setterISt10unique_ptrINS_7_ResultIvEENS_12_Result_base8_DeleterEENSt6thread8_InvokerISt5tupleIJZN5telux6common14AsyncTaskQueueIvE3addIRZNSA_4cv2x16Cv2xIndsListener19onIpcDataCallChangeERKNSF_15Cv2xIpcDataCallEEUlvE_NSF_12DsiCv2xRadioEEENSB_6StatusEOT_St8weak_ptrIT0_ESt6launchEUlvE0_EEEEvEE=so_stub_for_libtelux_cv2x
-Wl,--defsym=_ZTINSt13__future_base12_Task_setterISt10unique_ptrINS_7_ResultIvEENS_12_Result_base8_DeleterEENSt6thread8_InvokerISt5tupleIJZN5telux6common14AsyncTaskQueueIvE3addIRZNSA_4cv2x16Cv2xIndsListener21onIpcCv2xStatusChangeERKNSF_16Cv2xIpcV2xStatusEEUlvE_SG_EENSB_6StatusEOT_St8weak_ptrIT0_ESt6launchEUlvE0_EEEEvEE=so_stub_for_libtelux_cv2x
-Wl,--defsym=_ZTINSt13__future_base13_State_baseV27_SetterIN5telux6common9ErrorCodeEOS4_EE=so_stub_for_libtelux_cv2x
-Wl,--defsym=_ZTINSt13__future_base13_State_baseV27_SetterIN5telux6common9ErrorCodeERKS4_EE=so_stub_for_libtelux_cv2x
-Wl,--defsym=_ZTINSt13__future_base13_State_baseV2E=so_stub_for_libtelux_cv2x
-Wl,--defsym=_ZTINSt13__future_base15_Deferred_stateINSt6thread8_InvokerISt5tupleIJZN5telux6common14AsyncTaskQueueIvE3addIRZNS4_4cv2x16Cv2xIndsListener15onL2AddrChangedEjEUlvE_SA_EENS5_6StatusEOT_St8weak_ptrIT0_ESt6launchEUlvE0_EEEEvEE=so_stub_for_libtelux_cv2x
-Wl,--defsym=_ZTINSt13__future_base15_Deferred_stateINSt6thread8_InvokerISt5tupleIJZN5telux6common14AsyncTaskQueueIvE3addIRZNS4_4cv2x16Cv2xIndsListener19onIpcDataCallChangeERKNS9_15Cv2xIpcDataCallEEUlvE_NS9_12DsiCv2xRadioEEENS5_6StatusEOT_St8weak_ptrIT0_ESt6launchEUlvE0_EEEEvEE=so_stub_for_libtelux_cv2x
-Wl,--defsym=_ZTINSt13__future_base15_Deferred_stateINSt6thread8_InvokerISt5tupleIJZN5telux6common14AsyncTaskQueueIvE3addIRZNS4_4cv2x16Cv2xIndsListener21onIpcCv2xStatusChangeERKNS9_16Cv2xIpcV2xStatusEEUlvE_SA_EENS5_6StatusEOT_St8weak_ptrIT0_ESt6launchEUlvE0_EEEEvEE=so_stub_for_libtelux_cv2x
-Wl,--defsym=_ZTINSt13__future_base21_Async_state_commonV2E=so_stub_for_libtelux_cv2x
-Wl,--defsym=_ZTINSt13__future_base7_ResultIbEE=so_stub_for_libtelux_cv2x
-Wl,--defsym=_ZTINSt13__future_base7_ResultIN5telux6common6StatusEEE=so_stub_for_libtelux_cv2x
-Wl,--defsym=_ZTINSt13__future_base7_ResultIN5telux6common9ErrorCodeEEE=so_stub_for_libtelux_cv2x
-Wl,--defsym=_ZTINSt13__future_base7_ResultIvEE=so_stub_for_libtelux_cv2x
-Wl,--defsym=_ZTINSt6thread11_State_implINS_8_InvokerISt5tupleIJMN5telux6common14AsyncTaskQueueIvEEFvvEPS6_EEEEEE=so_stub_for_libtelux_cv2x
-Wl,--defsym=_ZTINSt6thread11_State_implINS_8_InvokerISt5tupleIJSt8functionIFvN5telux6common13ServiceStatusEEES6_EEEEEE=so_stub_for_libtelux_cv2x
-Wl,--defsym=_ZTIPFvPKN5telux4cv2x11Cv2xIPCRespEPvE=so_stub_for_libtelux_cv2x
-Wl,--defsym=_ZTISt11_Mutex_baseILN9__gnu_cxx12_Lock_policyE2EE=so_stub_for_libtelux_cv2x
-Wl,--defsym=_ZTISt15_Sp_counted_ptrIPN5telux4cv2x19Cv2xIpcSocketClientELN9__gnu_cxx12_Lock_policyE2EE=so_stub_for_libtelux_cv2x
-Wl,--defsym=_ZTISt15_Sp_counted_ptrIPN5telux4cv2x19Cv2xIpcSocketServerELN9__gnu_cxx12_Lock_policyE2EE=so_stub_for_libtelux_cv2x
-Wl,--defsym=_ZTISt16_Sp_counted_baseILN9__gnu_cxx12_Lock_policyE2EE=so_stub_for_libtelux_cv2x
-Wl,--defsym=_ZTISt17_Weak_result_typeIMN5telux4cv2x11Cv2xSysCtrlEFvSt10shared_ptrINS1_14IndicationDataEEEE=so_stub_for_libtelux_cv2x
-Wl,--defsym=_ZTISt17_Weak_result_typeIMN5telux4cv2x11Cv2xSysCtrlEFvSt10shared_ptrINS1_17ServiceStatusDataEEEE=so_stub_for_libtelux_cv2x
-Wl,--defsym=_ZTISt17_Weak_result_typeIMN5telux4cv2x16Cv2xRadioManagerEFNS0_6common9ErrorCodeEiSt10shared_ptrINS1_10Cv2xIPCReqEES5_INS1_11Cv2xIPCRespEEEE=so_stub_for_libtelux_cv2x
-Wl,--defsym=_ZTISt17_Weak_result_typeIMN5telux4cv2x19Cv2xThrottleManagerEFv12Sanity_stateEE=so_stub_for_libtelux_cv2x
-Wl,--defsym=_ZTISt17_Weak_result_typeIMN5telux4cv2x19Cv2xThrottleManagerEFv9Tm_statusEE=so_stub_for_libtelux_cv2x
-Wl,--defsym=_ZTISt17_Weak_result_typeIMN5telux4cv2x19Cv2xThrottleManagerEFviEE=so_stub_for_libtelux_cv2x
-Wl,--defsym=_ZTISt23_Sp_counted_ptr_inplaceIN5telux4cv2x10Cv2xConfigESaIS2_ELN9__gnu_cxx12_Lock_policyE2EE=so_stub_for_libtelux_cv2x
-Wl,--defsym=_ZTISt23_Sp_counted_ptr_inplaceIN5telux4cv2x10Cv2xIPCReqESaIS2_ELN9__gnu_cxx12_Lock_policyE2EE=so_stub_for_libtelux_cv2x
-Wl,--defsym=_ZTISt23_Sp_counted_ptr_inplaceIN5telux4cv2x11Cv2xIPCRespESaIS2_ELN9__gnu_cxx12_Lock_policyE2EE=so_stub_for_libtelux_cv2x
-Wl,--defsym=_ZTISt23_Sp_counted_ptr_inplaceIN5telux4cv2x11Cv2xSysCtrlESaIS2_ELN9__gnu_cxx12_Lock_policyE2EE=so_stub_for_libtelux_cv2x
-Wl,--defsym=_ZTISt23_Sp_counted_ptr_inplaceIN5telux4cv2x12DsiCv2xRadioESaIS2_ELN9__gnu_cxx12_Lock_policyE2EE=so_stub_for_libtelux_cv2x
-Wl,--defsym=_ZTISt23_Sp_counted_ptr_inplaceIN5telux4cv2x12EventHandlerESaIS2_ELN9__gnu_cxx12_Lock_policyE2EE=so_stub_for_libtelux_cv2x
-Wl,--defsym=_ZTISt23_Sp_counted_ptr_inplaceIN5telux4cv2x13Cv2xTxSpsFlowESaIS2_ELN9__gnu_cxx12_Lock_policyE2EE=so_stub_for_libtelux_cv2x
-Wl,--defsym=_ZTISt23_Sp_counted_ptr_inplaceIN5telux4cv2x14Cv2xTxRxSocketESaIS2_ELN9__gnu_cxx12_Lock_policyE2EE=so_stub_for_libtelux_cv2x
-Wl,--defsym=_ZTISt23_Sp_counted_ptr_inplaceIN5telux4cv2x14IndicationDataESaIS2_ELN9__gnu_cxx12_Lock_policyE2EE=so_stub_for_libtelux_cv2x
-Wl,--defsym=_ZTISt23_Sp_counted_ptr_inplaceIN5telux4cv2x15Cv2xTxEventFlowESaIS2_ELN9__gnu_cxx12_Lock_policyE2EE=so_stub_for_libtelux_cv2x
-Wl,--defsym=_ZTISt23_Sp_counted_ptr_inplaceIN5telux4cv2x15EventDispatcherESaIS2_ELN9__gnu_cxx12_Lock_policyE2EE=so_stub_for_libtelux_cv2x
-Wl,--defsym=_ZTISt23_Sp_counted_ptr_inplaceIN5telux4cv2x15QmiCv2xCommonCbESaIS2_ELN9__gnu_cxx12_Lock_policyE2EE=so_stub_for_libtelux_cv2x
-Wl,--defsym=_ZTISt23_Sp_counted_ptr_inplaceIN5telux4cv2x16Cv2xIndsListenerESaIS2_ELN9__gnu_cxx12_Lock_policyE2EE=so_stub_for_libtelux_cv2x
-Wl,--defsym=_ZTISt23_Sp_counted_ptr_inplaceIN5telux4cv2x16Cv2xRadioManagerESaIS2_ELN9__gnu_cxx12_Lock_policyE2EE=so_stub_for_libtelux_cv2x
-Wl,--defsym=_ZTISt23_Sp_counted_ptr_inplaceIN5telux4cv2x17ServiceStatusDataESaIS2_ELN9__gnu_cxx12_Lock_policyE2EE=so_stub_for_libtelux_cv2x
-Wl,--defsym=_ZTISt23_Sp_counted_ptr_inplaceIN5telux4cv2x18Cv2xConfigListenerESaIS2_ELN9__gnu_cxx12_Lock_policyE2EE=so_stub_for_libtelux_cv2x
-Wl,--defsym=_ZTISt23_Sp_counted_ptr_inplaceIN5telux4cv2x18Cv2xRxSubscriptionESaIS2_ELN9__gnu_cxx12_Lock_policyE2EE=so_stub_for_libtelux_cv2x
-Wl,--defsym=_ZTISt23_Sp_counted_ptr_inplaceIN5telux4cv2x19Cv2xThrottleManagerESaIS2_ELN9__gnu_cxx12_Lock_policyE2EE=so_stub_for_libtelux_cv2x
-Wl,--defsym=_ZTISt23_Sp_counted_ptr_inplaceIN5telux4cv2x19QmiV2xStartCallbackESaIS2_ELN9__gnu_cxx12_Lock_policyE2EE=so_stub_for_libtelux_cv2x
-Wl,--defsym=_ZTISt23_Sp_counted_ptr_inplaceIN5telux4cv2x20QmiV2xStatusCallbackESaIS2_ELN9__gnu_cxx12_Lock_policyE2EE=so_stub_for_libtelux_cv2x
-Wl,--defsym=_ZTISt23_Sp_counted_ptr_inplaceIN5telux4cv2x21QmiGetV2xSlssRxInfoCbESaIS2_ELN9__gnu_cxx12_Lock_policyE2EE=so_stub_for_libtelux_cv2x
-Wl,--defsym=_ZTISt23_Sp_counted_ptr_inplaceIN5telux4cv2x21ServiceStatusListenerESaIS2_ELN9__gnu_cxx12_Lock_policyE2EE=so_stub_for_libtelux_cv2x
-Wl,--defsym=_ZTISt23_Sp_counted_ptr_inplaceIN5telux4cv2x22Cv2xSysRequestResponseESaIS2_ELN9__gnu_cxx12_Lock_policyE2EE=so_stub_for_libtelux_cv2x
-Wl,--defsym=_ZTISt23_Sp_counted_ptr_inplaceIN5telux4cv2x22QmiV2xStatusCallbackExESaIS2_ELN9__gnu_cxx12_Lock_policyE2EE=so_stub_for_libtelux_cv2x
-Wl,--defsym=_ZTISt23_Sp_counted_ptr_inplaceIN5telux4cv2x22TxStatusReportListenerESaIS2_ELN9__gnu_cxx12_Lock_policyE2EE=so_stub_for_libtelux_cv2x
-Wl,--defsym=_ZTISt23_Sp_counted_ptr_inplaceIN5telux4cv2x25QmiSetEventReportCallbackESaIS2_ELN9__gnu_cxx12_Lock_policyE2EE=so_stub_for_libtelux_cv2x
-Wl,--defsym=_ZTISt23_Sp_counted_ptr_inplaceIN5telux4cv2x27QmiGetOperatingModeCallbackESaIS2_ELN9__gnu_cxx12_Lock_policyE2EE=so_stub_for_libtelux_cv2x
-Wl,--defsym=_ZTISt23_Sp_counted_ptr_inplaceIN5telux4cv2x27QmiSetOperatingModeCallbackESaIS2_ELN9__gnu_cxx12_Lock_policyE2EE=so_stub_for_libtelux_cv2x
-Wl,--defsym=_ZTISt23_Sp_counted_ptr_inplaceIN5telux4cv2x31SysctrlGetConfigurationCallbackESaIS2_ELN9__gnu_cxx12_Lock_policyE2EE=so_stub_for_libtelux_cv2x
-Wl,--defsym=_ZTISt23_Sp_counted_ptr_inplaceIN5telux4cv2x9EventInfoINS1_14IndicationDataEEESaIS4_ELN9__gnu_cxx12_Lock_policyE2EE=so_stub_for_libtelux_cv2x
-Wl,--defsym=_ZTISt23_Sp_counted_ptr_inplaceIN5telux4cv2x9EventInfoINS1_17ServiceStatusDataEEESaIS4_ELN9__gnu_cxx12_Lock_policyE2EE=so_stub_for_libtelux_cv2x
-Wl,--defsym=_ZTISt23_Sp_counted_ptr_inplaceIN5telux6common14AsyncTaskQueueIvEESaIS3_ELN9__gnu_cxx12_Lock_policyE2EE=so_stub_for_libtelux_cv2x
-Wl,--defsym=_ZTISt23_Sp_counted_ptr_inplaceIN5telux6common15ListenerManagerESaIS2_ELN9__gnu_cxx12_Lock_policyE2EE=so_stub_for_libtelux_cv2x
-Wl,--defsym=_ZTISt23_Sp_counted_ptr_inplaceINSt13__future_base13_State_baseV2ESaIS1_ELN9__gnu_cxx12_Lock_policyE2EE=so_stub_for_libtelux_cv2x
-Wl,--defsym=_ZTISt23_Sp_counted_ptr_inplaceINSt13__future_base15_Deferred_stateINSt6thread8_InvokerISt5tupleIJZN5telux6common14AsyncTaskQueueIvE3addIRZNS5_4cv2x16Cv2xIndsListener15onL2AddrChangedEjEUlvE_SB_EENS6_6StatusEOT_St8weak_ptrIT0_ESt6launchEUlvE0_EEEEvEESaISO_ELN9__gnu_cxx12_Lock_policyE2EE=so_stub_for_libtelux_cv2x
-Wl,--defsym=_ZTISt23_Sp_counted_ptr_inplaceINSt13__future_base15_Deferred_stateINSt6thread8_InvokerISt5tupleIJZN5telux6common14AsyncTaskQueueIvE3addIRZNS5_4cv2x16Cv2xIndsListener19onIpcDataCallChangeERKNSA_15Cv2xIpcDataCallEEUlvE_NSA_12DsiCv2xRadioEEENS6_6StatusEOT_St8weak_ptrIT0_ESt6launchEUlvE0_EEEEvEESaISS_ELN9__gnu_cxx12_Lock_policyE2EE=so_stub_for_libtelux_cv2x
-Wl,--defsym=_ZTISt23_Sp_counted_ptr_inplaceINSt13__future_base15_Deferred_stateINSt6thread8_InvokerISt5tupleIJZN5telux6common14AsyncTaskQueueIvE3addIRZNS5_4cv2x16Cv2xIndsListener21onIpcCv2xStatusChangeERKNSA_16Cv2xIpcV2xStatusEEUlvE_SB_EENS6_6StatusEOT_St8weak_ptrIT0_ESt6launchEUlvE0_EEEEvEESaISR_ELN9__gnu_cxx12_Lock_policyE2EE=so_stub_for_libtelux_cv2x
-Wl,--defsym=_ZTISt23_Sp_counted_ptr_inplaceISt6threadSaIS0_ELN9__gnu_cxx12_Lock_policyE2EE=so_stub_for_libtelux_cv2x
-Wl,--defsym=_ZTISt23_Sp_counted_ptr_inplaceISt6vectorIjSaIjEESaIS2_ELN9__gnu_cxx12_Lock_policyE2EE=so_stub_for_libtelux_cv2x
-Wl,--defsym=_ZTISt23_Sp_counted_ptr_inplaceISt6vectorIN5telux4cv2x12IpcMessageIdESaIS3_EESaIS5_ELN9__gnu_cxx12_Lock_policyE2EE=so_stub_for_libtelux_cv2x
-Wl,--defsym=_ZTISt23_Sp_counted_ptr_inplaceISt6vectorIN5telux4cv2x17MessageAndHanlderESaIS3_EESaIS5_ELN9__gnu_cxx12_Lock_policyE2EE=so_stub_for_libtelux_cv2x
-Wl,--defsym=_ZTISt24_Weak_result_type_memfunIMN5telux4cv2x11Cv2xSysCtrlEFvSt10shared_ptrINS1_14IndicationDataEEELb1EE=so_stub_for_libtelux_cv2x
-Wl,--defsym=_ZTISt24_Weak_result_type_memfunIMN5telux4cv2x11Cv2xSysCtrlEFvSt10shared_ptrINS1_17ServiceStatusDataEEELb1EE=so_stub_for_libtelux_cv2x
-Wl,--defsym=_ZTISt24_Weak_result_type_memfunIMN5telux4cv2x16Cv2xRadioManagerEFNS0_6common9ErrorCodeEiSt10shared_ptrINS1_10Cv2xIPCReqEES5_INS1_11Cv2xIPCRespEEELb1EE=so_stub_for_libtelux_cv2x
-Wl,--defsym=_ZTISt24_Weak_result_type_memfunIMN5telux4cv2x19Cv2xThrottleManagerEFv12Sanity_stateELb1EE=so_stub_for_libtelux_cv2x
-Wl,--defsym=_ZTISt24_Weak_result_type_memfunIMN5telux4cv2x19Cv2xThrottleManagerEFv9Tm_statusELb1EE=so_stub_for_libtelux_cv2x
-Wl,--defsym=_ZTISt24_Weak_result_type_memfunIMN5telux4cv2x19Cv2xThrottleManagerEFviELb1EE=so_stub_for_libtelux_cv2x
-Wl,--defsym=_ZTISt5_BindIFMN5telux4cv2x11Cv2xSysCtrlEFvSt10shared_ptrINS1_14IndicationDataEEEPS2_St12_PlaceholderILi1EEEE=so_stub_for_libtelux_cv2x
-Wl,--defsym=_ZTISt5_BindIFMN5telux4cv2x11Cv2xSysCtrlEFvSt10shared_ptrINS1_17ServiceStatusDataEEEPS2_St12_PlaceholderILi1EEEE=so_stub_for_libtelux_cv2x
-Wl,--defsym=_ZTISt5_BindIFMN5telux4cv2x16Cv2xRadioManagerEFNS0_6common9ErrorCodeEiSt10shared_ptrINS1_10Cv2xIPCReqEES5_INS1_11Cv2xIPCRespEEEPS2_St12_PlaceholderILi1EESD_ILi2EESD_ILi3EEEE=so_stub_for_libtelux_cv2x
-Wl,--defsym=_ZTISt5_BindIFMN5telux4cv2x19Cv2xThrottleManagerEFv12Sanity_stateEPS2_St12_PlaceholderILi1EEEE=so_stub_for_libtelux_cv2x
-Wl,--defsym=_ZTISt5_BindIFMN5telux4cv2x19Cv2xThrottleManagerEFv9Tm_statusEPS2_St12_PlaceholderILi1EEEE=so_stub_for_libtelux_cv2x
-Wl,--defsym=_ZTISt5_BindIFMN5telux4cv2x19Cv2xThrottleManagerEFviEPS2_St12_PlaceholderILi1EEEE=so_stub_for_libtelux_cv2x
-Wl,--defsym=_ZTSFvPKN5telux4cv2x11Cv2xIPCRespEPvE=so_stub_for_libtelux_cv2x
-Wl,--defsym=_ZTSN5telux3qmi10IQmiCv2xCbE=so_stub_for_libtelux_cv2x
-Wl,--defsym=_ZTSN5telux3qmi12IQmiListenerE=so_stub_for_libtelux_cv2x
-Wl,--defsym=_ZTSN5telux3qmi15IQmiDmsListenerE=so_stub_for_libtelux_cv2x
-Wl,--defsym=_ZTSN5telux3qmi16ICv2xQmiListenerE=so_stub_for_libtelux_cv2x
-Wl,--defsym=_ZTSN5telux3qmi16IQmiCV2xStatusCbE=so_stub_for_libtelux_cv2x
-Wl,--defsym=_ZTSN5telux3qmi19IQmiGetSlssRxInfoCbE=so_stub_for_libtelux_cv2x
-Wl,--defsym=_ZTSN5telux3qmi26IQmiSetEventReportCallbackE=so_stub_for_libtelux_cv2x
-Wl,--defsym=_ZTSN5telux3qmi28IQmiGetOperatingModeCallbackE=so_stub_for_libtelux_cv2x
-Wl,--defsym=_ZTSN5telux3qmi28IQmiSetOperatingModeCallbackE=so_stub_for_libtelux_cv2x
-Wl,--defsym=_ZTSN5telux4cv2x10Cv2xConfigE=so_stub_for_libtelux_cv2x
-Wl,--defsym=_ZTSN5telux4cv2x10ICv2xRadioE=so_stub_for_libtelux_cv2x
-Wl,--defsym=_ZTSN5telux4cv2x11Cv2xFactoryE=so_stub_for_libtelux_cv2x
-Wl,--defsym=_ZTSN5telux4cv2x11ICv2xConfigE=so_stub_for_libtelux_cv2x
-Wl,--defsym=_ZTSN5telux4cv2x11ICv2xTxFlowE=so_stub_for_libtelux_cv2x
-Wl,--defsym=_ZTSN5telux4cv2x12DsiCv2xRadioE=so_stub_for_libtelux_cv2x
-Wl,--defsym=_ZTSN5telux4cv2x13Cv2xTxSpsFlowE=so_stub_for_libtelux_cv2x
-Wl,--defsym=_ZTSN5telux4cv2x13EventInfoBaseE=so_stub_for_libtelux_cv2x
-Wl,--defsym=_ZTSN5telux4cv2x13ICv2xListenerE=so_stub_for_libtelux_cv2x
-Wl,--defsym=_ZTSN5telux4cv2x14Cv2xTxRxSocketE=so_stub_for_libtelux_cv2x
-Wl,--defsym=_ZTSN5telux4cv2x14ICv2xIpcClientE=so_stub_for_libtelux_cv2x
-Wl,--defsym=_ZTSN5telux4cv2x14ICv2xIpcServerE=so_stub_for_libtelux_cv2x
-Wl,--defsym=_ZTSN5telux4cv2x15Cv2xFactoryImplE=so_stub_for_libtelux_cv2x
-Wl,--defsym=_ZTSN5telux4cv2x15Cv2xTxEventFlowE=so_stub_for_libtelux_cv2x
-Wl,--defsym=_ZTSN5telux4cv2x15ICv2xTxRxSocketE=so_stub_for_libtelux_cv2x
-Wl,--defsym=_ZTSN5telux4cv2x15QmiCv2xCommonCbE=so_stub_for_libtelux_cv2x
-Wl,--defsym=_ZTSN5telux4cv2x16Cv2xIndsListenerE=so_stub_for_libtelux_cv2x
-Wl,--defsym=_ZTSN5telux4cv2x16Cv2xRadioManagerE=so_stub_for_libtelux_cv2x
-Wl,--defsym=_ZTSN5telux4cv2x16ICv2xIpcListenerE=so_stub_for_libtelux_cv2x
-Wl,--defsym=_ZTSN5telux4cv2x17ICv2xRadioManagerE=so_stub_for_libtelux_cv2x
-Wl,--defsym=_ZTSN5telux4cv2x18Cv2xConfigListenerE=so_stub_for_libtelux_cv2x
-Wl,--defsym=_ZTSN5telux4cv2x18Cv2xRxSubscriptionE=so_stub_for_libtelux_cv2x
-Wl,--defsym=_ZTSN5telux4cv2x18ICv2xRadioListenerE=so_stub_for_libtelux_cv2x
-Wl,--defsym=_ZTSN5telux4cv2x18IIpcServerListenerE=so_stub_for_libtelux_cv2x
-Wl,--defsym=_ZTSN5telux4cv2x19Cv2xIpcSocketClientE=so_stub_for_libtelux_cv2x
-Wl,--defsym=_ZTSN5telux4cv2x19Cv2xIpcSocketServerE=so_stub_for_libtelux_cv2x
-Wl,--defsym=_ZTSN5telux4cv2x19Cv2xThrottleManagerE=so_stub_for_libtelux_cv2x
-Wl,--defsym=_ZTSN5telux4cv2x19ICv2xConfigListenerE=so_stub_for_libtelux_cv2x
-Wl,--defsym=_ZTSN5telux4cv2x19ICv2xRxSubscriptionE=so_stub_for_libtelux_cv2x
-Wl,--defsym=_ZTSN5telux4cv2x19QmiV2xStartCallbackE=so_stub_for_libtelux_cv2x
-Wl,--defsym=_ZTSN5telux4cv2x20ICv2xSysCtrlListenerE=so_stub_for_libtelux_cv2x
-Wl,--defsym=_ZTSN5telux4cv2x20ICv2xThrottleManagerE=so_stub_for_libtelux_cv2x
-Wl,--defsym=_ZTSN5telux4cv2x20QmiV2xStatusCallbackE=so_stub_for_libtelux_cv2x
-Wl,--defsym=_ZTSN5telux4cv2x21QmiGetV2xSlssRxInfoCbE=so_stub_for_libtelux_cv2x
-Wl,--defsym=_ZTSN5telux4cv2x21ServiceStatusListenerE=so_stub_for_libtelux_cv2x
-Wl,--defsym=_ZTSN5telux4cv2x22Cv2xSysRequestResponseE=so_stub_for_libtelux_cv2x
-Wl,--defsym=_ZTSN5telux4cv2x22QmiV2xStatusCallbackExE=so_stub_for_libtelux_cv2x
-Wl,--defsym=_ZTSN5telux4cv2x22TxStatusReportListenerE=so_stub_for_libtelux_cv2x
-Wl,--defsym=_ZTSN5telux4cv2x22V2xWrConfigurationCtrlE=so_stub_for_libtelux_cv2x
-Wl,--defsym=_ZTSN5telux4cv2x25QmiSetEventReportCallbackE=so_stub_for_libtelux_cv2x
-Wl,--defsym=_ZTSN5telux4cv2x27QmiGetOperatingModeCallbackE=so_stub_for_libtelux_cv2x
-Wl,--defsym=_ZTSN5telux4cv2x27QmiSetOperatingModeCallbackE=so_stub_for_libtelux_cv2x
-Wl,--defsym=_ZTSN5telux4cv2x28ICv2xThrottleManagerListenerE=so_stub_for_libtelux_cv2x
-Wl,--defsym=_ZTSN5telux4cv2x31SysctrlGetConfigurationCallbackE=so_stub_for_libtelux_cv2x
-Wl,--defsym=_ZTSN5telux4cv2x9EventInfoINS0_14IndicationDataEEE=so_stub_for_libtelux_cv2x
-Wl,--defsym=_ZTSN5telux4cv2x9EventInfoINS0_17ServiceStatusDataEEE=so_stub_for_libtelux_cv2x
-Wl,--defsym=_ZTSN5telux4data23IDataConnectionListenerE=so_stub_for_libtelux_cv2x
-Wl,--defsym=_ZTSN5telux6common12ISDKListenerE=so_stub_for_libtelux_cv2x
-Wl,--defsym=_ZTSN5telux6common16ICommandCallbackE=so_stub_for_libtelux_cv2x
-Wl,--defsym=_ZTSN5telux6common22IServiceStatusListenerE=so_stub_for_libtelux_cv2x
-Wl,--defsym=_ZTSNSt13__future_base12_Task_setterISt10unique_ptrINS_7_ResultIvEENS_12_Result_base8_DeleterEENSt6thread8_InvokerISt5tupleIJZN5telux6common14AsyncTaskQueueIvE3addIRZNSA_4cv2x16Cv2xIndsListener15onL2AddrChangedEjEUlvE_SG_EENSB_6StatusEOT_St8weak_ptrIT0_ESt6launchEUlvE0_EEEEvEE=so_stub_for_libtelux_cv2x
-Wl,--defsym=_ZTSNSt13__future_base12_Task_setterISt10unique_ptrINS_7_ResultIvEENS_12_Result_base8_DeleterEENSt6thread8_InvokerISt5tupleIJZN5telux6common14AsyncTaskQueueIvE3addIRZNSA_4cv2x16Cv2xIndsListener19onIpcDataCallChangeERKNSF_15Cv2xIpcDataCallEEUlvE_NSF_12DsiCv2xRadioEEENSB_6StatusEOT_St8weak_ptrIT0_ESt6launchEUlvE0_EEEEvEE=so_stub_for_libtelux_cv2x
-Wl,--defsym=_ZTSNSt13__future_base12_Task_setterISt10unique_ptrINS_7_ResultIvEENS_12_Result_base8_DeleterEENSt6thread8_InvokerISt5tupleIJZN5telux6common14AsyncTaskQueueIvE3addIRZNSA_4cv2x16Cv2xIndsListener21onIpcCv2xStatusChangeERKNSF_16Cv2xIpcV2xStatusEEUlvE_SG_EENSB_6StatusEOT_St8weak_ptrIT0_ESt6launchEUlvE0_EEEEvEE=so_stub_for_libtelux_cv2x
-Wl,--defsym=_ZTSNSt13__future_base13_State_baseV27_SetterIN5telux6common9ErrorCodeEOS4_EE=so_stub_for_libtelux_cv2x
-Wl,--defsym=_ZTSNSt13__future_base13_State_baseV27_SetterIN5telux6common9ErrorCodeERKS4_EE=so_stub_for_libtelux_cv2x
-Wl,--defsym=_ZTSNSt13__future_base13_State_baseV2E=so_stub_for_libtelux_cv2x
-Wl,--defsym=_ZTSNSt13__future_base15_Deferred_stateINSt6thread8_InvokerISt5tupleIJZN5telux6common14AsyncTaskQueueIvE3addIRZNS4_4cv2x16Cv2xIndsListener15onL2AddrChangedEjEUlvE_SA_EENS5_6StatusEOT_St8weak_ptrIT0_ESt6launchEUlvE0_EEEEvEE=so_stub_for_libtelux_cv2x
-Wl,--defsym=_ZTSNSt13__future_base15_Deferred_stateINSt6thread8_InvokerISt5tupleIJZN5telux6common14AsyncTaskQueueIvE3addIRZNS4_4cv2x16Cv2xIndsListener19onIpcDataCallChangeERKNS9_15Cv2xIpcDataCallEEUlvE_NS9_12DsiCv2xRadioEEENS5_6StatusEOT_St8weak_ptrIT0_ESt6launchEUlvE0_EEEEvEE=so_stub_for_libtelux_cv2x
-Wl,--defsym=_ZTSNSt13__future_base15_Deferred_stateINSt6thread8_InvokerISt5tupleIJZN5telux6common14AsyncTaskQueueIvE3addIRZNS4_4cv2x16Cv2xIndsListener21onIpcCv2xStatusChangeERKNS9_16Cv2xIpcV2xStatusEEUlvE_SA_EENS5_6StatusEOT_St8weak_ptrIT0_ESt6launchEUlvE0_EEEEvEE=so_stub_for_libtelux_cv2x
-Wl,--defsym=_ZTSNSt13__future_base21_Async_state_commonV2E=so_stub_for_libtelux_cv2x
-Wl,--defsym=_ZTSNSt13__future_base7_ResultIbEE=so_stub_for_libtelux_cv2x
-Wl,--defsym=_ZTSNSt13__future_base7_ResultIN5telux6common6StatusEEE=so_stub_for_libtelux_cv2x
-Wl,--defsym=_ZTSNSt13__future_base7_ResultIN5telux6common9ErrorCodeEEE=so_stub_for_libtelux_cv2x
-Wl,--defsym=_ZTSNSt13__future_base7_ResultIvEE=so_stub_for_libtelux_cv2x
-Wl,--defsym=_ZTSNSt6thread11_State_implINS_8_InvokerISt5tupleIJMN5telux6common14AsyncTaskQueueIvEEFvvEPS6_EEEEEE=so_stub_for_libtelux_cv2x
-Wl,--defsym=_ZTSNSt6thread11_State_implINS_8_InvokerISt5tupleIJSt8functionIFvN5telux6common13ServiceStatusEEES6_EEEEEE=so_stub_for_libtelux_cv2x
-Wl,--defsym=_ZTSPFvPKN5telux4cv2x11Cv2xIPCRespEPvE=so_stub_for_libtelux_cv2x
-Wl,--defsym=_ZTSSt11_Mutex_baseILN9__gnu_cxx12_Lock_policyE2EE=so_stub_for_libtelux_cv2x
-Wl,--defsym=_ZTSSt15_Sp_counted_ptrIPN5telux4cv2x19Cv2xIpcSocketClientELN9__gnu_cxx12_Lock_policyE2EE=so_stub_for_libtelux_cv2x
-Wl,--defsym=_ZTSSt15_Sp_counted_ptrIPN5telux4cv2x19Cv2xIpcSocketServerELN9__gnu_cxx12_Lock_policyE2EE=so_stub_for_libtelux_cv2x
-Wl,--defsym=_ZTSSt16_Sp_counted_baseILN9__gnu_cxx12_Lock_policyE2EE=so_stub_for_libtelux_cv2x
-Wl,--defsym=_ZTSSt17_Weak_result_typeIMN5telux4cv2x11Cv2xSysCtrlEFvSt10shared_ptrINS1_14IndicationDataEEEE=so_stub_for_libtelux_cv2x
-Wl,--defsym=_ZTSSt17_Weak_result_typeIMN5telux4cv2x11Cv2xSysCtrlEFvSt10shared_ptrINS1_17ServiceStatusDataEEEE=so_stub_for_libtelux_cv2x
-Wl,--defsym=_ZTSSt17_Weak_result_typeIMN5telux4cv2x16Cv2xRadioManagerEFNS0_6common9ErrorCodeEiSt10shared_ptrINS1_10Cv2xIPCReqEES5_INS1_11Cv2xIPCRespEEEE=so_stub_for_libtelux_cv2x
-Wl,--defsym=_ZTSSt17_Weak_result_typeIMN5telux4cv2x19Cv2xThrottleManagerEFv12Sanity_stateEE=so_stub_for_libtelux_cv2x
-Wl,--defsym=_ZTSSt17_Weak_result_typeIMN5telux4cv2x19Cv2xThrottleManagerEFv9Tm_statusEE=so_stub_for_libtelux_cv2x
-Wl,--defsym=_ZTSSt17_Weak_result_typeIMN5telux4cv2x19Cv2xThrottleManagerEFviEE=so_stub_for_libtelux_cv2x
-Wl,--defsym=_ZTSSt19_Sp_make_shared_tag=so_stub_for_libtelux_cv2x
-Wl,--defsym=_ZTSSt23_Sp_counted_ptr_inplaceIN5telux4cv2x10Cv2xConfigESaIS2_ELN9__gnu_cxx12_Lock_policyE2EE=so_stub_for_libtelux_cv2x
-Wl,--defsym=_ZTSSt23_Sp_counted_ptr_inplaceIN5telux4cv2x10Cv2xIPCReqESaIS2_ELN9__gnu_cxx12_Lock_policyE2EE=so_stub_for_libtelux_cv2x
-Wl,--defsym=_ZTSSt23_Sp_counted_ptr_inplaceIN5telux4cv2x11Cv2xIPCRespESaIS2_ELN9__gnu_cxx12_Lock_policyE2EE=so_stub_for_libtelux_cv2x
-Wl,--defsym=_ZTSSt23_Sp_counted_ptr_inplaceIN5telux4cv2x11Cv2xSysCtrlESaIS2_ELN9__gnu_cxx12_Lock_policyE2EE=so_stub_for_libtelux_cv2x
-Wl,--defsym=_ZTSSt23_Sp_counted_ptr_inplaceIN5telux4cv2x12DsiCv2xRadioESaIS2_ELN9__gnu_cxx12_Lock_policyE2EE=so_stub_for_libtelux_cv2x
-Wl,--defsym=_ZTSSt23_Sp_counted_ptr_inplaceIN5telux4cv2x12EventHandlerESaIS2_ELN9__gnu_cxx12_Lock_policyE2EE=so_stub_for_libtelux_cv2x
-Wl,--defsym=_ZTSSt23_Sp_counted_ptr_inplaceIN5telux4cv2x13Cv2xTxSpsFlowESaIS2_ELN9__gnu_cxx12_Lock_policyE2EE=so_stub_for_libtelux_cv2x
-Wl,--defsym=_ZTSSt23_Sp_counted_ptr_inplaceIN5telux4cv2x14Cv2xTxRxSocketESaIS2_ELN9__gnu_cxx12_Lock_policyE2EE=so_stub_for_libtelux_cv2x
-Wl,--defsym=_ZTSSt23_Sp_counted_ptr_inplaceIN5telux4cv2x14IndicationDataESaIS2_ELN9__gnu_cxx12_Lock_policyE2EE=so_stub_for_libtelux_cv2x
-Wl,--defsym=_ZTSSt23_Sp_counted_ptr_inplaceIN5telux4cv2x15Cv2xTxEventFlowESaIS2_ELN9__gnu_cxx12_Lock_policyE2EE=so_stub_for_libtelux_cv2x
-Wl,--defsym=_ZTSSt23_Sp_counted_ptr_inplaceIN5telux4cv2x15EventDispatcherESaIS2_ELN9__gnu_cxx12_Lock_policyE2EE=so_stub_for_libtelux_cv2x
-Wl,--defsym=_ZTSSt23_Sp_counted_ptr_inplaceIN5telux4cv2x15QmiCv2xCommonCbESaIS2_ELN9__gnu_cxx12_Lock_policyE2EE=so_stub_for_libtelux_cv2x
-Wl,--defsym=_ZTSSt23_Sp_counted_ptr_inplaceIN5telux4cv2x16Cv2xIndsListenerESaIS2_ELN9__gnu_cxx12_Lock_policyE2EE=so_stub_for_libtelux_cv2x
-Wl,--defsym=_ZTSSt23_Sp_counted_ptr_inplaceIN5telux4cv2x16Cv2xRadioManagerESaIS2_ELN9__gnu_cxx12_Lock_policyE2EE=so_stub_for_libtelux_cv2x
-Wl,--defsym=_ZTSSt23_Sp_counted_ptr_inplaceIN5telux4cv2x17ServiceStatusDataESaIS2_ELN9__gnu_cxx12_Lock_policyE2EE=so_stub_for_libtelux_cv2x
-Wl,--defsym=_ZTSSt23_Sp_counted_ptr_inplaceIN5telux4cv2x18Cv2xConfigListenerESaIS2_ELN9__gnu_cxx12_Lock_policyE2EE=so_stub_for_libtelux_cv2x
-Wl,--defsym=_ZTSSt23_Sp_counted_ptr_inplaceIN5telux4cv2x18Cv2xRxSubscriptionESaIS2_ELN9__gnu_cxx12_Lock_policyE2EE=so_stub_for_libtelux_cv2x
-Wl,--defsym=_ZTSSt23_Sp_counted_ptr_inplaceIN5telux4cv2x19Cv2xThrottleManagerESaIS2_ELN9__gnu_cxx12_Lock_policyE2EE=so_stub_for_libtelux_cv2x
-Wl,--defsym=_ZTSSt23_Sp_counted_ptr_inplaceIN5telux4cv2x19QmiV2xStartCallbackESaIS2_ELN9__gnu_cxx12_Lock_policyE2EE=so_stub_for_libtelux_cv2x
-Wl,--defsym=_ZTSSt23_Sp_counted_ptr_inplaceIN5telux4cv2x20QmiV2xStatusCallbackESaIS2_ELN9__gnu_cxx12_Lock_policyE2EE=so_stub_for_libtelux_cv2x
-Wl,--defsym=_ZTSSt23_Sp_counted_ptr_inplaceIN5telux4cv2x21QmiGetV2xSlssRxInfoCbESaIS2_ELN9__gnu_cxx12_Lock_policyE2EE=so_stub_for_libtelux_cv2x
-Wl,--defsym=_ZTSSt23_Sp_counted_ptr_inplaceIN5telux4cv2x21ServiceStatusListenerESaIS2_ELN9__gnu_cxx12_Lock_policyE2EE=so_stub_for_libtelux_cv2x
-Wl,--defsym=_ZTSSt23_Sp_counted_ptr_inplaceIN5telux4cv2x22Cv2xSysRequestResponseESaIS2_ELN9__gnu_cxx12_Lock_policyE2EE=so_stub_for_libtelux_cv2x
-Wl,--defsym=_ZTSSt23_Sp_counted_ptr_inplaceIN5telux4cv2x22QmiV2xStatusCallbackExESaIS2_ELN9__gnu_cxx12_Lock_policyE2EE=so_stub_for_libtelux_cv2x
-Wl,--defsym=_ZTSSt23_Sp_counted_ptr_inplaceIN5telux4cv2x22TxStatusReportListenerESaIS2_ELN9__gnu_cxx12_Lock_policyE2EE=so_stub_for_libtelux_cv2x
-Wl,--defsym=_ZTSSt23_Sp_counted_ptr_inplaceIN5telux4cv2x25QmiSetEventReportCallbackESaIS2_ELN9__gnu_cxx12_Lock_policyE2EE=so_stub_for_libtelux_cv2x
-Wl,--defsym=_ZTSSt23_Sp_counted_ptr_inplaceIN5telux4cv2x27QmiGetOperatingModeCallbackESaIS2_ELN9__gnu_cxx12_Lock_policyE2EE=so_stub_for_libtelux_cv2x
-Wl,--defsym=_ZTSSt23_Sp_counted_ptr_inplaceIN5telux4cv2x27QmiSetOperatingModeCallbackESaIS2_ELN9__gnu_cxx12_Lock_policyE2EE=so_stub_for_libtelux_cv2x
-Wl,--defsym=_ZTSSt23_Sp_counted_ptr_inplaceIN5telux4cv2x31SysctrlGetConfigurationCallbackESaIS2_ELN9__gnu_cxx12_Lock_policyE2EE=so_stub_for_libtelux_cv2x
-Wl,--defsym=_ZTSSt23_Sp_counted_ptr_inplaceIN5telux4cv2x9EventInfoINS1_14IndicationDataEEESaIS4_ELN9__gnu_cxx12_Lock_policyE2EE=so_stub_for_libtelux_cv2x
-Wl,--defsym=_ZTSSt23_Sp_counted_ptr_inplaceIN5telux4cv2x9EventInfoINS1_17ServiceStatusDataEEESaIS4_ELN9__gnu_cxx12_Lock_policyE2EE=so_stub_for_libtelux_cv2x
-Wl,--defsym=_ZTSSt23_Sp_counted_ptr_inplaceIN5telux6common14AsyncTaskQueueIvEESaIS3_ELN9__gnu_cxx12_Lock_policyE2EE=so_stub_for_libtelux_cv2x
-Wl,--defsym=_ZTSSt23_Sp_counted_ptr_inplaceIN5telux6common15ListenerManagerESaIS2_ELN9__gnu_cxx12_Lock_policyE2EE=so_stub_for_libtelux_cv2x
-Wl,--defsym=_ZTSSt23_Sp_counted_ptr_inplaceINSt13__future_base13_State_baseV2ESaIS1_ELN9__gnu_cxx12_Lock_policyE2EE=so_stub_for_libtelux_cv2x
-Wl,--defsym=_ZTSSt23_Sp_counted_ptr_inplaceINSt13__future_base15_Deferred_stateINSt6thread8_InvokerISt5tupleIJZN5telux6common14AsyncTaskQueueIvE3addIRZNS5_4cv2x16Cv2xIndsListener15onL2AddrChangedEjEUlvE_SB_EENS6_6StatusEOT_St8weak_ptrIT0_ESt6launchEUlvE0_EEEEvEESaISO_ELN9__gnu_cxx12_Lock_policyE2EE=so_stub_for_libtelux_cv2x
-Wl,--defsym=_ZTSSt23_Sp_counted_ptr_inplaceINSt13__future_base15_Deferred_stateINSt6thread8_InvokerISt5tupleIJZN5telux6common14AsyncTaskQueueIvE3addIRZNS5_4cv2x16Cv2xIndsListener19onIpcDataCallChangeERKNSA_15Cv2xIpcDataCallEEUlvE_NSA_12DsiCv2xRadioEEENS6_6StatusEOT_St8weak_ptrIT0_ESt6launchEUlvE0_EEEEvEESaISS_ELN9__gnu_cxx12_Lock_policyE2EE=so_stub_for_libtelux_cv2x
-Wl,--defsym=_ZTSSt23_Sp_counted_ptr_inplaceINSt13__future_base15_Deferred_stateINSt6thread8_InvokerISt5tupleIJZN5telux6common14AsyncTaskQueueIvE3addIRZNS5_4cv2x16Cv2xIndsListener21onIpcCv2xStatusChangeERKNSA_16Cv2xIpcV2xStatusEEUlvE_SB_EENS6_6StatusEOT_St8weak_ptrIT0_ESt6launchEUlvE0_EEEEvEESaISR_ELN9__gnu_cxx12_Lock_policyE2EE=so_stub_for_libtelux_cv2x
-Wl,--defsym=_ZTSSt23_Sp_counted_ptr_inplaceISt6threadSaIS0_ELN9__gnu_cxx12_Lock_policyE2EE=so_stub_for_libtelux_cv2x
-Wl,--defsym=_ZTSSt23_Sp_counted_ptr_inplaceISt6vectorIjSaIjEESaIS2_ELN9__gnu_cxx12_Lock_policyE2EE=so_stub_for_libtelux_cv2x
-Wl,--defsym=_ZTSSt23_Sp_counted_ptr_inplaceISt6vectorIN5telux4cv2x12IpcMessageIdESaIS3_EESaIS5_ELN9__gnu_cxx12_Lock_policyE2EE=so_stub_for_libtelux_cv2x
-Wl,--defsym=_ZTSSt23_Sp_counted_ptr_inplaceISt6vectorIN5telux4cv2x17MessageAndHanlderESaIS3_EESaIS5_ELN9__gnu_cxx12_Lock_policyE2EE=so_stub_for_libtelux_cv2x
-Wl,--defsym=_ZTSSt24_Weak_result_type_memfunIMN5telux4cv2x11Cv2xSysCtrlEFvSt10shared_ptrINS1_14IndicationDataEEELb1EE=so_stub_for_libtelux_cv2x
-Wl,--defsym=_ZTSSt24_Weak_result_type_memfunIMN5telux4cv2x11Cv2xSysCtrlEFvSt10shared_ptrINS1_17ServiceStatusDataEEELb1EE=so_stub_for_libtelux_cv2x
-Wl,--defsym=_ZTSSt24_Weak_result_type_memfunIMN5telux4cv2x16Cv2xRadioManagerEFNS0_6common9ErrorCodeEiSt10shared_ptrINS1_10Cv2xIPCReqEES5_INS1_11Cv2xIPCRespEEELb1EE=so_stub_for_libtelux_cv2x
-Wl,--defsym=_ZTSSt24_Weak_result_type_memfunIMN5telux4cv2x19Cv2xThrottleManagerEFv12Sanity_stateELb1EE=so_stub_for_libtelux_cv2x
-Wl,--defsym=_ZTSSt24_Weak_result_type_memfunIMN5telux4cv2x19Cv2xThrottleManagerEFv9Tm_statusELb1EE=so_stub_for_libtelux_cv2x
-Wl,--defsym=_ZTSSt24_Weak_result_type_memfunIMN5telux4cv2x19Cv2xThrottleManagerEFviELb1EE=so_stub_for_libtelux_cv2x
-Wl,--defsym=_ZTSSt5_BindIFMN5telux4cv2x11Cv2xSysCtrlEFvSt10shared_ptrINS1_14IndicationDataEEEPS2_St12_PlaceholderILi1EEEE=so_stub_for_libtelux_cv2x
-Wl,--defsym=_ZTSSt5_BindIFMN5telux4cv2x11Cv2xSysCtrlEFvSt10shared_ptrINS1_17ServiceStatusDataEEEPS2_St12_PlaceholderILi1EEEE=so_stub_for_libtelux_cv2x
-Wl,--defsym=_ZTSSt5_BindIFMN5telux4cv2x16Cv2xRadioManagerEFNS0_6common9ErrorCodeEiSt10shared_ptrINS1_10Cv2xIPCReqEES5_INS1_11Cv2xIPCRespEEEPS2_St12_PlaceholderILi1EESD_ILi2EESD_ILi3EEEE=so_stub_for_libtelux_cv2x
-Wl,--defsym=_ZTSSt5_BindIFMN5telux4cv2x19Cv2xThrottleManagerEFv12Sanity_stateEPS2_St12_PlaceholderILi1EEEE=so_stub_for_libtelux_cv2x
-Wl,--defsym=_ZTSSt5_BindIFMN5telux4cv2x19Cv2xThrottleManagerEFv9Tm_statusEPS2_St12_PlaceholderILi1EEEE=so_stub_for_libtelux_cv2x
-Wl,--defsym=_ZTSSt5_BindIFMN5telux4cv2x19Cv2xThrottleManagerEFviEPS2_St12_PlaceholderILi1EEEE=so_stub_for_libtelux_cv2x
-Wl,--defsym=_ZTTN5telux4cv2x16Cv2xIndsListenerE=so_stub_for_libtelux_cv2x
-Wl,--defsym=_ZTTN5telux4cv2x18Cv2xConfigListenerE=so_stub_for_libtelux_cv2x
-Wl,--defsym=_ZTTN5telux4cv2x21ServiceStatusListenerE=so_stub_for_libtelux_cv2x
-Wl,--defsym=_ZTTN5telux4cv2x22Cv2xSysRequestResponseE=so_stub_for_libtelux_cv2x
-Wl,--defsym=_ZTTN5telux4cv2x22TxStatusReportListenerE=so_stub_for_libtelux_cv2x
-Wl,--defsym=_ZTTN5telux4cv2x25QmiSetEventReportCallbackE=so_stub_for_libtelux_cv2x
-Wl,--defsym=_ZTTN5telux4cv2x27QmiGetOperatingModeCallbackE=so_stub_for_libtelux_cv2x
-Wl,--defsym=_ZTTN5telux4cv2x27QmiSetOperatingModeCallbackE=so_stub_for_libtelux_cv2x
-Wl,--defsym=_ZTTN5telux4cv2x31SysctrlGetConfigurationCallbackE=so_stub_for_libtelux_cv2x
-Wl,--defsym=_ZTv0_n24_N5telux4cv2x16Cv2xIndsListenerD0Ev=so_stub_for_libtelux_cv2x
-Wl,--defsym=_ZTv0_n24_N5telux4cv2x16Cv2xIndsListenerD1Ev=so_stub_for_libtelux_cv2x
-Wl,--defsym=_ZTv0_n24_N5telux4cv2x18Cv2xConfigListenerD0Ev=so_stub_for_libtelux_cv2x
-Wl,--defsym=_ZTv0_n24_N5telux4cv2x18Cv2xConfigListenerD1Ev=so_stub_for_libtelux_cv2x
-Wl,--defsym=_ZTv0_n24_N5telux4cv2x21ServiceStatusListenerD0Ev=so_stub_for_libtelux_cv2x
-Wl,--defsym=_ZTv0_n24_N5telux4cv2x21ServiceStatusListenerD1Ev=so_stub_for_libtelux_cv2x
-Wl,--defsym=_ZTv0_n24_N5telux4cv2x22Cv2xSysRequestResponseD0Ev=so_stub_for_libtelux_cv2x
-Wl,--defsym=_ZTv0_n24_N5telux4cv2x22Cv2xSysRequestResponseD1Ev=so_stub_for_libtelux_cv2x
-Wl,--defsym=_ZTv0_n24_N5telux4cv2x22TxStatusReportListenerD0Ev=so_stub_for_libtelux_cv2x
-Wl,--defsym=_ZTv0_n24_N5telux4cv2x22TxStatusReportListenerD1Ev=so_stub_for_libtelux_cv2x
-Wl,--defsym=_ZTv0_n24_N5telux4cv2x25QmiSetEventReportCallbackD0Ev=so_stub_for_libtelux_cv2x
-Wl,--defsym=_ZTv0_n24_N5telux4cv2x25QmiSetEventReportCallbackD1Ev=so_stub_for_libtelux_cv2x
-Wl,--defsym=_ZTv0_n24_N5telux4cv2x27QmiGetOperatingModeCallbackD0Ev=so_stub_for_libtelux_cv2x
-Wl,--defsym=_ZTv0_n24_N5telux4cv2x27QmiGetOperatingModeCallbackD1Ev=so_stub_for_libtelux_cv2x
-Wl,--defsym=_ZTv0_n24_N5telux4cv2x27QmiSetOperatingModeCallbackD0Ev=so_stub_for_libtelux_cv2x
-Wl,--defsym=_ZTv0_n24_N5telux4cv2x27QmiSetOperatingModeCallbackD1Ev=so_stub_for_libtelux_cv2x
-Wl,--defsym=_ZTv0_n24_N5telux4cv2x31SysctrlGetConfigurationCallbackD0Ev=so_stub_for_libtelux_cv2x
-Wl,--defsym=_ZTv0_n24_N5telux4cv2x31SysctrlGetConfigurationCallbackD1Ev=so_stub_for_libtelux_cv2x
-Wl,--defsym=_ZTVN5telux4cv2x10Cv2xConfigE=so_stub_for_libtelux_cv2x
-Wl,--defsym=_ZTVN5telux4cv2x11Cv2xFactoryE=so_stub_for_libtelux_cv2x
-Wl,--defsym=_ZTVN5telux4cv2x12DsiCv2xRadioE=so_stub_for_libtelux_cv2x
-Wl,--defsym=_ZTVN5telux4cv2x13Cv2xTxSpsFlowE=so_stub_for_libtelux_cv2x
-Wl,--defsym=_ZTVN5telux4cv2x14Cv2xTxRxSocketE=so_stub_for_libtelux_cv2x
-Wl,--defsym=_ZTVN5telux4cv2x15Cv2xFactoryImplE=so_stub_for_libtelux_cv2x
-Wl,--defsym=_ZTVN5telux4cv2x15Cv2xTxEventFlowE=so_stub_for_libtelux_cv2x
-Wl,--defsym=_ZTVN5telux4cv2x15QmiCv2xCommonCbE=so_stub_for_libtelux_cv2x
-Wl,--defsym=_ZTVN5telux4cv2x16Cv2xIndsListenerE=so_stub_for_libtelux_cv2x
-Wl,--defsym=_ZTVN5telux4cv2x16Cv2xRadioManagerE=so_stub_for_libtelux_cv2x
-Wl,--defsym=_ZTVN5telux4cv2x18Cv2xConfigListenerE=so_stub_for_libtelux_cv2x
-Wl,--defsym=_ZTVN5telux4cv2x18Cv2xRxSubscriptionE=so_stub_for_libtelux_cv2x
-Wl,--defsym=_ZTVN5telux4cv2x19Cv2xIpcSocketClientE=so_stub_for_libtelux_cv2x
-Wl,--defsym=_ZTVN5telux4cv2x19Cv2xIpcSocketServerE=so_stub_for_libtelux_cv2x
-Wl,--defsym=_ZTVN5telux4cv2x19Cv2xThrottleManagerE=so_stub_for_libtelux_cv2x
-Wl,--defsym=_ZTVN5telux4cv2x19QmiV2xStartCallbackE=so_stub_for_libtelux_cv2x
-Wl,--defsym=_ZTVN5telux4cv2x20QmiV2xStatusCallbackE=so_stub_for_libtelux_cv2x
-Wl,--defsym=_ZTVN5telux4cv2x21QmiGetV2xSlssRxInfoCbE=so_stub_for_libtelux_cv2x
-Wl,--defsym=_ZTVN5telux4cv2x21ServiceStatusListenerE=so_stub_for_libtelux_cv2x
-Wl,--defsym=_ZTVN5telux4cv2x22Cv2xSysRequestResponseE=so_stub_for_libtelux_cv2x
-Wl,--defsym=_ZTVN5telux4cv2x22QmiV2xStatusCallbackExE=so_stub_for_libtelux_cv2x
-Wl,--defsym=_ZTVN5telux4cv2x22TxStatusReportListenerE=so_stub_for_libtelux_cv2x
-Wl,--defsym=_ZTVN5telux4cv2x25QmiSetEventReportCallbackE=so_stub_for_libtelux_cv2x
-Wl,--defsym=_ZTVN5telux4cv2x27QmiGetOperatingModeCallbackE=so_stub_for_libtelux_cv2x
-Wl,--defsym=_ZTVN5telux4cv2x27QmiSetOperatingModeCallbackE=so_stub_for_libtelux_cv2x
-Wl,--defsym=_ZTVN5telux4cv2x31SysctrlGetConfigurationCallbackE=so_stub_for_libtelux_cv2x
-Wl,--defsym=_ZTVN5telux4cv2x9EventInfoINS0_14IndicationDataEEE=so_stub_for_libtelux_cv2x
-Wl,--defsym=_ZTVN5telux4cv2x9EventInfoINS0_17ServiceStatusDataEEE=so_stub_for_libtelux_cv2x
-Wl,--defsym=_ZTVNSt13__future_base13_State_baseV2E=so_stub_for_libtelux_cv2x
-Wl,--defsym=_ZTVNSt13__future_base15_Deferred_stateINSt6thread8_InvokerISt5tupleIJZN5telux6common14AsyncTaskQueueIvE3addIRZNS4_4cv2x16Cv2xIndsListener15onL2AddrChangedEjEUlvE_SA_EENS5_6StatusEOT_St8weak_ptrIT0_ESt6launchEUlvE0_EEEEvEE=so_stub_for_libtelux_cv2x
-Wl,--defsym=_ZTVNSt13__future_base15_Deferred_stateINSt6thread8_InvokerISt5tupleIJZN5telux6common14AsyncTaskQueueIvE3addIRZNS4_4cv2x16Cv2xIndsListener19onIpcDataCallChangeERKNS9_15Cv2xIpcDataCallEEUlvE_NS9_12DsiCv2xRadioEEENS5_6StatusEOT_St8weak_ptrIT0_ESt6launchEUlvE0_EEEEvEE=so_stub_for_libtelux_cv2x
-Wl,--defsym=_ZTVNSt13__future_base15_Deferred_stateINSt6thread8_InvokerISt5tupleIJZN5telux6common14AsyncTaskQueueIvE3addIRZNS4_4cv2x16Cv2xIndsListener21onIpcCv2xStatusChangeERKNS9_16Cv2xIpcV2xStatusEEUlvE_SA_EENS5_6StatusEOT_St8weak_ptrIT0_ESt6launchEUlvE0_EEEEvEE=so_stub_for_libtelux_cv2x
-Wl,--defsym=_ZTVNSt13__future_base21_Async_state_commonV2E=so_stub_for_libtelux_cv2x
-Wl,--defsym=_ZTVNSt13__future_base7_ResultIbEE=so_stub_for_libtelux_cv2x
-Wl,--defsym=_ZTVNSt13__future_base7_ResultIN5telux6common6StatusEEE=so_stub_for_libtelux_cv2x
-Wl,--defsym=_ZTVNSt13__future_base7_ResultIN5telux6common9ErrorCodeEEE=so_stub_for_libtelux_cv2x
-Wl,--defsym=_ZTVNSt13__future_base7_ResultIvEE=so_stub_for_libtelux_cv2x
-Wl,--defsym=_ZTVNSt6thread11_State_implINS_8_InvokerISt5tupleIJMN5telux6common14AsyncTaskQueueIvEEFvvEPS6_EEEEEE=so_stub_for_libtelux_cv2x
-Wl,--defsym=_ZTVNSt6thread11_State_implINS_8_InvokerISt5tupleIJSt8functionIFvN5telux6common13ServiceStatusEEES6_EEEEEE=so_stub_for_libtelux_cv2x
-Wl,--defsym=_ZTVSt15_Sp_counted_ptrIPN5telux4cv2x19Cv2xIpcSocketClientELN9__gnu_cxx12_Lock_policyE2EE=so_stub_for_libtelux_cv2x
-Wl,--defsym=_ZTVSt15_Sp_counted_ptrIPN5telux4cv2x19Cv2xIpcSocketServerELN9__gnu_cxx12_Lock_policyE2EE=so_stub_for_libtelux_cv2x
-Wl,--defsym=_ZTVSt23_Sp_counted_ptr_inplaceIN5telux4cv2x10Cv2xConfigESaIS2_ELN9__gnu_cxx12_Lock_policyE2EE=so_stub_for_libtelux_cv2x
-Wl,--defsym=_ZTVSt23_Sp_counted_ptr_inplaceIN5telux4cv2x10Cv2xIPCReqESaIS2_ELN9__gnu_cxx12_Lock_policyE2EE=so_stub_for_libtelux_cv2x
-Wl,--defsym=_ZTVSt23_Sp_counted_ptr_inplaceIN5telux4cv2x11Cv2xIPCRespESaIS2_ELN9__gnu_cxx12_Lock_policyE2EE=so_stub_for_libtelux_cv2x
-Wl,--defsym=_ZTVSt23_Sp_counted_ptr_inplaceIN5telux4cv2x11Cv2xSysCtrlESaIS2_ELN9__gnu_cxx12_Lock_policyE2EE=so_stub_for_libtelux_cv2x
-Wl,--defsym=_ZTVSt23_Sp_counted_ptr_inplaceIN5telux4cv2x12DsiCv2xRadioESaIS2_ELN9__gnu_cxx12_Lock_policyE2EE=so_stub_for_libtelux_cv2x
-Wl,--defsym=_ZTVSt23_Sp_counted_ptr_inplaceIN5telux4cv2x12EventHandlerESaIS2_ELN9__gnu_cxx12_Lock_policyE2EE=so_stub_for_libtelux_cv2x
-Wl,--defsym=_ZTVSt23_Sp_counted_ptr_inplaceIN5telux4cv2x13Cv2xTxSpsFlowESaIS2_ELN9__gnu_cxx12_Lock_policyE2EE=so_stub_for_libtelux_cv2x
-Wl,--defsym=_ZTVSt23_Sp_counted_ptr_inplaceIN5telux4cv2x14Cv2xTxRxSocketESaIS2_ELN9__gnu_cxx12_Lock_policyE2EE=so_stub_for_libtelux_cv2x
-Wl,--defsym=_ZTVSt23_Sp_counted_ptr_inplaceIN5telux4cv2x14IndicationDataESaIS2_ELN9__gnu_cxx12_Lock_policyE2EE=so_stub_for_libtelux_cv2x
-Wl,--defsym=_ZTVSt23_Sp_counted_ptr_inplaceIN5telux4cv2x15Cv2xTxEventFlowESaIS2_ELN9__gnu_cxx12_Lock_policyE2EE=so_stub_for_libtelux_cv2x
-Wl,--defsym=_ZTVSt23_Sp_counted_ptr_inplaceIN5telux4cv2x15EventDispatcherESaIS2_ELN9__gnu_cxx12_Lock_policyE2EE=so_stub_for_libtelux_cv2x
-Wl,--defsym=_ZTVSt23_Sp_counted_ptr_inplaceIN5telux4cv2x15QmiCv2xCommonCbESaIS2_ELN9__gnu_cxx12_Lock_policyE2EE=so_stub_for_libtelux_cv2x
-Wl,--defsym=_ZTVSt23_Sp_counted_ptr_inplaceIN5telux4cv2x16Cv2xIndsListenerESaIS2_ELN9__gnu_cxx12_Lock_policyE2EE=so_stub_for_libtelux_cv2x
-Wl,--defsym=_ZTVSt23_Sp_counted_ptr_inplaceIN5telux4cv2x16Cv2xRadioManagerESaIS2_ELN9__gnu_cxx12_Lock_policyE2EE=so_stub_for_libtelux_cv2x
-Wl,--defsym=_ZTVSt23_Sp_counted_ptr_inplaceIN5telux4cv2x17ServiceStatusDataESaIS2_ELN9__gnu_cxx12_Lock_policyE2EE=so_stub_for_libtelux_cv2x
-Wl,--defsym=_ZTVSt23_Sp_counted_ptr_inplaceIN5telux4cv2x18Cv2xConfigListenerESaIS2_ELN9__gnu_cxx12_Lock_policyE2EE=so_stub_for_libtelux_cv2x
-Wl,--defsym=_ZTVSt23_Sp_counted_ptr_inplaceIN5telux4cv2x18Cv2xRxSubscriptionESaIS2_ELN9__gnu_cxx12_Lock_policyE2EE=so_stub_for_libtelux_cv2x
-Wl,--defsym=_ZTVSt23_Sp_counted_ptr_inplaceIN5telux4cv2x19Cv2xThrottleManagerESaIS2_ELN9__gnu_cxx12_Lock_policyE2EE=so_stub_for_libtelux_cv2x
-Wl,--defsym=_ZTVSt23_Sp_counted_ptr_inplaceIN5telux4cv2x19QmiV2xStartCallbackESaIS2_ELN9__gnu_cxx12_Lock_policyE2EE=so_stub_for_libtelux_cv2x
-Wl,--defsym=_ZTVSt23_Sp_counted_ptr_inplaceIN5telux4cv2x20QmiV2xStatusCallbackESaIS2_ELN9__gnu_cxx12_Lock_policyE2EE=so_stub_for_libtelux_cv2x
-Wl,--defsym=_ZTVSt23_Sp_counted_ptr_inplaceIN5telux4cv2x21QmiGetV2xSlssRxInfoCbESaIS2_ELN9__gnu_cxx12_Lock_policyE2EE=so_stub_for_libtelux_cv2x
-Wl,--defsym=_ZTVSt23_Sp_counted_ptr_inplaceIN5telux4cv2x21ServiceStatusListenerESaIS2_ELN9__gnu_cxx12_Lock_policyE2EE=so_stub_for_libtelux_cv2x
-Wl,--defsym=_ZTVSt23_Sp_counted_ptr_inplaceIN5telux4cv2x22Cv2xSysRequestResponseESaIS2_ELN9__gnu_cxx12_Lock_policyE2EE=so_stub_for_libtelux_cv2x
-Wl,--defsym=_ZTVSt23_Sp_counted_ptr_inplaceIN5telux4cv2x22QmiV2xStatusCallbackExESaIS2_ELN9__gnu_cxx12_Lock_policyE2EE=so_stub_for_libtelux_cv2x
-Wl,--defsym=_ZTVSt23_Sp_counted_ptr_inplaceIN5telux4cv2x22TxStatusReportListenerESaIS2_ELN9__gnu_cxx12_Lock_policyE2EE=so_stub_for_libtelux_cv2x
-Wl,--defsym=_ZTVSt23_Sp_counted_ptr_inplaceIN5telux4cv2x25QmiSetEventReportCallbackESaIS2_ELN9__gnu_cxx12_Lock_policyE2EE=so_stub_for_libtelux_cv2x
-Wl,--defsym=_ZTVSt23_Sp_counted_ptr_inplaceIN5telux4cv2x27QmiGetOperatingModeCallbackESaIS2_ELN9__gnu_cxx12_Lock_policyE2EE=so_stub_for_libtelux_cv2x
-Wl,--defsym=_ZTVSt23_Sp_counted_ptr_inplaceIN5telux4cv2x27QmiSetOperatingModeCallbackESaIS2_ELN9__gnu_cxx12_Lock_policyE2EE=so_stub_for_libtelux_cv2x
-Wl,--defsym=_ZTVSt23_Sp_counted_ptr_inplaceIN5telux4cv2x31SysctrlGetConfigurationCallbackESaIS2_ELN9__gnu_cxx12_Lock_policyE2EE=so_stub_for_libtelux_cv2x
-Wl,--defsym=_ZTVSt23_Sp_counted_ptr_inplaceIN5telux4cv2x9EventInfoINS1_14IndicationDataEEESaIS4_ELN9__gnu_cxx12_Lock_policyE2EE=so_stub_for_libtelux_cv2x
-Wl,--defsym=_ZTVSt23_Sp_counted_ptr_inplaceIN5telux4cv2x9EventInfoINS1_17ServiceStatusDataEEESaIS4_ELN9__gnu_cxx12_Lock_policyE2EE=so_stub_for_libtelux_cv2x
-Wl,--defsym=_ZTVSt23_Sp_counted_ptr_inplaceIN5telux6common14AsyncTaskQueueIvEESaIS3_ELN9__gnu_cxx12_Lock_policyE2EE=so_stub_for_libtelux_cv2x
-Wl,--defsym=_ZTVSt23_Sp_counted_ptr_inplaceIN5telux6common15ListenerManagerESaIS2_ELN9__gnu_cxx12_Lock_policyE2EE=so_stub_for_libtelux_cv2x
-Wl,--defsym=_ZTVSt23_Sp_counted_ptr_inplaceINSt13__future_base13_State_baseV2ESaIS1_ELN9__gnu_cxx12_Lock_policyE2EE=so_stub_for_libtelux_cv2x
-Wl,--defsym=_ZTVSt23_Sp_counted_ptr_inplaceINSt13__future_base15_Deferred_stateINSt6thread8_InvokerISt5tupleIJZN5telux6common14AsyncTaskQueueIvE3addIRZNS5_4cv2x16Cv2xIndsListener15onL2AddrChangedEjEUlvE_SB_EENS6_6StatusEOT_St8weak_ptrIT0_ESt6launchEUlvE0_EEEEvEESaISO_ELN9__gnu_cxx12_Lock_policyE2EE=so_stub_for_libtelux_cv2x
-Wl,--defsym=_ZTVSt23_Sp_counted_ptr_inplaceINSt13__future_base15_Deferred_stateINSt6thread8_InvokerISt5tupleIJZN5telux6common14AsyncTaskQueueIvE3addIRZNS5_4cv2x16Cv2xIndsListener19onIpcDataCallChangeERKNSA_15Cv2xIpcDataCallEEUlvE_NSA_12DsiCv2xRadioEEENS6_6StatusEOT_St8weak_ptrIT0_ESt6launchEUlvE0_EEEEvEESaISS_ELN9__gnu_cxx12_Lock_policyE2EE=so_stub_for_libtelux_cv2x
-Wl,--defsym=_ZTVSt23_Sp_counted_ptr_inplaceINSt13__future_base15_Deferred_stateINSt6thread8_InvokerISt5tupleIJZN5telux6common14AsyncTaskQueueIvE3addIRZNS5_4cv2x16Cv2xIndsListener21onIpcCv2xStatusChangeERKNSA_16Cv2xIpcV2xStatusEEUlvE_SB_EENS6_6StatusEOT_St8weak_ptrIT0_ESt6launchEUlvE0_EEEEvEESaISR_ELN9__gnu_cxx12_Lock_policyE2EE=so_stub_for_libtelux_cv2x
-Wl,--defsym=_ZTVSt23_Sp_counted_ptr_inplaceISt6threadSaIS0_ELN9__gnu_cxx12_Lock_policyE2EE=so_stub_for_libtelux_cv2x
-Wl,--defsym=_ZTVSt23_Sp_counted_ptr_inplaceISt6vectorIjSaIjEESaIS2_ELN9__gnu_cxx12_Lock_policyE2EE=so_stub_for_libtelux_cv2x
-Wl,--defsym=_ZTVSt23_Sp_counted_ptr_inplaceISt6vectorIN5telux4cv2x12IpcMessageIdESaIS3_EESaIS5_ELN9__gnu_cxx12_Lock_policyE2EE=so_stub_for_libtelux_cv2x
-Wl,--defsym=_ZTVSt23_Sp_counted_ptr_inplaceISt6vectorIN5telux4cv2x17MessageAndHanlderESaIS3_EESaIS5_ELN9__gnu_cxx12_Lock_policyE2EE=so_stub_for_libtelux_cv2x
-Wl,--defsym=_ZZN5telux4cv2x16Cv2xIndsListener15onL2AddrChangedEjENKUlvE_clEv=so_stub_for_libtelux_cv2x
-Wl,--defsym=_ZZN5telux4cv2x16Cv2xIndsListener19onIpcDataCallChangeERKNS0_15Cv2xIpcDataCallEENKUlvE_clEv=so_stub_for_libtelux_cv2x
-Wl,--defsym=_ZZN5telux4cv2x16Cv2xIndsListener21onIpcCv2xStatusChangeERKNS0_16Cv2xIpcV2xStatusEENKUlvE_clEv=so_stub_for_libtelux_cv2x
-Wl,--defsym=_ZZN5telux4cv2x21ServiceStatusListener15onCv2xStatusIndERKNS_3qmi13Cv2xStatusIndEE8statusEx=so_stub_for_libtelux_cv2x
-Wl,--defsym=_ZZN5telux4cv2x21ServiceStatusListener18onCv2xStatusChangeERNS0_12Cv2xStatusExEE10prevStatus=so_stub_for_libtelux_cv2x
-Wl,--defsym=_ZZN5telux6common14AsyncTaskQueueIvE3addIRZNS_4cv2x16Cv2xIndsListener15onL2AddrChangedEjEUlvE_S5_EENS0_6StatusEOT_St8weak_ptrIT0_ESt6launchENKUlvE_clEv=so_stub_for_libtelux_cv2x
-Wl,--defsym=_ZZN5telux6common14AsyncTaskQueueIvE3addIRZNS_4cv2x16Cv2xIndsListener15onL2AddrChangedEjEUlvE_S5_EENS0_6StatusEOT_St8weak_ptrIT0_ESt6launchENUlvE_D1Ev=so_stub_for_libtelux_cv2x
-Wl,--defsym=_ZZN5telux6common14AsyncTaskQueueIvE3addIRZNS_4cv2x16Cv2xIndsListener15onL2AddrChangedEjEUlvE_S5_EENS0_6StatusEOT_St8weak_ptrIT0_ESt6launchENUlvE_D2Ev=so_stub_for_libtelux_cv2x
-Wl,--defsym=_ZZN5telux6common14AsyncTaskQueueIvE3addIRZNS_4cv2x16Cv2xIndsListener19onIpcDataCallChangeERKNS4_15Cv2xIpcDataCallEEUlvE_NS4_12DsiCv2xRadioEEENS0_6StatusEOT_St8weak_ptrIT0_ESt6launchENKUlvE_clEv=so_stub_for_libtelux_cv2x
-Wl,--defsym=_ZZN5telux6common14AsyncTaskQueueIvE3addIRZNS_4cv2x16Cv2xIndsListener19onIpcDataCallChangeERKNS4_15Cv2xIpcDataCallEEUlvE_NS4_12DsiCv2xRadioEEENS0_6StatusEOT_St8weak_ptrIT0_ESt6launchENUlvE_D1Ev=so_stub_for_libtelux_cv2x
-Wl,--defsym=_ZZN5telux6common14AsyncTaskQueueIvE3addIRZNS_4cv2x16Cv2xIndsListener19onIpcDataCallChangeERKNS4_15Cv2xIpcDataCallEEUlvE_NS4_12DsiCv2xRadioEEENS0_6StatusEOT_St8weak_ptrIT0_ESt6launchENUlvE_D2Ev=so_stub_for_libtelux_cv2x
-Wl,--defsym=_ZZN5telux6common14AsyncTaskQueueIvE3addIRZNS_4cv2x16Cv2xIndsListener21onIpcCv2xStatusChangeERKNS4_16Cv2xIpcV2xStatusEEUlvE_S5_EENS0_6StatusEOT_St8weak_ptrIT0_ESt6launchENKUlvE_clEv=so_stub_for_libtelux_cv2x
-Wl,--defsym=_ZZN5telux6common14AsyncTaskQueueIvE3addIRZNS_4cv2x16Cv2xIndsListener21onIpcCv2xStatusChangeERKNS4_16Cv2xIpcV2xStatusEEUlvE_S5_EENS0_6StatusEOT_St8weak_ptrIT0_ESt6launchENUlvE_D1Ev=so_stub_for_libtelux_cv2x
-Wl,--defsym=_ZZN5telux6common14AsyncTaskQueueIvE3addIRZNS_4cv2x16Cv2xIndsListener21onIpcCv2xStatusChangeERKNS4_16Cv2xIpcV2xStatusEEUlvE_S5_EENS0_6StatusEOT_St8weak_ptrIT0_ESt6launchENUlvE_D2Ev=so_stub_for_libtelux_cv2x
-Wl,--defsym=_ZZNSt19_Sp_make_shared_tag5_S_tiEvE5__tag=so_stub_for_libtelux_cv2x
-Wl,--defsym=_ZZNSt9once_flag18_Prepare_executionC4IZSt9call_onceIMNSt13__future_base13_State_baseV2EFvPSt8functionIFSt10unique_ptrINS3_12_Result_baseENS7_8_DeleterEEvEEPbEJPS4_SC_SD_EEvRS_OT_DpOT0_EUlvE_EERSI_ENUlvE_4_FUNEv=so_stub_for_libtelux_cv2x
-Wl,--defsym=_ZZNSt9once_flag18_Prepare_executionC4IZSt9call_onceIMSt6threadFvvEJPS3_EEvRS_OT_DpOT0_EUlvE_EERS8_ENUlvE_4_FUNEv=so_stub_for_libtelux_cv2x
