-Wl,--defsym=__gcov_error_file=so_stub_for_libtelux_sec
-Wl,--defsym=__gcov_kvp_dynamic_pool=so_stub_for_libtelux_sec
-Wl,--defsym=__gcov_kvp_dynamic_pool_index=so_stub_for_libtelux_sec
-Wl,--defsym=__gcov_kvp_dynamic_pool_size=so_stub_for_libtelux_sec
-Wl,--defsym=__gcov_master=so_stub_for_libtelux_sec
-Wl,--defsym=__gcov_var=so_stub_for_libtelux_sec
-Wl,--defsym=mangle_path=so_stub_for_libtelux_sec
-Wl,--defsym=_ZN5telux3sec12ResultParser12getErrorCodeERKNS0_15OperationResultE=so_stub_for_libtelux_sec
-Wl,--defsym=_ZN5telux3sec12ResultParser14getCAErrorCodeERKNS0_15OperationResultE=so_stub_for_libtelux_sec
-Wl,--defsym=_ZN5telux3sec12ResultParser16getOperationTypeERKNS0_15OperationResultE=so_stub_for_libtelux_sec
-Wl,--defsym=_ZN5telux3sec12ResultParser5getIdERKNS0_15OperationResultE=so_stub_for_libtelux_sec
-Wl,--defsym=_ZN5telux3sec12ResultParser7getDataERNS0_15OperationResultE=so_stub_for_libtelux_sec
-Wl,--defsym=_ZN5telux3sec13SecurityUtils10dumpTagValE15keymaster_tag_tPK31keymaster_key_characteristics_t=so_stub_for_libtelux_sec
-Wl,--defsym=_ZN5telux3sec13SecurityUtils14toTeluxErrCodeEi=so_stub_for_libtelux_sec
-Wl,--defsym=_ZN5telux3sec15CryptoParamImpl10getKeySizeEv=so_stub_for_libtelux_sec
-Wl,--defsym=_ZN5telux3sec15CryptoParamImpl10getPaddingEv=so_stub_for_libtelux_sec
-Wl,--defsym=_ZN5telux3sec15CryptoParamImpl10setKeySizeEi=so_stub_for_libtelux_sec
-Wl,--defsym=_ZN5telux3sec15CryptoParamImpl10setPaddingEi=so_stub_for_libtelux_sec
-Wl,--defsym=_ZN5telux3sec15CryptoParamImpl12getAlgorithmEv=so_stub_for_libtelux_sec
-Wl,--defsym=_ZN5telux3sec15CryptoParamImpl12getBlockModeEv=so_stub_for_libtelux_sec
-Wl,--defsym=_ZN5telux3sec15CryptoParamImpl12getMacLengthEv=so_stub_for_libtelux_sec
-Wl,--defsym=_ZN5telux3sec15CryptoParamImpl12setAlgorithmEi=so_stub_for_libtelux_sec
-Wl,--defsym=_ZN5telux3sec15CryptoParamImpl12setBlockModeEi=so_stub_for_libtelux_sec
-Wl,--defsym=_ZN5telux3sec15CryptoParamImpl12setMacLengthEi=so_stub_for_libtelux_sec
-Wl,--defsym=_ZN5telux3sec15CryptoParamImpl13getInitVectorEv=so_stub_for_libtelux_sec
-Wl,--defsym=_ZN5telux3sec15CryptoParamImpl13getUniqueDataEv=so_stub_for_libtelux_sec
-Wl,--defsym=_ZN5telux3sec15CryptoParamImpl13setInitVectorESt6vectorIhSaIhEE=so_stub_for_libtelux_sec
-Wl,--defsym=_ZN5telux3sec15CryptoParamImpl13setUniqueDataESt6vectorIhSaIhEE=so_stub_for_libtelux_sec
-Wl,--defsym=_ZN5telux3sec15CryptoParamImpl14getCallerNonceEv=so_stub_for_libtelux_sec
-Wl,--defsym=_ZN5telux3sec15CryptoParamImpl14setCallerNonceEb=so_stub_for_libtelux_sec
-Wl,--defsym=_ZN5telux3sec15CryptoParamImpl15getMinMacLengthEv=so_stub_for_libtelux_sec
-Wl,--defsym=_ZN5telux3sec15CryptoParamImpl17getAssociatedDataEv=so_stub_for_libtelux_sec
-Wl,--defsym=_ZN5telux3sec15CryptoParamImpl17getPublicExponentEv=so_stub_for_libtelux_sec
-Wl,--defsym=_ZN5telux3sec15CryptoParamImpl17setAssociatedDataESt6vectorIhSaIhEE=so_stub_for_libtelux_sec
-Wl,--defsym=_ZN5telux3sec15CryptoParamImpl17setPublicExponentEm=so_stub_for_libtelux_sec
-Wl,--defsym=_ZN5telux3sec15CryptoParamImpl18getCryptoOperationEv=so_stub_for_libtelux_sec
-Wl,--defsym=_ZN5telux3sec15CryptoParamImpl18setCryptoOperationEi=so_stub_for_libtelux_sec
-Wl,--defsym=_ZN5telux3sec15CryptoParamImpl19setMinimumMacLengthEi=so_stub_for_libtelux_sec
-Wl,--defsym=_ZN5telux3sec15CryptoParamImpl8getCurveEv=so_stub_for_libtelux_sec
-Wl,--defsym=_ZN5telux3sec15CryptoParamImpl8setCurveEi=so_stub_for_libtelux_sec
-Wl,--defsym=_ZN5telux3sec15CryptoParamImpl9getDigestEv=so_stub_for_libtelux_sec
-Wl,--defsym=_ZN5telux3sec15CryptoParamImpl9setDigestEi=so_stub_for_libtelux_sec
-Wl,--defsym=_ZN5telux3sec15CryptoParamImplC1Ev=so_stub_for_libtelux_sec
-Wl,--defsym=_ZN5telux3sec15CryptoParamImplC2Ev=so_stub_for_libtelux_sec
-Wl,--defsym=_ZN5telux3sec15CryptoParamImplD0Ev=so_stub_for_libtelux_sec
-Wl,--defsym=_ZN5telux3sec15CryptoParamImplD1Ev=so_stub_for_libtelux_sec
-Wl,--defsym=_ZN5telux3sec15CryptoParamImplD2Ev=so_stub_for_libtelux_sec
-Wl,--defsym=_ZN5telux3sec15SecurityFactory11getInstanceEv=so_stub_for_libtelux_sec
-Wl,--defsym=_ZN5telux3sec15SecurityFactoryC1Ev=so_stub_for_libtelux_sec
-Wl,--defsym=_ZN5telux3sec15SecurityFactoryC2Ev=so_stub_for_libtelux_sec
-Wl,--defsym=_ZN5telux3sec15SecurityFactoryD0Ev=so_stub_for_libtelux_sec
-Wl,--defsym=_ZN5telux3sec15SecurityFactoryD1Ev=so_stub_for_libtelux_sec
-Wl,--defsym=_ZN5telux3sec15SecurityFactoryD2Ev=so_stub_for_libtelux_sec
-Wl,--defsym=_ZN5telux3sec17CryptoManagerImpl10addPaddingESt10shared_ptrINS0_15CryptoParamImplEERSt6vectorI21keymaster_key_param_tSaIS6_EE=so_stub_for_libtelux_sec
-Wl,--defsym=_ZN5telux3sec17CryptoManagerImpl10addPurposeESt10shared_ptrINS0_15CryptoParamImplEERSt6vectorI21keymaster_key_param_tSaIS6_EE=so_stub_for_libtelux_sec
-Wl,--defsym=_ZN5telux3sec17CryptoManagerImpl10upgradeKeyESt10shared_ptrINS0_12ICryptoParamEERKSt6vectorIhSaIhEERS7_=so_stub_for_libtelux_sec
-Wl,--defsym=_ZN5telux3sec17CryptoManagerImpl10verifyDataESt10shared_ptrINS0_12ICryptoParamEERKSt6vectorIhSaIhEES9_S9_=so_stub_for_libtelux_sec
-Wl,--defsym=_ZN5telux3sec17CryptoManagerImpl11decryptDataESt10shared_ptrINS0_12ICryptoParamEERKSt6vectorIhSaIhEES9_RS7_=so_stub_for_libtelux_sec
-Wl,--defsym=_ZN5telux3sec17CryptoManagerImpl11encryptDataESt10shared_ptrINS0_12ICryptoParamEERKSt6vectorIhSaIhEES9_RS2_INS0_13EncryptedDataEE=so_stub_for_libtelux_sec
-Wl,--defsym=_ZN5telux3sec17CryptoManagerImpl11generateKeyESt10shared_ptrINS0_12ICryptoParamEERSt6vectorIhSaIhEE=so_stub_for_libtelux_sec
-Wl,--defsym=_ZN5telux3sec17CryptoManagerImpl12addBlockModeESt10shared_ptrINS0_15CryptoParamImplEERSt6vectorI21keymaster_key_param_tSaIS6_EE=so_stub_for_libtelux_sec
-Wl,--defsym=_ZN5telux3sec17CryptoManagerImpl4initEv=so_stub_for_libtelux_sec
-Wl,--defsym=_ZN5telux3sec17CryptoManagerImpl6deinitEv=so_stub_for_libtelux_sec
-Wl,--defsym=_ZN5telux3sec17CryptoManagerImpl8addCurveESt10shared_ptrINS0_15CryptoParamImplEERSt6vectorI21keymaster_key_param_tSaIS6_EE=so_stub_for_libtelux_sec
-Wl,--defsym=_ZN5telux3sec17CryptoManagerImpl8signDataESt10shared_ptrINS0_12ICryptoParamEERKSt6vectorIhSaIhEES9_RS7_=so_stub_for_libtelux_sec
-Wl,--defsym=_ZN5telux3sec17CryptoManagerImpl9addDigestESt10shared_ptrINS0_15CryptoParamImplEERSt6vectorI21keymaster_key_param_tSaIS6_EE=so_stub_for_libtelux_sec
-Wl,--defsym=_ZN5telux3sec17CryptoManagerImpl9exportKeyENS0_9KeyFormatERKSt6vectorIhSaIhEERS5_=so_stub_for_libtelux_sec
-Wl,--defsym=_ZN5telux3sec17CryptoManagerImpl9getKeyFmtENS0_9KeyFormatEP22keymaster_key_format_t=so_stub_for_libtelux_sec
-Wl,--defsym=_ZN5telux3sec17CryptoManagerImpl9importKeyESt10shared_ptrINS0_12ICryptoParamEENS0_9KeyFormatERKSt6vectorIhSaIhEERS8_=so_stub_for_libtelux_sec
-Wl,--defsym=_ZN5telux3sec17CryptoManagerImplC1Ev=so_stub_for_libtelux_sec
-Wl,--defsym=_ZN5telux3sec17CryptoManagerImplC2Ev=so_stub_for_libtelux_sec
-Wl,--defsym=_ZN5telux3sec17CryptoManagerImplD0Ev=so_stub_for_libtelux_sec
-Wl,--defsym=_ZN5telux3sec17CryptoManagerImplD1Ev=so_stub_for_libtelux_sec
-Wl,--defsym=_ZN5telux3sec17CryptoManagerImplD2Ev=so_stub_for_libtelux_sec
-Wl,--defsym=_ZN5telux3sec18CryptoParamBuilder10setKeySizeEi=so_stub_for_libtelux_sec
-Wl,--defsym=_ZN5telux3sec18CryptoParamBuilder10setPaddingEi=so_stub_for_libtelux_sec
-Wl,--defsym=_ZN5telux3sec18CryptoParamBuilder12setAlgorithmEi=so_stub_for_libtelux_sec
-Wl,--defsym=_ZN5telux3sec18CryptoParamBuilder12setBlockModeEi=so_stub_for_libtelux_sec
-Wl,--defsym=_ZN5telux3sec18CryptoParamBuilder12setMacLengthEi=so_stub_for_libtelux_sec
-Wl,--defsym=_ZN5telux3sec18CryptoParamBuilder13setInitVectorESt6vectorIhSaIhEE=so_stub_for_libtelux_sec
-Wl,--defsym=_ZN5telux3sec18CryptoParamBuilder13setUniqueDataESt6vectorIhSaIhEE=so_stub_for_libtelux_sec
-Wl,--defsym=_ZN5telux3sec18CryptoParamBuilder14setCallerNonceEb=so_stub_for_libtelux_sec
-Wl,--defsym=_ZN5telux3sec18CryptoParamBuilder17setAssociatedDataESt6vectorIhSaIhEE=so_stub_for_libtelux_sec
-Wl,--defsym=_ZN5telux3sec18CryptoParamBuilder17setPublicExponentEm=so_stub_for_libtelux_sec
-Wl,--defsym=_ZN5telux3sec18CryptoParamBuilder18setCryptoOperationEi=so_stub_for_libtelux_sec
-Wl,--defsym=_ZN5telux3sec18CryptoParamBuilder19setMinimumMacLengthEi=so_stub_for_libtelux_sec
-Wl,--defsym=_ZN5telux3sec18CryptoParamBuilder5buildEv=so_stub_for_libtelux_sec
-Wl,--defsym=_ZN5telux3sec18CryptoParamBuilder8setCurveEi=so_stub_for_libtelux_sec
-Wl,--defsym=_ZN5telux3sec18CryptoParamBuilder9setDigestEi=so_stub_for_libtelux_sec
-Wl,--defsym=_ZN5telux3sec18CryptoParamBuilderC1Ev=so_stub_for_libtelux_sec
-Wl,--defsym=_ZN5telux3sec18CryptoParamBuilderC2Ev=so_stub_for_libtelux_sec
-Wl,--defsym=_ZN5telux3sec19SecurityFactoryImpl11getInstanceEv=so_stub_for_libtelux_sec
-Wl,--defsym=_ZN5telux3sec19SecurityFactoryImpl16getCryptoManagerERNS_6common9ErrorCodeE=so_stub_for_libtelux_sec
-Wl,--defsym=_ZN5telux3sec19SecurityFactoryImpl19getCAControlManagerERNS_6common9ErrorCodeE=so_stub_for_libtelux_sec
-Wl,--defsym=_ZN5telux3sec19SecurityFactoryImpl22getRandomNumberManagerENS0_9RNGSourceERNS_6common9ErrorCodeE=so_stub_for_libtelux_sec
-Wl,--defsym=_ZN5telux3sec19SecurityFactoryImpl27getCryptoAcceleratorManagerERNS_6common9ErrorCodeENS0_4ModeESt8weak_ptrINS0_26ICryptoAcceleratorListenerEE=so_stub_for_libtelux_sec
-Wl,--defsym=_ZN5telux3sec19SecurityFactoryImplC1Ev=so_stub_for_libtelux_sec
-Wl,--defsym=_ZN5telux3sec19SecurityFactoryImplC2Ev=so_stub_for_libtelux_sec
-Wl,--defsym=_ZN5telux3sec19SecurityFactoryImplD0Ev=so_stub_for_libtelux_sec
-Wl,--defsym=_ZN5telux3sec19SecurityFactoryImplD1Ev=so_stub_for_libtelux_sec
-Wl,--defsym=_ZN5telux3sec19SecurityFactoryImplD2Ev=so_stub_for_libtelux_sec
-Wl,--defsym=_ZN5telux3sec20CAControlManagerImpl11getCapacityERNS0_10CACapacityE=so_stub_for_libtelux_sec
-Wl,--defsym=_ZN5telux3sec20CAControlManagerImpl14listenerExist_E=so_stub_for_libtelux_sec
-Wl,--defsym=_ZN5telux3sec20CAControlManagerImpl14sendLoadUpdateE6sigval=so_stub_for_libtelux_sec
-Wl,--defsym=_ZN5telux3sec20CAControlManagerImpl14stopMonitoringEv=so_stub_for_libtelux_sec
-Wl,--defsym=_ZN5telux3sec20CAControlManagerImpl15operationGuard_E=so_stub_for_libtelux_sec
-Wl,--defsym=_ZN5telux3sec20CAControlManagerImpl15startMonitoringENS0_10LoadConfigE=so_stub_for_libtelux_sec
-Wl,--defsym=_ZN5telux3sec20CAControlManagerImpl16registerListenerESt8weak_ptrINS0_25ICAControlManagerListenerEE=so_stub_for_libtelux_sec
-Wl,--defsym=_ZN5telux3sec20CAControlManagerImpl18cacheMessageCountsE19MVM_STATS_MSG_COUNT=so_stub_for_libtelux_sec
-Wl,--defsym=_ZN5telux3sec20CAControlManagerImpl18deliverUpdatedDataEbNS0_10CACapacityE19MVM_STATS_MSG_COUNTPv=so_stub_for_libtelux_sec
-Wl,--defsym=_ZN5telux3sec20CAControlManagerImpl18deRegisterListenerESt8weak_ptrINS0_25ICAControlManagerListenerEE=so_stub_for_libtelux_sec
-Wl,--defsym=_ZN5telux3sec20CAControlManagerImpl18sendCapacityUpdateE12MVM_CAPACITYPv=so_stub_for_libtelux_sec
-Wl,--defsym=_ZN5telux3sec20CAControlManagerImpl4initEv=so_stub_for_libtelux_sec
-Wl,--defsym=_ZN5telux3sec20CAControlManagerImpl8exitNow_E=so_stub_for_libtelux_sec
-Wl,--defsym=_ZN5telux3sec20CAControlManagerImplC1Ev=so_stub_for_libtelux_sec
-Wl,--defsym=_ZN5telux3sec20CAControlManagerImplC2Ev=so_stub_for_libtelux_sec
-Wl,--defsym=_ZN5telux3sec20CAControlManagerImplD0Ev=so_stub_for_libtelux_sec
-Wl,--defsym=_ZN5telux3sec20CAControlManagerImplD1Ev=so_stub_for_libtelux_sec
-Wl,--defsym=_ZN5telux3sec20CAControlManagerImplD2Ev=so_stub_for_libtelux_sec
-Wl,--defsym=_ZN5telux3sec22CryptoAcceleratorUtils18caToTeluxErrorCodeE10MVM_RETURN=so_stub_for_libtelux_sec
-Wl,--defsym=_ZN5telux3sec22CryptoAcceleratorUtils19pkeToTeluxErrorCodeE16MVM_ERROR_STATUS=so_stub_for_libtelux_sec
-Wl,--defsym=_ZN5telux3sec23RandomNumberManagerImpl13getRandomDataERSt6vectorIhSaIhEERm=so_stub_for_libtelux_sec
-Wl,--defsym=_ZN5telux3sec23RandomNumberManagerImpl15getRandomNumberERj=so_stub_for_libtelux_sec
-Wl,--defsym=_ZN5telux3sec23RandomNumberManagerImpl15getRandomNumberERm=so_stub_for_libtelux_sec
-Wl,--defsym=_ZN5telux3sec23RandomNumberManagerImpl4initENS0_9RNGSourceE=so_stub_for_libtelux_sec
-Wl,--defsym=_ZN5telux3sec23RandomNumberManagerImplC1Ev=so_stub_for_libtelux_sec
-Wl,--defsym=_ZN5telux3sec23RandomNumberManagerImplC2Ev=so_stub_for_libtelux_sec
-Wl,--defsym=_ZN5telux3sec23RandomNumberManagerImplD0Ev=so_stub_for_libtelux_sec
-Wl,--defsym=_ZN5telux3sec23RandomNumberManagerImplD1Ev=so_stub_for_libtelux_sec
-Wl,--defsym=_ZN5telux3sec23RandomNumberManagerImplD2Ev=so_stub_for_libtelux_sec
-Wl,--defsym=_ZN5telux3sec28CryptoAcceleratorManagerImpl11sendECCDataERKNS0_10DataDigestERKNS0_8ECCPointERKNS0_9SignatureENS0_8ECCCurveEjNS0_15RequestPriorityE=so_stub_for_libtelux_sec
-Wl,--defsym=_ZN5telux3sec28CryptoAcceleratorManagerImpl12resultReaderEv=so_stub_for_libtelux_sec
-Wl,--defsym=_ZN5telux3sec28CryptoAcceleratorManagerImpl12sendECQVDataERKNS0_8ECCPointES4_RKNS0_6ScalarENS0_8ECCCurveEjNS0_15RequestPriorityE=so_stub_for_libtelux_sec
-Wl,--defsym=_ZN5telux3sec28CryptoAcceleratorManagerImpl15eccVerifyDigestERKNS0_10DataDigestERKNS0_8ECCPointERKNS0_9SignatureENS0_8ECCCurveEjNS0_15RequestPriorityERSt6vectorIhSaIhEE=so_stub_for_libtelux_sec
-Wl,--defsym=_ZN5telux3sec28CryptoAcceleratorManagerImpl15getAsyncResultsERSt6vectorINS0_15OperationResultESaIS3_EEjiRj=so_stub_for_libtelux_sec
-Wl,--defsym=_ZN5telux3sec28CryptoAcceleratorManagerImpl16destructorGuard_E=so_stub_for_libtelux_sec
-Wl,--defsym=_ZN5telux3sec28CryptoAcceleratorManagerImpl16WaitStateCarrierD1Ev=so_stub_for_libtelux_sec
-Wl,--defsym=_ZN5telux3sec28CryptoAcceleratorManagerImpl16WaitStateCarrierD2Ev=so_stub_for_libtelux_sec
-Wl,--defsym=_ZN5telux3sec28CryptoAcceleratorManagerImpl17deliverResultSyncEPK10MVM_OUTPUT=so_stub_for_libtelux_sec
-Wl,--defsym=_ZN5telux3sec28CryptoAcceleratorManagerImpl18deliverResultAsyncEPK10MVM_OUTPUT=so_stub_for_libtelux_sec
-Wl,--defsym=_ZN5telux3sec28CryptoAcceleratorManagerImpl23ecqvPointMultiplyAndAddERKNS0_8ECCPointES4_RKNS0_6ScalarENS0_8ECCCurveEjNS0_15RequestPriorityERSt6vectorIhSaIhEE=so_stub_for_libtelux_sec
-Wl,--defsym=_ZN5telux3sec28CryptoAcceleratorManagerImpl24unblockSyncResultWaitersEv=so_stub_for_libtelux_sec
-Wl,--defsym=_ZN5telux3sec28CryptoAcceleratorManagerImpl28cryptoAcceleratorSSRCallbackE9mvm_statePv=so_stub_for_libtelux_sec
-Wl,--defsym=_ZN5telux3sec28CryptoAcceleratorManagerImpl28eccPostDigestForVerificationERKNS0_10DataDigestERKNS0_8ECCPointERKNS0_9SignatureENS0_8ECCCurveEjNS0_15RequestPriorityE=so_stub_for_libtelux_sec
-Wl,--defsym=_ZN5telux3sec28CryptoAcceleratorManagerImpl29ecqvPostDataForMultiplyAndAddERKNS0_8ECCPointES4_RKNS0_6ScalarENS0_8ECCCurveEjNS0_15RequestPriorityE=so_stub_for_libtelux_sec
-Wl,--defsym=_ZN5telux3sec28CryptoAcceleratorManagerImpl4initENS0_4ModeESt8weak_ptrINS0_26ICryptoAcceleratorListenerEE=so_stub_for_libtelux_sec
-Wl,--defsym=_ZN5telux3sec28CryptoAcceleratorManagerImpl8exitNow_E=so_stub_for_libtelux_sec
-Wl,--defsym=_ZN5telux3sec28CryptoAcceleratorManagerImplC1Ev=so_stub_for_libtelux_sec
-Wl,--defsym=_ZN5telux3sec28CryptoAcceleratorManagerImplC2Ev=so_stub_for_libtelux_sec
-Wl,--defsym=_ZN5telux3sec28CryptoAcceleratorManagerImplD0Ev=so_stub_for_libtelux_sec
-Wl,--defsym=_ZN5telux3sec28CryptoAcceleratorManagerImplD1Ev=so_stub_for_libtelux_sec
-Wl,--defsym=_ZN5telux3sec28CryptoAcceleratorManagerImplD2Ev=so_stub_for_libtelux_sec
-Wl,--defsym=_ZN5telux6common14TaskDispatcher10submitTaskIZNS_3sec28CryptoAcceleratorManagerImpl18deliverResultAsyncEPK10MVM_OUTPUTEUlvE0_JEEESt6futureIDTclfp_spfp0_EEET_DpOT0_=so_stub_for_libtelux_sec
-Wl,--defsym=_ZN5telux6common14TaskDispatcher10submitTaskIZNS_3sec28CryptoAcceleratorManagerImpl18deliverResultAsyncEPK10MVM_OUTPUTEUlvE_JEEESt6futureIDTclfp_spfp0_EEET_DpOT0_=so_stub_for_libtelux_sec
-Wl,--defsym=_ZN5telux6common15ListenerManager16registerListenerESt8weak_ptrINS0_12ISDKListenerEE=so_stub_for_libtelux_sec
-Wl,--defsym=_ZN5telux6common15ListenerManager18deRegisterListenerESt8weak_ptrINS0_12ISDKListenerEE=so_stub_for_libtelux_sec
-Wl,--defsym=_ZN5telux6common15ListenerManager21getAvailableListenersERSt6vectorISt8weak_ptrINS0_12ISDKListenerEESaIS5_EE=so_stub_for_libtelux_sec
-Wl,--defsym=_ZN5telux6common15ListenerManager5purgeEv=so_stub_for_libtelux_sec
-Wl,--defsym=_ZN5telux6common15ListenerManager7cleanupEv=so_stub_for_libtelux_sec
-Wl,--defsym=_ZN5telux6common15ListenerManagerC1Ev=so_stub_for_libtelux_sec
-Wl,--defsym=_ZN5telux6common15ListenerManagerC2Ev=so_stub_for_libtelux_sec
-Wl,--defsym=_ZN5telux6common15ListenerManagerD1Ev=so_stub_for_libtelux_sec
-Wl,--defsym=_ZN5telux6common15ListenerManagerD2Ev=so_stub_for_libtelux_sec
-Wl,--defsym=_ZN5telux6common3Log10logMessageIJPKcEEEvNS0_8LogLevelERKNSt7__cxx1112basic_stringIcSt11char_traitsIcESaIcEEESD_RKiDpT_=so_stub_for_libtelux_sec
-Wl,--defsym=_ZN5telux6common3Log10logMessageIJPKcS4_17keymaster_error_tEEEvNS0_8LogLevelERKNSt7__cxx1112basic_stringIcSt11char_traitsIcESaIcEEESE_RKiDpT_=so_stub_for_libtelux_sec
-Wl,--defsym=_ZN5telux6common3Log10logMessageIJPKcS4_EEEvNS0_8LogLevelERKNSt7__cxx1112basic_stringIcSt11char_traitsIcESaIcEEESD_RKiDpT_=so_stub_for_libtelux_sec
-Wl,--defsym=_ZN5telux6common3Log10logMessageIJPKcS4_iEEEvNS0_8LogLevelERKNSt7__cxx1112basic_stringIcSt11char_traitsIcESaIcEEESD_RKiDpT_=so_stub_for_libtelux_sec
-Wl,--defsym=_ZN5telux6common3Log10logMessageIJPKcS4_jEEEvNS0_8LogLevelERKNSt7__cxx1112basic_stringIcSt11char_traitsIcESaIcEEESD_RKiDpT_=so_stub_for_libtelux_sec
-Wl,--defsym=_ZN5telux6common3Log10logMessageIJPKcS4_mEEEvNS0_8LogLevelERKNSt7__cxx1112basic_stringIcSt11char_traitsIcESaIcEEESD_RKiDpT_=so_stub_for_libtelux_sec
-Wl,--defsym=_ZN5telux6common3Log10logMessageIJPKcS4_PcS4_iEEEvNS0_8LogLevelERKNSt7__cxx1112basic_stringIcSt11char_traitsIcESaIcEEESE_RKiDpT_=so_stub_for_libtelux_sec
-Wl,--defsym=_ZN5telux6common3Log16constructMessageINSt7__cxx1119basic_ostringstreamIcSt11char_traitsIcESaIcEEEPKcJSA_PcSA_iEEEvRT_T0_DpT1_=so_stub_for_libtelux_sec
-Wl,--defsym=_ZN5telux6common9TaskQueue6pushToIZNS_3sec28CryptoAcceleratorManagerImpl18deliverResultAsyncEPK10MVM_OUTPUTEUlvE0_JEEESt6futureIDTclfp_spfp0_EEET_DpOT0_=so_stub_for_libtelux_sec
-Wl,--defsym=_ZN5telux6common9TaskQueue6pushToIZNS_3sec28CryptoAcceleratorManagerImpl18deliverResultAsyncEPK10MVM_OUTPUTEUlvE_JEEESt6futureIDTclfp_spfp0_EEET_DpOT0_=so_stub_for_libtelux_sec
-Wl,--defsym=_ZN9__gnu_cxx5__ops10_Iter_predIZN5telux6common15ListenerManager16registerListenerESt8weak_ptrINS3_12ISDKListenerEEEUlS7_E_EclINS_17__normal_iteratorIPS7_St6vectorIS7_SaIS7_EEEEEEbT_=so_stub_for_libtelux_sec
-Wl,--defsym=_ZNKSt10_HashtableIjSt4pairIKjPN5telux3sec28CryptoAcceleratorManagerImpl16WaitStateCarrierEESaIS7_ENSt8__detail10_Select1stESt8equal_toIjESt4hashIjENS9_18_Mod_range_hashingENS9_20_Default_ranged_hashENS9_20_Prime_rehash_policyENS9_17_Hashtable_traitsILb0ELb0ELb1EEEE19_M_find_before_nodeEmRS1_m=so_stub_for_libtelux_sec
-Wl,--defsym=_ZNKSt13__future_base12_Task_setterISt10unique_ptrINS_7_ResultIvEENS_12_Result_base8_DeleterEEZNS_11_Task_stateISt5_BindIFZN5telux3sec28CryptoAcceleratorManagerImpl18deliverResultAsyncEPK10MVM_OUTPUTEUlvE0_vEESaIiEFvvEE14_M_run_delayedESt8weak_ptrINS_13_State_baseV2EEEUlvE_vEclEv=so_stub_for_libtelux_sec
-Wl,--defsym=_ZNKSt13__future_base12_Task_setterISt10unique_ptrINS_7_ResultIvEENS_12_Result_base8_DeleterEEZNS_11_Task_stateISt5_BindIFZN5telux3sec28CryptoAcceleratorManagerImpl18deliverResultAsyncEPK10MVM_OUTPUTEUlvE0_vEESaIiEFvvEE6_M_runEvEUlvE_vEclEv=so_stub_for_libtelux_sec
-Wl,--defsym=_ZNKSt13__future_base12_Task_setterISt10unique_ptrINS_7_ResultIvEENS_12_Result_base8_DeleterEEZNS_11_Task_stateISt5_BindIFZN5telux3sec28CryptoAcceleratorManagerImpl18deliverResultAsyncEPK10MVM_OUTPUTEUlvE_vEESaIiEFvvEE14_M_run_delayedESt8weak_ptrINS_13_State_baseV2EEEUlvE_vEclEv=so_stub_for_libtelux_sec
-Wl,--defsym=_ZNKSt13__future_base12_Task_setterISt10unique_ptrINS_7_ResultIvEENS_12_Result_base8_DeleterEEZNS_11_Task_stateISt5_BindIFZN5telux3sec28CryptoAcceleratorManagerImpl18deliverResultAsyncEPK10MVM_OUTPUTEUlvE_vEESaIiEFvvEE6_M_runEvEUlvE_vEclEv=so_stub_for_libtelux_sec
-Wl,--defsym=_ZNKSt13__future_base13_State_baseV221_M_is_deferred_futureEv=so_stub_for_libtelux_sec
-Wl,--defsym=_ZNSt10_HashtableIjSt4pairIKjPN5telux3sec28CryptoAcceleratorManagerImpl16WaitStateCarrierEESaIS7_ENSt8__detail10_Select1stESt8equal_toIjESt4hashIjENS9_18_Mod_range_hashingENS9_20_Default_ranged_hashENS9_20_Prime_rehash_policyENS9_17_Hashtable_traitsILb0ELb0ELb1EEEE10_M_emplaceIJRjS6_EEES0_INS9_14_Node_iteratorIS7_Lb0ELb0EEEbESt17integral_constantIbLb1EEDpOT_=so_stub_for_libtelux_sec
-Wl,--defsym=_ZNSt10_HashtableIjSt4pairIKjPN5telux3sec28CryptoAcceleratorManagerImpl16WaitStateCarrierEESaIS7_ENSt8__detail10_Select1stESt8equal_toIjESt4hashIjENS9_18_Mod_range_hashingENS9_20_Default_ranged_hashENS9_20_Prime_rehash_policyENS9_17_Hashtable_traitsILb0ELb0ELb1EEEE13_M_rehash_auxEmSt17integral_constantIbLb1EE=so_stub_for_libtelux_sec
-Wl,--defsym=_ZNSt10_HashtableIjSt4pairIKjPN5telux3sec28CryptoAcceleratorManagerImpl16WaitStateCarrierEESaIS7_ENSt8__detail10_Select1stESt8equal_toIjESt4hashIjENS9_18_Mod_range_hashingENS9_20_Default_ranged_hashENS9_20_Prime_rehash_policyENS9_17_Hashtable_traitsILb0ELb0ELb1EEEE21_M_insert_unique_nodeEmmPNS9_10_Hash_nodeIS7_Lb0EEEm=so_stub_for_libtelux_sec
-Wl,--defsym=_ZNSt10_HashtableIjSt4pairIKjPN5telux3sec28CryptoAcceleratorManagerImpl16WaitStateCarrierEESaIS7_ENSt8__detail10_Select1stESt8equal_toIjESt4hashIjENS9_18_Mod_range_hashingENS9_20_Default_ranged_hashENS9_20_Prime_rehash_policyENS9_17_Hashtable_traitsILb0ELb0ELb1EEEE5clearEv=so_stub_for_libtelux_sec
-Wl,--defsym=_ZNSt10_HashtableIjSt4pairIKjPN5telux3sec28CryptoAcceleratorManagerImpl16WaitStateCarrierEESaIS7_ENSt8__detail10_Select1stESt8equal_toIjESt4hashIjENS9_18_Mod_range_hashingENS9_20_Default_ranged_hashENS9_20_Prime_rehash_policyENS9_17_Hashtable_traitsILb0ELb0ELb1EEEE8_M_eraseEmPNS9_15_Hash_node_baseEPNS9_10_Hash_nodeIS7_Lb0EEE=so_stub_for_libtelux_sec
-Wl,--defsym=_ZNSt10_HashtableIjSt4pairIKjPN5telux3sec28CryptoAcceleratorManagerImpl16WaitStateCarrierEESaIS7_ENSt8__detail10_Select1stESt8equal_toIjESt4hashIjENS9_18_Mod_range_hashingENS9_20_Default_ranged_hashENS9_20_Prime_rehash_policyENS9_17_Hashtable_traitsILb0ELb0ELb1EEEE8_M_eraseESt17integral_constantIbLb1EERS1_=so_stub_for_libtelux_sec
-Wl,--defsym=_ZNSt10_HashtableIjSt4pairIKjPN5telux3sec28CryptoAcceleratorManagerImpl16WaitStateCarrierEESaIS7_ENSt8__detail10_Select1stESt8equal_toIjESt4hashIjENS9_18_Mod_range_hashingENS9_20_Default_ranged_hashENS9_20_Prime_rehash_policyENS9_17_Hashtable_traitsILb0ELb0ELb1EEEE9_M_rehashEmRKm=so_stub_for_libtelux_sec
-Wl,--defsym=_ZNSt10_HashtableIjSt4pairIKjPN5telux3sec28CryptoAcceleratorManagerImpl16WaitStateCarrierEESaIS7_ENSt8__detail10_Select1stESt8equal_toIjESt4hashIjENS9_18_Mod_range_hashingENS9_20_Default_ranged_hashENS9_20_Prime_rehash_policyENS9_17_Hashtable_traitsILb0ELb0ELb1EEEED1Ev=so_stub_for_libtelux_sec
-Wl,--defsym=_ZNSt10_HashtableIjSt4pairIKjPN5telux3sec28CryptoAcceleratorManagerImpl16WaitStateCarrierEESaIS7_ENSt8__detail10_Select1stESt8equal_toIjESt4hashIjENS9_18_Mod_range_hashingENS9_20_Default_ranged_hashENS9_20_Prime_rehash_policyENS9_17_Hashtable_traitsILb0ELb0ELb1EEEED2Ev=so_stub_for_libtelux_sec
-Wl,--defsym=_ZNSt10shared_ptrIN5telux3sec15CryptoParamImplEEC1ISaIS2_EJEEESt20_Sp_alloc_shared_tagIT_EDpOT0_=so_stub_for_libtelux_sec
-Wl,--defsym=_ZNSt10shared_ptrIN5telux3sec15CryptoParamImplEEC2ISaIS2_EJEEESt20_Sp_alloc_shared_tagIT_EDpOT0_=so_stub_for_libtelux_sec
-Wl,--defsym=_ZNSt10shared_ptrIN5telux3sec17CryptoManagerImplEEC1ISaIS2_EJEEESt20_Sp_alloc_shared_tagIT_EDpOT0_=so_stub_for_libtelux_sec
-Wl,--defsym=_ZNSt10shared_ptrIN5telux3sec17CryptoManagerImplEEC2ISaIS2_EJEEESt20_Sp_alloc_shared_tagIT_EDpOT0_=so_stub_for_libtelux_sec
-Wl,--defsym=_ZNSt10shared_ptrIN5telux6common14TaskDispatcherEEC1ISaIS2_EJEEESt20_Sp_alloc_shared_tagIT_EDpOT0_=so_stub_for_libtelux_sec
-Wl,--defsym=_ZNSt10shared_ptrIN5telux6common14TaskDispatcherEEC2ISaIS2_EJEEESt20_Sp_alloc_shared_tagIT_EDpOT0_=so_stub_for_libtelux_sec
-Wl,--defsym=_ZNSt10shared_ptrIN5telux6common15ListenerManagerEEC1ISaIS2_EJEEESt20_Sp_alloc_shared_tagIT_EDpOT0_=so_stub_for_libtelux_sec
-Wl,--defsym=_ZNSt10shared_ptrIN5telux6common15ListenerManagerEEC2ISaIS2_EJEEESt20_Sp_alloc_shared_tagIT_EDpOT0_=so_stub_for_libtelux_sec
-Wl,--defsym=_ZNSt10shared_ptrISt6vectorIhSaIhEEEC1ISaIS2_EJRS2_EEESt20_Sp_alloc_shared_tagIT_EDpOT0_=so_stub_for_libtelux_sec
-Wl,--defsym=_ZNSt10shared_ptrISt6vectorIhSaIhEEEC2ISaIS2_EJRS2_EEESt20_Sp_alloc_shared_tagIT_EDpOT0_=so_stub_for_libtelux_sec
-Wl,--defsym=_ZNSt10unique_ptrINSt13__future_base13_State_baseV211_Make_readyESt14default_deleteIS2_EED1Ev=so_stub_for_libtelux_sec
-Wl,--defsym=_ZNSt10unique_ptrINSt13__future_base13_State_baseV211_Make_readyESt14default_deleteIS2_EED2Ev=so_stub_for_libtelux_sec
-Wl,--defsym=_ZNSt10__weak_ptrIN5telux6common12ISDKListenerELN9__gnu_cxx12_Lock_policyE2EEC1INS0_3sec25ICAControlManagerListenerEvEERKS_IT_LS4_2EE=so_stub_for_libtelux_sec
-Wl,--defsym=_ZNSt10__weak_ptrIN5telux6common12ISDKListenerELN9__gnu_cxx12_Lock_policyE2EEC1INS0_3sec26ICryptoAcceleratorListenerEvEERKS_IT_LS4_2EE=so_stub_for_libtelux_sec
-Wl,--defsym=_ZNSt10__weak_ptrIN5telux6common12ISDKListenerELN9__gnu_cxx12_Lock_policyE2EEC2INS0_3sec25ICAControlManagerListenerEvEERKS_IT_LS4_2EE=so_stub_for_libtelux_sec
-Wl,--defsym=_ZNSt10__weak_ptrIN5telux6common12ISDKListenerELN9__gnu_cxx12_Lock_policyE2EEC2INS0_3sec26ICryptoAcceleratorListenerEvEERKS_IT_LS4_2EE=so_stub_for_libtelux_sec
-Wl,--defsym=_ZNSt11unique_lockISt5mutexE4lockEv=so_stub_for_libtelux_sec
-Wl,--defsym=_ZNSt11unique_lockISt5mutexE6unlockEv=so_stub_for_libtelux_sec
-Wl,--defsym=_ZNSt12future_errorC1ESt10error_code=so_stub_for_libtelux_sec
-Wl,--defsym=_ZNSt12future_errorC2ESt10error_code=so_stub_for_libtelux_sec
-Wl,--defsym=_ZNSt12__shared_ptrIN5telux3sec20CAControlManagerImplELN9__gnu_cxx12_Lock_policyE2EEC1ISaIS2_EJEEESt20_Sp_alloc_shared_tagIT_EDpOT0_=so_stub_for_libtelux_sec
-Wl,--defsym=_ZNSt12__shared_ptrIN5telux3sec20CAControlManagerImplELN9__gnu_cxx12_Lock_policyE2EEC2ISaIS2_EJEEESt20_Sp_alloc_shared_tagIT_EDpOT0_=so_stub_for_libtelux_sec
-Wl,--defsym=_ZNSt12__shared_ptrIN5telux3sec23RandomNumberManagerImplELN9__gnu_cxx12_Lock_policyE2EEC1ISaIS2_EJEEESt20_Sp_alloc_shared_tagIT_EDpOT0_=so_stub_for_libtelux_sec
-Wl,--defsym=_ZNSt12__shared_ptrIN5telux3sec23RandomNumberManagerImplELN9__gnu_cxx12_Lock_policyE2EEC2ISaIS2_EJEEESt20_Sp_alloc_shared_tagIT_EDpOT0_=so_stub_for_libtelux_sec
-Wl,--defsym=_ZNSt12__shared_ptrIN5telux3sec28CryptoAcceleratorManagerImplELN9__gnu_cxx12_Lock_policyE2EEC1ISaIS2_EJEEESt20_Sp_alloc_shared_tagIT_EDpOT0_=so_stub_for_libtelux_sec
-Wl,--defsym=_ZNSt12__shared_ptrIN5telux3sec28CryptoAcceleratorManagerImplELN9__gnu_cxx12_Lock_policyE2EEC2ISaIS2_EJEEESt20_Sp_alloc_shared_tagIT_EDpOT0_=so_stub_for_libtelux_sec
-Wl,--defsym=_ZNSt12__weak_countILN9__gnu_cxx12_Lock_policyE2EEaSERKSt14__shared_countILS1_2EE=so_stub_for_libtelux_sec
-Wl,--defsym=_ZNSt13__future_base11_Task_stateISt5_BindIFZN5telux3sec28CryptoAcceleratorManagerImpl18deliverResultAsyncEPK10MVM_OUTPUTEUlvE0_vEESaIiEFvvEE14_M_run_delayedESt8weak_ptrINS_13_State_baseV2EE=so_stub_for_libtelux_sec
-Wl,--defsym=_ZNSt13__future_base11_Task_stateISt5_BindIFZN5telux3sec28CryptoAcceleratorManagerImpl18deliverResultAsyncEPK10MVM_OUTPUTEUlvE0_vEESaIiEFvvEE6_M_runEv=so_stub_for_libtelux_sec
-Wl,--defsym=_ZNSt13__future_base11_Task_stateISt5_BindIFZN5telux3sec28CryptoAcceleratorManagerImpl18deliverResultAsyncEPK10MVM_OUTPUTEUlvE0_vEESaIiEFvvEE8_M_resetEv=so_stub_for_libtelux_sec
-Wl,--defsym=_ZNSt13__future_base11_Task_stateISt5_BindIFZN5telux3sec28CryptoAcceleratorManagerImpl18deliverResultAsyncEPK10MVM_OUTPUTEUlvE0_vEESaIiEFvvEED0Ev=so_stub_for_libtelux_sec
-Wl,--defsym=_ZNSt13__future_base11_Task_stateISt5_BindIFZN5telux3sec28CryptoAcceleratorManagerImpl18deliverResultAsyncEPK10MVM_OUTPUTEUlvE0_vEESaIiEFvvEED1Ev=so_stub_for_libtelux_sec
-Wl,--defsym=_ZNSt13__future_base11_Task_stateISt5_BindIFZN5telux3sec28CryptoAcceleratorManagerImpl18deliverResultAsyncEPK10MVM_OUTPUTEUlvE0_vEESaIiEFvvEED2Ev=so_stub_for_libtelux_sec
-Wl,--defsym=_ZNSt13__future_base11_Task_stateISt5_BindIFZN5telux3sec28CryptoAcceleratorManagerImpl18deliverResultAsyncEPK10MVM_OUTPUTEUlvE_vEESaIiEFvvEE14_M_run_delayedESt8weak_ptrINS_13_State_baseV2EE=so_stub_for_libtelux_sec
-Wl,--defsym=_ZNSt13__future_base11_Task_stateISt5_BindIFZN5telux3sec28CryptoAcceleratorManagerImpl18deliverResultAsyncEPK10MVM_OUTPUTEUlvE_vEESaIiEFvvEE6_M_runEv=so_stub_for_libtelux_sec
-Wl,--defsym=_ZNSt13__future_base11_Task_stateISt5_BindIFZN5telux3sec28CryptoAcceleratorManagerImpl18deliverResultAsyncEPK10MVM_OUTPUTEUlvE_vEESaIiEFvvEE8_M_resetEv=so_stub_for_libtelux_sec
-Wl,--defsym=_ZNSt13__future_base11_Task_stateISt5_BindIFZN5telux3sec28CryptoAcceleratorManagerImpl18deliverResultAsyncEPK10MVM_OUTPUTEUlvE_vEESaIiEFvvEED0Ev=so_stub_for_libtelux_sec
-Wl,--defsym=_ZNSt13__future_base11_Task_stateISt5_BindIFZN5telux3sec28CryptoAcceleratorManagerImpl18deliverResultAsyncEPK10MVM_OUTPUTEUlvE_vEESaIiEFvvEED1Ev=so_stub_for_libtelux_sec
-Wl,--defsym=_ZNSt13__future_base11_Task_stateISt5_BindIFZN5telux3sec28CryptoAcceleratorManagerImpl18deliverResultAsyncEPK10MVM_OUTPUTEUlvE_vEESaIiEFvvEED2Ev=so_stub_for_libtelux_sec
-Wl,--defsym=_ZNSt13__future_base13_State_baseV213_M_set_resultESt8functionIFSt10unique_ptrINS_12_Result_baseENS3_8_DeleterEEvEEb=so_stub_for_libtelux_sec
-Wl,--defsym=_ZNSt13__future_base13_State_baseV216_M_break_promiseESt10unique_ptrINS_12_Result_baseENS2_8_DeleterEE=so_stub_for_libtelux_sec
-Wl,--defsym=_ZNSt13__future_base13_State_baseV217_M_complete_asyncEv=so_stub_for_libtelux_sec
-Wl,--defsym=_ZNSt13__future_base13_State_baseV221_M_set_delayed_resultESt8functionIFSt10unique_ptrINS_12_Result_baseENS3_8_DeleterEEvEESt8weak_ptrIS0_E=so_stub_for_libtelux_sec
-Wl,--defsym=_ZNSt13__future_base13_State_baseV29_M_do_setEPSt8functionIFSt10unique_ptrINS_12_Result_baseENS3_8_DeleterEEvEEPb=so_stub_for_libtelux_sec
-Wl,--defsym=_ZNSt13__future_base13_State_baseV2D0Ev=so_stub_for_libtelux_sec
-Wl,--defsym=_ZNSt13__future_base13_State_baseV2D1Ev=so_stub_for_libtelux_sec
-Wl,--defsym=_ZNSt13__future_base13_State_baseV2D2Ev=so_stub_for_libtelux_sec
-Wl,--defsym=_ZNSt13__future_base16_Task_state_baseIFvvEEC1ISaIiEEERKT_=so_stub_for_libtelux_sec
-Wl,--defsym=_ZNSt13__future_base16_Task_state_baseIFvvEEC2ISaIiEEERKT_=so_stub_for_libtelux_sec
-Wl,--defsym=_ZNSt13__future_base16_Task_state_baseIFvvEED0Ev=so_stub_for_libtelux_sec
-Wl,--defsym=_ZNSt13__future_base16_Task_state_baseIFvvEED1Ev=so_stub_for_libtelux_sec
-Wl,--defsym=_ZNSt13__future_base16_Task_state_baseIFvvEED2Ev=so_stub_for_libtelux_sec
-Wl,--defsym=_ZNSt13__future_base7_ResultIvE10_M_destroyEv=so_stub_for_libtelux_sec
-Wl,--defsym=_ZNSt13__future_base7_ResultIvED0Ev=so_stub_for_libtelux_sec
-Wl,--defsym=_ZNSt13__future_base7_ResultIvED1Ev=so_stub_for_libtelux_sec
-Wl,--defsym=_ZNSt13__future_base7_ResultIvED2Ev=so_stub_for_libtelux_sec
-Wl,--defsym=_ZNSt13packaged_taskIFvvEE10get_futureEv=so_stub_for_libtelux_sec
-Wl,--defsym=_ZNSt13packaged_taskIFvvEED1Ev=so_stub_for_libtelux_sec
-Wl,--defsym=_ZNSt13packaged_taskIFvvEED2Ev=so_stub_for_libtelux_sec
-Wl,--defsym=_ZNSt14__basic_futureIvEC1ERKSt10shared_ptrINSt13__future_base13_State_baseV2EE=so_stub_for_libtelux_sec
-Wl,--defsym=_ZNSt14__basic_futureIvEC2ERKSt10shared_ptrINSt13__future_base13_State_baseV2EE=so_stub_for_libtelux_sec
-Wl,--defsym=_ZNSt14_Function_baseD1Ev=so_stub_for_libtelux_sec
-Wl,--defsym=_ZNSt14_Function_baseD2Ev=so_stub_for_libtelux_sec
-Wl,--defsym=_ZNSt14__shared_countILN9__gnu_cxx12_Lock_policyE2EEC1ERKSt12__weak_countILS1_2EESt9nothrow_t=so_stub_for_libtelux_sec
-Wl,--defsym=_ZNSt14__shared_countILN9__gnu_cxx12_Lock_policyE2EEC1INSt13__future_base11_Task_stateISt5_BindIFZN5telux3sec28CryptoAcceleratorManagerImpl18deliverResultAsyncEPK10MVM_OUTPUTEUlvE0_vEESaIiEFvvEEESG_JRSF_RKSG_EEERPT_St20_Sp_alloc_shared_tagIT0_EDpOT1_=so_stub_for_libtelux_sec
-Wl,--defsym=_ZNSt14__shared_countILN9__gnu_cxx12_Lock_policyE2EEC1INSt13__future_base11_Task_stateISt5_BindIFZN5telux3sec28CryptoAcceleratorManagerImpl18deliverResultAsyncEPK10MVM_OUTPUTEUlvE0_vEESaIiEFvvEEESG_JSF_RKSG_EEERPT_St20_Sp_alloc_shared_tagIT0_EDpOT1_=so_stub_for_libtelux_sec
-Wl,--defsym=_ZNSt14__shared_countILN9__gnu_cxx12_Lock_policyE2EEC1INSt13__future_base11_Task_stateISt5_BindIFZN5telux3sec28CryptoAcceleratorManagerImpl18deliverResultAsyncEPK10MVM_OUTPUTEUlvE_vEESaIiEFvvEEESG_JRSF_RKSG_EEERPT_St20_Sp_alloc_shared_tagIT0_EDpOT1_=so_stub_for_libtelux_sec
-Wl,--defsym=_ZNSt14__shared_countILN9__gnu_cxx12_Lock_policyE2EEC1INSt13__future_base11_Task_stateISt5_BindIFZN5telux3sec28CryptoAcceleratorManagerImpl18deliverResultAsyncEPK10MVM_OUTPUTEUlvE_vEESaIiEFvvEEESG_JSF_RKSG_EEERPT_St20_Sp_alloc_shared_tagIT0_EDpOT1_=so_stub_for_libtelux_sec
-Wl,--defsym=_ZNSt14__shared_countILN9__gnu_cxx12_Lock_policyE2EEC2ERKSt12__weak_countILS1_2EESt9nothrow_t=so_stub_for_libtelux_sec
-Wl,--defsym=_ZNSt14__shared_countILN9__gnu_cxx12_Lock_policyE2EEC2INSt13__future_base11_Task_stateISt5_BindIFZN5telux3sec28CryptoAcceleratorManagerImpl18deliverResultAsyncEPK10MVM_OUTPUTEUlvE0_vEESaIiEFvvEEESG_JRSF_RKSG_EEERPT_St20_Sp_alloc_shared_tagIT0_EDpOT1_=so_stub_for_libtelux_sec
-Wl,--defsym=_ZNSt14__shared_countILN9__gnu_cxx12_Lock_policyE2EEC2INSt13__future_base11_Task_stateISt5_BindIFZN5telux3sec28CryptoAcceleratorManagerImpl18deliverResultAsyncEPK10MVM_OUTPUTEUlvE0_vEESaIiEFvvEEESG_JSF_RKSG_EEERPT_St20_Sp_alloc_shared_tagIT0_EDpOT1_=so_stub_for_libtelux_sec
-Wl,--defsym=_ZNSt14__shared_countILN9__gnu_cxx12_Lock_policyE2EEC2INSt13__future_base11_Task_stateISt5_BindIFZN5telux3sec28CryptoAcceleratorManagerImpl18deliverResultAsyncEPK10MVM_OUTPUTEUlvE_vEESaIiEFvvEEESG_JRSF_RKSG_EEERPT_St20_Sp_alloc_shared_tagIT0_EDpOT1_=so_stub_for_libtelux_sec
-Wl,--defsym=_ZNSt14__shared_countILN9__gnu_cxx12_Lock_policyE2EEC2INSt13__future_base11_Task_stateISt5_BindIFZN5telux3sec28CryptoAcceleratorManagerImpl18deliverResultAsyncEPK10MVM_OUTPUTEUlvE_vEESaIiEFvvEEESG_JSF_RKSG_EEERPT_St20_Sp_alloc_shared_tagIT0_EDpOT1_=so_stub_for_libtelux_sec
-Wl,--defsym=_ZNSt15__exception_ptr12__dest_thunkISt12future_errorEEvPv=so_stub_for_libtelux_sec
-Wl,--defsym=_ZNSt15__exception_ptr13exception_ptraSEOS0_=so_stub_for_libtelux_sec
-Wl,--defsym=_ZNSt16_Sp_counted_baseILN9__gnu_cxx12_Lock_policyE2EE10_M_releaseEv=so_stub_for_libtelux_sec
-Wl,--defsym=_ZNSt16_Sp_counted_baseILN9__gnu_cxx12_Lock_policyE2EE15_M_weak_releaseEv=so_stub_for_libtelux_sec
-Wl,--defsym=_ZNSt17_Function_handlerIFSt10unique_ptrINSt13__future_base12_Result_baseENS2_8_DeleterEEvENS1_12_Task_setterIS0_INS1_7_ResultIvEES3_EZNS1_11_Task_stateISt5_BindIFZN5telux3sec28CryptoAcceleratorManagerImpl18deliverResultAsyncEPK10MVM_OUTPUTEUlvE0_vEESaIiEFvvEE14_M_run_delayedESt8weak_ptrINS1_13_State_baseV2EEEUlvE_vEEE10_M_managerERSt9_Any_dataRKSU_St18_Manager_operation=so_stub_for_libtelux_sec
-Wl,--defsym=_ZNSt17_Function_handlerIFSt10unique_ptrINSt13__future_base12_Result_baseENS2_8_DeleterEEvENS1_12_Task_setterIS0_INS1_7_ResultIvEES3_EZNS1_11_Task_stateISt5_BindIFZN5telux3sec28CryptoAcceleratorManagerImpl18deliverResultAsyncEPK10MVM_OUTPUTEUlvE0_vEESaIiEFvvEE14_M_run_delayedESt8weak_ptrINS1_13_State_baseV2EEEUlvE_vEEE9_M_invokeERKSt9_Any_data=so_stub_for_libtelux_sec
-Wl,--defsym=_ZNSt17_Function_handlerIFSt10unique_ptrINSt13__future_base12_Result_baseENS2_8_DeleterEEvENS1_12_Task_setterIS0_INS1_7_ResultIvEES3_EZNS1_11_Task_stateISt5_BindIFZN5telux3sec28CryptoAcceleratorManagerImpl18deliverResultAsyncEPK10MVM_OUTPUTEUlvE0_vEESaIiEFvvEE6_M_runEvEUlvE_vEEE10_M_managerERSt9_Any_dataRKSR_St18_Manager_operation=so_stub_for_libtelux_sec
-Wl,--defsym=_ZNSt17_Function_handlerIFSt10unique_ptrINSt13__future_base12_Result_baseENS2_8_DeleterEEvENS1_12_Task_setterIS0_INS1_7_ResultIvEES3_EZNS1_11_Task_stateISt5_BindIFZN5telux3sec28CryptoAcceleratorManagerImpl18deliverResultAsyncEPK10MVM_OUTPUTEUlvE0_vEESaIiEFvvEE6_M_runEvEUlvE_vEEE9_M_invokeERKSt9_Any_data=so_stub_for_libtelux_sec
-Wl,--defsym=_ZNSt17_Function_handlerIFSt10unique_ptrINSt13__future_base12_Result_baseENS2_8_DeleterEEvENS1_12_Task_setterIS0_INS1_7_ResultIvEES3_EZNS1_11_Task_stateISt5_BindIFZN5telux3sec28CryptoAcceleratorManagerImpl18deliverResultAsyncEPK10MVM_OUTPUTEUlvE_vEESaIiEFvvEE14_M_run_delayedESt8weak_ptrINS1_13_State_baseV2EEEUlvE_vEEE10_M_managerERSt9_Any_dataRKSU_St18_Manager_operation=so_stub_for_libtelux_sec
-Wl,--defsym=_ZNSt17_Function_handlerIFSt10unique_ptrINSt13__future_base12_Result_baseENS2_8_DeleterEEvENS1_12_Task_setterIS0_INS1_7_ResultIvEES3_EZNS1_11_Task_stateISt5_BindIFZN5telux3sec28CryptoAcceleratorManagerImpl18deliverResultAsyncEPK10MVM_OUTPUTEUlvE_vEESaIiEFvvEE14_M_run_delayedESt8weak_ptrINS1_13_State_baseV2EEEUlvE_vEEE9_M_invokeERKSt9_Any_data=so_stub_for_libtelux_sec
-Wl,--defsym=_ZNSt17_Function_handlerIFSt10unique_ptrINSt13__future_base12_Result_baseENS2_8_DeleterEEvENS1_12_Task_setterIS0_INS1_7_ResultIvEES3_EZNS1_11_Task_stateISt5_BindIFZN5telux3sec28CryptoAcceleratorManagerImpl18deliverResultAsyncEPK10MVM_OUTPUTEUlvE_vEESaIiEFvvEE6_M_runEvEUlvE_vEEE10_M_managerERSt9_Any_dataRKSR_St18_Manager_operation=so_stub_for_libtelux_sec
-Wl,--defsym=_ZNSt17_Function_handlerIFSt10unique_ptrINSt13__future_base12_Result_baseENS2_8_DeleterEEvENS1_12_Task_setterIS0_INS1_7_ResultIvEES3_EZNS1_11_Task_stateISt5_BindIFZN5telux3sec28CryptoAcceleratorManagerImpl18deliverResultAsyncEPK10MVM_OUTPUTEUlvE_vEESaIiEFvvEE6_M_runEvEUlvE_vEEE9_M_invokeERKSt9_Any_data=so_stub_for_libtelux_sec
-Wl,--defsym=_ZNSt23_Sp_counted_ptr_inplaceIN5telux3sec13EncryptedDataESaIS2_ELN9__gnu_cxx12_Lock_policyE2EE10_M_destroyEv=so_stub_for_libtelux_sec
-Wl,--defsym=_ZNSt23_Sp_counted_ptr_inplaceIN5telux3sec13EncryptedDataESaIS2_ELN9__gnu_cxx12_Lock_policyE2EE10_M_disposeEv=so_stub_for_libtelux_sec
-Wl,--defsym=_ZNSt23_Sp_counted_ptr_inplaceIN5telux3sec13EncryptedDataESaIS2_ELN9__gnu_cxx12_Lock_policyE2EE14_M_get_deleterERKSt9type_info=so_stub_for_libtelux_sec
-Wl,--defsym=_ZNSt23_Sp_counted_ptr_inplaceIN5telux3sec13EncryptedDataESaIS2_ELN9__gnu_cxx12_Lock_policyE2EED0Ev=so_stub_for_libtelux_sec
-Wl,--defsym=_ZNSt23_Sp_counted_ptr_inplaceIN5telux3sec13EncryptedDataESaIS2_ELN9__gnu_cxx12_Lock_policyE2EED1Ev=so_stub_for_libtelux_sec
-Wl,--defsym=_ZNSt23_Sp_counted_ptr_inplaceIN5telux3sec13EncryptedDataESaIS2_ELN9__gnu_cxx12_Lock_policyE2EED2Ev=so_stub_for_libtelux_sec
-Wl,--defsym=_ZNSt23_Sp_counted_ptr_inplaceIN5telux3sec15CryptoParamImplESaIS2_ELN9__gnu_cxx12_Lock_policyE2EE10_M_destroyEv=so_stub_for_libtelux_sec
-Wl,--defsym=_ZNSt23_Sp_counted_ptr_inplaceIN5telux3sec15CryptoParamImplESaIS2_ELN9__gnu_cxx12_Lock_policyE2EE10_M_disposeEv=so_stub_for_libtelux_sec
-Wl,--defsym=_ZNSt23_Sp_counted_ptr_inplaceIN5telux3sec15CryptoParamImplESaIS2_ELN9__gnu_cxx12_Lock_policyE2EE14_M_get_deleterERKSt9type_info=so_stub_for_libtelux_sec
-Wl,--defsym=_ZNSt23_Sp_counted_ptr_inplaceIN5telux3sec15CryptoParamImplESaIS2_ELN9__gnu_cxx12_Lock_policyE2EED0Ev=so_stub_for_libtelux_sec
-Wl,--defsym=_ZNSt23_Sp_counted_ptr_inplaceIN5telux3sec15CryptoParamImplESaIS2_ELN9__gnu_cxx12_Lock_policyE2EED1Ev=so_stub_for_libtelux_sec
-Wl,--defsym=_ZNSt23_Sp_counted_ptr_inplaceIN5telux3sec15CryptoParamImplESaIS2_ELN9__gnu_cxx12_Lock_policyE2EED2Ev=so_stub_for_libtelux_sec
-Wl,--defsym=_ZNSt23_Sp_counted_ptr_inplaceIN5telux3sec17CryptoManagerImplESaIS2_ELN9__gnu_cxx12_Lock_policyE2EE10_M_destroyEv=so_stub_for_libtelux_sec
-Wl,--defsym=_ZNSt23_Sp_counted_ptr_inplaceIN5telux3sec17CryptoManagerImplESaIS2_ELN9__gnu_cxx12_Lock_policyE2EE10_M_disposeEv=so_stub_for_libtelux_sec
-Wl,--defsym=_ZNSt23_Sp_counted_ptr_inplaceIN5telux3sec17CryptoManagerImplESaIS2_ELN9__gnu_cxx12_Lock_policyE2EE14_M_get_deleterERKSt9type_info=so_stub_for_libtelux_sec
-Wl,--defsym=_ZNSt23_Sp_counted_ptr_inplaceIN5telux3sec17CryptoManagerImplESaIS2_ELN9__gnu_cxx12_Lock_policyE2EED0Ev=so_stub_for_libtelux_sec
-Wl,--defsym=_ZNSt23_Sp_counted_ptr_inplaceIN5telux3sec17CryptoManagerImplESaIS2_ELN9__gnu_cxx12_Lock_policyE2EED1Ev=so_stub_for_libtelux_sec
-Wl,--defsym=_ZNSt23_Sp_counted_ptr_inplaceIN5telux3sec17CryptoManagerImplESaIS2_ELN9__gnu_cxx12_Lock_policyE2EED2Ev=so_stub_for_libtelux_sec
-Wl,--defsym=_ZNSt23_Sp_counted_ptr_inplaceIN5telux3sec20CAControlManagerImplESaIS2_ELN9__gnu_cxx12_Lock_policyE2EE10_M_destroyEv=so_stub_for_libtelux_sec
-Wl,--defsym=_ZNSt23_Sp_counted_ptr_inplaceIN5telux3sec20CAControlManagerImplESaIS2_ELN9__gnu_cxx12_Lock_policyE2EE10_M_disposeEv=so_stub_for_libtelux_sec
-Wl,--defsym=_ZNSt23_Sp_counted_ptr_inplaceIN5telux3sec20CAControlManagerImplESaIS2_ELN9__gnu_cxx12_Lock_policyE2EE14_M_get_deleterERKSt9type_info=so_stub_for_libtelux_sec
-Wl,--defsym=_ZNSt23_Sp_counted_ptr_inplaceIN5telux3sec20CAControlManagerImplESaIS2_ELN9__gnu_cxx12_Lock_policyE2EED0Ev=so_stub_for_libtelux_sec
-Wl,--defsym=_ZNSt23_Sp_counted_ptr_inplaceIN5telux3sec20CAControlManagerImplESaIS2_ELN9__gnu_cxx12_Lock_policyE2EED1Ev=so_stub_for_libtelux_sec
-Wl,--defsym=_ZNSt23_Sp_counted_ptr_inplaceIN5telux3sec20CAControlManagerImplESaIS2_ELN9__gnu_cxx12_Lock_policyE2EED2Ev=so_stub_for_libtelux_sec
-Wl,--defsym=_ZNSt23_Sp_counted_ptr_inplaceIN5telux3sec23RandomNumberManagerImplESaIS2_ELN9__gnu_cxx12_Lock_policyE2EE10_M_destroyEv=so_stub_for_libtelux_sec
-Wl,--defsym=_ZNSt23_Sp_counted_ptr_inplaceIN5telux3sec23RandomNumberManagerImplESaIS2_ELN9__gnu_cxx12_Lock_policyE2EE10_M_disposeEv=so_stub_for_libtelux_sec
-Wl,--defsym=_ZNSt23_Sp_counted_ptr_inplaceIN5telux3sec23RandomNumberManagerImplESaIS2_ELN9__gnu_cxx12_Lock_policyE2EE14_M_get_deleterERKSt9type_info=so_stub_for_libtelux_sec
-Wl,--defsym=_ZNSt23_Sp_counted_ptr_inplaceIN5telux3sec23RandomNumberManagerImplESaIS2_ELN9__gnu_cxx12_Lock_policyE2EED0Ev=so_stub_for_libtelux_sec
-Wl,--defsym=_ZNSt23_Sp_counted_ptr_inplaceIN5telux3sec23RandomNumberManagerImplESaIS2_ELN9__gnu_cxx12_Lock_policyE2EED1Ev=so_stub_for_libtelux_sec
-Wl,--defsym=_ZNSt23_Sp_counted_ptr_inplaceIN5telux3sec23RandomNumberManagerImplESaIS2_ELN9__gnu_cxx12_Lock_policyE2EED2Ev=so_stub_for_libtelux_sec
-Wl,--defsym=_ZNSt23_Sp_counted_ptr_inplaceIN5telux3sec28CryptoAcceleratorManagerImplESaIS2_ELN9__gnu_cxx12_Lock_policyE2EE10_M_destroyEv=so_stub_for_libtelux_sec
-Wl,--defsym=_ZNSt23_Sp_counted_ptr_inplaceIN5telux3sec28CryptoAcceleratorManagerImplESaIS2_ELN9__gnu_cxx12_Lock_policyE2EE10_M_disposeEv=so_stub_for_libtelux_sec
-Wl,--defsym=_ZNSt23_Sp_counted_ptr_inplaceIN5telux3sec28CryptoAcceleratorManagerImplESaIS2_ELN9__gnu_cxx12_Lock_policyE2EE14_M_get_deleterERKSt9type_info=so_stub_for_libtelux_sec
-Wl,--defsym=_ZNSt23_Sp_counted_ptr_inplaceIN5telux3sec28CryptoAcceleratorManagerImplESaIS2_ELN9__gnu_cxx12_Lock_policyE2EED0Ev=so_stub_for_libtelux_sec
-Wl,--defsym=_ZNSt23_Sp_counted_ptr_inplaceIN5telux3sec28CryptoAcceleratorManagerImplESaIS2_ELN9__gnu_cxx12_Lock_policyE2EED1Ev=so_stub_for_libtelux_sec
-Wl,--defsym=_ZNSt23_Sp_counted_ptr_inplaceIN5telux3sec28CryptoAcceleratorManagerImplESaIS2_ELN9__gnu_cxx12_Lock_policyE2EED2Ev=so_stub_for_libtelux_sec
-Wl,--defsym=_ZNSt23_Sp_counted_ptr_inplaceIN5telux6common14TaskDispatcherESaIS2_ELN9__gnu_cxx12_Lock_policyE2EE10_M_destroyEv=so_stub_for_libtelux_sec
-Wl,--defsym=_ZNSt23_Sp_counted_ptr_inplaceIN5telux6common14TaskDispatcherESaIS2_ELN9__gnu_cxx12_Lock_policyE2EE10_M_disposeEv=so_stub_for_libtelux_sec
-Wl,--defsym=_ZNSt23_Sp_counted_ptr_inplaceIN5telux6common14TaskDispatcherESaIS2_ELN9__gnu_cxx12_Lock_policyE2EE14_M_get_deleterERKSt9type_info=so_stub_for_libtelux_sec
-Wl,--defsym=_ZNSt23_Sp_counted_ptr_inplaceIN5telux6common14TaskDispatcherESaIS2_ELN9__gnu_cxx12_Lock_policyE2EED0Ev=so_stub_for_libtelux_sec
-Wl,--defsym=_ZNSt23_Sp_counted_ptr_inplaceIN5telux6common14TaskDispatcherESaIS2_ELN9__gnu_cxx12_Lock_policyE2EED1Ev=so_stub_for_libtelux_sec
-Wl,--defsym=_ZNSt23_Sp_counted_ptr_inplaceIN5telux6common14TaskDispatcherESaIS2_ELN9__gnu_cxx12_Lock_policyE2EED2Ev=so_stub_for_libtelux_sec
-Wl,--defsym=_ZNSt23_Sp_counted_ptr_inplaceIN5telux6common15ListenerManagerESaIS2_ELN9__gnu_cxx12_Lock_policyE2EE10_M_destroyEv=so_stub_for_libtelux_sec
-Wl,--defsym=_ZNSt23_Sp_counted_ptr_inplaceIN5telux6common15ListenerManagerESaIS2_ELN9__gnu_cxx12_Lock_policyE2EE10_M_disposeEv=so_stub_for_libtelux_sec
-Wl,--defsym=_ZNSt23_Sp_counted_ptr_inplaceIN5telux6common15ListenerManagerESaIS2_ELN9__gnu_cxx12_Lock_policyE2EE14_M_get_deleterERKSt9type_info=so_stub_for_libtelux_sec
-Wl,--defsym=_ZNSt23_Sp_counted_ptr_inplaceIN5telux6common15ListenerManagerESaIS2_ELN9__gnu_cxx12_Lock_policyE2EED0Ev=so_stub_for_libtelux_sec
-Wl,--defsym=_ZNSt23_Sp_counted_ptr_inplaceIN5telux6common15ListenerManagerESaIS2_ELN9__gnu_cxx12_Lock_policyE2EED1Ev=so_stub_for_libtelux_sec
-Wl,--defsym=_ZNSt23_Sp_counted_ptr_inplaceIN5telux6common15ListenerManagerESaIS2_ELN9__gnu_cxx12_Lock_policyE2EED2Ev=so_stub_for_libtelux_sec
-Wl,--defsym=_ZNSt23_Sp_counted_ptr_inplaceINSt13__future_base11_Task_stateISt5_BindIFZN5telux3sec28CryptoAcceleratorManagerImpl18deliverResultAsyncEPK10MVM_OUTPUTEUlvE0_vEESaIiEFvvEEESC_LN9__gnu_cxx12_Lock_policyE2EE10_M_destroyEv=so_stub_for_libtelux_sec
-Wl,--defsym=_ZNSt23_Sp_counted_ptr_inplaceINSt13__future_base11_Task_stateISt5_BindIFZN5telux3sec28CryptoAcceleratorManagerImpl18deliverResultAsyncEPK10MVM_OUTPUTEUlvE0_vEESaIiEFvvEEESC_LN9__gnu_cxx12_Lock_policyE2EE10_M_disposeEv=so_stub_for_libtelux_sec
-Wl,--defsym=_ZNSt23_Sp_counted_ptr_inplaceINSt13__future_base11_Task_stateISt5_BindIFZN5telux3sec28CryptoAcceleratorManagerImpl18deliverResultAsyncEPK10MVM_OUTPUTEUlvE0_vEESaIiEFvvEEESC_LN9__gnu_cxx12_Lock_policyE2EE14_M_get_deleterERKSt9type_info=so_stub_for_libtelux_sec
-Wl,--defsym=_ZNSt23_Sp_counted_ptr_inplaceINSt13__future_base11_Task_stateISt5_BindIFZN5telux3sec28CryptoAcceleratorManagerImpl18deliverResultAsyncEPK10MVM_OUTPUTEUlvE0_vEESaIiEFvvEEESC_LN9__gnu_cxx12_Lock_policyE2EED0Ev=so_stub_for_libtelux_sec
-Wl,--defsym=_ZNSt23_Sp_counted_ptr_inplaceINSt13__future_base11_Task_stateISt5_BindIFZN5telux3sec28CryptoAcceleratorManagerImpl18deliverResultAsyncEPK10MVM_OUTPUTEUlvE0_vEESaIiEFvvEEESC_LN9__gnu_cxx12_Lock_policyE2EED1Ev=so_stub_for_libtelux_sec
-Wl,--defsym=_ZNSt23_Sp_counted_ptr_inplaceINSt13__future_base11_Task_stateISt5_BindIFZN5telux3sec28CryptoAcceleratorManagerImpl18deliverResultAsyncEPK10MVM_OUTPUTEUlvE0_vEESaIiEFvvEEESC_LN9__gnu_cxx12_Lock_policyE2EED2Ev=so_stub_for_libtelux_sec
-Wl,--defsym=_ZNSt23_Sp_counted_ptr_inplaceINSt13__future_base11_Task_stateISt5_BindIFZN5telux3sec28CryptoAcceleratorManagerImpl18deliverResultAsyncEPK10MVM_OUTPUTEUlvE_vEESaIiEFvvEEESC_LN9__gnu_cxx12_Lock_policyE2EE10_M_destroyEv=so_stub_for_libtelux_sec
-Wl,--defsym=_ZNSt23_Sp_counted_ptr_inplaceINSt13__future_base11_Task_stateISt5_BindIFZN5telux3sec28CryptoAcceleratorManagerImpl18deliverResultAsyncEPK10MVM_OUTPUTEUlvE_vEESaIiEFvvEEESC_LN9__gnu_cxx12_Lock_policyE2EE10_M_disposeEv=so_stub_for_libtelux_sec
-Wl,--defsym=_ZNSt23_Sp_counted_ptr_inplaceINSt13__future_base11_Task_stateISt5_BindIFZN5telux3sec28CryptoAcceleratorManagerImpl18deliverResultAsyncEPK10MVM_OUTPUTEUlvE_vEESaIiEFvvEEESC_LN9__gnu_cxx12_Lock_policyE2EE14_M_get_deleterERKSt9type_info=so_stub_for_libtelux_sec
-Wl,--defsym=_ZNSt23_Sp_counted_ptr_inplaceINSt13__future_base11_Task_stateISt5_BindIFZN5telux3sec28CryptoAcceleratorManagerImpl18deliverResultAsyncEPK10MVM_OUTPUTEUlvE_vEESaIiEFvvEEESC_LN9__gnu_cxx12_Lock_policyE2EED0Ev=so_stub_for_libtelux_sec
-Wl,--defsym=_ZNSt23_Sp_counted_ptr_inplaceINSt13__future_base11_Task_stateISt5_BindIFZN5telux3sec28CryptoAcceleratorManagerImpl18deliverResultAsyncEPK10MVM_OUTPUTEUlvE_vEESaIiEFvvEEESC_LN9__gnu_cxx12_Lock_policyE2EED1Ev=so_stub_for_libtelux_sec
-Wl,--defsym=_ZNSt23_Sp_counted_ptr_inplaceINSt13__future_base11_Task_stateISt5_BindIFZN5telux3sec28CryptoAcceleratorManagerImpl18deliverResultAsyncEPK10MVM_OUTPUTEUlvE_vEESaIiEFvvEEESC_LN9__gnu_cxx12_Lock_policyE2EED2Ev=so_stub_for_libtelux_sec
-Wl,--defsym=_ZNSt23_Sp_counted_ptr_inplaceISt6vectorIhSaIhEESaIS2_ELN9__gnu_cxx12_Lock_policyE2EE10_M_destroyEv=so_stub_for_libtelux_sec
-Wl,--defsym=_ZNSt23_Sp_counted_ptr_inplaceISt6vectorIhSaIhEESaIS2_ELN9__gnu_cxx12_Lock_policyE2EE10_M_disposeEv=so_stub_for_libtelux_sec
-Wl,--defsym=_ZNSt23_Sp_counted_ptr_inplaceISt6vectorIhSaIhEESaIS2_ELN9__gnu_cxx12_Lock_policyE2EE14_M_get_deleterERKSt9type_info=so_stub_for_libtelux_sec
-Wl,--defsym=_ZNSt23_Sp_counted_ptr_inplaceISt6vectorIhSaIhEESaIS2_ELN9__gnu_cxx12_Lock_policyE2EED0Ev=so_stub_for_libtelux_sec
-Wl,--defsym=_ZNSt23_Sp_counted_ptr_inplaceISt6vectorIhSaIhEESaIS2_ELN9__gnu_cxx12_Lock_policyE2EED1Ev=so_stub_for_libtelux_sec
-Wl,--defsym=_ZNSt23_Sp_counted_ptr_inplaceISt6vectorIhSaIhEESaIS2_ELN9__gnu_cxx12_Lock_policyE2EED2Ev=so_stub_for_libtelux_sec
-Wl,--defsym=_ZNSt5dequeISt13packaged_taskIFvvEESaIS2_EE12emplace_backIJS2_EEEvDpOT_=so_stub_for_libtelux_sec
-Wl,--defsym=_ZNSt5dequeISt13packaged_taskIFvvEESaIS2_EE16_M_push_back_auxIJS2_EEEvDpOT_=so_stub_for_libtelux_sec
-Wl,--defsym=_ZNSt5dequeISt13packaged_taskIFvvEESaIS2_EE17_M_reallocate_mapEmb=so_stub_for_libtelux_sec
-Wl,--defsym=_ZNSt6thread11_State_implINS_8_InvokerISt5tupleIJMN5telux3sec28CryptoAcceleratorManagerImplEFvvEPS5_EEEEE6_M_runEv=so_stub_for_libtelux_sec
-Wl,--defsym=_ZNSt6thread11_State_implINS_8_InvokerISt5tupleIJMN5telux3sec28CryptoAcceleratorManagerImplEFvvEPS5_EEEEED0Ev=so_stub_for_libtelux_sec
-Wl,--defsym=_ZNSt6thread11_State_implINS_8_InvokerISt5tupleIJMN5telux3sec28CryptoAcceleratorManagerImplEFvvEPS5_EEEEED1Ev=so_stub_for_libtelux_sec
-Wl,--defsym=_ZNSt6thread11_State_implINS_8_InvokerISt5tupleIJMN5telux3sec28CryptoAcceleratorManagerImplEFvvEPS5_EEEEED2Ev=so_stub_for_libtelux_sec
-Wl,--defsym=_ZNSt6threadC1IMN5telux3sec28CryptoAcceleratorManagerImplEFvvEJPS3_EvEEOT_DpOT0_=so_stub_for_libtelux_sec
-Wl,--defsym=_ZNSt6threadC2IMN5telux3sec28CryptoAcceleratorManagerImplEFvvEJPS3_EvEEOT_DpOT0_=so_stub_for_libtelux_sec
-Wl,--defsym=_ZNSt6vectorI21keymaster_key_param_tSaIS0_EE12emplace_backIJS0_EEEvDpOT_=so_stub_for_libtelux_sec
-Wl,--defsym=_ZNSt6vectorI21keymaster_key_param_tSaIS0_EE17_M_realloc_insertIJS0_EEEvN9__gnu_cxx17__normal_iteratorIPS0_S2_EEDpOT_=so_stub_for_libtelux_sec
-Wl,--defsym=_ZNSt6vectorIhSaIhEE15_M_range_insertIPKhEEvN9__gnu_cxx17__normal_iteratorIPhS1_EET_S9_St20forward_iterator_tag=so_stub_for_libtelux_sec
-Wl,--defsym=_ZNSt6vectorIhSaIhEE17_M_default_appendEm=so_stub_for_libtelux_sec
-Wl,--defsym=_ZNSt6vectorIhSaIhEEaSERKS1_=so_stub_for_libtelux_sec
-Wl,--defsym=_ZNSt6vectorIhSaIhEEC1ERKS1_=so_stub_for_libtelux_sec
-Wl,--defsym=_ZNSt6vectorIhSaIhEEC1IPKhvEET_S5_RKS0_=so_stub_for_libtelux_sec
-Wl,--defsym=_ZNSt6vectorIhSaIhEEC2ERKS1_=so_stub_for_libtelux_sec
-Wl,--defsym=_ZNSt6vectorIhSaIhEEC2IPKhvEET_S5_RKS0_=so_stub_for_libtelux_sec
-Wl,--defsym=_ZNSt6vectorISt8weak_ptrIN5telux6common12ISDKListenerEESaIS4_EE12emplace_backIJRS4_EEEvDpOT_=so_stub_for_libtelux_sec
-Wl,--defsym=_ZNSt6vectorISt8weak_ptrIN5telux6common12ISDKListenerEESaIS4_EE12emplace_backIJRSt10shared_ptrIS3_EEEEvDpOT_=so_stub_for_libtelux_sec
-Wl,--defsym=_ZNSt6vectorISt8weak_ptrIN5telux6common12ISDKListenerEESaIS4_EE17_M_realloc_insertIJRS4_EEEvN9__gnu_cxx17__normal_iteratorIPS4_S6_EEDpOT_=so_stub_for_libtelux_sec
-Wl,--defsym=_ZNSt6vectorISt8weak_ptrIN5telux6common12ISDKListenerEESaIS4_EE17_M_realloc_insertIJRSt10shared_ptrIS3_EEEEvN9__gnu_cxx17__normal_iteratorIPS4_S6_EEDpOT_=so_stub_for_libtelux_sec
-Wl,--defsym=_ZNSt6vectorISt8weak_ptrIN5telux6common12ISDKListenerEESaIS4_EE8_M_eraseEN9__gnu_cxx17__normal_iteratorIPS4_S6_EE=so_stub_for_libtelux_sec
-Wl,--defsym=_ZNSt6vectorISt8weak_ptrIN5telux6common12ISDKListenerEESaIS4_EED1Ev=so_stub_for_libtelux_sec
-Wl,--defsym=_ZNSt6vectorISt8weak_ptrIN5telux6common12ISDKListenerEESaIS4_EED2Ev=so_stub_for_libtelux_sec
-Wl,--defsym=_ZNSt7__cxx1112basic_stringIcSt11char_traitsIcESaIcEE12_M_constructIPKcEEvT_S8_St20forward_iterator_tag=so_stub_for_libtelux_sec
-Wl,--defsym=_ZNSt7__cxx1115basic_stringbufIcSt11char_traitsIcESaIcEED0Ev=so_stub_for_libtelux_sec
-Wl,--defsym=_ZNSt7__cxx1115basic_stringbufIcSt11char_traitsIcESaIcEED1Ev=so_stub_for_libtelux_sec
-Wl,--defsym=_ZNSt7__cxx1115basic_stringbufIcSt11char_traitsIcESaIcEED2Ev=so_stub_for_libtelux_sec
-Wl,--defsym=_ZNSt8__detail16_Hashtable_allocISaINS_10_Hash_nodeISt4pairIKjPN5telux3sec28CryptoAcceleratorManagerImpl16WaitStateCarrierEELb0EEEEE18_M_deallocate_nodeEPSA_=so_stub_for_libtelux_sec
-Wl,--defsym=_ZNSt8_Rb_treeIjSt4pairIKjSt3setISt8weak_ptrIN5telux6common12ISDKListenerEENS5_15ListenerManager12SetPredicateESaIS7_EEESt10_Select1stISC_ESt4lessIjESaISC_EE8_M_eraseEPSt13_Rb_tree_nodeISC_E=so_stub_for_libtelux_sec
-Wl,--defsym=_ZNSt8_Rb_treeISt8weak_ptrIN5telux6common12ISDKListenerEES4_St9_IdentityIS4_ENS2_15ListenerManager12SetPredicateESaIS4_EE8_M_eraseEPSt13_Rb_tree_nodeIS4_E=so_stub_for_libtelux_sec
-Wl,--defsym=_ZSt10__invoke_rIvRSt5_BindIFZN5telux3sec28CryptoAcceleratorManagerImpl18deliverResultAsyncEPK10MVM_OUTPUTEUlvE0_vEEJEENSt9enable_ifIXsrSt6__and_IJSt7is_voidIT_ESt14__is_invocableIT0_JDpT1_EEEE5valueESE_E4typeEOSH_DpOSI_=so_stub_for_libtelux_sec
-Wl,--defsym=_ZSt10__invoke_rIvRSt5_BindIFZN5telux3sec28CryptoAcceleratorManagerImpl18deliverResultAsyncEPK10MVM_OUTPUTEUlvE_vEEJEENSt9enable_ifIXsrSt6__and_IJSt7is_voidIT_ESt14__is_invocableIT0_JDpT1_EEEE5valueESE_E4typeEOSH_DpOSI_=so_stub_for_libtelux_sec
-Wl,--defsym=_ZSt13__copy_move_aILb1EN9__gnu_cxx17__normal_iteratorIPSt8weak_ptrIN5telux6common12ISDKListenerEESt6vectorIS6_SaIS6_EEEESB_ET1_T0_SD_SC_=so_stub_for_libtelux_sec
-Wl,--defsym=_ZSt18__allocate_guardedISaISt23_Sp_counted_ptr_inplaceINSt13__future_base11_Task_stateISt5_BindIFZN5telux3sec28CryptoAcceleratorManagerImpl18deliverResultAsyncEPK10MVM_OUTPUTEUlvE0_vEESaIiEFvvEEESD_LN9__gnu_cxx12_Lock_policyE2EEEESt15__allocated_ptrIT_ERSL_=so_stub_for_libtelux_sec
-Wl,--defsym=_ZSt18__allocate_guardedISaISt23_Sp_counted_ptr_inplaceINSt13__future_base11_Task_stateISt5_BindIFZN5telux3sec28CryptoAcceleratorManagerImpl18deliverResultAsyncEPK10MVM_OUTPUTEUlvE_vEESaIiEFvvEEESD_LN9__gnu_cxx12_Lock_policyE2EEEESt15__allocated_ptrIT_ERSL_=so_stub_for_libtelux_sec
-Wl,--defsym=_ZSt18make_exception_ptrISt12future_errorENSt15__exception_ptr13exception_ptrET_=so_stub_for_libtelux_sec
-Wl,--defsym=_ZSt20dynamic_pointer_castIN5telux3sec26ICryptoAcceleratorListenerENS0_6common12ISDKListenerEESt10shared_ptrIT_ERKS5_IT0_E=so_stub_for_libtelux_sec
-Wl,--defsym=_ZSt7find_ifIN9__gnu_cxx17__normal_iteratorIPSt8weak_ptrIN5telux6common12ISDKListenerEESt6vectorIS6_SaIS6_EEEEZNS4_15ListenerManager16registerListenerES6_EUlS6_E_ET_SE_SE_T0_=so_stub_for_libtelux_sec
-Wl,--defsym=_ZSt9call_onceIMNSt13__future_base13_State_baseV2EFvPSt8functionIFSt10unique_ptrINS0_12_Result_baseENS4_8_DeleterEEvEEPbEJPS1_S9_SA_EEvRSt9once_flagOT_DpOT0_=so_stub_for_libtelux_sec
-Wl,--defsym=_ZSt9__find_ifIN9__gnu_cxx17__normal_iteratorIPSt8weak_ptrIN5telux6common12ISDKListenerEESt6vectorIS6_SaIS6_EEEENS0_5__ops10_Iter_predIZNS4_15ListenerManager16registerListenerES6_EUlS6_E_EEET_SH_SH_T0_St26random_access_iterator_tag=so_stub_for_libtelux_sec
-Wl,--defsym=_ZTIN5telux3sec12ICryptoParamE=so_stub_for_libtelux_sec
-Wl,--defsym=_ZTIN5telux3sec14ICryptoManagerE=so_stub_for_libtelux_sec
-Wl,--defsym=_ZTIN5telux3sec15CryptoParamImplE=so_stub_for_libtelux_sec
-Wl,--defsym=_ZTIN5telux3sec15SecurityFactoryE=so_stub_for_libtelux_sec
-Wl,--defsym=_ZTIN5telux3sec17CryptoManagerImplE=so_stub_for_libtelux_sec
-Wl,--defsym=_ZTIN5telux3sec17ICAControlManagerE=so_stub_for_libtelux_sec
-Wl,--defsym=_ZTIN5telux3sec19SecurityFactoryImplE=so_stub_for_libtelux_sec
-Wl,--defsym=_ZTIN5telux3sec20CAControlManagerImplE=so_stub_for_libtelux_sec
-Wl,--defsym=_ZTIN5telux3sec20IRandomNumberManagerE=so_stub_for_libtelux_sec
-Wl,--defsym=_ZTIN5telux3sec23RandomNumberManagerImplE=so_stub_for_libtelux_sec
-Wl,--defsym=_ZTIN5telux3sec25ICAControlManagerListenerE=so_stub_for_libtelux_sec
-Wl,--defsym=_ZTIN5telux3sec25ICryptoAcceleratorManagerE=so_stub_for_libtelux_sec
-Wl,--defsym=_ZTIN5telux3sec26ICryptoAcceleratorListenerE=so_stub_for_libtelux_sec
-Wl,--defsym=_ZTIN5telux3sec28CryptoAcceleratorManagerImplE=so_stub_for_libtelux_sec
-Wl,--defsym=_ZTIN5telux6common12ISDKListenerE=so_stub_for_libtelux_sec
-Wl,--defsym=_ZTIN5telux6common22IServiceStatusListenerE=so_stub_for_libtelux_sec
-Wl,--defsym=_ZTINSt13__future_base11_Task_stateISt5_BindIFZN5telux3sec28CryptoAcceleratorManagerImpl18deliverResultAsyncEPK10MVM_OUTPUTEUlvE0_vEESaIiEFvvEEE=so_stub_for_libtelux_sec
-Wl,--defsym=_ZTINSt13__future_base11_Task_stateISt5_BindIFZN5telux3sec28CryptoAcceleratorManagerImpl18deliverResultAsyncEPK10MVM_OUTPUTEUlvE_vEESaIiEFvvEEE=so_stub_for_libtelux_sec
-Wl,--defsym=_ZTINSt13__future_base12_Task_setterISt10unique_ptrINS_7_ResultIvEENS_12_Result_base8_DeleterEEZNS_11_Task_stateISt5_BindIFZN5telux3sec28CryptoAcceleratorManagerImpl18deliverResultAsyncEPK10MVM_OUTPUTEUlvE0_vEESaIiEFvvEE14_M_run_delayedESt8weak_ptrINS_13_State_baseV2EEEUlvE_vEE=so_stub_for_libtelux_sec
-Wl,--defsym=_ZTINSt13__future_base12_Task_setterISt10unique_ptrINS_7_ResultIvEENS_12_Result_base8_DeleterEEZNS_11_Task_stateISt5_BindIFZN5telux3sec28CryptoAcceleratorManagerImpl18deliverResultAsyncEPK10MVM_OUTPUTEUlvE0_vEESaIiEFvvEE6_M_runEvEUlvE_vEE=so_stub_for_libtelux_sec
-Wl,--defsym=_ZTINSt13__future_base12_Task_setterISt10unique_ptrINS_7_ResultIvEENS_12_Result_base8_DeleterEEZNS_11_Task_stateISt5_BindIFZN5telux3sec28CryptoAcceleratorManagerImpl18deliverResultAsyncEPK10MVM_OUTPUTEUlvE_vEESaIiEFvvEE14_M_run_delayedESt8weak_ptrINS_13_State_baseV2EEEUlvE_vEE=so_stub_for_libtelux_sec
-Wl,--defsym=_ZTINSt13__future_base12_Task_setterISt10unique_ptrINS_7_ResultIvEENS_12_Result_base8_DeleterEEZNS_11_Task_stateISt5_BindIFZN5telux3sec28CryptoAcceleratorManagerImpl18deliverResultAsyncEPK10MVM_OUTPUTEUlvE_vEESaIiEFvvEE6_M_runEvEUlvE_vEE=so_stub_for_libtelux_sec
-Wl,--defsym=_ZTINSt13__future_base13_State_baseV2E=so_stub_for_libtelux_sec
-Wl,--defsym=_ZTINSt13__future_base16_Task_state_baseIFvvEEE=so_stub_for_libtelux_sec
-Wl,--defsym=_ZTINSt13__future_base7_ResultIvEE=so_stub_for_libtelux_sec
-Wl,--defsym=_ZTINSt6thread11_State_implINS_8_InvokerISt5tupleIJMN5telux3sec28CryptoAcceleratorManagerImplEFvvEPS5_EEEEEE=so_stub_for_libtelux_sec
-Wl,--defsym=_ZTISt11_Mutex_baseILN9__gnu_cxx12_Lock_policyE2EE=so_stub_for_libtelux_sec
-Wl,--defsym=_ZTISt16_Sp_counted_baseILN9__gnu_cxx12_Lock_policyE2EE=so_stub_for_libtelux_sec
-Wl,--defsym=_ZTISt23enable_shared_from_thisIN5telux3sec20CAControlManagerImplEE=so_stub_for_libtelux_sec
-Wl,--defsym=_ZTISt23enable_shared_from_thisIN5telux3sec23RandomNumberManagerImplEE=so_stub_for_libtelux_sec
-Wl,--defsym=_ZTISt23enable_shared_from_thisIN5telux3sec28CryptoAcceleratorManagerImplEE=so_stub_for_libtelux_sec
-Wl,--defsym=_ZTISt23_Sp_counted_ptr_inplaceIN5telux3sec13EncryptedDataESaIS2_ELN9__gnu_cxx12_Lock_policyE2EE=so_stub_for_libtelux_sec
-Wl,--defsym=_ZTISt23_Sp_counted_ptr_inplaceIN5telux3sec15CryptoParamImplESaIS2_ELN9__gnu_cxx12_Lock_policyE2EE=so_stub_for_libtelux_sec
-Wl,--defsym=_ZTISt23_Sp_counted_ptr_inplaceIN5telux3sec17CryptoManagerImplESaIS2_ELN9__gnu_cxx12_Lock_policyE2EE=so_stub_for_libtelux_sec
-Wl,--defsym=_ZTISt23_Sp_counted_ptr_inplaceIN5telux3sec20CAControlManagerImplESaIS2_ELN9__gnu_cxx12_Lock_policyE2EE=so_stub_for_libtelux_sec
-Wl,--defsym=_ZTISt23_Sp_counted_ptr_inplaceIN5telux3sec23RandomNumberManagerImplESaIS2_ELN9__gnu_cxx12_Lock_policyE2EE=so_stub_for_libtelux_sec
-Wl,--defsym=_ZTISt23_Sp_counted_ptr_inplaceIN5telux3sec28CryptoAcceleratorManagerImplESaIS2_ELN9__gnu_cxx12_Lock_policyE2EE=so_stub_for_libtelux_sec
-Wl,--defsym=_ZTISt23_Sp_counted_ptr_inplaceIN5telux6common14TaskDispatcherESaIS2_ELN9__gnu_cxx12_Lock_policyE2EE=so_stub_for_libtelux_sec
-Wl,--defsym=_ZTISt23_Sp_counted_ptr_inplaceIN5telux6common15ListenerManagerESaIS2_ELN9__gnu_cxx12_Lock_policyE2EE=so_stub_for_libtelux_sec
-Wl,--defsym=_ZTISt23_Sp_counted_ptr_inplaceINSt13__future_base11_Task_stateISt5_BindIFZN5telux3sec28CryptoAcceleratorManagerImpl18deliverResultAsyncEPK10MVM_OUTPUTEUlvE0_vEESaIiEFvvEEESC_LN9__gnu_cxx12_Lock_policyE2EE=so_stub_for_libtelux_sec
-Wl,--defsym=_ZTISt23_Sp_counted_ptr_inplaceINSt13__future_base11_Task_stateISt5_BindIFZN5telux3sec28CryptoAcceleratorManagerImpl18deliverResultAsyncEPK10MVM_OUTPUTEUlvE_vEESaIiEFvvEEESC_LN9__gnu_cxx12_Lock_policyE2EE=so_stub_for_libtelux_sec
-Wl,--defsym=_ZTISt23_Sp_counted_ptr_inplaceISt6vectorIhSaIhEESaIS2_ELN9__gnu_cxx12_Lock_policyE2EE=so_stub_for_libtelux_sec
-Wl,--defsym=_ZTSN5telux3sec12ICryptoParamE=so_stub_for_libtelux_sec
-Wl,--defsym=_ZTSN5telux3sec14ICryptoManagerE=so_stub_for_libtelux_sec
-Wl,--defsym=_ZTSN5telux3sec15CryptoParamImplE=so_stub_for_libtelux_sec
-Wl,--defsym=_ZTSN5telux3sec15SecurityFactoryE=so_stub_for_libtelux_sec
-Wl,--defsym=_ZTSN5telux3sec17CryptoManagerImplE=so_stub_for_libtelux_sec
-Wl,--defsym=_ZTSN5telux3sec17ICAControlManagerE=so_stub_for_libtelux_sec
-Wl,--defsym=_ZTSN5telux3sec19SecurityFactoryImplE=so_stub_for_libtelux_sec
-Wl,--defsym=_ZTSN5telux3sec20CAControlManagerImplE=so_stub_for_libtelux_sec
-Wl,--defsym=_ZTSN5telux3sec20IRandomNumberManagerE=so_stub_for_libtelux_sec
-Wl,--defsym=_ZTSN5telux3sec23RandomNumberManagerImplE=so_stub_for_libtelux_sec
-Wl,--defsym=_ZTSN5telux3sec25ICAControlManagerListenerE=so_stub_for_libtelux_sec
-Wl,--defsym=_ZTSN5telux3sec25ICryptoAcceleratorManagerE=so_stub_for_libtelux_sec
-Wl,--defsym=_ZTSN5telux3sec26ICryptoAcceleratorListenerE=so_stub_for_libtelux_sec
-Wl,--defsym=_ZTSN5telux3sec28CryptoAcceleratorManagerImplE=so_stub_for_libtelux_sec
-Wl,--defsym=_ZTSN5telux6common12ISDKListenerE=so_stub_for_libtelux_sec
-Wl,--defsym=_ZTSN5telux6common22IServiceStatusListenerE=so_stub_for_libtelux_sec
-Wl,--defsym=_ZTSNSt13__future_base11_Task_stateISt5_BindIFZN5telux3sec28CryptoAcceleratorManagerImpl18deliverResultAsyncEPK10MVM_OUTPUTEUlvE0_vEESaIiEFvvEEE=so_stub_for_libtelux_sec
-Wl,--defsym=_ZTSNSt13__future_base11_Task_stateISt5_BindIFZN5telux3sec28CryptoAcceleratorManagerImpl18deliverResultAsyncEPK10MVM_OUTPUTEUlvE_vEESaIiEFvvEEE=so_stub_for_libtelux_sec
-Wl,--defsym=_ZTSNSt13__future_base12_Task_setterISt10unique_ptrINS_7_ResultIvEENS_12_Result_base8_DeleterEEZNS_11_Task_stateISt5_BindIFZN5telux3sec28CryptoAcceleratorManagerImpl18deliverResultAsyncEPK10MVM_OUTPUTEUlvE0_vEESaIiEFvvEE14_M_run_delayedESt8weak_ptrINS_13_State_baseV2EEEUlvE_vEE=so_stub_for_libtelux_sec
-Wl,--defsym=_ZTSNSt13__future_base12_Task_setterISt10unique_ptrINS_7_ResultIvEENS_12_Result_base8_DeleterEEZNS_11_Task_stateISt5_BindIFZN5telux3sec28CryptoAcceleratorManagerImpl18deliverResultAsyncEPK10MVM_OUTPUTEUlvE0_vEESaIiEFvvEE6_M_runEvEUlvE_vEE=so_stub_for_libtelux_sec
-Wl,--defsym=_ZTSNSt13__future_base12_Task_setterISt10unique_ptrINS_7_ResultIvEENS_12_Result_base8_DeleterEEZNS_11_Task_stateISt5_BindIFZN5telux3sec28CryptoAcceleratorManagerImpl18deliverResultAsyncEPK10MVM_OUTPUTEUlvE_vEESaIiEFvvEE14_M_run_delayedESt8weak_ptrINS_13_State_baseV2EEEUlvE_vEE=so_stub_for_libtelux_sec
-Wl,--defsym=_ZTSNSt13__future_base12_Task_setterISt10unique_ptrINS_7_ResultIvEENS_12_Result_base8_DeleterEEZNS_11_Task_stateISt5_BindIFZN5telux3sec28CryptoAcceleratorManagerImpl18deliverResultAsyncEPK10MVM_OUTPUTEUlvE_vEESaIiEFvvEE6_M_runEvEUlvE_vEE=so_stub_for_libtelux_sec
-Wl,--defsym=_ZTSNSt13__future_base13_State_baseV2E=so_stub_for_libtelux_sec
-Wl,--defsym=_ZTSNSt13__future_base16_Task_state_baseIFvvEEE=so_stub_for_libtelux_sec
-Wl,--defsym=_ZTSNSt13__future_base7_ResultIvEE=so_stub_for_libtelux_sec
-Wl,--defsym=_ZTSNSt6thread11_State_implINS_8_InvokerISt5tupleIJMN5telux3sec28CryptoAcceleratorManagerImplEFvvEPS5_EEEEEE=so_stub_for_libtelux_sec
-Wl,--defsym=_ZTSSt11_Mutex_baseILN9__gnu_cxx12_Lock_policyE2EE=so_stub_for_libtelux_sec
-Wl,--defsym=_ZTSSt16_Sp_counted_baseILN9__gnu_cxx12_Lock_policyE2EE=so_stub_for_libtelux_sec
-Wl,--defsym=_ZTSSt19_Sp_make_shared_tag=so_stub_for_libtelux_sec
-Wl,--defsym=_ZTSSt23enable_shared_from_thisIN5telux3sec20CAControlManagerImplEE=so_stub_for_libtelux_sec
-Wl,--defsym=_ZTSSt23enable_shared_from_thisIN5telux3sec23RandomNumberManagerImplEE=so_stub_for_libtelux_sec
-Wl,--defsym=_ZTSSt23enable_shared_from_thisIN5telux3sec28CryptoAcceleratorManagerImplEE=so_stub_for_libtelux_sec
-Wl,--defsym=_ZTSSt23_Sp_counted_ptr_inplaceIN5telux3sec13EncryptedDataESaIS2_ELN9__gnu_cxx12_Lock_policyE2EE=so_stub_for_libtelux_sec
-Wl,--defsym=_ZTSSt23_Sp_counted_ptr_inplaceIN5telux3sec15CryptoParamImplESaIS2_ELN9__gnu_cxx12_Lock_policyE2EE=so_stub_for_libtelux_sec
-Wl,--defsym=_ZTSSt23_Sp_counted_ptr_inplaceIN5telux3sec17CryptoManagerImplESaIS2_ELN9__gnu_cxx12_Lock_policyE2EE=so_stub_for_libtelux_sec
-Wl,--defsym=_ZTSSt23_Sp_counted_ptr_inplaceIN5telux3sec20CAControlManagerImplESaIS2_ELN9__gnu_cxx12_Lock_policyE2EE=so_stub_for_libtelux_sec
-Wl,--defsym=_ZTSSt23_Sp_counted_ptr_inplaceIN5telux3sec23RandomNumberManagerImplESaIS2_ELN9__gnu_cxx12_Lock_policyE2EE=so_stub_for_libtelux_sec
-Wl,--defsym=_ZTSSt23_Sp_counted_ptr_inplaceIN5telux3sec28CryptoAcceleratorManagerImplESaIS2_ELN9__gnu_cxx12_Lock_policyE2EE=so_stub_for_libtelux_sec
-Wl,--defsym=_ZTSSt23_Sp_counted_ptr_inplaceIN5telux6common14TaskDispatcherESaIS2_ELN9__gnu_cxx12_Lock_policyE2EE=so_stub_for_libtelux_sec
-Wl,--defsym=_ZTSSt23_Sp_counted_ptr_inplaceIN5telux6common15ListenerManagerESaIS2_ELN9__gnu_cxx12_Lock_policyE2EE=so_stub_for_libtelux_sec
-Wl,--defsym=_ZTSSt23_Sp_counted_ptr_inplaceINSt13__future_base11_Task_stateISt5_BindIFZN5telux3sec28CryptoAcceleratorManagerImpl18deliverResultAsyncEPK10MVM_OUTPUTEUlvE0_vEESaIiEFvvEEESC_LN9__gnu_cxx12_Lock_policyE2EE=so_stub_for_libtelux_sec
-Wl,--defsym=_ZTSSt23_Sp_counted_ptr_inplaceINSt13__future_base11_Task_stateISt5_BindIFZN5telux3sec28CryptoAcceleratorManagerImpl18deliverResultAsyncEPK10MVM_OUTPUTEUlvE_vEESaIiEFvvEEESC_LN9__gnu_cxx12_Lock_policyE2EE=so_stub_for_libtelux_sec
-Wl,--defsym=_ZTSSt23_Sp_counted_ptr_inplaceISt6vectorIhSaIhEESaIS2_ELN9__gnu_cxx12_Lock_policyE2EE=so_stub_for_libtelux_sec
-Wl,--defsym=_ZTVN5telux3sec15CryptoParamImplE=so_stub_for_libtelux_sec
-Wl,--defsym=_ZTVN5telux3sec15SecurityFactoryE=so_stub_for_libtelux_sec
-Wl,--defsym=_ZTVN5telux3sec17CryptoManagerImplE=so_stub_for_libtelux_sec
-Wl,--defsym=_ZTVN5telux3sec19SecurityFactoryImplE=so_stub_for_libtelux_sec
-Wl,--defsym=_ZTVN5telux3sec20CAControlManagerImplE=so_stub_for_libtelux_sec
-Wl,--defsym=_ZTVN5telux3sec23RandomNumberManagerImplE=so_stub_for_libtelux_sec
-Wl,--defsym=_ZTVN5telux3sec28CryptoAcceleratorManagerImplE=so_stub_for_libtelux_sec
-Wl,--defsym=_ZTVNSt13__future_base11_Task_stateISt5_BindIFZN5telux3sec28CryptoAcceleratorManagerImpl18deliverResultAsyncEPK10MVM_OUTPUTEUlvE0_vEESaIiEFvvEEE=so_stub_for_libtelux_sec
-Wl,--defsym=_ZTVNSt13__future_base11_Task_stateISt5_BindIFZN5telux3sec28CryptoAcceleratorManagerImpl18deliverResultAsyncEPK10MVM_OUTPUTEUlvE_vEESaIiEFvvEEE=so_stub_for_libtelux_sec
-Wl,--defsym=_ZTVNSt13__future_base13_State_baseV2E=so_stub_for_libtelux_sec
-Wl,--defsym=_ZTVNSt13__future_base16_Task_state_baseIFvvEEE=so_stub_for_libtelux_sec
-Wl,--defsym=_ZTVNSt13__future_base7_ResultIvEE=so_stub_for_libtelux_sec
-Wl,--defsym=_ZTVNSt6thread11_State_implINS_8_InvokerISt5tupleIJMN5telux3sec28CryptoAcceleratorManagerImplEFvvEPS5_EEEEEE=so_stub_for_libtelux_sec
-Wl,--defsym=_ZTVSt23_Sp_counted_ptr_inplaceIN5telux3sec13EncryptedDataESaIS2_ELN9__gnu_cxx12_Lock_policyE2EE=so_stub_for_libtelux_sec
-Wl,--defsym=_ZTVSt23_Sp_counted_ptr_inplaceIN5telux3sec15CryptoParamImplESaIS2_ELN9__gnu_cxx12_Lock_policyE2EE=so_stub_for_libtelux_sec
-Wl,--defsym=_ZTVSt23_Sp_counted_ptr_inplaceIN5telux3sec17CryptoManagerImplESaIS2_ELN9__gnu_cxx12_Lock_policyE2EE=so_stub_for_libtelux_sec
-Wl,--defsym=_ZTVSt23_Sp_counted_ptr_inplaceIN5telux3sec20CAControlManagerImplESaIS2_ELN9__gnu_cxx12_Lock_policyE2EE=so_stub_for_libtelux_sec
-Wl,--defsym=_ZTVSt23_Sp_counted_ptr_inplaceIN5telux3sec23RandomNumberManagerImplESaIS2_ELN9__gnu_cxx12_Lock_policyE2EE=so_stub_for_libtelux_sec
-Wl,--defsym=_ZTVSt23_Sp_counted_ptr_inplaceIN5telux3sec28CryptoAcceleratorManagerImplESaIS2_ELN9__gnu_cxx12_Lock_policyE2EE=so_stub_for_libtelux_sec
-Wl,--defsym=_ZTVSt23_Sp_counted_ptr_inplaceIN5telux6common14TaskDispatcherESaIS2_ELN9__gnu_cxx12_Lock_policyE2EE=so_stub_for_libtelux_sec
-Wl,--defsym=_ZTVSt23_Sp_counted_ptr_inplaceIN5telux6common15ListenerManagerESaIS2_ELN9__gnu_cxx12_Lock_policyE2EE=so_stub_for_libtelux_sec
-Wl,--defsym=_ZTVSt23_Sp_counted_ptr_inplaceINSt13__future_base11_Task_stateISt5_BindIFZN5telux3sec28CryptoAcceleratorManagerImpl18deliverResultAsyncEPK10MVM_OUTPUTEUlvE0_vEESaIiEFvvEEESC_LN9__gnu_cxx12_Lock_policyE2EE=so_stub_for_libtelux_sec
-Wl,--defsym=_ZTVSt23_Sp_counted_ptr_inplaceINSt13__future_base11_Task_stateISt5_BindIFZN5telux3sec28CryptoAcceleratorManagerImpl18deliverResultAsyncEPK10MVM_OUTPUTEUlvE_vEESaIiEFvvEEESC_LN9__gnu_cxx12_Lock_policyE2EE=so_stub_for_libtelux_sec
-Wl,--defsym=_ZTVSt23_Sp_counted_ptr_inplaceISt6vectorIhSaIhEESaIS2_ELN9__gnu_cxx12_Lock_policyE2EE=so_stub_for_libtelux_sec
-Wl,--defsym=_ZZN5telux3sec28CryptoAcceleratorManagerImpl18deliverResultAsyncEPK10MVM_OUTPUTENKUlvE0_clEv=so_stub_for_libtelux_sec
-Wl,--defsym=_ZZN5telux3sec28CryptoAcceleratorManagerImpl18deliverResultAsyncEPK10MVM_OUTPUTENKUlvE_clEv=so_stub_for_libtelux_sec
-Wl,--defsym=_ZZN5telux3sec28CryptoAcceleratorManagerImpl18deliverResultAsyncEPK10MVM_OUTPUTENUlvE0_C1ERKS5_=so_stub_for_libtelux_sec
-Wl,--defsym=_ZZN5telux3sec28CryptoAcceleratorManagerImpl18deliverResultAsyncEPK10MVM_OUTPUTENUlvE0_C2ERKS5_=so_stub_for_libtelux_sec
-Wl,--defsym=_ZZN5telux3sec28CryptoAcceleratorManagerImpl18deliverResultAsyncEPK10MVM_OUTPUTENUlvE0_D1Ev=so_stub_for_libtelux_sec
-Wl,--defsym=_ZZN5telux3sec28CryptoAcceleratorManagerImpl18deliverResultAsyncEPK10MVM_OUTPUTENUlvE0_D2Ev=so_stub_for_libtelux_sec
-Wl,--defsym=_ZZN5telux3sec28CryptoAcceleratorManagerImpl18deliverResultAsyncEPK10MVM_OUTPUTENUlvE_C1ERKS5_=so_stub_for_libtelux_sec
-Wl,--defsym=_ZZN5telux3sec28CryptoAcceleratorManagerImpl18deliverResultAsyncEPK10MVM_OUTPUTENUlvE_C2ERKS5_=so_stub_for_libtelux_sec
-Wl,--defsym=_ZZN5telux3sec28CryptoAcceleratorManagerImpl18deliverResultAsyncEPK10MVM_OUTPUTENUlvE_D1Ev=so_stub_for_libtelux_sec
-Wl,--defsym=_ZZN5telux3sec28CryptoAcceleratorManagerImpl18deliverResultAsyncEPK10MVM_OUTPUTENUlvE_D2Ev=so_stub_for_libtelux_sec
-Wl,--defsym=_ZZNSt19_Sp_make_shared_tag5_S_tiEvE5__tag=so_stub_for_libtelux_sec
-Wl,--defsym=_ZZNSt9once_flag18_Prepare_executionC4IZSt9call_onceIMNSt13__future_base13_State_baseV2EFvPSt8functionIFSt10unique_ptrINS3_12_Result_baseENS7_8_DeleterEEvEEPbEJPS4_SC_SD_EEvRS_OT_DpOT0_EUlvE_EERSI_ENUlvE_4_FUNEv=so_stub_for_libtelux_sec
