-Wl,--defsym=__gcov_error_file=so_stub_for_libtelux_data
-Wl,--defsym=__gcov_kvp_dynamic_pool=so_stub_for_libtelux_data
-Wl,--defsym=__gcov_kvp_dynamic_pool_index=so_stub_for_libtelux_data
-Wl,--defsym=__gcov_kvp_dynamic_pool_size=so_stub_for_libtelux_data
-Wl,--defsym=__gcov_master=so_stub_for_libtelux_data
-Wl,--defsym=__gcov_var=so_stub_for_libtelux_data
-Wl,--defsym=mangle_path=so_stub_for_libtelux_data
-Wl,--defsym=_ZN5telux3qmi15IQmiDsdListener20onSwitchDdsStatusIndERK26dsd_switch_dds_ind_msg_v01=so_stub_for_libtelux_data
-Wl,--defsym=_ZN5telux3qmi15IQmiDsdListener21onCurrentDdsStatusIndERK27dsd_current_dds_ind_msg_v01=so_stub_for_libtelux_data
-Wl,--defsym=_ZN5telux3qmi15IQmiDsdListener21onNrIconTypeChangeIndERK23dsd_ui_info_ind_msg_v01=so_stub_for_libtelux_data
-Wl,--defsym=_ZN5telux3qmi15IQmiDsdListener23onServiceStateChangeIndERKNS0_19dsdSystemStatusInfoE=so_stub_for_libtelux_data
-Wl,--defsym=_ZN5telux3qmi15IQmiDsdListener24onDsdServiceStatusChangeENS_6common13ServiceStatusE=so_stub_for_libtelux_data
-Wl,--defsym=_ZN5telux3qmi15IQmiDsdListener24onRoamingStatusChangeIndERK37dsd_roaming_status_change_ind_msg_v01=so_stub_for_libtelux_data
-Wl,--defsym=_ZN5telux3qmi15IQmiDsdListener24onServiceStatusResultIndERK43dsd_get_system_status_v2_result_ind_msg_v01i=so_stub_for_libtelux_data
-Wl,--defsym=_ZN5telux3qmi15IQmiDsdListener28onDdsSwitchRecommendationIndERK30dsd_dds_recommendation_ind_v01=so_stub_for_libtelux_data
-Wl,--defsym=_ZN5telux3qmi15IQmiWdsListener15onProfileUpdateEP31wds_profile_changed_ind_msg_v01=so_stub_for_libtelux_data
-Wl,--defsym=_ZN5telux3qmi15IQmiWdsListener17onV2xSrcL2InfoIndERK31wds_v2x_src_l2_info_ind_msg_v01=so_stub_for_libtelux_data
-Wl,--defsym=_ZN5telux3qmi15IQmiWdsListener18onLteAttachFailureEPK39wds_lte_attach_failure_info_ind_msg_v01=so_stub_for_libtelux_data
-Wl,--defsym=_ZN5telux3qmi15IQmiWdsListener18onPktSrvcStatusIndERK31wds_pkt_srvc_status_ind_msg_v01=so_stub_for_libtelux_data
-Wl,--defsym=_ZN5telux3qmi15IQmiWdsListener20onPdnThrottleInfoIndERK33wds_pdn_throttle_info_ind_msg_v01=so_stub_for_libtelux_data
-Wl,--defsym=_ZN5telux3qmi15IQmiWdsListener20onV2xConfigChangeIndERK34wds_v2x_config_changed_ind_msg_v01=so_stub_for_libtelux_data
-Wl,--defsym=_ZN5telux3qmi15IQmiWdsListener22onV2xCapabilityInfoIndERK35wds_v2x_capability_info_ind_msg_v01=so_stub_for_libtelux_data
-Wl,--defsym=_ZN5telux3qmi15IQmiWdsListener22onV2xSendConfigFileIndERK43wds_v2x_send_config_file_result_ind_msg_v01=so_stub_for_libtelux_data
-Wl,--defsym=_ZN5telux3qmi15IQmiWdsListener23onKeepAliveStatusChangeENS_6common9ErrorCodeEj=so_stub_for_libtelux_data
-Wl,--defsym=_ZN5telux3qmi15IQmiWdsListener24onV2xGetConfigurationIndERK31wds_v2x_config_file_ind_msg_v01=so_stub_for_libtelux_data
-Wl,--defsym=_ZN5telux3qmi15IQmiWdsListener24onV2xSpsFlowRegResultIndERK39wds_v2x_sps_flow_reg_result_ind_msg_v01=so_stub_for_libtelux_data
-Wl,--defsym=_ZN5telux3qmi15IQmiWdsListener24onWdsServiceStatusChangeENS_6common13ServiceStatusE=so_stub_for_libtelux_data
-Wl,--defsym=_ZN5telux3qmi15IQmiWdsListener25onDormancyStatusChangeIndERK38wds_global_dormancy_status_ind_msg_v01=so_stub_for_libtelux_data
-Wl,--defsym=_ZN5telux3qmi15IQmiWdsListener25onV2xSpsSchedulingInfoIndERK39wds_v2x_sps_scheduling_info_ind_msg_v01=so_stub_for_libtelux_data
-Wl,--defsym=_ZN5telux3qmi15IQmiWdsListener26onV2xSpsFlowDeregResultIndERK41wds_v2x_sps_flow_dereg_result_ind_msg_v01=so_stub_for_libtelux_data
-Wl,--defsym=_ZN5telux3qmi15IQmiWdsListener27onV2xSpsFlowUpdateResultIndERK42wds_v2x_sps_flow_update_result_ind_msg_v01=so_stub_for_libtelux_data
-Wl,--defsym=_ZN5telux3qmi15IQmiWdsListener30onV2xServiceSubscribeResultIndERK44wds_v2x_service_subscribe_result_ind_msg_v01=so_stub_for_libtelux_data
-Wl,--defsym=_ZN5telux3qmi16QmiProfileParamsD1Ev=so_stub_for_libtelux_data
-Wl,--defsym=_ZN5telux3qmi16QmiProfileParamsD2Ev=so_stub_for_libtelux_data
-Wl,--defsym=_ZN5telux3qms18IQmsClientListener24onQmsServiceStatusChangeENS_6common13ServiceStatusE=so_stub_for_libtelux_data
-Wl,--defsym=_ZN5telux3qms18IQmsClientListener26onDualDataCapabilityChangeEb=so_stub_for_libtelux_data
-Wl,--defsym=_ZN5telux3qms18IQmsClientListener30onDualDataRecommendationChangeENS0_18DataRecommendationE=so_stub_for_libtelux_data
-Wl,--defsym=_ZN5telux3qms18IQmsClientListenerD0Ev=so_stub_for_libtelux_data
-Wl,--defsym=_ZN5telux3qms18IQmsClientListenerD1Ev=so_stub_for_libtelux_data
-Wl,--defsym=_ZN5telux3qms18IQmsClientListenerD2Ev=so_stub_for_libtelux_data
-Wl,--defsym=_ZN5telux4data10DataHelper10fillIPInfoERSt10shared_ptrINS0_9IIpFilterEE44qcmap_msgr_qos_filter_rule_resp_ind_type_v01=so_stub_for_libtelux_data
-Wl,--defsym=_ZN5telux4data10DataHelper12fillIPv4InfoERSt10shared_ptrINS0_9IIpFilterEER44qcmap_msgr_qos_filter_rule_resp_ind_type_v01=so_stub_for_libtelux_data
-Wl,--defsym=_ZN5telux4data10DataHelper12fillIPv6InfoERSt10shared_ptrINS0_9IIpFilterEER44qcmap_msgr_qos_filter_rule_resp_ind_type_v01=so_stub_for_libtelux_data
-Wl,--defsym=_ZN5telux4data10DataHelper12fillPortInfoERSt10shared_ptrINS0_9IIpFilterEE44qcmap_msgr_qos_filter_rule_resp_ind_type_v01h=so_stub_for_libtelux_data
-Wl,--defsym=_ZN5telux4data10DataHelper13addFilterInfoERNS0_13QosFilterRuleER44qcmap_msgr_qos_filter_rule_resp_ind_type_v01=so_stub_for_libtelux_data
-Wl,--defsym=_ZN5telux4data10DataHelper13fillQosFilterERSt10shared_ptrINS0_19TrafficFlowTemplateEER38qcmap_msgr_global_qos_flow_ind_msg_v01RjS8_=so_stub_for_libtelux_data
-Wl,--defsym=_ZN5telux4data10DataHelper13fillQosParamsERSt10shared_ptrINS0_19TrafficFlowTemplateEER38qcmap_msgr_global_qos_flow_ind_msg_v01RjS8_=so_stub_for_libtelux_data
-Wl,--defsym=_ZN5telux4data10DataHelper13flipPerStatusISt6bitsetILm2EENS0_13DependentTypeEEEbRT_T0_NS_6common13ServiceStatusERb=so_stub_for_libtelux_data
-Wl,--defsym=_ZN5telux4data10DataHelper14convertAddressERKNSt7__cxx1112basic_stringIcSt11char_traitsIcESaIcEEEPhi=so_stub_for_libtelux_data
-Wl,--defsym=_ZN5telux4data10DataHelper15isValidBackhaulENS0_12BackhaulInfoE=so_stub_for_libtelux_data
-Wl,--defsym=_ZN5telux4data10DataHelper15isValidProtocolERKh=so_stub_for_libtelux_data
-Wl,--defsym=_ZN5telux4data10DataHelper18converAddrToStringEiPjPc=so_stub_for_libtelux_data
-Wl,--defsym=_ZN5telux4data10DataHelper18fillQosGrantedFlowERNS0_13QosIPFlowInfoER28qcmap_msgr_qos_flow_type_v01=so_stub_for_libtelux_data
-Wl,--defsym=_ZN5telux4data10DataHelper18isValidIpv4AddressERKNSt7__cxx1112basic_stringIcSt11char_traitsIcESaIcEEE=so_stub_for_libtelux_data
-Wl,--defsym=_ZN5telux4data10DataHelper18isValidIpv6AddressERKNSt7__cxx1112basic_stringIcSt11char_traitsIcESaIcEEE=so_stub_for_libtelux_data
-Wl,--defsym=_ZN5telux4data10DataHelper18logDataCallDetailsENS0_14DataCallStatusEi6SlotIdNS_6common17DataCallEndReasonENSt7__cxx1112basic_stringIcSt11char_traitsIcESaIcEEENS6_4listINS0_10IpAddrInfoESaISD_EEENS0_20DataBearerTechnologyE=so_stub_for_libtelux_data
-Wl,--defsym=_ZN5telux4data10DataHelper19convertAddrToStringB5cxx11ENS0_12IpFamilyTypeEPv=so_stub_for_libtelux_data
-Wl,--defsym=_ZN5telux4data10DataHelper20convertIpFamilyToIntENS0_12IpFamilyTypeE=so_stub_for_libtelux_data
-Wl,--defsym=_ZN5telux4data10DataHelper20convertToIpv4AddressERKNSt7__cxx1112basic_stringIcSt11char_traitsIcESaIcEEEPj=so_stub_for_libtelux_data
-Wl,--defsym=_ZN5telux4data10DataHelper20convertToIpv6AddressERKNSt7__cxx1112basic_stringIcSt11char_traitsIcESaIcEEEPA16_h=so_stub_for_libtelux_data
-Wl,--defsym=_ZN5telux4data10DataHelper20validateBackhaulInfoENS0_12BackhaulInfoE=so_stub_for_libtelux_data
-Wl,--defsym=_ZN5telux4data10DataHelper21qcmToUsageResetReasonE38qcmap_msgr_packet_stats_state_enum_v01RNS0_16UsageResetReasonE=so_stub_for_libtelux_data
-Wl,--defsym=_ZN5telux4data10DataHelper22qmiToDataCallEndReasonEii=so_stub_for_libtelux_data
-Wl,--defsym=_ZN5telux4data10DataHelper24convertIpOprToQcmapIpOprERKNS0_17IpAssignOperationE=so_stub_for_libtelux_data
-Wl,--defsym=_ZN5telux4data10DataHelper24convertIpptOprToQcmapOprERKNS0_9OperationE=so_stub_for_libtelux_data
-Wl,--defsym=_ZN5telux4data10DataHelper24convertQcmapIpOprToIpOprERK32qcmap_msgr_config_state_enum_v01=so_stub_for_libtelux_data
-Wl,--defsym=_ZN5telux4data10DataHelper24convertQcmapOprToIpptOprERK39qcmap_msgr_ip_passthrough_mode_enum_v01=so_stub_for_libtelux_data
-Wl,--defsym=_ZN5telux4data10DataHelper25callEndReasonTypeToStringB5cxx11ENS_6common13EndReasonTypeE=so_stub_for_libtelux_data
-Wl,--defsym=_ZN5telux4data10DataHelper26convertIfTypeToQcmapBhTypeERKNS0_13InterfaceTypeE=so_stub_for_libtelux_data
-Wl,--defsym=_ZN5telux4data10DataHelper26convertIpInfoToQcmapIpInfoERKNS0_10IpAddrInfoER18qcmap_wan_config_t=so_stub_for_libtelux_data
-Wl,--defsym=_ZN5telux4data10DataHelper26convertIpTypeToQcmapIpTypeERKNS0_12IpAssignTypeE=so_stub_for_libtelux_data
-Wl,--defsym=_ZN5telux4data10DataHelper26convertQcmapIpInfoToIpInfoERK18qcmap_wan_config_t=so_stub_for_libtelux_data
-Wl,--defsym=_ZN5telux4data10DataHelper26convertQcmapIpTypeToIpTypeERK39qcmap_msgr_wan_connection_type_enum_v01=so_stub_for_libtelux_data
-Wl,--defsym=_ZN5telux4data10DataHelper34convertDeviceTypeToQcmapDeviceTypeERKNS0_13InterfaceTypeER31qcmap_msgr_device_type_enum_v01=so_stub_for_libtelux_data
-Wl,--defsym=_ZN5telux4data10DataHelper34convertQcmapDeviceTypeToDeviceTypeERK31qcmap_msgr_device_type_enum_v01=so_stub_for_libtelux_data
-Wl,--defsym=_ZN5telux4data10DataHelper38convertIpFamilyTypeToQcmapIpFamilyTypeERKNS0_12IpFamilyTypeE=so_stub_for_libtelux_data
-Wl,--defsym=_ZN5telux4data10IpAddrInfoC1ERKS1_=so_stub_for_libtelux_data
-Wl,--defsym=_ZN5telux4data10IpAddrInfoC2ERKS1_=so_stub_for_libtelux_data
-Wl,--defsym=_ZN5telux4data10IpAddrInfoD1Ev=so_stub_for_libtelux_data
-Wl,--defsym=_ZN5telux4data10IpAddrInfoD2Ev=so_stub_for_libtelux_data
-Wl,--defsym=_ZN5telux4data10TftBuilder10processTftER38qcmap_msgr_global_qos_flow_ind_msg_v01=so_stub_for_libtelux_data
-Wl,--defsym=_ZN5telux4data10TftBuilder8buildTftER38qcmap_msgr_global_qos_flow_ind_msg_v01=so_stub_for_libtelux_data
-Wl,--defsym=_ZN5telux4data10TftBuilderC1ESt8functionIFvSt6vectorISt10shared_ptrINS0_19TrafficFlowTemplateEESaIS6_EEEES2_IFvS3_IS4_INS0_13TftChangeInfoEESaISC_EEjEE=so_stub_for_libtelux_data
-Wl,--defsym=_ZN5telux4data10TftBuilderC2ESt8functionIFvSt6vectorISt10shared_ptrINS0_19TrafficFlowTemplateEESaIS6_EEEES2_IFvS3_IS4_INS0_13TftChangeInfoEESaISC_EEjEE=so_stub_for_libtelux_data
-Wl,--defsym=_ZN5telux4data10TftBuilderD1Ev=so_stub_for_libtelux_data
-Wl,--defsym=_ZN5telux4data10TftBuilderD2Ev=so_stub_for_libtelux_data
-Wl,--defsym=_ZN5telux4data11DataFactory11getInstanceEv=so_stub_for_libtelux_data
-Wl,--defsym=_ZN5telux4data11DataFactoryC1Ev=so_stub_for_libtelux_data
-Wl,--defsym=_ZN5telux4data11DataFactoryC2Ev=so_stub_for_libtelux_data
-Wl,--defsym=_ZN5telux4data11DataFactoryD0Ev=so_stub_for_libtelux_data
-Wl,--defsym=_ZN5telux4data11DataFactoryD1Ev=so_stub_for_libtelux_data
-Wl,--defsym=_ZN5telux4data11DataFactoryD2Ev=so_stub_for_libtelux_data
-Wl,--defsym=_ZN5telux4data11DataProfile11getApnTypesEv=so_stub_for_libtelux_data
-Wl,--defsym=_ZN5telux4data11DataProfile11getPasswordB5cxx11Ev=so_stub_for_libtelux_data
-Wl,--defsym=_ZN5telux4data11DataProfile11getUserNameB5cxx11Ev=so_stub_for_libtelux_data
-Wl,--defsym=_ZN5telux4data11DataProfile15getIpFamilyTypeEv=so_stub_for_libtelux_data
-Wl,--defsym=_ZN5telux4data11DataProfile17getTechPreferenceEv=so_stub_for_libtelux_data
-Wl,--defsym=_ZN5telux4data11DataProfile19getAuthProtocolTypeEv=so_stub_for_libtelux_data
-Wl,--defsym=_ZN5telux4data11DataProfile21getIsEmergencyAllowedEv=so_stub_for_libtelux_data
-Wl,--defsym=_ZN5telux4data11DataProfile5getIdEv=so_stub_for_libtelux_data
-Wl,--defsym=_ZN5telux4data11DataProfile6getApnB5cxx11Ev=so_stub_for_libtelux_data
-Wl,--defsym=_ZN5telux4data11DataProfile7getNameB5cxx11Ev=so_stub_for_libtelux_data
-Wl,--defsym=_ZN5telux4data11DataProfile8toStringB5cxx11Ev=so_stub_for_libtelux_data
-Wl,--defsym=_ZN5telux4data11DataProfileC1EiRKNSt7__cxx1112basic_stringIcSt11char_traitsIcESaIcEEES9_S9_S9_NS0_12IpFamilyTypeENS0_14TechPreferenceENS0_16AuthProtocolTypeESt6bitsetILm16EENS0_19EmergencyCapabilityE=so_stub_for_libtelux_data
-Wl,--defsym=_ZN5telux4data11DataProfileC2EiRKNSt7__cxx1112basic_stringIcSt11char_traitsIcESaIcEEES9_S9_S9_NS0_12IpFamilyTypeENS0_14TechPreferenceENS0_16AuthProtocolTypeESt6bitsetILm16EENS0_19EmergencyCapabilityE=so_stub_for_libtelux_data
-Wl,--defsym=_ZN5telux4data11DataProfileD1Ev=so_stub_for_libtelux_data
-Wl,--defsym=_ZN5telux4data11DataProfileD2Ev=so_stub_for_libtelux_data
-Wl,--defsym=_ZN5telux4data11WdsListener18onLteAttachFailureEPK39wds_lte_attach_failure_info_ind_msg_v01=so_stub_for_libtelux_data
-Wl,--defsym=_ZN5telux4data11WdsListener25onDormancyStatusChangeIndERK38wds_global_dormancy_status_ind_msg_v01=so_stub_for_libtelux_data
-Wl,--defsym=_ZN5telux4data11WdsListenerC1ERSt10shared_ptrINS_6common15ListenerManagerEERS2_ISt6atomicINS0_9DrbStatusEEE=so_stub_for_libtelux_data
-Wl,--defsym=_ZN5telux4data11WdsListenerD0Ev=so_stub_for_libtelux_data
-Wl,--defsym=_ZN5telux4data11WdsListenerD1Ev=so_stub_for_libtelux_data
-Wl,--defsym=_ZN5telux4data12DataCallImpl11getIpv4InfoEv=so_stub_for_libtelux_data
-Wl,--defsym=_ZN5telux4data12DataCallImpl11getIpv6InfoEv=so_stub_for_libtelux_data
-Wl,--defsym=_ZN5telux4data12DataCallImpl12getProfileIdEv=so_stub_for_libtelux_data
-Wl,--defsym=_ZN5telux4data12DataCallImpl12setProfileIdEi=so_stub_for_libtelux_data
-Wl,--defsym=_ZN5telux4data12DataCallImpl13setIpAddrListENSt7__cxx114listINS0_10IpAddrInfoESaIS4_EEE=so_stub_for_libtelux_data
-Wl,--defsym=_ZN5telux4data12DataCallImpl15getIpFamilyTypeEv=so_stub_for_libtelux_data
-Wl,--defsym=_ZN5telux4data12DataCallImpl15setIpFamilyTypeENS0_12IpFamilyTypeE=so_stub_for_libtelux_data
-Wl,--defsym=_ZN5telux4data12DataCallImpl16getInterfaceNameB5cxx11Ev=so_stub_for_libtelux_data
-Wl,--defsym=_ZN5telux4data12DataCallImpl16getIpAddressInfoB5cxx11Ev=so_stub_for_libtelux_data
-Wl,--defsym=_ZN5telux4data12DataCallImpl16getOperationTypeEv=so_stub_for_libtelux_data
-Wl,--defsym=_ZN5telux4data12DataCallImpl16getQcmapCallTypeEv=so_stub_for_libtelux_data
-Wl,--defsym=_ZN5telux4data12DataCallImpl16setInterfaceNameENSt7__cxx1112basic_stringIcSt11char_traitsIcESaIcEEE=so_stub_for_libtelux_data
-Wl,--defsym=_ZN5telux4data12DataCallImpl16setOperationTypeENS0_13OperationTypeE=so_stub_for_libtelux_data
-Wl,--defsym=_ZN5telux4data12DataCallImpl16setQcmapCallTypeE29qcmap_msgr_wwan_call_type_v01=so_stub_for_libtelux_data
-Wl,--defsym=_ZN5telux4data12DataCallImpl17arbitrateIpFamilyENS0_12IpFamilyTypeE=so_stub_for_libtelux_data
-Wl,--defsym=_ZN5telux4data12DataCallImpl17getDataCallStatusEv=so_stub_for_libtelux_data
-Wl,--defsym=_ZN5telux4data12DataCallImpl17getTechPreferenceEv=so_stub_for_libtelux_data
-Wl,--defsym=_ZN5telux4data12DataCallImpl17setDataCallStatusENS0_14DataCallStatusE=so_stub_for_libtelux_data
-Wl,--defsym=_ZN5telux4data12DataCallImpl17setDataCallStatusENS0_14DataCallStatusENS0_12IpFamilyTypeE=so_stub_for_libtelux_data
-Wl,--defsym=_ZN5telux4data12DataCallImpl17setTechPreferenceENS0_14TechPreferenceE=so_stub_for_libtelux_data
-Wl,--defsym=_ZN5telux4data12DataCallImpl20getCurrentBearerTechEv=so_stub_for_libtelux_data
-Wl,--defsym=_ZN5telux4data12DataCallImpl20getDataCallEndReasonEv=so_stub_for_libtelux_data
-Wl,--defsym=_ZN5telux4data12DataCallImpl20setDataCallEndReasonENS_6common17DataCallEndReasonE=so_stub_for_libtelux_data
-Wl,--defsym=_ZN5telux4data12DataCallImpl21getQcmapProfileHandleEv=so_stub_for_libtelux_data
-Wl,--defsym=_ZN5telux4data12DataCallImpl21setQcmapProfileHandleEj=so_stub_for_libtelux_data
-Wl,--defsym=_ZN5telux4data12DataCallImpl22requestDataCallBitRateESt8functionIFvRNS0_11BitRateInfoENS_6common9ErrorCodeEEE=so_stub_for_libtelux_data
-Wl,--defsym=_ZN5telux4data12DataCallImpl23resetDataCallStatisticsESt8functionIFvNS_6common9ErrorCodeEEE=so_stub_for_libtelux_data
-Wl,--defsym=_ZN5telux4data12DataCallImpl23setDataBearerTechnologyENS0_20DataBearerTechnologyE=so_stub_for_libtelux_data
-Wl,--defsym=_ZN5telux4data12DataCallImpl25requestDataCallStatisticsESt8functionIFvNS0_13DataCallStatsENS_6common9ErrorCodeEEE=so_stub_for_libtelux_data
-Wl,--defsym=_ZN5telux4data12DataCallImpl26requestTrafficFlowTemplateENS0_12IpFamilyTypeESt8functionIFvRKSt6vectorISt10shared_ptrINS0_19TrafficFlowTemplateEESaIS7_EENS_6common9ErrorCodeEEE=so_stub_for_libtelux_data
-Wl,--defsym=_ZN5telux4data12DataCallImpl9getSlotIdEv=so_stub_for_libtelux_data
-Wl,--defsym=_ZN5telux4data12DataCallImpl9setSlotIdE6SlotId=so_stub_for_libtelux_data
-Wl,--defsym=_ZN5telux4data12DataCallImplC1Ev=so_stub_for_libtelux_data
-Wl,--defsym=_ZN5telux4data12DataCallImplC2Ev=so_stub_for_libtelux_data
-Wl,--defsym=_ZN5telux4data12DataCallImplD0Ev=so_stub_for_libtelux_data
-Wl,--defsym=_ZN5telux4data12DataCallImplD1Ev=so_stub_for_libtelux_data
-Wl,--defsym=_ZN5telux4data12DataCallImplD2Ev=so_stub_for_libtelux_data
-Wl,--defsym=_ZN5telux4data12EventHandler14eventProcessorEv=so_stub_for_libtelux_data
-Wl,--defsym=_ZN5telux4data12EventHandler4postESt10shared_ptrINS0_13EventInfoBaseEE=so_stub_for_libtelux_data
-Wl,--defsym=_ZN5telux4data12EventHandler4stopEv=so_stub_for_libtelux_data
-Wl,--defsym=_ZN5telux4data12EventHandler5startEv=so_stub_for_libtelux_data
-Wl,--defsym=_ZN5telux4data12IpFilterImpl11getIpFamilyEv=so_stub_for_libtelux_data
-Wl,--defsym=_ZN5telux4data12IpFilterImpl11getIPv4InfoEv=so_stub_for_libtelux_data
-Wl,--defsym=_ZN5telux4data12IpFilterImpl11getIPv6InfoEv=so_stub_for_libtelux_data
-Wl,--defsym=_ZN5telux4data12IpFilterImpl11setIPv4InfoERKNS0_8IPv4InfoE=so_stub_for_libtelux_data
-Wl,--defsym=_ZN5telux4data12IpFilterImpl11setIPv6InfoERKNS0_8IPv6InfoE=so_stub_for_libtelux_data
-Wl,--defsym=_ZN5telux4data12IpFilterImpl13getIpProtocolEv=so_stub_for_libtelux_data
-Wl,--defsym=_ZN5telux4data12IpFilterImpl15getFilterHandleEv=so_stub_for_libtelux_data
-Wl,--defsym=_ZN5telux4data12IpFilterImpl15setFilterHandleEj=so_stub_for_libtelux_data
-Wl,--defsym=_ZN5telux4data12IpFilterImplC1Eh=so_stub_for_libtelux_data
-Wl,--defsym=_ZN5telux4data12IpFilterImplC2Eh=so_stub_for_libtelux_data
-Wl,--defsym=_ZN5telux4data12IpFilterImplD0Ev=so_stub_for_libtelux_data
-Wl,--defsym=_ZN5telux4data12IpFilterImplD1Ev=so_stub_for_libtelux_data
-Wl,--defsym=_ZN5telux4data12IpFilterImplD2Ev=so_stub_for_libtelux_data
-Wl,--defsym=_ZN5telux4data13EspFilterImpl10getEspInfoEv=so_stub_for_libtelux_data
-Wl,--defsym=_ZN5telux4data13EspFilterImpl10setEspInfoERKNS0_7EspInfoE=so_stub_for_libtelux_data
-Wl,--defsym=_ZN5telux4data13EspFilterImplC1Eh=so_stub_for_libtelux_data
-Wl,--defsym=_ZN5telux4data13EspFilterImplC2Eh=so_stub_for_libtelux_data
-Wl,--defsym=_ZN5telux4data13EspFilterImplD0Ev=so_stub_for_libtelux_data
-Wl,--defsym=_ZN5telux4data13EspFilterImplD1Ev=so_stub_for_libtelux_data
-Wl,--defsym=_ZN5telux4data13EspFilterImplD2Ev=so_stub_for_libtelux_data
-Wl,--defsym=_ZN5telux4data13ProfileHelper11newUserDataENS0_18ProfileRequestTypeESt10shared_ptrINS_6common16ICommandCallbackEEPNS4_22CommandCallbackManagerENS0_14TechPreferenceE=so_stub_for_libtelux_data
-Wl,--defsym=_ZN5telux4data13ProfileHelper21techPrefToWdsProfTypeENS0_14TechPreferenceE=so_stub_for_libtelux_data
-Wl,--defsym=_ZN5telux4data13ProfileParamsD1Ev=so_stub_for_libtelux_data
-Wl,--defsym=_ZN5telux4data13ProfileParamsD2Ev=so_stub_for_libtelux_data
-Wl,--defsym=_ZN5telux4data13TcpFilterImpl10getTcpInfoEv=so_stub_for_libtelux_data
-Wl,--defsym=_ZN5telux4data13TcpFilterImpl10setTcpInfoERKNS0_7TcpInfoE=so_stub_for_libtelux_data
-Wl,--defsym=_ZN5telux4data13TcpFilterImplC1Eh=so_stub_for_libtelux_data
-Wl,--defsym=_ZN5telux4data13TcpFilterImplC2Eh=so_stub_for_libtelux_data
-Wl,--defsym=_ZN5telux4data13TcpFilterImplD0Ev=so_stub_for_libtelux_data
-Wl,--defsym=_ZN5telux4data13TcpFilterImplD1Ev=so_stub_for_libtelux_data
-Wl,--defsym=_ZN5telux4data13TcpFilterImplD2Ev=so_stub_for_libtelux_data
-Wl,--defsym=_ZN5telux4data13UdpFilterImpl10getUdpInfoEv=so_stub_for_libtelux_data
-Wl,--defsym=_ZN5telux4data13UdpFilterImpl10setUdpInfoERKNS0_7UdpInfoE=so_stub_for_libtelux_data
-Wl,--defsym=_ZN5telux4data13UdpFilterImplC1Eh=so_stub_for_libtelux_data
-Wl,--defsym=_ZN5telux4data13UdpFilterImplC2Eh=so_stub_for_libtelux_data
-Wl,--defsym=_ZN5telux4data13UdpFilterImplD0Ev=so_stub_for_libtelux_data
-Wl,--defsym=_ZN5telux4data13UdpFilterImplD1Ev=so_stub_for_libtelux_data
-Wl,--defsym=_ZN5telux4data13UdpFilterImplD2Ev=so_stub_for_libtelux_data
-Wl,--defsym=_ZN5telux4data14IcmpFilterImpl11getIcmpInfoEv=so_stub_for_libtelux_data
-Wl,--defsym=_ZN5telux4data14IcmpFilterImpl11setIcmpInfoERKNS0_8IcmpInfoE=so_stub_for_libtelux_data
-Wl,--defsym=_ZN5telux4data14IcmpFilterImplC1Eh=so_stub_for_libtelux_data
-Wl,--defsym=_ZN5telux4data14IcmpFilterImplC2Eh=so_stub_for_libtelux_data
-Wl,--defsym=_ZN5telux4data14IcmpFilterImplD0Ev=so_stub_for_libtelux_data
-Wl,--defsym=_ZN5telux4data14IcmpFilterImplD1Ev=so_stub_for_libtelux_data
-Wl,--defsym=_ZN5telux4data14IcmpFilterImplD2Ev=so_stub_for_libtelux_data
-Wl,--defsym=_ZN5telux4data14WdsCmdListener15commandResponseEiiPv=so_stub_for_libtelux_data
-Wl,--defsym=_ZN5telux4data14WdsCmdListener15onProfileUpdateEP31wds_profile_changed_ind_msg_v01=so_stub_for_libtelux_data
-Wl,--defsym=_ZN5telux4data14WdsCmdListener24onWdsServiceStatusChangeENS_6common13ServiceStatusE=so_stub_for_libtelux_data
-Wl,--defsym=_ZN5telux4data14WdsCmdListenerC1ESt8weak_ptrINS0_22DataProfileManagerImplEESt8functionIFvNS_6common13ServiceStatusEEES5_IFvP31wds_profile_changed_ind_msg_v01EES5_IFvNS6_9ErrorCodeEPvEE=so_stub_for_libtelux_data
-Wl,--defsym=_ZN5telux4data14WdsCmdListenerD0Ev=so_stub_for_libtelux_data
-Wl,--defsym=_ZN5telux4data14WdsCmdListenerD1Ev=so_stub_for_libtelux_data
-Wl,--defsym=_ZN5telux4data15APNThrottleInfoC1ERKS1_=so_stub_for_libtelux_data
-Wl,--defsym=_ZN5telux4data15APNThrottleInfoC2ERKS1_=so_stub_for_libtelux_data
-Wl,--defsym=_ZN5telux4data15APNThrottleInfoD1Ev=so_stub_for_libtelux_data
-Wl,--defsym=_ZN5telux4data15APNThrottleInfoD2Ev=so_stub_for_libtelux_data
-Wl,--defsym=_ZN5telux4data15DataFactoryImpl11getInstanceEv=so_stub_for_libtelux_data
-Wl,--defsym=_ZN5telux4data15DataFactoryImpl13getNatManagerENS0_13OperationTypeESt8functionIFvNS_6common13ServiceStatusEEE=so_stub_for_libtelux_data
-Wl,--defsym=_ZN5telux4data15DataFactoryImpl13getQoSManagerESt8functionIFvNS_6common13ServiceStatusEEE=so_stub_for_libtelux_data
-Wl,--defsym=_ZN5telux4data15DataFactoryImpl14getL2tpManagerESt8functionIFvNS_6common13ServiceStatusEEE=so_stub_for_libtelux_data
-Wl,--defsym=_ZN5telux4data15DataFactoryImpl14getNewIpFilterEh=so_stub_for_libtelux_data
-Wl,--defsym=_ZN5telux4data15DataFactoryImpl14getVlanManagerENS0_13OperationTypeESt8functionIFvNS_6common13ServiceStatusEEE=so_stub_for_libtelux_data
-Wl,--defsym=_ZN5telux4data15DataFactoryImpl15getSocksManagerENS0_13OperationTypeESt8functionIFvNS_6common13ServiceStatusEEE=so_stub_for_libtelux_data
-Wl,--defsym=_ZN5telux4data15DataFactoryImpl16getBridgeManagerESt8functionIFvNS_6common13ServiceStatusEEE=so_stub_for_libtelux_data
-Wl,--defsym=_ZN5telux4data15DataFactoryImpl16getClientManagerESt8functionIFvNS_6common13ServiceStatusEEE=so_stub_for_libtelux_data
-Wl,--defsym=_ZN5telux4data15DataFactoryImpl18getDataLinkManagerESt8functionIFvNS_6common13ServiceStatusEEE=so_stub_for_libtelux_data
-Wl,--defsym=_ZN5telux4data15DataFactoryImpl18getDualDataManagerESt8functionIFvNS_6common13ServiceStatusEEE=so_stub_for_libtelux_data
-Wl,--defsym=_ZN5telux4data15DataFactoryImpl18getFirewallManagerENS0_13OperationTypeESt8functionIFvNS_6common13ServiceStatusEEE=so_stub_for_libtelux_data
-Wl,--defsym=_ZN5telux4data15DataFactoryImpl19getKeepAliveManagerE6SlotIdSt8functionIFvNS_6common13ServiceStatusEEE=so_stub_for_libtelux_data
-Wl,--defsym=_ZN5telux4data15DataFactoryImpl19getNewFirewallEntryEhNS0_9DirectionENS0_12IpFamilyTypeE=so_stub_for_libtelux_data
-Wl,--defsym=_ZN5telux4data15DataFactoryImpl20getDataFilterManagerE6SlotIdSt8functionIFvNS_6common13ServiceStatusEEE=so_stub_for_libtelux_data
-Wl,--defsym=_ZN5telux4data15DataFactoryImpl20initCompleteNotifierERSt6vectorISt8functionIFvNS_6common13ServiceStatusEEESaIS7_EES5_=so_stub_for_libtelux_data
-Wl,--defsym=_ZN5telux4data15DataFactoryImpl21getDataControlManagerESt8functionIFvNS_6common13ServiceStatusEEE=so_stub_for_libtelux_data
-Wl,--defsym=_ZN5telux4data15DataFactoryImpl21getDataProfileManagerE6SlotIdSt8functionIFvNS_6common13ServiceStatusEEE=so_stub_for_libtelux_data
-Wl,--defsym=_ZN5telux4data15DataFactoryImpl22getDataSettingsManagerENS0_13OperationTypeESt8functionIFvNS_6common13ServiceStatusEEE=so_stub_for_libtelux_data
-Wl,--defsym=_ZN5telux4data15DataFactoryImpl23getServingSystemManagerE6SlotIdSt8functionIFvNS_6common13ServiceStatusEEE=so_stub_for_libtelux_data
-Wl,--defsym=_ZN5telux4data15DataFactoryImpl24getDataConnectionManagerE6SlotIdSt8functionIFvNS_6common13ServiceStatusEEE=so_stub_for_libtelux_data
-Wl,--defsym=_ZN5telux4data15DataFactoryImpl30initCompleteNotifierWithSlotIdERSt3mapI6SlotIdSt6vectorISt8functionIFvNS_6common13ServiceStatusEEESaIS9_EESt4lessIS3_ESaISt4pairIKS3_SB_EEES7_S3_=so_stub_for_libtelux_data
-Wl,--defsym=_ZN5telux4data15DataFactoryImpl31initCompleteNotifierWithOprTypeERSt3mapINS0_13OperationTypeESt6vectorISt8functionIFvNS_6common13ServiceStatusEEESaIS9_EESt4lessIS3_ESaISt4pairIKS3_SB_EEES7_S3_=so_stub_for_libtelux_data
-Wl,--defsym=_ZN5telux4data15DataFactoryImplC1Ev=so_stub_for_libtelux_data
-Wl,--defsym=_ZN5telux4data15DataFactoryImplC2Ev=so_stub_for_libtelux_data
-Wl,--defsym=_ZN5telux4data15DataFactoryImplD0Ev=so_stub_for_libtelux_data
-Wl,--defsym=_ZN5telux4data15DataFactoryImplD1Ev=so_stub_for_libtelux_data
-Wl,--defsym=_ZN5telux4data15DataFactoryImplD2Ev=so_stub_for_libtelux_data
-Wl,--defsym=_ZN5telux4data15onDsiIndicationEPvS1_13dsi_net_evt_tP20dsi_evt_payload_ex_t=so_stub_for_libtelux_data
-Wl,--defsym=_ZN5telux4data16DataFilterHelper10dumpFilterER18dsi_ip_filter_info=so_stub_for_libtelux_data
-Wl,--defsym=_ZN5telux4data16DataFilterHelper16fillIPParametersER18dsi_ip_filter_infoRKSt10shared_ptrINS0_12IpFilterImplEE=so_stub_for_libtelux_data
-Wl,--defsym=_ZN5telux4data16DataFilterHelper17fillTcpParametersER18dsi_ip_filter_infoRKSt10shared_ptrINS0_12IpFilterImplEE=so_stub_for_libtelux_data
-Wl,--defsym=_ZN5telux4data16DataFilterHelper17fillUdpParametersER18dsi_ip_filter_infoRKSt10shared_ptrINS0_12IpFilterImplEE=so_stub_for_libtelux_data
-Wl,--defsym=_ZN5telux4data16DataFilterHelper23convertIPv4AddressToIntENSt7__cxx1112basic_stringIcSt11char_traitsIcESaIcEEE=so_stub_for_libtelux_data
-Wl,--defsym=_ZN5telux4data16DataFilterHelper24convertFilterToDSIFilterERKSt10shared_ptrINS0_12IpFilterImplEER18dsi_ip_filter_info=so_stub_for_libtelux_data
-Wl,--defsym=_ZN5telux4data16ProfileRetriever12queryProfileERKNS0_13ProfileParamsESt10shared_ptrINS0_24IDataProfileListCallbackEE=so_stub_for_libtelux_data
-Wl,--defsym=_ZN5telux4data16ProfileRetriever14filterProfilesEPNS0_15ProfileUserDataERSt6vectorISt10shared_ptrINS0_11DataProfileEESaIS7_EE=so_stub_for_libtelux_data
-Wl,--defsym=_ZN5telux4data16ProfileRetriever14requestProfileEhNS0_14TechPreferenceESt10shared_ptrINS0_20IDataProfileCallbackEE=so_stub_for_libtelux_data
-Wl,--defsym=_ZN5telux4data16ProfileRetriever16cleanProfileListEPNS0_15ProfileUserDataE=so_stub_for_libtelux_data
-Wl,--defsym=_ZN5telux4data16ProfileRetriever16queryProfileListERKNS0_13ProfileParamsESt10shared_ptrINS0_24IDataProfileListCallbackEENS0_18ProfileRequestTypeENS0_14TechPreferenceE=so_stub_for_libtelux_data
-Wl,--defsym=_ZN5telux4data16ProfileRetriever18requestProfileListENS0_14TechPreferenceESt10shared_ptrINS0_24IDataProfileListCallbackEE=so_stub_for_libtelux_data
-Wl,--defsym=_ZN5telux4data16ProfileRetriever19profileListResponseEiiRKSt6vectorINS_3qmi15ProfileListInfoESaIS4_EEPv=so_stub_for_libtelux_data
-Wl,--defsym=_ZN5telux4data16ProfileRetriever22makeDataProfileFromQmiERKNS_3qmi19ProfileSettingsRespE=so_stub_for_libtelux_data
-Wl,--defsym=_ZN5telux4data16ProfileRetriever22responseForProfileByIdENS_6common9ErrorCodeERKNS_3qmi19ProfileSettingsRespEPNS0_15ProfileUserDataE=so_stub_for_libtelux_data
-Wl,--defsym=_ZN5telux4data16ProfileRetriever22responseForProfileListENS_6common9ErrorCodeEPKNS_3qmi19ProfileSettingsRespEPNS0_15ProfileUserDataE=so_stub_for_libtelux_data
-Wl,--defsym=_ZN5telux4data16ProfileRetriever23profileSettingsResponseEiiRKNS_3qmi19ProfileSettingsRespEPv=so_stub_for_libtelux_data
-Wl,--defsym=_ZN5telux4data16ProfileRetriever24notifyDataProfileManagerEv=so_stub_for_libtelux_data
-Wl,--defsym=_ZN5telux4data16ProfileRetriever24wdsPdpTypeToIpFamilyTypeEi=so_stub_for_libtelux_data
-Wl,--defsym=_ZN5telux4data16ProfileRetriever25invokeProfileListResponseEiNS_6common9ErrorCodeERSt6vectorISt10shared_ptrINS0_11DataProfileEESaIS7_EE=so_stub_for_libtelux_data
-Wl,--defsym=_ZN5telux4data16ProfileRetrieverC1ESt10shared_ptrINS0_25IProfileRetrieverCallbackEES2_INS_3qmi12WdsQmiClientEE=so_stub_for_libtelux_data
-Wl,--defsym=_ZN5telux4data16ProfileRetrieverC2ESt10shared_ptrINS0_25IProfileRetrieverCallbackEES2_INS_3qmi12WdsQmiClientEE=so_stub_for_libtelux_data
-Wl,--defsym=_ZN5telux4data16ProfileRetrieverD0Ev=so_stub_for_libtelux_data
-Wl,--defsym=_ZN5telux4data16ProfileRetrieverD1Ev=so_stub_for_libtelux_data
-Wl,--defsym=_ZN5telux4data16ProfileRetrieverD2Ev=so_stub_for_libtelux_data
-Wl,--defsym=_ZN5telux4data17ClientManagerImpl16getServiceStatusEv=so_stub_for_libtelux_data
-Wl,--defsym=_ZN5telux4data17ClientManagerImpl16registerListenerESt8weak_ptrINS0_15IClientListenerEE=so_stub_for_libtelux_data
-Wl,--defsym=_ZN5telux4data17ClientManagerImpl18deregisterListenerESt8weak_ptrINS0_15IClientListenerEE=so_stub_for_libtelux_data
-Wl,--defsym=_ZN5telux4data17ClientManagerImpl18invokeInitCallbackENS_6common13ServiceStatusE=so_stub_for_libtelux_data
-Wl,--defsym=_ZN5telux4data17ClientManagerImpl18setSubSystemStatusENS_6common13ServiceStatusE=so_stub_for_libtelux_data
-Wl,--defsym=_ZN5telux4data17ClientManagerImpl19resetDataUsageStatsEv=so_stub_for_libtelux_data
-Wl,--defsym=_ZN5telux4data17ClientManagerImpl21onServiceStatusChangeENS_6common13ServiceStatusE=so_stub_for_libtelux_data
-Wl,--defsym=_ZN5telux4data17ClientManagerImpl23getDeviceDataUsageStatsERSt6vectorINS0_15DeviceDataUsageESaIS3_EE=so_stub_for_libtelux_data
-Wl,--defsym=_ZN5telux4data17ClientManagerImpl30onDeviceDataUsageResetImminentESt6vectorINS0_15DeviceDataUsageESaIS3_EENS0_16UsageResetReasonE=so_stub_for_libtelux_data
-Wl,--defsym=_ZN5telux4data17ClientManagerImpl4initESt8functionIFvNS_6common13ServiceStatusEEE=so_stub_for_libtelux_data
-Wl,--defsym=_ZN5telux4data17ClientManagerImpl7cleanupEv=so_stub_for_libtelux_data
-Wl,--defsym=_ZN5telux4data17ClientManagerImpl8initSyncEv=so_stub_for_libtelux_data
-Wl,--defsym=_ZN5telux4data17ClientManagerImplC1ESt10shared_ptrINS0_9QcmClientEE=so_stub_for_libtelux_data
-Wl,--defsym=_ZN5telux4data17ClientManagerImplC2ESt10shared_ptrINS0_9QcmClientEE=so_stub_for_libtelux_data
-Wl,--defsym=_ZN5telux4data17ClientManagerImplD0Ev=so_stub_for_libtelux_data
-Wl,--defsym=_ZN5telux4data17ClientManagerImplD1Ev=so_stub_for_libtelux_data
-Wl,--defsym=_ZN5telux4data17ClientManagerImplD2Ev=so_stub_for_libtelux_data
-Wl,--defsym=_ZN5telux4data17DataNetlinkClient11parseRtattrEPP6rtattriS3_i=so_stub_for_libtelux_data
-Wl,--defsym=_ZN5telux4data17DataNetlinkClient16registerListenerESt8weak_ptrINS0_20IDataNetlinkListenerEE=so_stub_for_libtelux_data
-Wl,--defsym=_ZN5telux4data17DataNetlinkClient17initNetlinkSocketEv=so_stub_for_libtelux_data
-Wl,--defsym=_ZN5telux4data17DataNetlinkClient18deregisterListenerESt8weak_ptrINS0_20IDataNetlinkListenerEE=so_stub_for_libtelux_data
-Wl,--defsym=_ZN5telux4data17DataNetlinkClient18handleNetlinkEventEiij=so_stub_for_libtelux_data
-Wl,--defsym=_ZN5telux4data17DataNetlinkClient19deInitNetLinkSocketEv=so_stub_for_libtelux_data
-Wl,--defsym=_ZN5telux4data17DataNetlinkClient19netLinkReadLoopSyncEv=so_stub_for_libtelux_data
-Wl,--defsym=_ZN5telux4data17DataNetlinkClient22initNetlinkRouteSocketEv=so_stub_for_libtelux_data
-Wl,--defsym=_ZN5telux4data17DataNetlinkClient23handleNetlinkRouteEventEiiP8nlmsghdr=so_stub_for_libtelux_data
-Wl,--defsym=_ZN5telux4data17DataNetlinkClient24deInitNetlinkRouteSocketEv=so_stub_for_libtelux_data
-Wl,--defsym=_ZN5telux4data17DataNetlinkClient30netLinkRouteSocketReadLoopSyncEv=so_stub_for_libtelux_data
-Wl,--defsym=_ZN5telux4data17DataNetlinkClientC1Ev=so_stub_for_libtelux_data
-Wl,--defsym=_ZN5telux4data17DataNetlinkClientC2Ev=so_stub_for_libtelux_data
-Wl,--defsym=_ZN5telux4data17DataNetlinkClientD1Ev=so_stub_for_libtelux_data
-Wl,--defsym=_ZN5telux4data17DataNetlinkClientD2Ev=so_stub_for_libtelux_data
-Wl,--defsym=_ZN5telux4data17DataPowerListener16onSysPowerChangeENS_3qmi8PwrStateE=so_stub_for_libtelux_data
-Wl,--defsym=_ZN5telux4data17DataPowerListenerC1ESt8weak_ptrINS_3qmi12WdsQmiClientEES2_INS3_12DsdQmiClientEES2_INS0_24ServingSystemManagerImplEERSt6bitsetILm32EE=so_stub_for_libtelux_data
-Wl,--defsym=_ZN5telux4data17DataPowerListenerC2ESt8weak_ptrINS_3qmi12WdsQmiClientEES2_INS3_12DsdQmiClientEES2_INS0_24ServingSystemManagerImplEERSt6bitsetILm32EE=so_stub_for_libtelux_data
-Wl,--defsym=_ZN5telux4data17DataPowerListenerD0Ev=so_stub_for_libtelux_data
-Wl,--defsym=_ZN5telux4data17DataPowerListenerD1Ev=so_stub_for_libtelux_data
-Wl,--defsym=_ZN5telux4data17DataPowerListenerD2Ev=so_stub_for_libtelux_data
-Wl,--defsym=_ZN5telux4data17KeepAliveListener23onKeepAliveStatusChangeENS_6common9ErrorCodeEj=so_stub_for_libtelux_data
-Wl,--defsym=_ZN5telux4data17KeepAliveListenerC1ESt10shared_ptrINS_6common15ListenerManagerEE=so_stub_for_libtelux_data
-Wl,--defsym=_ZN5telux4data17KeepAliveListenerC2ESt10shared_ptrINS_6common15ListenerManagerEE=so_stub_for_libtelux_data
-Wl,--defsym=_ZN5telux4data17KeepAliveListenerD0Ev=so_stub_for_libtelux_data
-Wl,--defsym=_ZN5telux4data17KeepAliveListenerD1Ev=so_stub_for_libtelux_data
-Wl,--defsym=_ZN5telux4data17TrafficFilterImpl11getDataPathEv=so_stub_for_libtelux_data
-Wl,--defsym=_ZN5telux4data17TrafficFilterImpl11getVlanListENS0_9FieldTypeE=so_stub_for_libtelux_data
-Wl,--defsym=_ZN5telux4data17TrafficFilterImpl11setDataPathENS0_8DataPathE=so_stub_for_libtelux_data
-Wl,--defsym=_ZN5telux4data17TrafficFilterImpl11setVlanListESt6vectorIiSaIiEENS0_9FieldTypeE=so_stub_for_libtelux_data
-Wl,--defsym=_ZN5telux4data17TrafficFilterImpl12getDirectionEv=so_stub_for_libtelux_data
-Wl,--defsym=_ZN5telux4data17TrafficFilterImpl12getPortRangeENS0_9FieldTypeERtS3_=so_stub_for_libtelux_data
-Wl,--defsym=_ZN5telux4data17TrafficFilterImpl12setDirectionENS0_9DirectionE=so_stub_for_libtelux_data
-Wl,--defsym=_ZN5telux4data17TrafficFilterImpl12setPortRangeEttNS0_9FieldTypeE=so_stub_for_libtelux_data
-Wl,--defsym=_ZN5telux4data17TrafficFilterImpl13getIPProtocolEv=so_stub_for_libtelux_data
-Wl,--defsym=_ZN5telux4data17TrafficFilterImpl13setIPProtocolEh=so_stub_for_libtelux_data
-Wl,--defsym=_ZN5telux4data17TrafficFilterImpl14getIPv4AddressB5cxx11ENS0_9FieldTypeE=so_stub_for_libtelux_data
-Wl,--defsym=_ZN5telux4data17TrafficFilterImpl14getIPv6AddressB5cxx11ENS0_9FieldTypeE=so_stub_for_libtelux_data
-Wl,--defsym=_ZN5telux4data17TrafficFilterImpl14setIPv4AddressENSt7__cxx1112basic_stringIcSt11char_traitsIcESaIcEEENS0_9FieldTypeE=so_stub_for_libtelux_data
-Wl,--defsym=_ZN5telux4data17TrafficFilterImpl14setIPv6AddressENSt7__cxx1112basic_stringIcSt11char_traitsIcESaIcEEENS0_9FieldTypeE=so_stub_for_libtelux_data
-Wl,--defsym=_ZN5telux4data17TrafficFilterImpl16dataPathToStringB5cxx11ENS0_8DataPathE=so_stub_for_libtelux_data
-Wl,--defsym=_ZN5telux4data17TrafficFilterImpl17directionToStringB5cxx11ENS0_9DirectionE=so_stub_for_libtelux_data
-Wl,--defsym=_ZN5telux4data17TrafficFilterImpl27getTrafficFilterValidFieldsEv=so_stub_for_libtelux_data
-Wl,--defsym=_ZN5telux4data17TrafficFilterImpl6getPCPEv=so_stub_for_libtelux_data
-Wl,--defsym=_ZN5telux4data17TrafficFilterImpl6setPCPEa=so_stub_for_libtelux_data
-Wl,--defsym=_ZN5telux4data17TrafficFilterImpl7getPortENS0_9FieldTypeE=so_stub_for_libtelux_data
-Wl,--defsym=_ZN5telux4data17TrafficFilterImpl7setPortEtNS0_9FieldTypeE=so_stub_for_libtelux_data
-Wl,--defsym=_ZN5telux4data17TrafficFilterImpl8toStringB5cxx11Ev=so_stub_for_libtelux_data
-Wl,--defsym=_ZN5telux4data17TrafficFilterImplC1Ev=so_stub_for_libtelux_data
-Wl,--defsym=_ZN5telux4data17TrafficFilterImplC2Ev=so_stub_for_libtelux_data
-Wl,--defsym=_ZN5telux4data17TrafficFilterImplD0Ev=so_stub_for_libtelux_data
-Wl,--defsym=_ZN5telux4data17TrafficFilterImplD1Ev=so_stub_for_libtelux_data
-Wl,--defsym=_ZN5telux4data17TrafficFilterImplD2Ev=so_stub_for_libtelux_data
-Wl,--defsym=_ZN5telux4data18DataSubSystemEventC1EjNSt7__cxx1112basic_stringIcSt11char_traitsIcESaIcEEEb=so_stub_for_libtelux_data
-Wl,--defsym=_ZN5telux4data18DataSubSystemEventC2EjNSt7__cxx1112basic_stringIcSt11char_traitsIcESaIcEEEb=so_stub_for_libtelux_data
-Wl,--defsym=_ZN5telux4data18DataSubSystemEventD0Ev=so_stub_for_libtelux_data
-Wl,--defsym=_ZN5telux4data18DataSubSystemEventD1Ev=so_stub_for_libtelux_data
-Wl,--defsym=_ZN5telux4data18DataSubSystemEventD2Ev=so_stub_for_libtelux_data
-Wl,--defsym=_ZN5telux4data18DsiEventDispatcher9postEventERKSt10shared_ptrINS0_21DsiStatusCallbackDataEE=so_stub_for_libtelux_data
-Wl,--defsym=_ZN5telux4data18DsiEventDispatcherC1Ev=so_stub_for_libtelux_data
-Wl,--defsym=_ZN5telux4data18DsiEventDispatcherC2Ev=so_stub_for_libtelux_data
-Wl,--defsym=_ZN5telux4data18DsiEventDispatcherD1Ev=so_stub_for_libtelux_data
-Wl,--defsym=_ZN5telux4data18DsiEventDispatcherD2Ev=so_stub_for_libtelux_data
-Wl,--defsym=_ZN5telux4data18DsiRequestResponse18indicationCallbackEPvS2_13dsi_net_evt_tP20dsi_evt_payload_ex_t=so_stub_for_libtelux_data
-Wl,--defsym=_ZN5telux4data18IQcmClientListener21onDataCallInfoChangedERKSt10shared_ptrINS0_9IDataCallEE=so_stub_for_libtelux_data
-Wl,--defsym=_ZN5telux4data18IQcmClientListener21onServiceStatusChangeENS_6common13ServiceStatusE=so_stub_for_libtelux_data
-Wl,--defsym=_ZN5telux4data18IQcmClientListener23onHwAccelerationChangedENS0_12ServiceStateE=so_stub_for_libtelux_data
-Wl,--defsym=_ZN5telux4data18IQcmClientListener27onTrafficFlowTemplateChangeERKSt10shared_ptrINS0_9IDataCallEERKSt6vectorIS2_INS0_13TftChangeInfoEESaIS9_EE=so_stub_for_libtelux_data
-Wl,--defsym=_ZN5telux4data18IQcmClientListener30onDeviceDataUsageResetImminentESt6vectorINS0_15DeviceDataUsageESaIS3_EENS0_16UsageResetReasonE=so_stub_for_libtelux_data
-Wl,--defsym=_ZN5telux4data18IQcmClientListener30onWwanConnectivityConfigChangeE6SlotIdb=so_stub_for_libtelux_data
-Wl,--defsym=_ZN5telux4data18IQcmClientListener31onDataCallReadinessStatusChangeEv=so_stub_for_libtelux_data
-Wl,--defsym=_ZN5telux4data18IQcmClientListenerD0Ev=so_stub_for_libtelux_data
-Wl,--defsym=_ZN5telux4data18IQcmClientListenerD1Ev=so_stub_for_libtelux_data
-Wl,--defsym=_ZN5telux4data18IQcmClientListenerD2Ev=so_stub_for_libtelux_data
-Wl,--defsym=_ZN5telux4data18ThrottleInfoHelper20parseWdsThrottleInfoEjPK30wds_pdn_throttle_info_type_v01jPK37wds_pdn_throttle_info_addn_params_v01RSt13unordered_mapINSt7__cxx1112basic_stringIcSt11char_traitsIcESaIcEEESt10shared_ptrINS0_15APNThrottleInfoEESt4hashISE_ESt8equal_toISE_ESaISt4pairIKSE_SH_EEE=so_stub_for_libtelux_data
-Wl,--defsym=_ZN5telux4data19DataLinkManagerImpl10resetStateEv=so_stub_for_libtelux_data
-Wl,--defsym=_ZN5telux4data19DataLinkManagerImpl14writeSysFsNodeERKNSt7__cxx1112basic_stringIcSt11char_traitsIcESaIcEEEi=so_stub_for_libtelux_data
-Wl,--defsym=_ZN5telux4data19DataLinkManagerImpl16getEthCapabilityERNS0_13EthCapabilityE=so_stub_for_libtelux_data
-Wl,--defsym=_ZN5telux4data19DataLinkManagerImpl16getServiceStatusEv=so_stub_for_libtelux_data
-Wl,--defsym=_ZN5telux4data19DataLinkManagerImpl16registerListenerESt8weak_ptrINS0_17IDataLinkListenerEE=so_stub_for_libtelux_data
-Wl,--defsym=_ZN5telux4data19DataLinkManagerImpl18deregisterListenerESt8weak_ptrINS0_17IDataLinkListenerEE=so_stub_for_libtelux_data
-Wl,--defsym=_ZN5telux4data19DataLinkManagerImpl18setSubSystemStatusENS_6common13ServiceStatusE=so_stub_for_libtelux_data
-Wl,--defsym=_ZN5telux4data19DataLinkManagerImpl19setEthDataLinkStateENS0_9LinkStateE=so_stub_for_libtelux_data
-Wl,--defsym=_ZN5telux4data19DataLinkManagerImpl20setPeerEthCapabilityENS0_13EthCapabilityE=so_stub_for_libtelux_data
-Wl,--defsym=_ZN5telux4data19DataLinkManagerImpl22onEthModeChangeRequestEi=so_stub_for_libtelux_data
-Wl,--defsym=_ZN5telux4data19DataLinkManagerImpl24NLToLinkModeChangeStatusENS0_23NetLinkModeChangeStatusE=so_stub_for_libtelux_data
-Wl,--defsym=_ZN5telux4data19DataLinkManagerImpl24onEthDataLinkStateChangeENS0_9LinkStateENSt7__cxx1112basic_stringIcSt11char_traitsIcESaIcEEE=so_stub_for_libtelux_data
-Wl,--defsym=_ZN5telux4data19DataLinkManagerImpl24setLocalEthOperatingModeENS0_11EthModeTypeESt8functionIFvNS_6common9ErrorCodeEEE=so_stub_for_libtelux_data
-Wl,--defsym=_ZN5telux4data19DataLinkManagerImpl28setLocalEthOperatingModeSyncENS0_11EthModeTypeESt8functionIFvNS_6common9ErrorCodeEEE=so_stub_for_libtelux_data
-Wl,--defsym=_ZN5telux4data19DataLinkManagerImpl30setPeerModeChangeRequestStatusENS0_20LinkModeChangeStatusE=so_stub_for_libtelux_data
-Wl,--defsym=_ZN5telux4data19DataLinkManagerImpl32onEthModeChangeTransactionStatusEiNS0_23NetLinkModeChangeStatusE=so_stub_for_libtelux_data
-Wl,--defsym=_ZN5telux4data19DataLinkManagerImpl4initESt8weak_ptrINS_6common14AsyncTaskQueueIvEEESt8functionIFvNS3_13ServiceStatusEEE=so_stub_for_libtelux_data
-Wl,--defsym=_ZN5telux4data19DataLinkManagerImpl7cleanupEv=so_stub_for_libtelux_data
-Wl,--defsym=_ZN5telux4data19DataLinkManagerImpl8initSyncEv=so_stub_for_libtelux_data
-Wl,--defsym=_ZN5telux4data19DataLinkManagerImpl9sendIoctlEiPv=so_stub_for_libtelux_data
-Wl,--defsym=_ZN5telux4data19DataLinkManagerImplC1Ev=so_stub_for_libtelux_data
-Wl,--defsym=_ZN5telux4data19DataLinkManagerImplC2Ev=so_stub_for_libtelux_data
-Wl,--defsym=_ZN5telux4data19DataLinkManagerImplD0Ev=so_stub_for_libtelux_data
-Wl,--defsym=_ZN5telux4data19DataLinkManagerImplD1Ev=so_stub_for_libtelux_data
-Wl,--defsym=_ZN5telux4data19DataLinkManagerImplD2Ev=so_stub_for_libtelux_data
-Wl,--defsym=_ZN5telux4data19DualDataManagerImpl10resetStateEv=so_stub_for_libtelux_data
-Wl,--defsym=_ZN5telux4data19DualDataManagerImpl16getServiceStatusEv=so_stub_for_libtelux_data
-Wl,--defsym=_ZN5telux4data19DualDataManagerImpl16registerListenerESt8weak_ptrINS0_17IDualDataListenerEE=so_stub_for_libtelux_data
-Wl,--defsym=_ZN5telux4data19DualDataManagerImpl16requestDdsSwitchENS0_7DdsInfoESt8functionIFvNS_6common9ErrorCodeEEE=so_stub_for_libtelux_data
-Wl,--defsym=_ZN5telux4data19DualDataManagerImpl17requestCurrentDdsESt8functionIFvNS0_7DdsInfoENS_6common9ErrorCodeEEE=so_stub_for_libtelux_data
-Wl,--defsym=_ZN5telux4data19DualDataManagerImpl18deregisterListenerESt8weak_ptrINS0_17IDualDataListenerEE=so_stub_for_libtelux_data
-Wl,--defsym=_ZN5telux4data19DualDataManagerImpl18invokeInitCallbackENS_6common13ServiceStatusE=so_stub_for_libtelux_data
-Wl,--defsym=_ZN5telux4data19DualDataManagerImpl19isDdsSubsystemReadyEv=so_stub_for_libtelux_data
-Wl,--defsym=_ZN5telux4data19DualDataManagerImpl19isQmsSubsystemReadyEv=so_stub_for_libtelux_data
-Wl,--defsym=_ZN5telux4data19DualDataManagerImpl19onDsdQmiClientReadyEv=so_stub_for_libtelux_data
-Wl,--defsym=_ZN5telux4data19DualDataManagerImpl20dsdSwitchDdsResponseEiPv=so_stub_for_libtelux_data
-Wl,--defsym=_ZN5telux4data19DualDataManagerImpl20onSwitchDdsStatusIndERK26dsd_switch_dds_ind_msg_v01=so_stub_for_libtelux_data
-Wl,--defsym=_ZN5telux4data19DualDataManagerImpl21dsdCurrentDdsResponseENS0_7DdsInfoEiPv=so_stub_for_libtelux_data
-Wl,--defsym=_ZN5telux4data19DualDataManagerImpl21getDualDataCapabilityERb=so_stub_for_libtelux_data
-Wl,--defsym=_ZN5telux4data19DualDataManagerImpl21onCurrentDdsStatusIndERK27dsd_current_dds_ind_msg_v01=so_stub_for_libtelux_data
-Wl,--defsym=_ZN5telux4data19DualDataManagerImpl23isOverallSubsystemReadyEv=so_stub_for_libtelux_data
-Wl,--defsym=_ZN5telux4data19DualDataManagerImpl24dsdSwitchDdsResponseSyncEiPv=so_stub_for_libtelux_data
-Wl,--defsym=_ZN5telux4data19DualDataManagerImpl24onDsdServiceStatusChangeENS_6common13ServiceStatusE=so_stub_for_libtelux_data
-Wl,--defsym=_ZN5telux4data19DualDataManagerImpl24onQmsServiceStatusChangeENS_6common13ServiceStatusE=so_stub_for_libtelux_data
-Wl,--defsym=_ZN5telux4data19DualDataManagerImpl24processSwitchDdsResponseEv=so_stub_for_libtelux_data
-Wl,--defsym=_ZN5telux4data19DualDataManagerImpl26convertDsdToRecommendationERK30dsd_dds_recommendation_ind_v01RNS0_23DdsSwitchRecommendationE=so_stub_for_libtelux_data
-Wl,--defsym=_ZN5telux4data19DualDataManagerImpl26convertDsdToRecommendationERK39dsd_get_dds_recommendation_resp_msg_v01RNS0_23DdsSwitchRecommendationE=so_stub_for_libtelux_data
-Wl,--defsym=_ZN5telux4data19DualDataManagerImpl26getDdsSwitchRecommendationERNS0_23DdsSwitchRecommendationE=so_stub_for_libtelux_data
-Wl,--defsym=_ZN5telux4data19DualDataManagerImpl26onDualDataCapabilityChangeEb=so_stub_for_libtelux_data
-Wl,--defsym=_ZN5telux4data19DualDataManagerImpl28onDdsSwitchRecommendationIndERK30dsd_dds_recommendation_ind_v01=so_stub_for_libtelux_data
-Wl,--defsym=_ZN5telux4data19DualDataManagerImpl28onOverallServiceStatusChangeENS_6common13ServiceStatusE=so_stub_for_libtelux_data
-Wl,--defsym=_ZN5telux4data19DualDataManagerImpl29setOverallServiceStatusChangeENS_6common13ServiceStatusE=so_stub_for_libtelux_data
-Wl,--defsym=_ZN5telux4data19DualDataManagerImpl30getDualDataUsageRecommendationERNS0_27DualDataUsageRecommendationE=so_stub_for_libtelux_data
-Wl,--defsym=_ZN5telux4data19DualDataManagerImpl30onDualDataRecommendationChangeENS_3qms18DataRecommendationE=so_stub_for_libtelux_data
-Wl,--defsym=_ZN5telux4data19DualDataManagerImpl32configureDdsSwitchRecommendationENS0_29DdsSwitchRecommendationConfigE=so_stub_for_libtelux_data
-Wl,--defsym=_ZN5telux4data19DualDataManagerImpl4initESt8weak_ptrINS_6common14AsyncTaskQueueIvEEESt8functionIFvNS3_13ServiceStatusEEE=so_stub_for_libtelux_data
-Wl,--defsym=_ZN5telux4data19DualDataManagerImpl7cleanupEv=so_stub_for_libtelux_data
-Wl,--defsym=_ZN5telux4data19DualDataManagerImpl7initDsdEv=so_stub_for_libtelux_data
-Wl,--defsym=_ZN5telux4data19DualDataManagerImpl7initQmsEv=so_stub_for_libtelux_data
-Wl,--defsym=_ZN5telux4data19DualDataManagerImpl8initSyncEv=so_stub_for_libtelux_data
-Wl,--defsym=_ZN5telux4data19DualDataManagerImplC1ESt10shared_ptrINS_3qms9QmsClientEE=so_stub_for_libtelux_data
-Wl,--defsym=_ZN5telux4data19DualDataManagerImplC2ESt10shared_ptrINS_3qms9QmsClientEE=so_stub_for_libtelux_data
-Wl,--defsym=_ZN5telux4data19DualDataManagerImplD0Ev=so_stub_for_libtelux_data
-Wl,--defsym=_ZN5telux4data19DualDataManagerImplD1Ev=so_stub_for_libtelux_data
-Wl,--defsym=_ZN5telux4data19DualDataManagerImplD2Ev=so_stub_for_libtelux_data
-Wl,--defsym=_ZN5telux4data19IDataFilterListener24onDataRestrictModeChangeENS0_16DataRestrictModeE=so_stub_for_libtelux_data
-Wl,--defsym=_ZN5telux4data19TrafficFlowTemplateD1Ev=so_stub_for_libtelux_data
-Wl,--defsym=_ZN5telux4data19TrafficFlowTemplateD2Ev=so_stub_for_libtelux_data
-Wl,--defsym=_ZN5telux4data20IDataNetlinkListener20onLocalEthCapabilityEj=so_stub_for_libtelux_data
-Wl,--defsym=_ZN5telux4data20IDataNetlinkListener22onEthModeChangeRequestEi=so_stub_for_libtelux_data
-Wl,--defsym=_ZN5telux4data20IDataNetlinkListener24onEthDataLinkStateChangeENS0_9LinkStateENSt7__cxx1112basic_stringIcSt11char_traitsIcESaIcEEE=so_stub_for_libtelux_data
-Wl,--defsym=_ZN5telux4data20IDataNetlinkListener32onEthModeChangeTransactionStatusEiNS0_23NetLinkModeChangeStatusE=so_stub_for_libtelux_data
-Wl,--defsym=_ZN5telux4data20KeepAliveManagerImpl11initSyncQcmEv=so_stub_for_libtelux_data
-Wl,--defsym=_ZN5telux4data20KeepAliveManagerImpl11initSyncWdsEv=so_stub_for_libtelux_data
-Wl,--defsym=_ZN5telux4data20KeepAliveManagerImpl16enableTCPMonitorERKNS0_11TCPKAParamsERj=so_stub_for_libtelux_data
-Wl,--defsym=_ZN5telux4data20KeepAliveManagerImpl16getOperationTypeEv=so_stub_for_libtelux_data
-Wl,--defsym=_ZN5telux4data20KeepAliveManagerImpl16getServiceStatusEv=so_stub_for_libtelux_data
-Wl,--defsym=_ZN5telux4data20KeepAliveManagerImpl16registerListenerESt8weak_ptrINS0_18IKeepAliveListenerEE=so_stub_for_libtelux_data
-Wl,--defsym=_ZN5telux4data20KeepAliveManagerImpl17disableTCPMonitorEj=so_stub_for_libtelux_data
-Wl,--defsym=_ZN5telux4data20KeepAliveManagerImpl18deregisterListenerESt8weak_ptrINS0_18IKeepAliveListenerEE=so_stub_for_libtelux_data
-Wl,--defsym=_ZN5telux4data20KeepAliveManagerImpl18getSubSystemStatusEj=so_stub_for_libtelux_data
-Wl,--defsym=_ZN5telux4data20KeepAliveManagerImpl18setSubSystemStatusEjNS_6common13ServiceStatusE=so_stub_for_libtelux_data
-Wl,--defsym=_ZN5telux4data20KeepAliveManagerImpl19buildConntrackEntryERKNS0_11TCPKAParamsERNS0_14ConntrackEntryE=so_stub_for_libtelux_data
-Wl,--defsym=_ZN5telux4data20KeepAliveManagerImpl21onServiceStatusChangeENS_6common13ServiceStatusE=so_stub_for_libtelux_data
-Wl,--defsym=_ZN5telux4data20KeepAliveManagerImpl23stopTCPKeepAliveOffloadEj=so_stub_for_libtelux_data
-Wl,--defsym=_ZN5telux4data20KeepAliveManagerImpl24onWdsServiceStatusChangeENS_6common13ServiceStatusE=so_stub_for_libtelux_data
-Wl,--defsym=_ZN5telux4data20KeepAliveManagerImpl24startTCPKeepAliveOffloadEjjRj=so_stub_for_libtelux_data
-Wl,--defsym=_ZN5telux4data20KeepAliveManagerImpl24startTCPKeepAliveOffloadERKNS0_11TCPKAParamsERKNS0_16TCPSessionParamsEjRj=so_stub_for_libtelux_data
-Wl,--defsym=_ZN5telux4data20KeepAliveManagerImpl25handleServiceStatusChangeEjNS_6common13ServiceStatusE=so_stub_for_libtelux_data
-Wl,--defsym=_ZN5telux4data20KeepAliveManagerImpl4initESt8weak_ptrINS_6common14AsyncTaskQueueIvEEESt8functionIFvNS3_13ServiceStatusEEE=so_stub_for_libtelux_data
-Wl,--defsym=_ZN5telux4data20KeepAliveManagerImpl7cleanupEv=so_stub_for_libtelux_data
-Wl,--defsym=_ZN5telux4data20KeepAliveManagerImpl8initSyncEv=so_stub_for_libtelux_data
-Wl,--defsym=_ZN5telux4data20KeepAliveManagerImplC1E6SlotIdSt10shared_ptrINS0_9QcmClientEE=so_stub_for_libtelux_data
-Wl,--defsym=_ZN5telux4data20KeepAliveManagerImplC2E6SlotIdSt10shared_ptrINS0_9QcmClientEE=so_stub_for_libtelux_data
-Wl,--defsym=_ZN5telux4data20KeepAliveManagerImplD0Ev=so_stub_for_libtelux_data
-Wl,--defsym=_ZN5telux4data20KeepAliveManagerImplD1Ev=so_stub_for_libtelux_data
-Wl,--defsym=_ZN5telux4data20KeepAliveManagerImplD2Ev=so_stub_for_libtelux_data
-Wl,--defsym=_ZN5telux4data20LteAttachFailureInfoD1Ev=so_stub_for_libtelux_data
-Wl,--defsym=_ZN5telux4data20LteAttachFailureInfoD2Ev=so_stub_for_libtelux_data
-Wl,--defsym=_ZN5telux4data20TrafficFilterBuilder11setDataPathENS0_8DataPathE=so_stub_for_libtelux_data
-Wl,--defsym=_ZN5telux4data20TrafficFilterBuilder11setVlanListESt6vectorIiSaIiEENS0_9FieldTypeE=so_stub_for_libtelux_data
-Wl,--defsym=_ZN5telux4data20TrafficFilterBuilder12setDirectionENS0_9DirectionE=so_stub_for_libtelux_data
-Wl,--defsym=_ZN5telux4data20TrafficFilterBuilder12setPortRangeEttNS0_9FieldTypeE=so_stub_for_libtelux_data
-Wl,--defsym=_ZN5telux4data20TrafficFilterBuilder13setIPProtocolEh=so_stub_for_libtelux_data
-Wl,--defsym=_ZN5telux4data20TrafficFilterBuilder14setIPv4AddressENSt7__cxx1112basic_stringIcSt11char_traitsIcESaIcEEENS0_9FieldTypeE=so_stub_for_libtelux_data
-Wl,--defsym=_ZN5telux4data20TrafficFilterBuilder14setIPv6AddressENSt7__cxx1112basic_stringIcSt11char_traitsIcESaIcEEENS0_9FieldTypeE=so_stub_for_libtelux_data
-Wl,--defsym=_ZN5telux4data20TrafficFilterBuilder5buildEv=so_stub_for_libtelux_data
-Wl,--defsym=_ZN5telux4data20TrafficFilterBuilder6setPCPEa=so_stub_for_libtelux_data
-Wl,--defsym=_ZN5telux4data20TrafficFilterBuilder7setPortEtNS0_9FieldTypeE=so_stub_for_libtelux_data
-Wl,--defsym=_ZN5telux4data20TrafficFilterBuilderC1Ev=so_stub_for_libtelux_data
-Wl,--defsym=_ZN5telux4data20TrafficFilterBuilderC2Ev=so_stub_for_libtelux_data
-Wl,--defsym=_ZN5telux4data21DataFilterManagerImpl16getServiceStatusEv=so_stub_for_libtelux_data
-Wl,--defsym=_ZN5telux4data21DataFilterManagerImpl16registerListenerESt8weak_ptrINS0_19IDataFilterListenerEE=so_stub_for_libtelux_data
-Wl,--defsym=_ZN5telux4data21DataFilterManagerImpl18deregisterListenerESt8weak_ptrINS0_19IDataFilterListenerEE=so_stub_for_libtelux_data
-Wl,--defsym=_ZN5telux4data21DataFilterManagerImpl18invokeInitCallbackENS_6common13ServiceStatusE=so_stub_for_libtelux_data
-Wl,--defsym=_ZN5telux4data21DataFilterManagerImpl18setSubSystemStatusENS_6common13ServiceStatusE=so_stub_for_libtelux_data
-Wl,--defsym=_ZN5telux4data21DataFilterManagerImpl19setDataRestrictModeENS0_16DataRestrictModeESt8functionIFvNS_6common9ErrorCodeEEE=so_stub_for_libtelux_data
-Wl,--defsym=_ZN5telux4data21DataFilterManagerImpl19setDataRestrictModeENS0_16DataRestrictModeESt8functionIFvNS_6common9ErrorCodeEEEiNS0_12IpFamilyTypeE=so_stub_for_libtelux_data
-Wl,--defsym=_ZN5telux4data21DataFilterManagerImpl21addDataRestrictFilterERSt10shared_ptrINS0_9IIpFilterEESt8functionIFvNS_6common9ErrorCodeEEE=so_stub_for_libtelux_data
-Wl,--defsym=_ZN5telux4data21DataFilterManagerImpl21addDataRestrictFilterERSt10shared_ptrINS0_9IIpFilterEESt8functionIFvNS_6common9ErrorCodeEEEiNS0_12IpFamilyTypeE=so_stub_for_libtelux_data
-Wl,--defsym=_ZN5telux4data21DataFilterManagerImpl21getAvailableListenersERSt6vectorISt10shared_ptrINS_6common12ISDKListenerEESaIS6_EE=so_stub_for_libtelux_data
-Wl,--defsym=_ZN5telux4data21DataFilterManagerImpl21onServiceStatusChangeENS_6common13ServiceStatusE=so_stub_for_libtelux_data
-Wl,--defsym=_ZN5telux4data21DataFilterManagerImpl21waitForInitializationEv=so_stub_for_libtelux_data
-Wl,--defsym=_ZN5telux4data21DataFilterManagerImpl23requestDataRestrictModeENSt7__cxx1112basic_stringIcSt11char_traitsIcESaIcEEESt8functionIFvNS0_16DataRestrictModeENS_6common9ErrorCodeEEE=so_stub_for_libtelux_data
-Wl,--defsym=_ZN5telux4data21DataFilterManagerImpl23requestDataRestrictModeESt8functionIFvNS0_16DataRestrictModeENS_6common9ErrorCodeEEE=so_stub_for_libtelux_data
-Wl,--defsym=_ZN5telux4data21DataFilterManagerImpl24onDataRestrictModeChangeENS0_16DataRestrictModeE=so_stub_for_libtelux_data
-Wl,--defsym=_ZN5telux4data21DataFilterManagerImpl28removeAllDataRestrictFiltersESt8functionIFvNS_6common9ErrorCodeEEE=so_stub_for_libtelux_data
-Wl,--defsym=_ZN5telux4data21DataFilterManagerImpl28removeAllDataRestrictFiltersESt8functionIFvNS_6common9ErrorCodeEEEiNS0_12IpFamilyTypeE=so_stub_for_libtelux_data
-Wl,--defsym=_ZN5telux4data21DataFilterManagerImpl4initESt8functionIFvNS_6common13ServiceStatusEEE=so_stub_for_libtelux_data
-Wl,--defsym=_ZN5telux4data21DataFilterManagerImpl7cleanupEv=so_stub_for_libtelux_data
-Wl,--defsym=_ZN5telux4data21DataFilterManagerImpl7isReadyEv=so_stub_for_libtelux_data
-Wl,--defsym=_ZN5telux4data21DataFilterManagerImpl7onReadyEv=so_stub_for_libtelux_data
-Wl,--defsym=_ZN5telux4data21DataFilterManagerImpl8initSyncEv=so_stub_for_libtelux_data
-Wl,--defsym=_ZN5telux4data21DataFilterManagerImpl9getSlotIdEv=so_stub_for_libtelux_data
-Wl,--defsym=_ZN5telux4data21DataFilterManagerImplC1E6SlotId=so_stub_for_libtelux_data
-Wl,--defsym=_ZN5telux4data21DataFilterManagerImplC2E6SlotId=so_stub_for_libtelux_data
-Wl,--defsym=_ZN5telux4data21DataFilterManagerImplD0Ev=so_stub_for_libtelux_data
-Wl,--defsym=_ZN5telux4data21DataFilterManagerImplD1Ev=so_stub_for_libtelux_data
-Wl,--defsym=_ZN5telux4data21DataFilterManagerImplD2Ev=so_stub_for_libtelux_data
-Wl,--defsym=_ZN5telux4data21IDataSettingsListener11onDdsChangeENS0_7DdsInfoE=so_stub_for_libtelux_data
-Wl,--defsym=_ZN5telux4data21IDataSettingsListener21onServiceStatusChangeENS_6common13ServiceStatusE=so_stub_for_libtelux_data
-Wl,--defsym=_ZN5telux4data21IDataSettingsListener30onWwanConnectivityConfigChangeE6SlotIdb=so_stub_for_libtelux_data
-Wl,--defsym=_ZN5telux4data21IDataSettingsListenerD0Ev=so_stub_for_libtelux_data
-Wl,--defsym=_ZN5telux4data21IDataSettingsListenerD1Ev=so_stub_for_libtelux_data
-Wl,--defsym=_ZN5telux4data21IDataSettingsListenerD2Ev=so_stub_for_libtelux_data
-Wl,--defsym=_ZN5telux4data22DataControlManagerImpl13convertSlotIdERK6SlotId=so_stub_for_libtelux_data
-Wl,--defsym=_ZN5telux4data22DataControlManagerImpl16getServiceStatusEv=so_stub_for_libtelux_data
-Wl,--defsym=_ZN5telux4data22DataControlManagerImpl16isSubsystemReadyEv=so_stub_for_libtelux_data
-Wl,--defsym=_ZN5telux4data22DataControlManagerImpl16registerListenerESt8weak_ptrINS0_20IDataControlListenerEE=so_stub_for_libtelux_data
-Wl,--defsym=_ZN5telux4data22DataControlManagerImpl17setSubsystemReadyEb=so_stub_for_libtelux_data
-Wl,--defsym=_ZN5telux4data22DataControlManagerImpl18deregisterListenerESt8weak_ptrINS0_20IDataControlListenerEE=so_stub_for_libtelux_data
-Wl,--defsym=_ZN5telux4data22DataControlManagerImpl18invokeInitCallbackENS_6common13ServiceStatusE=so_stub_for_libtelux_data
-Wl,--defsym=_ZN5telux4data22DataControlManagerImpl18setDataStallParamsERK6SlotIdRKNS0_15DataStallParamsE=so_stub_for_libtelux_data
-Wl,--defsym=_ZN5telux4data22DataControlManagerImpl18setSubSystemStatusENS_6common13ServiceStatusE=so_stub_for_libtelux_data
-Wl,--defsym=_ZN5telux4data22DataControlManagerImpl22convertApplicationTypeERKNS0_15ApplicationTypeE=so_stub_for_libtelux_data
-Wl,--defsym=_ZN5telux4data22DataControlManagerImpl24onQmsServiceStatusChangeENS_6common13ServiceStatusE=so_stub_for_libtelux_data
-Wl,--defsym=_ZN5telux4data22DataControlManagerImpl4initESt8weak_ptrINS_6common14AsyncTaskQueueIvEEESt8functionIFvNS3_13ServiceStatusEEE=so_stub_for_libtelux_data
-Wl,--defsym=_ZN5telux4data22DataControlManagerImpl7cleanupEv=so_stub_for_libtelux_data
-Wl,--defsym=_ZN5telux4data22DataControlManagerImpl8initSyncEv=so_stub_for_libtelux_data
-Wl,--defsym=_ZN5telux4data22DataControlManagerImplC1ESt10shared_ptrINS_3qms9QmsClientEE=so_stub_for_libtelux_data
-Wl,--defsym=_ZN5telux4data22DataControlManagerImplC2ESt10shared_ptrINS_3qms9QmsClientEE=so_stub_for_libtelux_data
-Wl,--defsym=_ZN5telux4data22DataControlManagerImplD0Ev=so_stub_for_libtelux_data
-Wl,--defsym=_ZN5telux4data22DataControlManagerImplD1Ev=so_stub_for_libtelux_data
-Wl,--defsym=_ZN5telux4data22DataControlManagerImplD2Ev=so_stub_for_libtelux_data
-Wl,--defsym=_ZN5telux4data22DataProfileManagerImpl10resetStateEv=so_stub_for_libtelux_data
-Wl,--defsym=_ZN5telux4data22DataProfileManagerImpl11validateAPNENSt7__cxx1112basic_stringIcSt11char_traitsIcESaIcEEE=so_stub_for_libtelux_data
-Wl,--defsym=_ZN5telux4data22DataProfileManagerImpl12queryProfileERKNS0_13ProfileParamsESt10shared_ptrINS0_24IDataProfileListCallbackEE=so_stub_for_libtelux_data
-Wl,--defsym=_ZN5telux4data22DataProfileManagerImpl13createProfileERKNS0_13ProfileParamsESt10shared_ptrINS0_26IDataCreateProfileCallbackEE=so_stub_for_libtelux_data
-Wl,--defsym=_ZN5telux4data22DataProfileManagerImpl13deleteProfileEhNS0_14TechPreferenceESt10shared_ptrINS_6common24ICommandResponseCallbackEE=so_stub_for_libtelux_data
-Wl,--defsym=_ZN5telux4data22DataProfileManagerImpl13modifyProfileEhRKNS0_13ProfileParamsESt10shared_ptrINS_6common24ICommandResponseCallbackEE=so_stub_for_libtelux_data
-Wl,--defsym=_ZN5telux4data22DataProfileManagerImpl14requestProfileEhNS0_14TechPreferenceESt10shared_ptrINS0_20IDataProfileCallbackEE=so_stub_for_libtelux_data
-Wl,--defsym=_ZN5telux4data22DataProfileManagerImpl15commandResponseENS_6common9ErrorCodeEPv=so_stub_for_libtelux_data
-Wl,--defsym=_ZN5telux4data22DataProfileManagerImpl15onProfileUpdateEP31wds_profile_changed_ind_msg_v01=so_stub_for_libtelux_data
-Wl,--defsym=_ZN5telux4data22DataProfileManagerImpl16getServiceStatusEv=so_stub_for_libtelux_data
-Wl,--defsym=_ZN5telux4data22DataProfileManagerImpl16isSubsystemReadyEv=so_stub_for_libtelux_data
-Wl,--defsym=_ZN5telux4data22DataProfileManagerImpl16onSubsystemReadyEv=so_stub_for_libtelux_data
-Wl,--defsym=_ZN5telux4data22DataProfileManagerImpl16registerListenerESt8weak_ptrINS0_20IDataProfileListenerEE=so_stub_for_libtelux_data
-Wl,--defsym=_ZN5telux4data22DataProfileManagerImpl17handleCommandRespENS_6common9ErrorCodeEi=so_stub_for_libtelux_data
-Wl,--defsym=_ZN5telux4data22DataProfileManagerImpl17setSubsystemReadyEb=so_stub_for_libtelux_data
-Wl,--defsym=_ZN5telux4data22DataProfileManagerImpl18deregisterListenerESt8weak_ptrINS0_20IDataProfileListenerEE=so_stub_for_libtelux_data
-Wl,--defsym=_ZN5telux4data22DataProfileManagerImpl18onProfileRetrievedESt10shared_ptrINS0_16ProfileRetrieverEE=so_stub_for_libtelux_data
-Wl,--defsym=_ZN5telux4data22DataProfileManagerImpl18requestProfileListESt10shared_ptrINS0_24IDataProfileListCallbackEE=so_stub_for_libtelux_data
-Wl,--defsym=_ZN5telux4data22DataProfileManagerImpl18setSubSystemStatusENS_6common13ServiceStatusE=so_stub_for_libtelux_data
-Wl,--defsym=_ZN5telux4data22DataProfileManagerImpl21createProfileResponseEiiiPv=so_stub_for_libtelux_data
-Wl,--defsym=_ZN5telux4data22DataProfileManagerImpl21getAvailableListenersERSt6vectorISt10shared_ptrINS_6common12ISDKListenerEESaIS6_EE=so_stub_for_libtelux_data
-Wl,--defsym=_ZN5telux4data22DataProfileManagerImpl21waitForInitializationEv=so_stub_for_libtelux_data
-Wl,--defsym=_ZN5telux4data22DataProfileManagerImpl22removeProfileRetrieverESt10shared_ptrINS0_16ProfileRetrieverEE=so_stub_for_libtelux_data
-Wl,--defsym=_ZN5telux4data22DataProfileManagerImpl24onWdsServiceStatusChangeENS_6common13ServiceStatusE=so_stub_for_libtelux_data
-Wl,--defsym=_ZN5telux4data22DataProfileManagerImpl26copyDataProfileParamsToQmiERKNS0_13ProfileParamsEPNS_3qmi16QmiProfileParamsE=so_stub_for_libtelux_data
-Wl,--defsym=_ZN5telux4data22DataProfileManagerImpl4initESt8weak_ptrINS_6common14AsyncTaskQueueIvEEESt8functionIFvNS3_13ServiceStatusEEE=so_stub_for_libtelux_data
-Wl,--defsym=_ZN5telux4data22DataProfileManagerImpl7cleanupEv=so_stub_for_libtelux_data
-Wl,--defsym=_ZN5telux4data22DataProfileManagerImpl8initSyncEv=so_stub_for_libtelux_data
-Wl,--defsym=_ZN5telux4data22DataProfileManagerImpl9getSlotIdEv=so_stub_for_libtelux_data
-Wl,--defsym=_ZN5telux4data22DataProfileManagerImplC1E6SlotId=so_stub_for_libtelux_data
-Wl,--defsym=_ZN5telux4data22DataProfileManagerImplC2E6SlotId=so_stub_for_libtelux_data
-Wl,--defsym=_ZN5telux4data22DataProfileManagerImplD0Ev=so_stub_for_libtelux_data
-Wl,--defsym=_ZN5telux4data22DataProfileManagerImplD1Ev=so_stub_for_libtelux_data
-Wl,--defsym=_ZN5telux4data22DataProfileManagerImplD2Ev=so_stub_for_libtelux_data
-Wl,--defsym=_ZN5telux4data22requestResponseWrapperEPvS1_13dsi_net_evt_tP20dsi_evt_payload_ex_t=so_stub_for_libtelux_data
-Wl,--defsym=_ZN5telux4data23DataSettingsManagerImpl10resetStateEv=so_stub_for_libtelux_data
-Wl,--defsym=_ZN5telux4data23DataSettingsManagerImpl11getIpConfigERKNS0_14IpConfigParamsERNS0_8IpConfigE=so_stub_for_libtelux_data
-Wl,--defsym=_ZN5telux4data23DataSettingsManagerImpl11setIpConfigERKNS0_14IpConfigParamsERKNS0_8IpConfigE=so_stub_for_libtelux_data
-Wl,--defsym=_ZN5telux4data23DataSettingsManagerImpl14setMacSecStateEbSt8functionIFvNS_6common9ErrorCodeEEE=so_stub_for_libtelux_data
-Wl,--defsym=_ZN5telux4data23DataSettingsManagerImpl14switchBackHaulENS0_12BackhaulInfoES2_bSt8functionIFvNS_6common9ErrorCodeEEE=so_stub_for_libtelux_data
-Wl,--defsym=_ZN5telux4data23DataSettingsManagerImpl16getServiceStatusEv=so_stub_for_libtelux_data
-Wl,--defsym=_ZN5telux4data23DataSettingsManagerImpl16isQmiClientReadyEv=so_stub_for_libtelux_data
-Wl,--defsym=_ZN5telux4data23DataSettingsManagerImpl16registerListenerESt8weak_ptrINS0_21IDataSettingsListenerEE=so_stub_for_libtelux_data
-Wl,--defsym=_ZN5telux4data23DataSettingsManagerImpl16requestDdsSwitchENS0_7DdsInfoESt8functionIFvNS_6common9ErrorCodeEEE=so_stub_for_libtelux_data
-Wl,--defsym=_ZN5telux4data23DataSettingsManagerImpl17requestCurrentDdsESt8functionIFvNS0_7DdsInfoENS_6common9ErrorCodeEEE=so_stub_for_libtelux_data
-Wl,--defsym=_ZN5telux4data23DataSettingsManagerImpl18deregisterListenerESt8weak_ptrINS0_21IDataSettingsListenerEE=so_stub_for_libtelux_data
-Wl,--defsym=_ZN5telux4data23DataSettingsManagerImpl18invokeInitCallbackENS_6common13ServiceStatusE=so_stub_for_libtelux_data
-Wl,--defsym=_ZN5telux4data23DataSettingsManagerImpl18requestMacSecStateESt8functionIFvbNS_6common9ErrorCodeEEE=so_stub_for_libtelux_data
-Wl,--defsym=_ZN5telux4data23DataSettingsManagerImpl18setSubSystemStatusENS_6common13ServiceStatusE=so_stub_for_libtelux_data
-Wl,--defsym=_ZN5telux4data23DataSettingsManagerImpl20dsdSwitchDdsResponseEiPv=so_stub_for_libtelux_data
-Wl,--defsym=_ZN5telux4data23DataSettingsManagerImpl20onSwitchDdsStatusIndERK26dsd_switch_dds_ind_msg_v01=so_stub_for_libtelux_data
-Wl,--defsym=_ZN5telux4data23DataSettingsManagerImpl21dsdCurrentDdsResponseENS0_7DdsInfoEiPv=so_stub_for_libtelux_data
-Wl,--defsym=_ZN5telux4data23DataSettingsManagerImpl21onCurrentDdsStatusIndERK27dsd_current_dds_ind_msg_v01=so_stub_for_libtelux_data
-Wl,--defsym=_ZN5telux4data23DataSettingsManagerImpl21onServiceStatusChangeENS_6common13ServiceStatusE=so_stub_for_libtelux_data
-Wl,--defsym=_ZN5telux4data23DataSettingsManagerImpl21setBackhaulPreferenceESt6vectorINS0_12BackhaulTypeESaIS3_EESt8functionIFvNS_6common9ErrorCodeEEE=so_stub_for_libtelux_data
-Wl,--defsym=_ZN5telux4data23DataSettingsManagerImpl22getIpPassThroughConfigERKNS0_10IpptParamsERNS0_10IpptConfigE=so_stub_for_libtelux_data
-Wl,--defsym=_ZN5telux4data23DataSettingsManagerImpl22restoreFactorySettingsENS0_13OperationTypeESt8functionIFvNS_6common9ErrorCodeEEEb=so_stub_for_libtelux_data
-Wl,--defsym=_ZN5telux4data23DataSettingsManagerImpl22setIpPassThroughConfigERKNS0_10IpptParamsERKNS0_10IpptConfigE=so_stub_for_libtelux_data
-Wl,--defsym=_ZN5telux4data23DataSettingsManagerImpl24dsdSwitchDdsResponseSyncEiPv=so_stub_for_libtelux_data
-Wl,--defsym=_ZN5telux4data23DataSettingsManagerImpl24processSwitchDdsResponseEv=so_stub_for_libtelux_data
-Wl,--defsym=_ZN5telux4data23DataSettingsManagerImpl25getIpPassThroughNatConfigERb=so_stub_for_libtelux_data
-Wl,--defsym=_ZN5telux4data23DataSettingsManagerImpl25requestBackhaulPreferenceESt8functionIFvSt6vectorINS0_12BackhaulTypeESaIS4_EENS_6common9ErrorCodeEEE=so_stub_for_libtelux_data
-Wl,--defsym=_ZN5telux4data23DataSettingsManagerImpl25setBandInterferenceConfigEbSt10shared_ptrINS0_22BandInterferenceConfigEESt8functionIFvNS_6common9ErrorCodeEEE=so_stub_for_libtelux_data
-Wl,--defsym=_ZN5telux4data23DataSettingsManagerImpl25setIpPassThroughNatConfigEb=so_stub_for_libtelux_data
-Wl,--defsym=_ZN5telux4data23DataSettingsManagerImpl25setWwanConnectivityConfigE6SlotIdbSt8functionIFvNS_6common9ErrorCodeEEE=so_stub_for_libtelux_data
-Wl,--defsym=_ZN5telux4data23DataSettingsManagerImpl29requestBandInterferenceConfigESt8functionIFvbSt10shared_ptrINS0_22BandInterferenceConfigEENS_6common9ErrorCodeEEE=so_stub_for_libtelux_data
-Wl,--defsym=_ZN5telux4data23DataSettingsManagerImpl29requestWwanConnectivityConfigE6SlotIdSt8functionIFvS2_bNS_6common9ErrorCodeEEE=so_stub_for_libtelux_data
-Wl,--defsym=_ZN5telux4data23DataSettingsManagerImpl30onWwanConnectivityConfigChangeE6SlotIdb=so_stub_for_libtelux_data
-Wl,--defsym=_ZN5telux4data23DataSettingsManagerImpl34isDeviceDataUsageMonitoringEnabledEv=so_stub_for_libtelux_data
-Wl,--defsym=_ZN5telux4data23DataSettingsManagerImpl4initESt8functionIFvNS_6common13ServiceStatusEEE=so_stub_for_libtelux_data
-Wl,--defsym=_ZN5telux4data23DataSettingsManagerImpl7cleanupEv=so_stub_for_libtelux_data
-Wl,--defsym=_ZN5telux4data23DataSettingsManagerImpl8initSyncEv=so_stub_for_libtelux_data
-Wl,--defsym=_ZN5telux4data23DataSettingsManagerImplC1ENS0_13OperationTypeESt10shared_ptrINS0_9QcmClientEE=so_stub_for_libtelux_data
-Wl,--defsym=_ZN5telux4data23DataSettingsManagerImplC2ENS0_13OperationTypeESt10shared_ptrINS0_9QcmClientEE=so_stub_for_libtelux_data
-Wl,--defsym=_ZN5telux4data23DataSettingsManagerImplD0Ev=so_stub_for_libtelux_data
-Wl,--defsym=_ZN5telux4data23DataSettingsManagerImplD1Ev=so_stub_for_libtelux_data
-Wl,--defsym=_ZN5telux4data23DataSettingsManagerImplD2Ev=so_stub_for_libtelux_data
-Wl,--defsym=_ZN5telux4data23NLEthCapabilityCallback20onLocalEthCapabilityEj=so_stub_for_libtelux_data
-Wl,--defsym=_ZN5telux4data23NLEthCapabilityCallbackD0Ev=so_stub_for_libtelux_data
-Wl,--defsym=_ZN5telux4data23NLEthCapabilityCallbackD1Ev=so_stub_for_libtelux_data
-Wl,--defsym=_ZN5telux4data23NLEthCapabilityCallbackD2Ev=so_stub_for_libtelux_data
-Wl,--defsym=_ZN5telux4data24ServingSystemManagerImpl10resetStateEv=so_stub_for_libtelux_data
-Wl,--defsym=_ZN5telux4data24ServingSystemManagerImpl11makeDormantESt8functionIFvNS_6common9ErrorCodeEEE=so_stub_for_libtelux_data
-Wl,--defsym=_ZN5telux4data24ServingSystemManagerImpl12getDrbStatusEv=so_stub_for_libtelux_data
-Wl,--defsym=_ZN5telux4data24ServingSystemManagerImpl13convertUiMaskERKm=so_stub_for_libtelux_data
-Wl,--defsym=_ZN5telux4data24ServingSystemManagerImpl16getServiceStatusEv=so_stub_for_libtelux_data
-Wl,--defsym=_ZN5telux4data24ServingSystemManagerImpl16registerListenerESt8weak_ptrINS0_22IServingSystemListenerEE=so_stub_for_libtelux_data
-Wl,--defsym=_ZN5telux4data24ServingSystemManagerImpl17requestNrIconTypeESt8functionIFvNS0_10NrIconTypeENS_6common9ErrorCodeEEE=so_stub_for_libtelux_data
-Wl,--defsym=_ZN5telux4data24ServingSystemManagerImpl18deregisterListenerESt8weak_ptrINS0_22IServingSystemListenerEE=so_stub_for_libtelux_data
-Wl,--defsym=_ZN5telux4data24ServingSystemManagerImpl18nrIconTypeResponseEP28dsd_get_ui_info_resp_msg_v01Pvi=so_stub_for_libtelux_data
-Wl,--defsym=_ZN5telux4data24ServingSystemManagerImpl18setSubSystemStatusENS_6common13ServiceStatusE=so_stub_for_libtelux_data
-Wl,--defsym=_ZN5telux4data24ServingSystemManagerImpl20requestRoamingStatusESt8functionIFvNS0_13RoamingStatusENS_6common9ErrorCodeEEE=so_stub_for_libtelux_data
-Wl,--defsym=_ZN5telux4data24ServingSystemManagerImpl20requestServiceStatusESt8functionIFvNS0_13ServiceStatusENS_6common9ErrorCodeEEE=so_stub_for_libtelux_data
-Wl,--defsym=_ZN5telux4data24ServingSystemManagerImpl20serviceStateResponseEiNS_3qmi7VersionERK34dsd_get_system_status_resp_msg_v01Pv=so_stub_for_libtelux_data
-Wl,--defsym=_ZN5telux4data24ServingSystemManagerImpl21onNrIconTypeChangeIndERK23dsd_ui_info_ind_msg_v01=so_stub_for_libtelux_data
-Wl,--defsym=_ZN5telux4data24ServingSystemManagerImpl21roamingStatusResponseEiiRK48dsd_get_current_roaming_status_info_resp_msg_v01Pv=so_stub_for_libtelux_data
-Wl,--defsym=_ZN5telux4data24ServingSystemManagerImpl23onServiceStateChangeIndERKNS_3qmi19dsdSystemStatusInfoE=so_stub_for_libtelux_data
-Wl,--defsym=_ZN5telux4data24ServingSystemManagerImpl24onRoamingStatusChangeIndERK37dsd_roaming_status_change_ind_msg_v01=so_stub_for_libtelux_data
-Wl,--defsym=_ZN5telux4data24ServingSystemManagerImpl24onServiceStatusResultIndERK43dsd_get_system_status_v2_result_ind_msg_v01i=so_stub_for_libtelux_data
-Wl,--defsym=_ZN5telux4data24ServingSystemManagerImpl24onWdsServiceStatusChangeENS_6common13ServiceStatusE=so_stub_for_libtelux_data
-Wl,--defsym=_ZN5telux4data24ServingSystemManagerImpl27processRoamingStatusResultsEh30dsd_roaming_type_enum_type_v01RNS0_13RoamingStatusE=so_stub_for_libtelux_data
-Wl,--defsym=_ZN5telux4data24ServingSystemManagerImpl27processServiceStatusResultsERK31dsd_system_status_info_type_v01RNS0_13ServiceStatusE=so_stub_for_libtelux_data
-Wl,--defsym=_ZN5telux4data24ServingSystemManagerImpl28invokeClientServiceStatusCbsENS_6common9ErrorCodeERNS0_13ServiceStatusE=so_stub_for_libtelux_data
-Wl,--defsym=_ZN5telux4data24ServingSystemManagerImpl4initESt8functionIFvNS_6common13ServiceStatusEEE=so_stub_for_libtelux_data
-Wl,--defsym=_ZN5telux4data24ServingSystemManagerImpl7cleanupEv=so_stub_for_libtelux_data
-Wl,--defsym=_ZN5telux4data24ServingSystemManagerImpl8initSyncEv=so_stub_for_libtelux_data
-Wl,--defsym=_ZN5telux4data24ServingSystemManagerImpl9getSlotIdEv=so_stub_for_libtelux_data
-Wl,--defsym=_ZN5telux4data24ServingSystemManagerImplC1E6SlotId=so_stub_for_libtelux_data
-Wl,--defsym=_ZN5telux4data24ServingSystemManagerImplC2E6SlotId=so_stub_for_libtelux_data
-Wl,--defsym=_ZN5telux4data24ServingSystemManagerImplD0Ev=so_stub_for_libtelux_data
-Wl,--defsym=_ZN5telux4data24ServingSystemManagerImplD1Ev=so_stub_for_libtelux_data
-Wl,--defsym=_ZN5telux4data24ServingSystemManagerImplD2Ev=so_stub_for_libtelux_data
-Wl,--defsym=_ZN5telux4data25DataConnectionManagerImpl12stopDataCallEiNS0_12IpFamilyTypeESt8functionIFvRKSt10shared_ptrINS0_9IDataCallEENS_6common9ErrorCodeEEENS0_13OperationTypeENSt7__cxx1112basic_stringIcSt11char_traitsIcESaIcEEE=so_stub_for_libtelux_data
-Wl,--defsym=_ZN5telux4data25DataConnectionManagerImpl12stopDataCallERKNS0_14DataCallParamsESt8functionIFvRKSt10shared_ptrINS0_9IDataCallEENS_6common9ErrorCodeEEE=so_stub_for_libtelux_data
-Wl,--defsym=_ZN5telux4data25DataConnectionManagerImpl13startDataCallEiNS0_12IpFamilyTypeESt8functionIFvRKSt10shared_ptrINS0_9IDataCallEENS_6common9ErrorCodeEEENS0_13OperationTypeENSt7__cxx1112basic_stringIcSt11char_traitsIcESaIcEEE=so_stub_for_libtelux_data
-Wl,--defsym=_ZN5telux4data25DataConnectionManagerImpl13startDataCallERKNS0_14DataCallParamsESt8functionIFvRKSt10shared_ptrINS0_9IDataCallEENS_6common9ErrorCodeEEE=so_stub_for_libtelux_data
-Wl,--defsym=_ZN5telux4data25DataConnectionManagerImpl14setRoamingModeEbhNS0_13OperationTypeESt8functionIFvNS_6common9ErrorCodeEEE=so_stub_for_libtelux_data
-Wl,--defsym=_ZN5telux4data25DataConnectionManagerImpl16getServiceStatusEv=so_stub_for_libtelux_data
-Wl,--defsym=_ZN5telux4data25DataConnectionManagerImpl16isSubsystemReadyEv=so_stub_for_libtelux_data
-Wl,--defsym=_ZN5telux4data25DataConnectionManagerImpl16onSubsystemReadyEv=so_stub_for_libtelux_data
-Wl,--defsym=_ZN5telux4data25DataConnectionManagerImpl16registerListenerESt8weak_ptrINS0_23IDataConnectionListenerEE=so_stub_for_libtelux_data
-Wl,--defsym=_ZN5telux4data25DataConnectionManagerImpl17getDefaultProfileENS0_13OperationTypeESt8functionIFvi6SlotIdNS_6common9ErrorCodeEEE=so_stub_for_libtelux_data
-Wl,--defsym=_ZN5telux4data25DataConnectionManagerImpl17setDefaultProfileENS0_13OperationTypeEhSt8functionIFvNS_6common9ErrorCodeEEE=so_stub_for_libtelux_data
-Wl,--defsym=_ZN5telux4data25DataConnectionManagerImpl17setSubsystemReadyEb=so_stub_for_libtelux_data
-Wl,--defsym=_ZN5telux4data25DataConnectionManagerImpl18deregisterListenerESt8weak_ptrINS0_23IDataConnectionListenerEE=so_stub_for_libtelux_data
-Wl,--defsym=_ZN5telux4data25DataConnectionManagerImpl18invokeInitCallbackENS_6common13ServiceStatusE=so_stub_for_libtelux_data
-Wl,--defsym=_ZN5telux4data25DataConnectionManagerImpl18requestRoamingModeEhNS0_13OperationTypeESt8functionIFvbiNS_6common9ErrorCodeEEE=so_stub_for_libtelux_data
-Wl,--defsym=_ZN5telux4data25DataConnectionManagerImpl18setSubSystemStatusENS_6common13ServiceStatusE=so_stub_for_libtelux_data
-Wl,--defsym=_ZN5telux4data25DataConnectionManagerImpl19requestDataCallListENS0_13OperationTypeESt8functionIFvRKSt6vectorISt10shared_ptrINS0_9IDataCallEESaIS7_EENS_6common9ErrorCodeEEE=so_stub_for_libtelux_data
-Wl,--defsym=_ZN5telux4data25DataConnectionManagerImpl20onPdnThrottleInfoIndERK33wds_pdn_throttle_info_ind_msg_v01=so_stub_for_libtelux_data
-Wl,--defsym=_ZN5telux4data25DataConnectionManagerImpl21getAvailableListenersERSt6vectorISt10shared_ptrINS_6common12ISDKListenerEESaIS6_EE=so_stub_for_libtelux_data
-Wl,--defsym=_ZN5telux4data25DataConnectionManagerImpl21onDataCallInfoChangedERKSt10shared_ptrINS0_9IDataCallEE=so_stub_for_libtelux_data
-Wl,--defsym=_ZN5telux4data25DataConnectionManagerImpl21onServiceStatusChangeENS_6common13ServiceStatusE=so_stub_for_libtelux_data
-Wl,--defsym=_ZN5telux4data25DataConnectionManagerImpl21waitForInitializationEv=so_stub_for_libtelux_data
-Wl,--defsym=_ZN5telux4data25DataConnectionManagerImpl23onHwAccelerationChangedENS0_12ServiceStateE=so_stub_for_libtelux_data
-Wl,--defsym=_ZN5telux4data25DataConnectionManagerImpl23requestThrottledApnInfoESt8functionIFvRKSt6vectorINS0_15APNThrottleInfoESaIS4_EENS_6common9ErrorCodeEEE=so_stub_for_libtelux_data
-Wl,--defsym=_ZN5telux4data25DataConnectionManagerImpl24onWdsServiceStatusChangeENS_6common13ServiceStatusE=so_stub_for_libtelux_data
-Wl,--defsym=_ZN5telux4data25DataConnectionManagerImpl27onTrafficFlowTemplateChangeERKSt10shared_ptrINS0_9IDataCallEERKSt6vectorIS2_INS0_13TftChangeInfoEESaIS9_EE=so_stub_for_libtelux_data
-Wl,--defsym=_ZN5telux4data25DataConnectionManagerImpl27requestThrottledApnInfoSyncESt8functionIFvRKSt6vectorINS0_15APNThrottleInfoESaIS4_EENS_6common9ErrorCodeEEE=so_stub_for_libtelux_data
-Wl,--defsym=_ZN5telux4data25DataConnectionManagerImpl28onOverallServiceStatusChangeENS_6common13ServiceStatusE=so_stub_for_libtelux_data
-Wl,--defsym=_ZN5telux4data25DataConnectionManagerImpl30addProfileIdInThrottleInfoSyncESt13unordered_mapINSt7__cxx1112basic_stringIcSt11char_traitsIcESaIcEEESt10shared_ptrINS0_15APNThrottleInfoEESt4hashIS8_ESt8equal_toIS8_ESaISt4pairIKS8_SB_EEERSt6vectorISA_SaISA_EE=so_stub_for_libtelux_data
-Wl,--defsym=_ZN5telux4data25DataConnectionManagerImpl30onWwanConnectivityConfigChangeE6SlotIdb=so_stub_for_libtelux_data
-Wl,--defsym=_ZN5telux4data25DataConnectionManagerImpl31onDataCallReadinessStatusChangeEv=so_stub_for_libtelux_data
-Wl,--defsym=_ZN5telux4data25DataConnectionManagerImpl4initESt8weak_ptrINS_6common14AsyncTaskQueueIvEEESt8functionIFvNS3_13ServiceStatusEEE=so_stub_for_libtelux_data
-Wl,--defsym=_ZN5telux4data25DataConnectionManagerImpl5onSSRENS0_13DependentTypeENS_6common13ServiceStatusE=so_stub_for_libtelux_data
-Wl,--defsym=_ZN5telux4data25DataConnectionManagerImpl7cleanupEv=so_stub_for_libtelux_data
-Wl,--defsym=_ZN5telux4data25DataConnectionManagerImpl7initWdsEv=so_stub_for_libtelux_data
-Wl,--defsym=_ZN5telux4data25DataConnectionManagerImpl8initSyncEv=so_stub_for_libtelux_data
-Wl,--defsym=_ZN5telux4data25DataConnectionManagerImpl9getSlotIdEv=so_stub_for_libtelux_data
-Wl,--defsym=_ZN5telux4data25DataConnectionManagerImplC1E6SlotIdSt10shared_ptrINS0_9QcmClientEE=so_stub_for_libtelux_data
-Wl,--defsym=_ZN5telux4data25DataConnectionManagerImplC2E6SlotIdSt10shared_ptrINS0_9QcmClientEE=so_stub_for_libtelux_data
-Wl,--defsym=_ZN5telux4data25DataConnectionManagerImplD0Ev=so_stub_for_libtelux_data
-Wl,--defsym=_ZN5telux4data25DataConnectionManagerImplD1Ev=so_stub_for_libtelux_data
-Wl,--defsym=_ZN5telux4data25DataConnectionManagerImplD2Ev=so_stub_for_libtelux_data
-Wl,--defsym=_ZN5telux4data25DataSubSystemStateMachine24createDataSubSystemEventENS1_7EventIDEb=so_stub_for_libtelux_data
-Wl,--defsym=_ZN5telux4data25DataSubSystemStateMachine4stopEv=so_stub_for_libtelux_data
-Wl,--defsym=_ZN5telux4data25DataSubSystemStateMachine5startEv=so_stub_for_libtelux_data
-Wl,--defsym=_ZN5telux4data25DataSubSystemStateMachine7onEventESt10shared_ptrINS_6common5EventEE=so_stub_for_libtelux_data
-Wl,--defsym=_ZN5telux4data25DataSubSystemStateMachineC1ESt10shared_ptrINS0_9QcmClientEE=so_stub_for_libtelux_data
-Wl,--defsym=_ZN5telux4data25DataSubSystemStateMachineC2ESt10shared_ptrINS0_9QcmClientEE=so_stub_for_libtelux_data
-Wl,--defsym=_ZN5telux4data25DataSubSystemStateMachineD0Ev=so_stub_for_libtelux_data
-Wl,--defsym=_ZN5telux4data25DataSubSystemStateMachineD1Ev=so_stub_for_libtelux_data
-Wl,--defsym=_ZN5telux4data25DataSubSystemStateMachineD2Ev=so_stub_for_libtelux_data
-Wl,--defsym=_ZN5telux4data27DataConnectionPowerListener16onSysPowerChangeENS_3qmi8PwrStateE=so_stub_for_libtelux_data
-Wl,--defsym=_ZN5telux4data27DataConnectionPowerListenerC1ESt8weak_ptrINS_3qmi12WdsQmiClientEERSt6bitsetILm32EE=so_stub_for_libtelux_data
-Wl,--defsym=_ZN5telux4data27DataConnectionPowerListenerC2ESt8weak_ptrINS_3qmi12WdsQmiClientEERSt6bitsetILm32EE=so_stub_for_libtelux_data
-Wl,--defsym=_ZN5telux4data27DataConnectionPowerListenerD0Ev=so_stub_for_libtelux_data
-Wl,--defsym=_ZN5telux4data27DataConnectionPowerListenerD1Ev=so_stub_for_libtelux_data
-Wl,--defsym=_ZN5telux4data27DataConnectionPowerListenerD2Ev=so_stub_for_libtelux_data
-Wl,--defsym=_ZN5telux4data27DataSubSystemStateAvailable6onExitEv=so_stub_for_libtelux_data
-Wl,--defsym=_ZN5telux4data27DataSubSystemStateAvailable7onEnterEv=so_stub_for_libtelux_data
-Wl,--defsym=_ZN5telux4data27DataSubSystemStateAvailable7onEventESt10shared_ptrINS_6common5EventEE=so_stub_for_libtelux_data
-Wl,--defsym=_ZN5telux4data27DataSubSystemStateAvailableC1ESt8weak_ptrINS_6common16BaseStateMachineEE=so_stub_for_libtelux_data
-Wl,--defsym=_ZN5telux4data27DataSubSystemStateAvailableC2ESt8weak_ptrINS_6common16BaseStateMachineEE=so_stub_for_libtelux_data
-Wl,--defsym=_ZN5telux4data27DataSubSystemStateAvailableD0Ev=so_stub_for_libtelux_data
-Wl,--defsym=_ZN5telux4data27DataSubSystemStateAvailableD1Ev=so_stub_for_libtelux_data
-Wl,--defsym=_ZN5telux4data27DataSubSystemStateAvailableD2Ev=so_stub_for_libtelux_data
-Wl,--defsym=_ZN5telux4data29DataSubSystemStateUnavailable14enableMobileAPESt10shared_ptrINS0_25DataSubSystemStateMachineEE=so_stub_for_libtelux_data
-Wl,--defsym=_ZN5telux4data29DataSubSystemStateUnavailable18populateOperationsESt10shared_ptrINS0_18DataSubSystemEventEE=so_stub_for_libtelux_data
-Wl,--defsym=_ZN5telux4data29DataSubSystemStateUnavailable22registerForIndicationsESt10shared_ptrINS0_25DataSubSystemStateMachineEE=so_stub_for_libtelux_data
-Wl,--defsym=_ZN5telux4data29DataSubSystemStateUnavailable7onEventESt10shared_ptrINS_6common5EventEE=so_stub_for_libtelux_data
-Wl,--defsym=_ZN5telux4data29DataSubSystemStateUnavailableC1ESt8weak_ptrINS_6common16BaseStateMachineEE=so_stub_for_libtelux_data
-Wl,--defsym=_ZN5telux4data29DataSubSystemStateUnavailableC2ESt8weak_ptrINS_6common16BaseStateMachineEE=so_stub_for_libtelux_data
-Wl,--defsym=_ZN5telux4data29DataSubSystemStateUnavailableD0Ev=so_stub_for_libtelux_data
-Wl,--defsym=_ZN5telux4data29DataSubSystemStateUnavailableD1Ev=so_stub_for_libtelux_data
-Wl,--defsym=_ZN5telux4data29DataSubSystemStateUnavailableD2Ev=so_stub_for_libtelux_data
-Wl,--defsym=_ZN5telux4data30RequestPdnThrottleInfoCallback30requestPdnThrottleInfoResponseEiRK38wds_get_pdn_throttle_info_resp_msg_v01Pv=so_stub_for_libtelux_data
-Wl,--defsym=_ZN5telux4data30RequestPdnThrottleInfoCallbackC1Ev=so_stub_for_libtelux_data
-Wl,--defsym=_ZN5telux4data30RequestPdnThrottleInfoCallbackC2Ev=so_stub_for_libtelux_data
-Wl,--defsym=_ZN5telux4data30RequestPdnThrottleInfoCallbackD0Ev=so_stub_for_libtelux_data
-Wl,--defsym=_ZN5telux4data30RequestPdnThrottleInfoCallbackD1Ev=so_stub_for_libtelux_data
-Wl,--defsym=_ZN5telux4data30RequestPdnThrottleInfoCallbackD2Ev=so_stub_for_libtelux_data
-Wl,--defsym=_ZN5telux4data34NLSetLocalEthOperatingModeCallback32onEthModeChangeTransactionStatusEiNS0_23NetLinkModeChangeStatusE=so_stub_for_libtelux_data
-Wl,--defsym=_ZN5telux4data34NLSetLocalEthOperatingModeCallbackD0Ev=so_stub_for_libtelux_data
-Wl,--defsym=_ZN5telux4data34NLSetLocalEthOperatingModeCallbackD1Ev=so_stub_for_libtelux_data
-Wl,--defsym=_ZN5telux4data34NLSetLocalEthOperatingModeCallbackD2Ev=so_stub_for_libtelux_data
-Wl,--defsym=_ZN5telux4data37AddProfileIdInApnThrottleInfoCallback18onProfileRetrievedESt10shared_ptrINS0_16ProfileRetrieverEE=so_stub_for_libtelux_data
-Wl,--defsym=_ZN5telux4data37AddProfileIdInApnThrottleInfoCallback21onProfileListResponseERKSt6vectorISt10shared_ptrINS0_11DataProfileEESaIS5_EENS_6common9ErrorCodeE=so_stub_for_libtelux_data
-Wl,--defsym=_ZN5telux4data37AddProfileIdInApnThrottleInfoCallbackC1ESt13unordered_mapINSt7__cxx1112basic_stringIcSt11char_traitsIcESaIcEEESt10shared_ptrINS0_15APNThrottleInfoEESt4hashIS8_ESt8equal_toIS8_ESaISt4pairIKS8_SB_EEE=so_stub_for_libtelux_data
-Wl,--defsym=_ZN5telux4data37AddProfileIdInApnThrottleInfoCallbackC2ESt13unordered_mapINSt7__cxx1112basic_stringIcSt11char_traitsIcESaIcEEESt10shared_ptrINS0_15APNThrottleInfoEESt4hashIS8_ESt8equal_toIS8_ESaISt4pairIKS8_SB_EEE=so_stub_for_libtelux_data
-Wl,--defsym=_ZN5telux4data37AddProfileIdInApnThrottleInfoCallbackD0Ev=so_stub_for_libtelux_data
-Wl,--defsym=_ZN5telux4data37AddProfileIdInApnThrottleInfoCallbackD1Ev=so_stub_for_libtelux_data
-Wl,--defsym=_ZN5telux4data37AddProfileIdInApnThrottleInfoCallbackD2Ev=so_stub_for_libtelux_data
-Wl,--defsym=_ZN5telux4data3net12TcConfigImpl11getDataPathEv=so_stub_for_libtelux_data
-Wl,--defsym=_ZN5telux4data3net12TcConfigImpl11setDataPathENS0_8DataPathE=so_stub_for_libtelux_data
-Wl,--defsym=_ZN5telux4data3net12TcConfigImpl12getDirectionEv=so_stub_for_libtelux_data
-Wl,--defsym=_ZN5telux4data3net12TcConfigImpl12setDirectionENS0_9DirectionE=so_stub_for_libtelux_data
-Wl,--defsym=_ZN5telux4data3net12TcConfigImpl15getTrafficClassEv=so_stub_for_libtelux_data
-Wl,--defsym=_ZN5telux4data3net12TcConfigImpl15setTrafficClassEh=so_stub_for_libtelux_data
-Wl,--defsym=_ZN5telux4data3net12TcConfigImpl18getBandwidthConfigEv=so_stub_for_libtelux_data
-Wl,--defsym=_ZN5telux4data3net12TcConfigImpl18setBandwidthConfigENS1_15BandwidthConfigE=so_stub_for_libtelux_data
-Wl,--defsym=_ZN5telux4data3net12TcConfigImpl22getTcConfigValidFieldsEv=so_stub_for_libtelux_data
-Wl,--defsym=_ZN5telux4data3net12TcConfigImpl8toStringB5cxx11Ev=so_stub_for_libtelux_data
-Wl,--defsym=_ZN5telux4data3net13QoSFilterImpl15getTrafficClassEv=so_stub_for_libtelux_data
-Wl,--defsym=_ZN5telux4data3net13QoSFilterImpl15setTrafficClassEh=so_stub_for_libtelux_data
-Wl,--defsym=_ZN5telux4data3net13QoSFilterImpl16getTrafficFilterEv=so_stub_for_libtelux_data
-Wl,--defsym=_ZN5telux4data3net13QoSFilterImpl16setTrafficFilterESt10shared_ptrINS0_14ITrafficFilterEE=so_stub_for_libtelux_data
-Wl,--defsym=_ZN5telux4data3net13QoSFilterImpl32filterInstallationStatusToStringB5cxx11ENS1_24FilterInstallationStatusE=so_stub_for_libtelux_data
-Wl,--defsym=_ZN5telux4data3net13QoSFilterImpl8toStringB5cxx11Ev=so_stub_for_libtelux_data
-Wl,--defsym=_ZN5telux4data3net13QoSFilterImpl9getHandleEv=so_stub_for_libtelux_data
-Wl,--defsym=_ZN5telux4data3net13QoSFilterImpl9getStatusEv=so_stub_for_libtelux_data
-Wl,--defsym=_ZN5telux4data3net13QoSFilterImpl9setHandleEj=so_stub_for_libtelux_data
-Wl,--defsym=_ZN5telux4data3net13QoSFilterImpl9setStatusENS1_15QoSFilterStatusE=so_stub_for_libtelux_data
-Wl,--defsym=_ZN5telux4data3net14NatManagerImpl16getOperationTypeEv=so_stub_for_libtelux_data
-Wl,--defsym=_ZN5telux4data3net14NatManagerImpl16getServiceStatusEv=so_stub_for_libtelux_data
-Wl,--defsym=_ZN5telux4data3net14NatManagerImpl16isSubsystemReadyEv=so_stub_for_libtelux_data
-Wl,--defsym=_ZN5telux4data3net14NatManagerImpl16onSubsystemReadyEv=so_stub_for_libtelux_data
-Wl,--defsym=_ZN5telux4data3net14NatManagerImpl16registerListenerESt8weak_ptrINS1_12INatListenerEE=so_stub_for_libtelux_data
-Wl,--defsym=_ZN5telux4data3net14NatManagerImpl17addStaticNatEntryEiRKNS1_9NatConfigESt8functionIFvNS_6common9ErrorCodeEEE6SlotId=so_stub_for_libtelux_data
-Wl,--defsym=_ZN5telux4data3net14NatManagerImpl17addStaticNatEntryERKNS0_12BackhaulInfoERKNS1_9NatConfigESt8functionIFvNS_6common9ErrorCodeEEE=so_stub_for_libtelux_data
-Wl,--defsym=_ZN5telux4data3net14NatManagerImpl17setSubsystemReadyEb=so_stub_for_libtelux_data
-Wl,--defsym=_ZN5telux4data3net14NatManagerImpl18deregisterListenerESt8weak_ptrINS1_12INatListenerEE=so_stub_for_libtelux_data
-Wl,--defsym=_ZN5telux4data3net14NatManagerImpl18invokeInitCallbackENS_6common13ServiceStatusE=so_stub_for_libtelux_data
-Wl,--defsym=_ZN5telux4data3net14NatManagerImpl18setSubSystemStatusENS_6common13ServiceStatusE=so_stub_for_libtelux_data
-Wl,--defsym=_ZN5telux4data3net14NatManagerImpl20removeStaticNatEntryEiRKNS1_9NatConfigESt8functionIFvNS_6common9ErrorCodeEEE6SlotId=so_stub_for_libtelux_data
-Wl,--defsym=_ZN5telux4data3net14NatManagerImpl20removeStaticNatEntryERKNS0_12BackhaulInfoERKNS1_9NatConfigESt8functionIFvNS_6common9ErrorCodeEEE=so_stub_for_libtelux_data
-Wl,--defsym=_ZN5telux4data3net14NatManagerImpl21onServiceStatusChangeENS_6common13ServiceStatusE=so_stub_for_libtelux_data
-Wl,--defsym=_ZN5telux4data3net14NatManagerImpl21waitForInitializationEv=so_stub_for_libtelux_data
-Wl,--defsym=_ZN5telux4data3net14NatManagerImpl23requestStaticNatEntriesEiSt8functionIFvRKSt6vectorINS1_9NatConfigESaIS5_EENS_6common9ErrorCodeEEE6SlotId=so_stub_for_libtelux_data
-Wl,--defsym=_ZN5telux4data3net14NatManagerImpl23requestStaticNatEntriesERKNS0_12BackhaulInfoESt8functionIFvRKSt6vectorINS1_9NatConfigESaIS8_EENS_6common9ErrorCodeEEE=so_stub_for_libtelux_data
-Wl,--defsym=_ZN5telux4data3net14NatManagerImpl4initESt8functionIFvNS_6common13ServiceStatusEEE=so_stub_for_libtelux_data
-Wl,--defsym=_ZN5telux4data3net14NatManagerImpl7cleanupEv=so_stub_for_libtelux_data
-Wl,--defsym=_ZN5telux4data3net14NatManagerImpl8initSyncEv=so_stub_for_libtelux_data
-Wl,--defsym=_ZN5telux4data3net14NatManagerImplC1ENS0_13OperationTypeESt10shared_ptrINS0_9QcmClientEE=so_stub_for_libtelux_data
-Wl,--defsym=_ZN5telux4data3net14NatManagerImplC2ENS0_13OperationTypeESt10shared_ptrINS0_9QcmClientEE=so_stub_for_libtelux_data
-Wl,--defsym=_ZN5telux4data3net14NatManagerImplD0Ev=so_stub_for_libtelux_data
-Wl,--defsym=_ZN5telux4data3net14NatManagerImplD1Ev=so_stub_for_libtelux_data
-Wl,--defsym=_ZN5telux4data3net14NatManagerImplD2Ev=so_stub_for_libtelux_data
-Wl,--defsym=_ZN5telux4data3net14QoSManagerImpl12addQoSFilterENS1_15QoSFilterConfigERjRNS1_18QoSFilterErrorCodeE=so_stub_for_libtelux_data
-Wl,--defsym=_ZN5telux4data3net14QoSManagerImpl12getQosFilterEjRSt10shared_ptrINS1_10IQoSFilterEE=so_stub_for_libtelux_data
-Wl,--defsym=_ZN5telux4data3net14QoSManagerImpl13getQosFiltersERSt6vectorISt10shared_ptrINS1_10IQoSFilterEESaIS6_EE=so_stub_for_libtelux_data
-Wl,--defsym=_ZN5telux4data3net14QoSManagerImpl15deleteQosFilterEj=so_stub_for_libtelux_data
-Wl,--defsym=_ZN5telux4data3net14QoSManagerImpl16getServiceStatusEv=so_stub_for_libtelux_data
-Wl,--defsym=_ZN5telux4data3net14QoSManagerImpl16isSubsystemReadyEv=so_stub_for_libtelux_data
-Wl,--defsym=_ZN5telux4data3net14QoSManagerImpl16registerListenerESt8weak_ptrINS1_12IQoSListenerEE=so_stub_for_libtelux_data
-Wl,--defsym=_ZN5telux4data3net14QoSManagerImpl17setSubsystemReadyEb=so_stub_for_libtelux_data
-Wl,--defsym=_ZN5telux4data3net14QoSManagerImpl18createTrafficClassESt10shared_ptrINS1_9ITcConfigEERNS1_17TcConfigErrorCodeE=so_stub_for_libtelux_data
-Wl,--defsym=_ZN5telux4data3net14QoSManagerImpl18deleteTrafficClassESt10shared_ptrINS1_9ITcConfigEE=so_stub_for_libtelux_data
-Wl,--defsym=_ZN5telux4data3net14QoSManagerImpl18deregisterListenerESt8weak_ptrINS1_12IQoSListenerEE=so_stub_for_libtelux_data
-Wl,--defsym=_ZN5telux4data3net14QoSManagerImpl18invokeInitCallbackENS_6common13ServiceStatusE=so_stub_for_libtelux_data
-Wl,--defsym=_ZN5telux4data3net14QoSManagerImpl18setSubSystemStatusENS_6common13ServiceStatusE=so_stub_for_libtelux_data
-Wl,--defsym=_ZN5telux4data3net14QoSManagerImpl19deleteAllQosConfigsEv=so_stub_for_libtelux_data
-Wl,--defsym=_ZN5telux4data3net14QoSManagerImpl20getAllTrafficClassesERSt6vectorISt10shared_ptrINS1_9ITcConfigEESaIS6_EE=so_stub_for_libtelux_data
-Wl,--defsym=_ZN5telux4data3net14QoSManagerImpl21onServiceStatusChangeENS_6common13ServiceStatusE=so_stub_for_libtelux_data
-Wl,--defsym=_ZN5telux4data3net14QoSManagerImpl4initESt8weak_ptrINS_6common14AsyncTaskQueueIvEEESt8functionIFvNS4_13ServiceStatusEEE=so_stub_for_libtelux_data
-Wl,--defsym=_ZN5telux4data3net14QoSManagerImpl7cleanupEv=so_stub_for_libtelux_data
-Wl,--defsym=_ZN5telux4data3net14QoSManagerImpl8initSyncEv=so_stub_for_libtelux_data
-Wl,--defsym=_ZN5telux4data3net14QoSManagerImplC1ESt10shared_ptrINS0_9QcmClientEE=so_stub_for_libtelux_data
-Wl,--defsym=_ZN5telux4data3net14QoSManagerImplC2ESt10shared_ptrINS0_9QcmClientEE=so_stub_for_libtelux_data
-Wl,--defsym=_ZN5telux4data3net14QoSManagerImplD0Ev=so_stub_for_libtelux_data
-Wl,--defsym=_ZN5telux4data3net14QoSManagerImplD1Ev=so_stub_for_libtelux_data
-Wl,--defsym=_ZN5telux4data3net14QoSManagerImplD2Ev=so_stub_for_libtelux_data
-Wl,--defsym=_ZN5telux4data3net15L2tpManagerImpl10addSessionEjNS1_17L2tpSessionConfigESt8functionIFvNS_6common9ErrorCodeEEE=so_stub_for_libtelux_data
-Wl,--defsym=_ZN5telux4data3net15L2tpManagerImpl12removeTunnelEjSt8functionIFvNS_6common9ErrorCodeEEE=so_stub_for_libtelux_data
-Wl,--defsym=_ZN5telux4data3net15L2tpManagerImpl13addTunnelSyncERKNS1_16L2tpTunnelConfigESt8functionIFvNS_6common9ErrorCodeEEE=so_stub_for_libtelux_data
-Wl,--defsym=_ZN5telux4data3net15L2tpManagerImpl13removeSessionEjjSt8functionIFvNS_6common9ErrorCodeEEE=so_stub_for_libtelux_data
-Wl,--defsym=_ZN5telux4data3net15L2tpManagerImpl13requestConfigESt8functionIFvRKNS1_13L2tpSysConfigENS_6common9ErrorCodeEEE=so_stub_for_libtelux_data
-Wl,--defsym=_ZN5telux4data3net15L2tpManagerImpl13setConfigSyncEbbbjSt8functionIFvNS_6common9ErrorCodeEEE=so_stub_for_libtelux_data
-Wl,--defsym=_ZN5telux4data3net15L2tpManagerImpl14addSessionSyncEjNS1_17L2tpSessionConfigESt8functionIFvNS_6common9ErrorCodeEEE=so_stub_for_libtelux_data
-Wl,--defsym=_ZN5telux4data3net15L2tpManagerImpl16getServiceStatusEv=so_stub_for_libtelux_data
-Wl,--defsym=_ZN5telux4data3net15L2tpManagerImpl16isSubsystemReadyEv=so_stub_for_libtelux_data
-Wl,--defsym=_ZN5telux4data3net15L2tpManagerImpl16onSubsystemReadyEv=so_stub_for_libtelux_data
-Wl,--defsym=_ZN5telux4data3net15L2tpManagerImpl16registerListenerESt8weak_ptrINS1_13IL2tpListenerEE=so_stub_for_libtelux_data
-Wl,--defsym=_ZN5telux4data3net15L2tpManagerImpl16removeTunnelSyncEjSt8functionIFvNS_6common9ErrorCodeEEE=so_stub_for_libtelux_data
-Wl,--defsym=_ZN5telux4data3net15L2tpManagerImpl17removeSessionSyncEjjSt8functionIFvNS_6common9ErrorCodeEEE=so_stub_for_libtelux_data
-Wl,--defsym=_ZN5telux4data3net15L2tpManagerImpl17requestConfigSyncESt8functionIFvRKNS1_13L2tpSysConfigENS_6common9ErrorCodeEEE=so_stub_for_libtelux_data
-Wl,--defsym=_ZN5telux4data3net15L2tpManagerImpl17setSubsystemReadyEb=so_stub_for_libtelux_data
-Wl,--defsym=_ZN5telux4data3net15L2tpManagerImpl18deregisterListenerESt8weak_ptrINS1_13IL2tpListenerEE=so_stub_for_libtelux_data
-Wl,--defsym=_ZN5telux4data3net15L2tpManagerImpl18invokeInitCallbackENS_6common13ServiceStatusE=so_stub_for_libtelux_data
-Wl,--defsym=_ZN5telux4data3net15L2tpManagerImpl18setSubSystemStatusENS_6common13ServiceStatusE=so_stub_for_libtelux_data
-Wl,--defsym=_ZN5telux4data3net15L2tpManagerImpl21bindSessionToBackhaulENS1_21L2tpSessionBindConfigESt8functionIFvNS_6common9ErrorCodeEEE=so_stub_for_libtelux_data
-Wl,--defsym=_ZN5telux4data3net15L2tpManagerImpl21onServiceStatusChangeENS_6common13ServiceStatusE=so_stub_for_libtelux_data
-Wl,--defsym=_ZN5telux4data3net15L2tpManagerImpl21waitForInitializationEv=so_stub_for_libtelux_data
-Wl,--defsym=_ZN5telux4data3net15L2tpManagerImpl25bindSessionToBackhaulSyncENS1_21L2tpSessionBindConfigESt8functionIFvNS_6common9ErrorCodeEEE=so_stub_for_libtelux_data
-Wl,--defsym=_ZN5telux4data3net15L2tpManagerImpl25unbindSessionFromBackhaulENS1_21L2tpSessionBindConfigESt8functionIFvNS_6common9ErrorCodeEEE=so_stub_for_libtelux_data
-Wl,--defsym=_ZN5telux4data3net15L2tpManagerImpl29unbindSessionFromBackhaulSyncENS1_21L2tpSessionBindConfigESt8functionIFvNS_6common9ErrorCodeEEE=so_stub_for_libtelux_data
-Wl,--defsym=_ZN5telux4data3net15L2tpManagerImpl30querySessionToBackhaulBindingsENS0_12BackhaulTypeESt8functionIFvSt6vectorINS1_21L2tpSessionBindConfigESaIS6_EENS_6common9ErrorCodeEEE=so_stub_for_libtelux_data
-Wl,--defsym=_ZN5telux4data3net15L2tpManagerImpl34querySessionToBackhaulBindingsSyncENS0_12BackhaulTypeESt8functionIFvSt6vectorINS1_21L2tpSessionBindConfigESaIS6_EENS_6common9ErrorCodeEEE=so_stub_for_libtelux_data
-Wl,--defsym=_ZN5telux4data3net15L2tpManagerImpl4initESt8functionIFvNS_6common13ServiceStatusEEE=so_stub_for_libtelux_data
-Wl,--defsym=_ZN5telux4data3net15L2tpManagerImpl7cleanupEv=so_stub_for_libtelux_data
-Wl,--defsym=_ZN5telux4data3net15L2tpManagerImpl8initSyncEv=so_stub_for_libtelux_data
-Wl,--defsym=_ZN5telux4data3net15L2tpManagerImpl9addTunnelERKNS1_16L2tpTunnelConfigESt8functionIFvNS_6common9ErrorCodeEEE=so_stub_for_libtelux_data
-Wl,--defsym=_ZN5telux4data3net15L2tpManagerImpl9setConfigEbbbSt8functionIFvNS_6common9ErrorCodeEEEj=so_stub_for_libtelux_data
-Wl,--defsym=_ZN5telux4data3net15L2tpManagerImplC1ESt10shared_ptrINS0_9QcmClientEE=so_stub_for_libtelux_data
-Wl,--defsym=_ZN5telux4data3net15L2tpManagerImplC2ESt10shared_ptrINS0_9QcmClientEE=so_stub_for_libtelux_data
-Wl,--defsym=_ZN5telux4data3net15L2tpManagerImplD0Ev=so_stub_for_libtelux_data
-Wl,--defsym=_ZN5telux4data3net15L2tpManagerImplD1Ev=so_stub_for_libtelux_data
-Wl,--defsym=_ZN5telux4data3net15L2tpManagerImplD2Ev=so_stub_for_libtelux_data
-Wl,--defsym=_ZN5telux4data3net15TcConfigBuilder11setDataPathENS0_8DataPathE=so_stub_for_libtelux_data
-Wl,--defsym=_ZN5telux4data3net15TcConfigBuilder12setDirectionENS0_9DirectionE=so_stub_for_libtelux_data
-Wl,--defsym=_ZN5telux4data3net15TcConfigBuilder15setTrafficClassEh=so_stub_for_libtelux_data
-Wl,--defsym=_ZN5telux4data3net15TcConfigBuilder18setBandwidthConfigENS1_15BandwidthConfigE=so_stub_for_libtelux_data
-Wl,--defsym=_ZN5telux4data3net15TcConfigBuilder5buildEv=so_stub_for_libtelux_data
-Wl,--defsym=_ZN5telux4data3net15VlanManagerImpl10createVlanERKNS0_10VlanConfigESt8functionIFvbNS_6common9ErrorCodeEEE=so_stub_for_libtelux_data
-Wl,--defsym=_ZN5telux4data3net15VlanManagerImpl10removeVlanEsNS0_13InterfaceTypeESt8functionIFvNS_6common9ErrorCodeEEE=so_stub_for_libtelux_data
-Wl,--defsym=_ZN5telux4data3net15VlanManagerImpl13queryVlanInfoESt8functionIFvRKSt6vectorINS0_10VlanConfigESaIS5_EENS_6common9ErrorCodeEEE=so_stub_for_libtelux_data
-Wl,--defsym=_ZN5telux4data3net15VlanManagerImpl14bindToBackhaulENS1_14VlanBindConfigESt8functionIFvNS_6common9ErrorCodeEEE=so_stub_for_libtelux_data
-Wl,--defsym=_ZN5telux4data3net15VlanManagerImpl15bindWithProfileEiiSt8functionIFvNS_6common9ErrorCodeEEE6SlotId=so_stub_for_libtelux_data
-Wl,--defsym=_ZN5telux4data3net15VlanManagerImpl16getOperationTypeEv=so_stub_for_libtelux_data
-Wl,--defsym=_ZN5telux4data3net15VlanManagerImpl16getServiceStatusEv=so_stub_for_libtelux_data
-Wl,--defsym=_ZN5telux4data3net15VlanManagerImpl16isSubsystemReadyEv=so_stub_for_libtelux_data
-Wl,--defsym=_ZN5telux4data3net15VlanManagerImpl16onSubsystemReadyEv=so_stub_for_libtelux_data
-Wl,--defsym=_ZN5telux4data3net15VlanManagerImpl16registerListenerESt8weak_ptrINS1_13IVlanListenerEE=so_stub_for_libtelux_data
-Wl,--defsym=_ZN5telux4data3net15VlanManagerImpl17setSubsystemReadyEb=so_stub_for_libtelux_data
-Wl,--defsym=_ZN5telux4data3net15VlanManagerImpl17unbindFromProfileEiiSt8functionIFvNS_6common9ErrorCodeEEE6SlotId=so_stub_for_libtelux_data
-Wl,--defsym=_ZN5telux4data3net15VlanManagerImpl18deregisterListenerESt8weak_ptrINS1_13IVlanListenerEE=so_stub_for_libtelux_data
-Wl,--defsym=_ZN5telux4data3net15VlanManagerImpl18invokeInitCallbackENS_6common13ServiceStatusE=so_stub_for_libtelux_data
-Wl,--defsym=_ZN5telux4data3net15VlanManagerImpl18setSubSystemStatusENS_6common13ServiceStatusE=so_stub_for_libtelux_data
-Wl,--defsym=_ZN5telux4data3net15VlanManagerImpl18unbindFromBackhaulENS1_14VlanBindConfigESt8functionIFvNS_6common9ErrorCodeEEE=so_stub_for_libtelux_data
-Wl,--defsym=_ZN5telux4data3net15VlanManagerImpl20queryVlanMappingListESt8functionIFvRKNSt7__cxx114listISt4pairIiiESaIS7_EEENS_6common9ErrorCodeEEE6SlotId=so_stub_for_libtelux_data
-Wl,--defsym=_ZN5telux4data3net15VlanManagerImpl21onServiceStatusChangeENS_6common13ServiceStatusE=so_stub_for_libtelux_data
-Wl,--defsym=_ZN5telux4data3net15VlanManagerImpl21waitForInitializationEv=so_stub_for_libtelux_data
-Wl,--defsym=_ZN5telux4data3net15VlanManagerImpl23onHwAccelerationChangedENS0_12ServiceStateE=so_stub_for_libtelux_data
-Wl,--defsym=_ZN5telux4data3net15VlanManagerImpl27queryVlanToBackhaulBindingsENS0_12BackhaulTypeESt8functionIFvSt6vectorINS1_14VlanBindConfigESaIS6_EENS_6common9ErrorCodeEEE6SlotId=so_stub_for_libtelux_data
-Wl,--defsym=_ZN5telux4data3net15VlanManagerImpl4initESt8functionIFvNS_6common13ServiceStatusEEE=so_stub_for_libtelux_data
-Wl,--defsym=_ZN5telux4data3net15VlanManagerImpl7cleanupEv=so_stub_for_libtelux_data
-Wl,--defsym=_ZN5telux4data3net15VlanManagerImpl8initSyncEv=so_stub_for_libtelux_data
-Wl,--defsym=_ZN5telux4data3net15VlanManagerImplC1ENS0_13OperationTypeESt10shared_ptrINS0_9QcmClientEE=so_stub_for_libtelux_data
-Wl,--defsym=_ZN5telux4data3net15VlanManagerImplC2ENS0_13OperationTypeESt10shared_ptrINS0_9QcmClientEE=so_stub_for_libtelux_data
-Wl,--defsym=_ZN5telux4data3net15VlanManagerImplD0Ev=so_stub_for_libtelux_data
-Wl,--defsym=_ZN5telux4data3net15VlanManagerImplD1Ev=so_stub_for_libtelux_data
-Wl,--defsym=_ZN5telux4data3net15VlanManagerImplD2Ev=so_stub_for_libtelux_data
-Wl,--defsym=_ZN5telux4data3net16L2tpTunnelConfigC1EOS2_=so_stub_for_libtelux_data
-Wl,--defsym=_ZN5telux4data3net16L2tpTunnelConfigC1ERKS2_=so_stub_for_libtelux_data
-Wl,--defsym=_ZN5telux4data3net16L2tpTunnelConfigC2EOS2_=so_stub_for_libtelux_data
-Wl,--defsym=_ZN5telux4data3net16L2tpTunnelConfigC2ERKS2_=so_stub_for_libtelux_data
-Wl,--defsym=_ZN5telux4data3net16L2tpTunnelConfigD1Ev=so_stub_for_libtelux_data
-Wl,--defsym=_ZN5telux4data3net16L2tpTunnelConfigD2Ev=so_stub_for_libtelux_data
-Wl,--defsym=_ZN5telux4data3net16SocksManagerImpl11enableSocksEbSt8functionIFvNS_6common9ErrorCodeEEE=so_stub_for_libtelux_data
-Wl,--defsym=_ZN5telux4data3net16SocksManagerImpl16getOperationTypeEv=so_stub_for_libtelux_data
-Wl,--defsym=_ZN5telux4data3net16SocksManagerImpl16getServiceStatusEv=so_stub_for_libtelux_data
-Wl,--defsym=_ZN5telux4data3net16SocksManagerImpl16isSubsystemReadyEv=so_stub_for_libtelux_data
-Wl,--defsym=_ZN5telux4data3net16SocksManagerImpl16onSubsystemReadyEv=so_stub_for_libtelux_data
-Wl,--defsym=_ZN5telux4data3net16SocksManagerImpl16registerListenerESt8weak_ptrINS1_14ISocksListenerEE=so_stub_for_libtelux_data
-Wl,--defsym=_ZN5telux4data3net16SocksManagerImpl17setSubsystemReadyEb=so_stub_for_libtelux_data
-Wl,--defsym=_ZN5telux4data3net16SocksManagerImpl18deregisterListenerESt8weak_ptrINS1_14ISocksListenerEE=so_stub_for_libtelux_data
-Wl,--defsym=_ZN5telux4data3net16SocksManagerImpl18invokeInitCallbackENS_6common13ServiceStatusE=so_stub_for_libtelux_data
-Wl,--defsym=_ZN5telux4data3net16SocksManagerImpl18setSubSystemStatusENS_6common13ServiceStatusE=so_stub_for_libtelux_data
-Wl,--defsym=_ZN5telux4data3net16SocksManagerImpl21onServiceStatusChangeENS_6common13ServiceStatusE=so_stub_for_libtelux_data
-Wl,--defsym=_ZN5telux4data3net16SocksManagerImpl21waitForInitializationEv=so_stub_for_libtelux_data
-Wl,--defsym=_ZN5telux4data3net16SocksManagerImpl4initESt8functionIFvNS_6common13ServiceStatusEEE=so_stub_for_libtelux_data
-Wl,--defsym=_ZN5telux4data3net16SocksManagerImpl7cleanupEv=so_stub_for_libtelux_data
-Wl,--defsym=_ZN5telux4data3net16SocksManagerImpl8initSyncEv=so_stub_for_libtelux_data
-Wl,--defsym=_ZN5telux4data3net16SocksManagerImplC1ENS0_13OperationTypeESt10shared_ptrINS0_9QcmClientEE=so_stub_for_libtelux_data
-Wl,--defsym=_ZN5telux4data3net16SocksManagerImplC2ENS0_13OperationTypeESt10shared_ptrINS0_9QcmClientEE=so_stub_for_libtelux_data
-Wl,--defsym=_ZN5telux4data3net16SocksManagerImplD0Ev=so_stub_for_libtelux_data
-Wl,--defsym=_ZN5telux4data3net16SocksManagerImplD1Ev=so_stub_for_libtelux_data
-Wl,--defsym=_ZN5telux4data3net16SocksManagerImplD2Ev=so_stub_for_libtelux_data
-Wl,--defsym=_ZN5telux4data3net17BridgeManagerImpl12enableBridgeEbSt8functionIFvNS_6common9ErrorCodeEEE=so_stub_for_libtelux_data
-Wl,--defsym=_ZN5telux4data3net17BridgeManagerImpl12removeBridgeENSt7__cxx1112basic_stringIcSt11char_traitsIcESaIcEEESt8functionIFvNS_6common9ErrorCodeEEE=so_stub_for_libtelux_data
-Wl,--defsym=_ZN5telux4data3net17BridgeManagerImpl16getServiceStatusEv=so_stub_for_libtelux_data
-Wl,--defsym=_ZN5telux4data3net17BridgeManagerImpl16isSubsystemReadyEv=so_stub_for_libtelux_data
-Wl,--defsym=_ZN5telux4data3net17BridgeManagerImpl16onSubsystemReadyEv=so_stub_for_libtelux_data
-Wl,--defsym=_ZN5telux4data3net17BridgeManagerImpl16registerListenerESt8weak_ptrINS1_15IBridgeListenerEE=so_stub_for_libtelux_data
-Wl,--defsym=_ZN5telux4data3net17BridgeManagerImpl17requestBridgeInfoESt8functionIFvRKSt6vectorINS1_10BridgeInfoESaIS5_EENS_6common9ErrorCodeEEE=so_stub_for_libtelux_data
-Wl,--defsym=_ZN5telux4data3net17BridgeManagerImpl17setSubsystemReadyEb=so_stub_for_libtelux_data
-Wl,--defsym=_ZN5telux4data3net17BridgeManagerImpl18deregisterListenerESt8weak_ptrINS1_15IBridgeListenerEE=so_stub_for_libtelux_data
-Wl,--defsym=_ZN5telux4data3net17BridgeManagerImpl18getInterfaceBridgeENS0_13InterfaceTypeERj=so_stub_for_libtelux_data
-Wl,--defsym=_ZN5telux4data3net17BridgeManagerImpl18invokeInitCallbackENS_6common13ServiceStatusE=so_stub_for_libtelux_data
-Wl,--defsym=_ZN5telux4data3net17BridgeManagerImpl18setInterfaceBridgeENS0_13InterfaceTypeEj=so_stub_for_libtelux_data
-Wl,--defsym=_ZN5telux4data3net17BridgeManagerImpl18setSubSystemStatusENS_6common13ServiceStatusE=so_stub_for_libtelux_data
-Wl,--defsym=_ZN5telux4data3net17BridgeManagerImpl21onServiceStatusChangeENS_6common13ServiceStatusE=so_stub_for_libtelux_data
-Wl,--defsym=_ZN5telux4data3net17BridgeManagerImpl21waitForInitializationEv=so_stub_for_libtelux_data
-Wl,--defsym=_ZN5telux4data3net17BridgeManagerImpl4initESt8functionIFvNS_6common13ServiceStatusEEE=so_stub_for_libtelux_data
-Wl,--defsym=_ZN5telux4data3net17BridgeManagerImpl8initSyncEv=so_stub_for_libtelux_data
-Wl,--defsym=_ZN5telux4data3net17BridgeManagerImpl9addBridgeENS1_10BridgeInfoESt8functionIFvNS_6common9ErrorCodeEEE=so_stub_for_libtelux_data
-Wl,--defsym=_ZN5telux4data3net17BridgeManagerImplC1ESt10shared_ptrINS0_9QcmClientEE=so_stub_for_libtelux_data
-Wl,--defsym=_ZN5telux4data3net17BridgeManagerImplC2ESt10shared_ptrINS0_9QcmClientEE=so_stub_for_libtelux_data
-Wl,--defsym=_ZN5telux4data3net17BridgeManagerImplD0Ev=so_stub_for_libtelux_data
-Wl,--defsym=_ZN5telux4data3net17BridgeManagerImplD1Ev=so_stub_for_libtelux_data
-Wl,--defsym=_ZN5telux4data3net17BridgeManagerImplD2Ev=so_stub_for_libtelux_data
-Wl,--defsym=_ZN5telux4data3net17FirewallEntryImpl12getDirectionEv=so_stub_for_libtelux_data
-Wl,--defsym=_ZN5telux4data3net17FirewallEntryImpl15getIpFamilyTypeEv=so_stub_for_libtelux_data
-Wl,--defsym=_ZN5telux4data3net17FirewallEntryImpl18getIProtocolFilterEv=so_stub_for_libtelux_data
-Wl,--defsym=_ZN5telux4data3net17FirewallEntryImpl9getHandleEv=so_stub_for_libtelux_data
-Wl,--defsym=_ZN5telux4data3net17FirewallEntryImpl9setHandleEj=so_stub_for_libtelux_data
-Wl,--defsym=_ZN5telux4data3net17FirewallEntryImplC1ESt10shared_ptrINS0_9IIpFilterEENS0_9DirectionENS0_12IpFamilyTypeE=so_stub_for_libtelux_data
-Wl,--defsym=_ZN5telux4data3net17FirewallEntryImplC2ESt10shared_ptrINS0_9IIpFilterEENS0_9DirectionENS0_12IpFamilyTypeE=so_stub_for_libtelux_data
-Wl,--defsym=_ZN5telux4data3net17FirewallEntryImplD0Ev=so_stub_for_libtelux_data
-Wl,--defsym=_ZN5telux4data3net17FirewallEntryImplD1Ev=so_stub_for_libtelux_data
-Wl,--defsym=_ZN5telux4data3net17FirewallEntryImplD2Ev=so_stub_for_libtelux_data
-Wl,--defsym=_ZN5telux4data3net19FirewallManagerImpl10disableDmzEiNS0_12IpFamilyTypeESt8functionIFvNS_6common9ErrorCodeEEE6SlotId=so_stub_for_libtelux_data
-Wl,--defsym=_ZN5telux4data3net19FirewallManagerImpl10disableDmzENS0_12BackhaulInfoENS0_12IpFamilyTypeESt8functionIFvNS_6common9ErrorCodeEEE=so_stub_for_libtelux_data
-Wl,--defsym=_ZN5telux4data3net19FirewallManagerImpl11setFirewallEibbSt8functionIFvNS_6common9ErrorCodeEEE6SlotId=so_stub_for_libtelux_data
-Wl,--defsym=_ZN5telux4data3net19FirewallManagerImpl15requestDmzEntryEiSt8functionIFvSt6vectorINSt7__cxx1112basic_stringIcSt11char_traitsIcESaIcEEESaISA_EENS_6common9ErrorCodeEEE6SlotId=so_stub_for_libtelux_data
-Wl,--defsym=_ZN5telux4data3net19FirewallManagerImpl15requestDmzEntryENS0_12BackhaulInfoESt8functionIFvSt6vectorINS1_9DmzConfigESaIS6_EENS_6common9ErrorCodeEEE=so_stub_for_libtelux_data
-Wl,--defsym=_ZN5telux4data3net19FirewallManagerImpl16addFirewallEntryEiSt10shared_ptrINS1_14IFirewallEntryEESt8functionIFvNS_6common9ErrorCodeEEE6SlotId=so_stub_for_libtelux_data
-Wl,--defsym=_ZN5telux4data3net19FirewallManagerImpl16addFirewallEntryENS1_17FirewallEntryInfoESt8functionIFvjNS_6common9ErrorCodeEEE=so_stub_for_libtelux_data
-Wl,--defsym=_ZN5telux4data3net19FirewallManagerImpl16getOperationTypeEv=so_stub_for_libtelux_data
-Wl,--defsym=_ZN5telux4data3net19FirewallManagerImpl16getServiceStatusEv=so_stub_for_libtelux_data
-Wl,--defsym=_ZN5telux4data3net19FirewallManagerImpl16isSubsystemReadyEv=so_stub_for_libtelux_data
-Wl,--defsym=_ZN5telux4data3net19FirewallManagerImpl16onSubsystemReadyEv=so_stub_for_libtelux_data
-Wl,--defsym=_ZN5telux4data3net19FirewallManagerImpl16registerListenerESt8weak_ptrINS1_17IFirewallListenerEE=so_stub_for_libtelux_data
-Wl,--defsym=_ZN5telux4data3net19FirewallManagerImpl17setFirewallConfigENS1_14FirewallConfigESt8functionIFvNS_6common9ErrorCodeEEE=so_stub_for_libtelux_data
-Wl,--defsym=_ZN5telux4data3net19FirewallManagerImpl17setSubsystemReadyEb=so_stub_for_libtelux_data
-Wl,--defsym=_ZN5telux4data3net19FirewallManagerImpl18deregisterListenerESt8weak_ptrINS1_17IFirewallListenerEE=so_stub_for_libtelux_data
-Wl,--defsym=_ZN5telux4data3net19FirewallManagerImpl18invokeInitCallbackENS_6common13ServiceStatusE=so_stub_for_libtelux_data
-Wl,--defsym=_ZN5telux4data3net19FirewallManagerImpl18setSubSystemStatusENS_6common13ServiceStatusE=so_stub_for_libtelux_data
-Wl,--defsym=_ZN5telux4data3net19FirewallManagerImpl19removeFirewallEntryEijSt8functionIFvNS_6common9ErrorCodeEEE6SlotId=so_stub_for_libtelux_data
-Wl,--defsym=_ZN5telux4data3net19FirewallManagerImpl19removeFirewallEntryENS0_12BackhaulInfoEjSt8functionIFvNS_6common9ErrorCodeEEE=so_stub_for_libtelux_data
-Wl,--defsym=_ZN5telux4data3net19FirewallManagerImpl21onServiceStatusChangeENS_6common13ServiceStatusE=so_stub_for_libtelux_data
-Wl,--defsym=_ZN5telux4data3net19FirewallManagerImpl21requestFirewallConfigENS0_12BackhaulInfoESt8functionIFvNS1_14FirewallConfigENS_6common9ErrorCodeEEE=so_stub_for_libtelux_data
-Wl,--defsym=_ZN5telux4data3net19FirewallManagerImpl21requestFirewallStatusEiSt8functionIFvbbNS_6common9ErrorCodeEEE6SlotId=so_stub_for_libtelux_data
-Wl,--defsym=_ZN5telux4data3net19FirewallManagerImpl21waitForInitializationEv=so_stub_for_libtelux_data
-Wl,--defsym=_ZN5telux4data3net19FirewallManagerImpl22requestFirewallEntriesEiSt8functionIFvSt6vectorISt10shared_ptrINS1_14IFirewallEntryEESaIS7_EENS_6common9ErrorCodeEEE6SlotId=so_stub_for_libtelux_data
-Wl,--defsym=_ZN5telux4data3net19FirewallManagerImpl22requestFirewallEntriesENS0_12BackhaulInfoESt8functionIFvSt6vectorINS1_17FirewallEntryInfoESaIS6_EENS_6common9ErrorCodeEEE=so_stub_for_libtelux_data
-Wl,--defsym=_ZN5telux4data3net19FirewallManagerImpl30addHwAccelerationFirewallEntryEiSt10shared_ptrINS1_14IFirewallEntryEESt8functionIFvjNS_6common9ErrorCodeEEE6SlotId=so_stub_for_libtelux_data
-Wl,--defsym=_ZN5telux4data3net19FirewallManagerImpl30addHwAccelerationFirewallEntryENS1_17FirewallEntryInfoESt8functionIFvjNS_6common9ErrorCodeEEE=so_stub_for_libtelux_data
-Wl,--defsym=_ZN5telux4data3net19FirewallManagerImpl36requestHwAccelerationFirewallEntriesEiSt8functionIFvSt6vectorISt10shared_ptrINS1_14IFirewallEntryEESaIS7_EENS_6common9ErrorCodeEEE6SlotId=so_stub_for_libtelux_data
-Wl,--defsym=_ZN5telux4data3net19FirewallManagerImpl36requestHwAccelerationFirewallEntriesENS0_12BackhaulInfoESt8functionIFvSt6vectorINS1_17FirewallEntryInfoESaIS6_EENS_6common9ErrorCodeEEE=so_stub_for_libtelux_data
-Wl,--defsym=_ZN5telux4data3net19FirewallManagerImpl4initESt8functionIFvNS_6common13ServiceStatusEEE=so_stub_for_libtelux_data
-Wl,--defsym=_ZN5telux4data3net19FirewallManagerImpl7cleanupEv=so_stub_for_libtelux_data
-Wl,--defsym=_ZN5telux4data3net19FirewallManagerImpl8initSyncEv=so_stub_for_libtelux_data
-Wl,--defsym=_ZN5telux4data3net19FirewallManagerImpl9enableDmzEiNSt7__cxx1112basic_stringIcSt11char_traitsIcESaIcEEESt8functionIFvNS_6common9ErrorCodeEEE6SlotId=so_stub_for_libtelux_data
-Wl,--defsym=_ZN5telux4data3net19FirewallManagerImpl9enableDmzENS1_9DmzConfigESt8functionIFvNS_6common9ErrorCodeEEE=so_stub_for_libtelux_data
-Wl,--defsym=_ZN5telux4data3net19FirewallManagerImplC1ENS0_13OperationTypeESt10shared_ptrINS0_9QcmClientEE=so_stub_for_libtelux_data
-Wl,--defsym=_ZN5telux4data3net19FirewallManagerImplC2ENS0_13OperationTypeESt10shared_ptrINS0_9QcmClientEE=so_stub_for_libtelux_data
-Wl,--defsym=_ZN5telux4data3net19FirewallManagerImplD0Ev=so_stub_for_libtelux_data
-Wl,--defsym=_ZN5telux4data3net19FirewallManagerImplD1Ev=so_stub_for_libtelux_data
-Wl,--defsym=_ZN5telux4data3net19FirewallManagerImplD2Ev=so_stub_for_libtelux_data
-Wl,--defsym=_ZN5telux4data8IPv4InfoC1ERKS1_=so_stub_for_libtelux_data
-Wl,--defsym=_ZN5telux4data8IPv4InfoC2ERKS1_=so_stub_for_libtelux_data
-Wl,--defsym=_ZN5telux4data8IPv4InfoD1Ev=so_stub_for_libtelux_data
-Wl,--defsym=_ZN5telux4data8IPv4InfoD2Ev=so_stub_for_libtelux_data
-Wl,--defsym=_ZN5telux4data8IPv6InfoD1Ev=so_stub_for_libtelux_data
-Wl,--defsym=_ZN5telux4data8IPv6InfoD2Ev=so_stub_for_libtelux_data
-Wl,--defsym=_ZN5telux4data9DsiClient11getDataCallEii=so_stub_for_libtelux_data
-Wl,--defsym=_ZN5telux4data9DsiClient11getDataCallENSt7__cxx1112basic_stringIcSt11char_traitsIcESaIcEEE=so_stub_for_libtelux_data
-Wl,--defsym=_ZN5telux4data9DsiClient11makeDormantESt8functionIFvNS_6common9ErrorCodeEEE=so_stub_for_libtelux_data
-Wl,--defsym=_ZN5telux4data9DsiClient12getDsiClientEv=so_stub_for_libtelux_data
-Wl,--defsym=_ZN5telux4data9DsiClient13addDataFilterE6SlotIdiiRSt10shared_ptrINS0_9IIpFilterEESt8functionIFvNS_6common9ErrorCodeEEE=so_stub_for_libtelux_data
-Wl,--defsym=_ZN5telux4data9DsiClient13addDataFilterE6SlotIdRSt10shared_ptrINS0_9IIpFilterEESt8functionIFvNS_6common9ErrorCodeEEE=so_stub_for_libtelux_data
-Wl,--defsym=_ZN5telux4data9DsiClient14expectDsiMode_E=so_stub_for_libtelux_data
-Wl,--defsym=_ZN5telux4data9DsiClient14updateDataCallEPv13dsi_net_evt_tRSt10shared_ptrINS0_12DataCallImplEE=so_stub_for_libtelux_data
-Wl,--defsym=_ZN5telux4data9DsiClient15dsiInitCallbackEtPv=so_stub_for_libtelux_data
-Wl,--defsym=_ZN5telux4data9DsiClient15getDataSrvcHndlEPFvPvS2_13dsi_net_evt_tP20dsi_evt_payload_ex_tES2_t=so_stub_for_libtelux_data
-Wl,--defsym=_ZN5telux4data9DsiClient15getDataSrvcHndlEPFvPvS2_13dsi_net_evt_tP20dsi_evt_payload_ex_tEt6SlotIdS2_=so_stub_for_libtelux_data
-Wl,--defsym=_ZN5telux4data9DsiClient15getDataSrvcHndlEPFvPvS2_13dsi_net_evt_tP20dsi_evt_payload_ex_tEtNSt7__cxx1112basic_stringIcSt11char_traitsIcESaIcEEES2_=so_stub_for_libtelux_data
-Wl,--defsym=_ZN5telux4data9DsiClient16formatSocketAddrEP16sockaddr_storagejbPcib=so_stub_for_libtelux_data
-Wl,--defsym=_ZN5telux4data9DsiClient16registerListenerESt8weak_ptrINS0_23IDataConnectionListenerEE=so_stub_for_libtelux_data
-Wl,--defsym=_ZN5telux4data9DsiClient16releaseDsiHandleEPv=so_stub_for_libtelux_data
-Wl,--defsym=_ZN5telux4data9DsiClient16updateIpAddrInfoEP15dsi_addr_info_siRSt10shared_ptrINS0_12DataCallImplEE=so_stub_for_libtelux_data
-Wl,--defsym=_ZN5telux4data9DsiClient17getDataFilterModeE6SlotIdNSt7__cxx1112basic_stringIcSt11char_traitsIcESaIcEEESt8functionIFvNS0_16DataRestrictModeENS_6common9ErrorCodeEEE=so_stub_for_libtelux_data
-Wl,--defsym=_ZN5telux4data9DsiClient17getDataFilterModeE6SlotIdSt8functionIFvNS0_16DataRestrictModeENS_6common9ErrorCodeEEE=so_stub_for_libtelux_data
-Wl,--defsym=_ZN5telux4data9DsiClient17initRxMetaDataReqER33dsi_v2x_rx_metadata_setting_req_tjbSt10shared_ptrISt6vectorIjSaIjEEE=so_stub_for_libtelux_data
-Wl,--defsym=_ZN5telux4data9DsiClient17initServiceSubReqER36dsi_v2x_service_subscribe_req_info_tjtSt10shared_ptrISt6vectorIjSaIjEEE33dsi_v2x_service_sub_action_type_t=so_stub_for_libtelux_data
-Wl,--defsym=_ZN5telux4data9DsiClient17onCv2xIfaceChangeEb=so_stub_for_libtelux_data
-Wl,--defsym=_ZN5telux4data9DsiClient17setDataCallParamsERKPvii=so_stub_for_libtelux_data
-Wl,--defsym=_ZN5telux4data9DsiClient17setDataFilterModeE6SlotIdhhSt8functionIFvNS_6common9ErrorCodeEEE=so_stub_for_libtelux_data
-Wl,--defsym=_ZN5telux4data9DsiClient17setDataFilterModeE6SlotIdiihhSt8functionIFvNS_6common9ErrorCodeEEE=so_stub_for_libtelux_data
-Wl,--defsym=_ZN5telux4data9DsiClient17updateSpsFlowSyncEjNSt7__cxx1112basic_stringIcSt11char_traitsIcESaIcEEESt10shared_ptrINS_4cv2x11ICv2xTxFlowEERKNS9_11SpsFlowInfoE=so_stub_for_libtelux_data
-Wl,--defsym=_ZN5telux4data9DsiClient18deregisterListenerESt8weak_ptrINS0_23IDataConnectionListenerEE=so_stub_for_libtelux_data
-Wl,--defsym=_ZN5telux4data9DsiClient19dsiToDataCallStatusE13dsi_net_evt_t=so_stub_for_libtelux_data
-Wl,--defsym=_ZN5telux4data9DsiClient19periodicityToUint32ENS_4cv2x11PeriodicityE=so_stub_for_libtelux_data
-Wl,--defsym=_ZN5telux4data9DsiClient19registerSpsFlowSyncEjjRKNS_4cv2x11SpsFlowInfoEtbtNSt7__cxx1112basic_stringIcSt11char_traitsIcESaIcEEERh=so_stub_for_libtelux_data
-Wl,--defsym=_ZN5telux4data9DsiClient19removeAllDataFilterE6SlotIdiiSt8functionIFvNS_6common9ErrorCodeEEE=so_stub_for_libtelux_data
-Wl,--defsym=_ZN5telux4data9DsiClient19removeAllDataFilterE6SlotIdSt8functionIFvNS_6common9ErrorCodeEEE=so_stub_for_libtelux_data
-Wl,--defsym=_ZN5telux4data9DsiClient19uint32ToPeriodicityEj=so_stub_for_libtelux_data
-Wl,--defsym=_ZN5telux4data9DsiClient20convertRespToSpsInfoERK32dsi_v2x_sps_flow_get_info_resp_tRNS_4cv2x11SpsFlowInfoE=so_stub_for_libtelux_data
-Wl,--defsym=_ZN5telux4data9DsiClient20enableRxMetaDataSyncEjbRKNSt7__cxx1112basic_stringIcSt11char_traitsIcESaIcEEESt10shared_ptrISt6vectorIjSaIjEEE=so_stub_for_libtelux_data
-Wl,--defsym=_ZN5telux4data9DsiClient20initSpsFlowRegReqMsgER31dsi_v2x_sps_flow_reg_req_info_tjjRKNS_4cv2x11SpsFlowInfoEtbt=so_stub_for_libtelux_data
-Wl,--defsym=_ZN5telux4data9DsiClient21deregisterSpsFlowSyncEjNSt7__cxx1112basic_stringIcSt11char_traitsIcESaIcEEEjb=so_stub_for_libtelux_data
-Wl,--defsym=_ZN5telux4data9DsiClient22registerNonSpsFlowSyncEjNSt7__cxx1112basic_stringIcSt11char_traitsIcESaIcEEEjRKNS_4cv2x13EventFlowInfoEt19dsi_protocol_type_t=so_stub_for_libtelux_data
-Wl,--defsym=_ZN5telux4data9DsiClient22requestRuntimeSettingsERKNSt7__cxx1112basic_stringIcSt11char_traitsIcESaIcEEERSt6vectorINS_4cv2x19DataSessionSettingsESaISC_EE=so_stub_for_libtelux_data
-Wl,--defsym=_ZN5telux4data9DsiClient22requestSpsFlowInfoSyncEjNSt7__cxx1112basic_stringIcSt11char_traitsIcESaIcEEEhRNS_4cv2x11SpsFlowInfoE=so_stub_for_libtelux_data
-Wl,--defsym=_ZN5telux4data9DsiClient23handleDsiStatusCallbackERKSt10shared_ptrINS0_21DsiStatusCallbackDataEE=so_stub_for_libtelux_data
-Wl,--defsym=_ZN5telux4data9DsiClient23initNonSpsFlowRegReqMsgER35dsi_v2x_non_sps_flow_reg_req_info_tjjRKNS_4cv2x13EventFlowInfoEt19dsi_protocol_type_t=so_stub_for_libtelux_data
-Wl,--defsym=_ZN5telux4data9DsiClient23initSpsFlowUpdateReqMsgER34dsi_v2x_sps_flow_update_req_info_tjSt10shared_ptrINS_4cv2x11ICv2xTxFlowEERKNS5_11SpsFlowInfoE=so_stub_for_libtelux_data
-Wl,--defsym=_ZN5telux4data9DsiClient24deregisterNonSpsFlowSyncEjNSt7__cxx1112basic_stringIcSt11char_traitsIcESaIcEEEjt=so_stub_for_libtelux_data
-Wl,--defsym=_ZN5telux4data9DsiClient24deregisterNonSpsFlowSyncEjNSt7__cxx1112basic_stringIcSt11char_traitsIcESaIcEEERSt6vectorISt10shared_ptrINS_4cv2x11ICv2xTxFlowEESaISC_EE=so_stub_for_libtelux_data
-Wl,--defsym=_ZN5telux4data9DsiClient25getAvailableDataListenersERSt6vectorISt10shared_ptrINS_6common12ISDKListenerEESaIS6_EE=so_stub_for_libtelux_data
-Wl,--defsym=_ZN5telux4data9DsiClient25initNonSpsFlowDeregReqMsgER37dsi_v2x_non_sps_flow_dereg_req_info_tjjt=so_stub_for_libtelux_data
-Wl,--defsym=_ZN5telux4data9DsiClient25initNonSpsFlowDeregReqMsgER37dsi_v2x_non_sps_flow_dereg_req_info_tjRKSt6vectorISt10shared_ptrINS_4cv2x11ICv2xTxFlowEESaIS8_EE=so_stub_for_libtelux_data
-Wl,--defsym=_ZN5telux4data9DsiClient25notifyDataCallInfoChangedERKSt10shared_ptrINS0_9IDataCallEE=so_stub_for_libtelux_data
-Wl,--defsym=_ZN5telux4data9DsiClient26addServiceSubscriptionSyncEjtNSt7__cxx1112basic_stringIcSt11char_traitsIcESaIcEEESt10shared_ptrISt6vectorIjSaIjEEE=so_stub_for_libtelux_data
-Wl,--defsym=_ZN5telux4data9DsiClient26registerDataFilterListenerESt8weak_ptrINS0_19IDataFilterListenerEE=so_stub_for_libtelux_data
-Wl,--defsym=_ZN5telux4data9DsiClient27notifyDataFilterModeChangedEP10evt_info_s=so_stub_for_libtelux_data
-Wl,--defsym=_ZN5telux4data9DsiClient28deregisterDataFilterListenerESt8weak_ptrINS0_19IDataFilterListenerEE=so_stub_for_libtelux_data
-Wl,--defsym=_ZN5telux4data9DsiClient29removeServiceSubscriptionSyncEjNSt7__cxx1112basic_stringIcSt11char_traitsIcESaIcEEESt10shared_ptrISt6vectorIjSaIjEEEb=so_stub_for_libtelux_data
-Wl,--defsym=_ZN5telux4data9DsiClient4initEv=so_stub_for_libtelux_data
-Wl,--defsym=_ZN5telux4data9DsiClient7cleanupEv=so_stub_for_libtelux_data
-Wl,--defsym=_ZN5telux4data9DsiClient9postEventENS_6common13ServiceStatusEPv=so_stub_for_libtelux_data
-Wl,--defsym=_ZN5telux4data9DsiClientC1Ev=so_stub_for_libtelux_data
-Wl,--defsym=_ZN5telux4data9DsiClientC2Ev=so_stub_for_libtelux_data
-Wl,--defsym=_ZN5telux4data9DsiClientD1Ev=so_stub_for_libtelux_data
-Wl,--defsym=_ZN5telux4data9DsiClientD2Ev=so_stub_for_libtelux_data
-Wl,--defsym=_ZN5telux4data9DsiHelper13logDsiErrTypeE18dsi_v2x_err_type_t=so_stub_for_libtelux_data
-Wl,--defsym=_ZN5telux4data9DsiHelper14dsiErrTypeMap_B5cxx11E=so_stub_for_libtelux_data
-Wl,--defsym=_ZN5telux4data9DsiHelper15dsiNetEventMap_B5cxx11E=so_stub_for_libtelux_data
-Wl,--defsym=_ZN5telux4data9DsiHelper20dsiErrType2ErrorCodeE18dsi_v2x_err_type_t=so_stub_for_libtelux_data
-Wl,--defsym=_ZN5telux4data9DsiHelper24spsFlowRegReqMsgToStringB5cxx11ERK31dsi_v2x_sps_flow_reg_req_info_t=so_stub_for_libtelux_data
-Wl,--defsym=_ZN5telux4data9DsiHelper25serviceSubsReqMsgToStringB5cxx11ERK36dsi_v2x_service_subscribe_req_info_t=so_stub_for_libtelux_data
-Wl,--defsym=_ZN5telux4data9DsiHelper27nonSpsFlowRegReqMsgToStringB5cxx11ERK35dsi_v2x_non_sps_flow_reg_req_info_t=so_stub_for_libtelux_data
-Wl,--defsym=_ZN5telux4data9DsiHelper27spsFlowUpdateReqMsgToStringB5cxx11ERK34dsi_v2x_sps_flow_update_req_info_t=so_stub_for_libtelux_data
-Wl,--defsym=_ZN5telux4data9EventInfoINS0_21DsiStatusCallbackDataEE7processEv=so_stub_for_libtelux_data
-Wl,--defsym=_ZN5telux4data9EventInfoINS0_21DsiStatusCallbackDataEEC1ERKSt10shared_ptrIS2_ESt8functionIFvS7_EE=so_stub_for_libtelux_data
-Wl,--defsym=_ZN5telux4data9EventInfoINS0_21DsiStatusCallbackDataEEC2ERKSt10shared_ptrIS2_ESt8functionIFvS7_EE=so_stub_for_libtelux_data
-Wl,--defsym=_ZN5telux4data9QcmClient10createVlanENS0_13OperationTypeERKNS0_10VlanConfigESt8functionIFvbNS_6common9ErrorCodeEEE=so_stub_for_libtelux_data
-Wl,--defsym=_ZN5telux4data9QcmClient10disableDmzENS0_13OperationTypeE6SlotIdiNS0_12IpFamilyTypeESt8functionIFvNS_6common9ErrorCodeEEE=so_stub_for_libtelux_data
-Wl,--defsym=_ZN5telux4data9QcmClient10disableDmzENS0_13OperationTypeENS0_12BackhaulInfoENS0_12IpFamilyTypeESt8functionIFvNS_6common9ErrorCodeEEE=so_stub_for_libtelux_data
-Wl,--defsym=_ZN5telux4data9QcmClient10removeVlanENS0_13OperationTypeEsNS0_13InterfaceTypeESt8functionIFvNS_6common9ErrorCodeEEE=so_stub_for_libtelux_data
-Wl,--defsym=_ZN5telux4data9QcmClient11enableSocksEbNS0_13OperationTypeESt8functionIFvNS_6common9ErrorCodeEEE=so_stub_for_libtelux_data
-Wl,--defsym=_ZN5telux4data9QcmClient11getDataCallEiNS0_13OperationTypeE6SlotId=so_stub_for_libtelux_data
-Wl,--defsym=_ZN5telux4data9QcmClient11getDataCallEj=so_stub_for_libtelux_data
-Wl,--defsym=_ZN5telux4data9QcmClient11getIpConfigERKNS0_14IpConfigParamsERNS0_8IpConfigE=so_stub_for_libtelux_data
-Wl,--defsym=_ZN5telux4data9QcmClient11OnQcmapDownEi=so_stub_for_libtelux_data
-Wl,--defsym=_ZN5telux4data9QcmClient11OnQcmapDownENS0_13OperationTypeE=so_stub_for_libtelux_data
-Wl,--defsym=_ZN5telux4data9QcmClient11setFirewallENS0_13OperationTypeE6SlotIdibbSt8functionIFvNS_6common9ErrorCodeEEE=so_stub_for_libtelux_data
-Wl,--defsym=_ZN5telux4data9QcmClient11setIpConfigERKNS0_14IpConfigParamsERKNS0_8IpConfigE=so_stub_for_libtelux_data
-Wl,--defsym=_ZN5telux4data9QcmClient12addQoSFilterENS0_3net15QoSFilterConfigERjNS0_13OperationTypeERNS2_18QoSFilterErrorCodeE=so_stub_for_libtelux_data
-Wl,--defsym=_ZN5telux4data9QcmClient12cacheNewCallEiiRSt10shared_ptrINS0_12DataCallImplEENS0_13OperationTypeE6SlotId=so_stub_for_libtelux_data
-Wl,--defsym=_ZN5telux4data9QcmClient12enableBridgeENS0_13OperationTypeEbSt8functionIFvNS_6common9ErrorCodeEEE=so_stub_for_libtelux_data
-Wl,--defsym=_ZN5telux4data9QcmClient12getProfileIdERiRK27qcmap_wwan_policy_list_infoj=so_stub_for_libtelux_data
-Wl,--defsym=_ZN5telux4data9QcmClient12getQosFilterEjRSt10shared_ptrINS0_3net10IQoSFilterEENS0_13OperationTypeE=so_stub_for_libtelux_data
-Wl,--defsym=_ZN5telux4data9QcmClient12removeBridgeENS0_13OperationTypeENSt7__cxx1112basic_stringIcSt11char_traitsIcESaIcEEESt8functionIFvNS_6common9ErrorCodeEEE=so_stub_for_libtelux_data
-Wl,--defsym=_ZN5telux4data9QcmClient12stopDataCallEii6SlotIdSt8functionIFvRKSt10shared_ptrINS0_9IDataCallEENS_6common9ErrorCodeEEENS0_13OperationTypeE=so_stub_for_libtelux_data
-Wl,--defsym=_ZN5telux4data9QcmClient13addBridgeSyncENS0_13OperationTypeENS0_3net10BridgeInfoESt8functionIFvNS_6common9ErrorCodeEEE=so_stub_for_libtelux_data
-Wl,--defsym=_ZN5telux4data9QcmClient13enableDmzSyncENS0_13OperationTypeE6SlotIdiNSt7__cxx1112basic_stringIcSt11char_traitsIcESaIcEEESt8functionIFvNS_6common9ErrorCodeEEE=so_stub_for_libtelux_data
-Wl,--defsym=_ZN5telux4data9QcmClient13enableDmzSyncENS0_13OperationTypeENS0_3net9DmzConfigESt8functionIFvNS_6common9ErrorCodeEEE=so_stub_for_libtelux_data
-Wl,--defsym=_ZN5telux4data9QcmClient13exitingMutex_E=so_stub_for_libtelux_data
-Wl,--defsym=_ZN5telux4data9QcmClient13getQosFiltersERSt6vectorISt10shared_ptrINS0_3net10IQoSFilterEESaIS6_EENS0_13OperationTypeE=so_stub_for_libtelux_data
-Wl,--defsym=_ZN5telux4data9QcmClient13queryVlanInfoENS0_13OperationTypeESt8functionIFvRKSt6vectorINS0_10VlanConfigESaIS5_EENS_6common9ErrorCodeEEE=so_stub_for_libtelux_data
-Wl,--defsym=_ZN5telux4data9QcmClient13startDataCallEii6SlotIdSt8functionIFvRKSt10shared_ptrINS0_9IDataCallEENS_6common9ErrorCodeEEENS0_13OperationTypeENSt7__cxx1112basic_stringIcSt11char_traitsIcESaIcEEE=so_stub_for_libtelux_data
-Wl,--defsym=_ZN5telux4data9QcmClient14bindToBackhaulENS0_13OperationTypeENS0_3net14VlanBindConfigESt8functionIFvNS_6common9ErrorCodeEEE=so_stub_for_libtelux_data
-Wl,--defsym=_ZN5telux4data9QcmClient14createVlanSyncENS0_13OperationTypeERKNS0_10VlanConfigESt8functionIFvbNS_6common9ErrorCodeEEE=so_stub_for_libtelux_data
-Wl,--defsym=_ZN5telux4data9QcmClient14disableDmzSyncENS0_13OperationTypeE6SlotIdiNS0_12IpFamilyTypeESt8functionIFvNS_6common9ErrorCodeEEE=so_stub_for_libtelux_data
-Wl,--defsym=_ZN5telux4data9QcmClient14disableDmzSyncENS0_13OperationTypeENS0_12BackhaulInfoENS0_12IpFamilyTypeESt8functionIFvNS_6common9ErrorCodeEEE=so_stub_for_libtelux_data
-Wl,--defsym=_ZN5telux4data9QcmClient14enableMobileAPENS0_13OperationTypeE=so_stub_for_libtelux_data
-Wl,--defsym=_ZN5telux4data9QcmClient14getQcmapClientEv=so_stub_for_libtelux_data
-Wl,--defsym=_ZN5telux4data9QcmClient14isDataSubSysUpEv=so_stub_for_libtelux_data
-Wl,--defsym=_ZN5telux4data9QcmClient14qcmToQoSFilterEjRK24qcmap_qos_filter_param_t=so_stub_for_libtelux_data
-Wl,--defsym=_ZN5telux4data9QcmClient14removeVlanSyncENS0_13OperationTypeEsNS0_13InterfaceTypeESt8functionIFvNS_6common9ErrorCodeEEE=so_stub_for_libtelux_data
-Wl,--defsym=_ZN5telux4data9QcmClient14setRoamingModeEbhNS0_13OperationTypeESt8functionIFvNS_6common9ErrorCodeEEE6SlotId=so_stub_for_libtelux_data
-Wl,--defsym=_ZN5telux4data9QcmClient14switchBackHaulENS0_13OperationTypeENS0_12BackhaulInfoES3_bSt8functionIFvNS_6common9ErrorCodeEEE=so_stub_for_libtelux_data
-Wl,--defsym=_ZN5telux4data9QcmClient15bindWithProfileENS0_13OperationTypeE6SlotIdiiSt8functionIFvNS_6common9ErrorCodeEEE=so_stub_for_libtelux_data
-Wl,--defsym=_ZN5telux4data9QcmClient15deleteQosFilterEjNS0_13OperationTypeE=so_stub_for_libtelux_data
-Wl,--defsym=_ZN5telux4data9QcmClient15enableSocksSyncEbNS0_13OperationTypeESt8functionIFvNS_6common9ErrorCodeEEE=so_stub_for_libtelux_data
-Wl,--defsym=_ZN5telux4data9QcmClient15requestDmzEntryENS0_13OperationTypeE6SlotIdiSt8functionIFvSt6vectorINSt7__cxx1112basic_stringIcSt11char_traitsIcESaIcEEESaISB_EENS_6common9ErrorCodeEEE=so_stub_for_libtelux_data
-Wl,--defsym=_ZN5telux4data9QcmClient15requestDmzEntryENS0_13OperationTypeENS0_12BackhaulInfoESt8functionIFvSt6vectorINS0_3net9DmzConfigESaIS7_EENS_6common9ErrorCodeEEE=so_stub_for_libtelux_data
-Wl,--defsym=_ZN5telux4data9QcmClient15setClientConfigENS0_13OperationTypeER18qmi_error_type_v01=so_stub_for_libtelux_data
-Wl,--defsym=_ZN5telux4data9QcmClient15setFirewallSyncENS0_13OperationTypeE6SlotIdibbSt8functionIFvNS_6common9ErrorCodeEEE=so_stub_for_libtelux_data
-Wl,--defsym=_ZN5telux4data9QcmClient16addFirewallEntryENS0_13OperationTypeE6SlotIdiSt10shared_ptrINS0_3net14IFirewallEntryEESt8functionIFvNS_6common9ErrorCodeEEE=so_stub_for_libtelux_data
-Wl,--defsym=_ZN5telux4data9QcmClient16addFirewallEntryENS0_13OperationTypeENS0_3net17FirewallEntryInfoESt8functionIFvjNS_6common9ErrorCodeEEEb=so_stub_for_libtelux_data
-Wl,--defsym=_ZN5telux4data9QcmClient16enableBridgeSyncENS0_13OperationTypeEbSt8functionIFvNS_6common9ErrorCodeEEE=so_stub_for_libtelux_data
-Wl,--defsym=_ZN5telux4data9QcmClient16getCallEndReasonE35qcmap_msgr_wwan_call_end_reason_v01RiS3_=so_stub_for_libtelux_data
-Wl,--defsym=_ZN5telux4data9QcmClient16getProfileHandleERK27qcmap_wwan_policy_list_infoi6SlotIdP21qcmap_net_policy_info=so_stub_for_libtelux_data
-Wl,--defsym=_ZN5telux4data9QcmClient16handleBringupIndEP17qmi_client_structjPvjj=so_stub_for_libtelux_data
-Wl,--defsym=_ZN5telux4data9QcmClient16handleQosFlowIndEP17qmi_client_structjPvjj=so_stub_for_libtelux_data
-Wl,--defsym=_ZN5telux4data9QcmClient16registerListenerESt8weak_ptrINS0_18IQcmClientListenerEE=so_stub_for_libtelux_data
-Wl,--defsym=_ZN5telux4data9QcmClient16removeBridgeSyncENS0_13OperationTypeENSt7__cxx1112basic_stringIcSt11char_traitsIcESaIcEEESt8functionIFvNS_6common9ErrorCodeEEE=so_stub_for_libtelux_data
-Wl,--defsym=_ZN5telux4data9QcmClient16stopDataCallSyncEii6SlotIdSt8functionIFvRKSt10shared_ptrINS0_9IDataCallEENS_6common9ErrorCodeEEENS0_13OperationTypeE=so_stub_for_libtelux_data
-Wl,--defsym=_ZN5telux4data9QcmClient17addL2tpTunnelSyncENS0_13OperationTypeERKNS0_3net16L2tpTunnelConfigESt8functionIFvNS_6common9ErrorCodeEEE=so_stub_for_libtelux_data
-Wl,--defsym=_ZN5telux4data9QcmClient17addStaticNatEntryENS0_13OperationTypeE6SlotIdiRKNS0_3net9NatConfigESt8functionIFvNS_6common9ErrorCodeEEE=so_stub_for_libtelux_data
-Wl,--defsym=_ZN5telux4data9QcmClient17addStaticNatEntryENS0_13OperationTypeERKNS0_12BackhaulInfoERKNS0_3net9NatConfigESt8functionIFvNS_6common9ErrorCodeEEE=so_stub_for_libtelux_data
-Wl,--defsym=_ZN5telux4data9QcmClient17getDefaultProfileENS0_13OperationTypeESt8functionIFvi6SlotIdNS_6common9ErrorCodeEEE=so_stub_for_libtelux_data
-Wl,--defsym=_ZN5telux4data9QcmClient17getMobileApHandleEv=so_stub_for_libtelux_data
-Wl,--defsym=_ZN5telux4data9QcmClient17handleTeardownIndEP17qmi_client_structjPvjj=so_stub_for_libtelux_data
-Wl,--defsym=_ZN5telux4data9QcmClient17QcmapConfigParamsC1ERjR18qmi_error_type_v016SlotIdiNS0_13OperationTypeENS0_12IpFamilyTypeEbNSt7__cxx1112basic_stringIcSt11char_traitsIcESaIcEEE=so_stub_for_libtelux_data
-Wl,--defsym=_ZN5telux4data9QcmClient17QcmapConfigParamsC2ERjR18qmi_error_type_v016SlotIdiNS0_13OperationTypeENS0_12IpFamilyTypeEbNSt7__cxx1112basic_stringIcSt11char_traitsIcESaIcEEE=so_stub_for_libtelux_data
-Wl,--defsym=_ZN5telux4data9QcmClient17queryVlanInfoSyncENS0_13OperationTypeESt8functionIFvRKSt6vectorINS0_10VlanConfigESaIS5_EENS_6common9ErrorCodeEEE=so_stub_for_libtelux_data
-Wl,--defsym=_ZN5telux4data9QcmClient17requestBridgeInfoENS0_13OperationTypeESt8functionIFvRKSt6vectorINS0_3net10BridgeInfoESaIS6_EENS_6common9ErrorCodeEEE=so_stub_for_libtelux_data
-Wl,--defsym=_ZN5telux4data9QcmClient17setDefaultProfileENS0_13OperationTypeEh6SlotIdSt8functionIFvNS_6common9ErrorCodeEEE=so_stub_for_libtelux_data
-Wl,--defsym=_ZN5telux4data9QcmClient17setFirewallConfigENS0_13OperationTypeENS0_3net14FirewallConfigESt8functionIFvNS_6common9ErrorCodeEEE=so_stub_for_libtelux_data
-Wl,--defsym=_ZN5telux4data9QcmClient17setL2tpConfigSyncENS0_13OperationTypeEbbbjSt8functionIFvNS_6common9ErrorCodeEEE=so_stub_for_libtelux_data
-Wl,--defsym=_ZN5telux4data9QcmClient17startDataCallSyncEii6SlotIdSt8functionIFvRKSt10shared_ptrINS0_9IDataCallEENS_6common9ErrorCodeEEENS0_13OperationTypeENSt7__cxx1112basic_stringIcSt11char_traitsIcESaIcEEE=so_stub_for_libtelux_data
-Wl,--defsym=_ZN5telux4data9QcmClient17unbindFromProfileENS0_13OperationTypeE6SlotIdiiSt8functionIFvNS_6common9ErrorCodeEEE=so_stub_for_libtelux_data
-Wl,--defsym=_ZN5telux4data9QcmClient18bindToBackhaulSyncENS0_13OperationTypeENS0_3net14VlanBindConfigESt8functionIFvNS_6common9ErrorCodeEEE=so_stub_for_libtelux_data
-Wl,--defsym=_ZN5telux4data9QcmClient18createTrafficClassESt10shared_ptrINS0_3net9ITcConfigEENS0_13OperationTypeERNS3_17TcConfigErrorCodeE=so_stub_for_libtelux_data
-Wl,--defsym=_ZN5telux4data9QcmClient18deleteTrafficClassESt10shared_ptrINS0_3net9ITcConfigEENS0_13OperationTypeE=so_stub_for_libtelux_data
-Wl,--defsym=_ZN5telux4data9QcmClient18deregisterListenerESt8weak_ptrINS0_18IQcmClientListenerEE=so_stub_for_libtelux_data
-Wl,--defsym=_ZN5telux4data9QcmClient18getAllConnectedPDNENS0_13OperationTypeERhP25qcmap_connected_wwan_infoR18qmi_error_type_v01=so_stub_for_libtelux_data
-Wl,--defsym=_ZN5telux4data9QcmClient18getInterfaceBridgeENS0_13OperationTypeENS0_13InterfaceTypeERj=so_stub_for_libtelux_data
-Wl,--defsym=_ZN5telux4data9QcmClient18getPublicIPAndPortENS0_13OperationTypeERNS0_14ConntrackEntryE=so_stub_for_libtelux_data
-Wl,--defsym=_ZN5telux4data9QcmClient18l2tpAddSessionSyncENS0_13OperationTypeEjNS0_3net17L2tpSessionConfigESt8functionIFvNS_6common9ErrorCodeEEE=so_stub_for_libtelux_data
-Wl,--defsym=_ZN5telux4data9QcmClient18logQcmapWwanStatusEj31qcmap_msgr_wwan_status_enum_v01=so_stub_for_libtelux_data
-Wl,--defsym=_ZN5telux4data9QcmClient18requestRoamingModeEhNS0_13OperationTypeESt8functionIFvbiNS_6common9ErrorCodeEEE6SlotId=so_stub_for_libtelux_data
-Wl,--defsym=_ZN5telux4data9QcmClient18setExpectReadinessEmi=so_stub_for_libtelux_data
-Wl,--defsym=_ZN5telux4data9QcmClient18setInterfaceBridgeENS0_13OperationTypeENS0_13InterfaceTypeEj=so_stub_for_libtelux_data
-Wl,--defsym=_ZN5telux4data9QcmClient18setRoamingModeSyncEbhNS0_13OperationTypeESt8functionIFvNS_6common9ErrorCodeEEE6SlotId=so_stub_for_libtelux_data
-Wl,--defsym=_ZN5telux4data9QcmClient18switchBackHaulSyncENS0_13OperationTypeENS0_12BackhaulInfoES3_bSt8functionIFvNS_6common9ErrorCodeEEE=so_stub_for_libtelux_data
-Wl,--defsym=_ZN5telux4data9QcmClient18unbindFromBackhaulENS0_13OperationTypeENS0_3net14VlanBindConfigESt8functionIFvNS_6common9ErrorCodeEEE=so_stub_for_libtelux_data
-Wl,--defsym=_ZN5telux4data9QcmClient19bindWithProfileSyncENS0_13OperationTypeE6SlotIdiiSt8functionIFvNS_6common9ErrorCodeEEE=so_stub_for_libtelux_data
-Wl,--defsym=_ZN5telux4data9QcmClient19deleteAllQosConfigsENS0_13OperationTypeE=so_stub_for_libtelux_data
-Wl,--defsym=_ZN5telux4data9QcmClient19getWwanV2xReadinessEv=so_stub_for_libtelux_data
-Wl,--defsym=_ZN5telux4data9QcmClient19handleWwanStatusIndEP17qmi_client_structjPvjj=so_stub_for_libtelux_data
-Wl,--defsym=_ZN5telux4data9QcmClient19qcmapMsgrIndicationEP17qmi_client_structjPvjS4_=so_stub_for_libtelux_data
-Wl,--defsym=_ZN5telux4data9QcmClient19qcmToDataCallStatusEj31qcmap_msgr_wwan_status_enum_v01RNS0_14DataCallStatusERNS0_12IpFamilyTypeE=so_stub_for_libtelux_data
-Wl,--defsym=_ZN5telux4data9QcmClient19qcmWwanInfoToIpAddrE24qcmap_msgr_wwan_info_v01RNSt7__cxx1112basic_stringIcSt11char_traitsIcESaIcEEERNS3_4listINS0_10IpAddrInfoESaISB_EEE=so_stub_for_libtelux_data
-Wl,--defsym=_ZN5telux4data9QcmClient19qcmWwanInfoToIpAddrE25qcmap_connected_wwan_infoRNSt7__cxx1112basic_stringIcSt11char_traitsIcESaIcEEERNS3_4listINS0_10IpAddrInfoESaISB_EEERNS0_12IpFamilyTypeER6SlotId=so_stub_for_libtelux_data
-Wl,--defsym=_ZN5telux4data9QcmClient19qcmWwanInfoToIpAddrE27qcmap_msgr_wwan_info_ex_v01RNSt7__cxx1112basic_stringIcSt11char_traitsIcESaIcEEERNS3_4listINS0_10IpAddrInfoESaISB_EEE=so_stub_for_libtelux_data
-Wl,--defsym=_ZN5telux4data9QcmClient19removeFirewallEntryENS0_13OperationTypeE6SlotIdijSt8functionIFvNS_6common9ErrorCodeEEE=so_stub_for_libtelux_data
-Wl,--defsym=_ZN5telux4data9QcmClient19removeFirewallEntryENS0_13OperationTypeENS0_12BackhaulInfoEjSt8functionIFvNS_6common9ErrorCodeEEE=so_stub_for_libtelux_data
-Wl,--defsym=_ZN5telux4data9QcmClient19requestDmzEntrySyncENS0_13OperationTypeE6SlotIdiSt8functionIFvSt6vectorINSt7__cxx1112basic_stringIcSt11char_traitsIcESaIcEEESaISB_EENS_6common9ErrorCodeEEE=so_stub_for_libtelux_data
-Wl,--defsym=_ZN5telux4data9QcmClient19requestDmzEntrySyncENS0_13OperationTypeENS0_12BackhaulInfoESt8functionIFvSt6vectorINS0_3net9DmzConfigESaIS7_EENS_6common9ErrorCodeEEE=so_stub_for_libtelux_data
-Wl,--defsym=_ZN5telux4data9QcmClient19resetDataUsageStatsEv=so_stub_for_libtelux_data
-Wl,--defsym=_ZN5telux4data9QcmClient19setWwanV2xReadinessEi44qcmap_msgr_service_instance_id_type_enum_v01b=so_stub_for_libtelux_data
-Wl,--defsym=_ZN5telux4data9QcmClient20addFirewallEntrySyncENS0_13OperationTypeE6SlotIdiSt10shared_ptrINS0_3net14IFirewallEntryEESt8functionIFvNS_6common9ErrorCodeEEEb=so_stub_for_libtelux_data
-Wl,--defsym=_ZN5telux4data9QcmClient20addFirewallEntrySyncENS0_13OperationTypeENS0_3net17FirewallEntryInfoESt8functionIFvjNS_6common9ErrorCodeEEEb=so_stub_for_libtelux_data
-Wl,--defsym=_ZN5telux4data9QcmClient20getAllTrafficClassesERSt6vectorISt10shared_ptrINS0_3net9ITcConfigEESaIS6_EENS0_13OperationTypeE=so_stub_for_libtelux_data
-Wl,--defsym=_ZN5telux4data9QcmClient20getFirewallEntryInfoE32qcmap_msgr_firewall_entry_conf_tR18qmi_error_type_v01b=so_stub_for_libtelux_data
-Wl,--defsym=_ZN5telux4data9QcmClient20qcmToDeviceDataUsageEP36qcmap_msgr_connected_device_info_v01iRSt6vectorINS0_15DeviceDataUsageESaIS5_EE=so_stub_for_libtelux_data
-Wl,--defsym=_ZN5telux4data9QcmClient20qcmToQoSFilterStatusEm=so_stub_for_libtelux_data
-Wl,--defsym=_ZN5telux4data9QcmClient20queryVlanMappingListENS0_13OperationTypeE6SlotIdSt8functionIFvRKNSt7__cxx114listISt4pairIiiESaIS8_EEENS_6common9ErrorCodeEEE=so_stub_for_libtelux_data
-Wl,--defsym=_ZN5telux4data9QcmClient20removeL2tpTunnelSyncENS0_13OperationTypeEjSt8functionIFvNS_6common9ErrorCodeEEE=so_stub_for_libtelux_data
-Wl,--defsym=_ZN5telux4data9QcmClient20removeStaticNatEntryENS0_13OperationTypeE6SlotIdiRKNS0_3net9NatConfigESt8functionIFvNS_6common9ErrorCodeEEE=so_stub_for_libtelux_data
-Wl,--defsym=_ZN5telux4data9QcmClient20removeStaticNatEntryENS0_13OperationTypeERKNS0_12BackhaulInfoERKNS0_3net9NatConfigESt8functionIFvNS_6common9ErrorCodeEEE=so_stub_for_libtelux_data
-Wl,--defsym=_ZN5telux4data9QcmClient20setQcmapConfigLockedERNS1_17QcmapConfigParamsE=so_stub_for_libtelux_data
-Wl,--defsym=_ZN5telux4data9QcmClient20subSysRestartCleanupEv=so_stub_for_libtelux_data
-Wl,--defsym=_ZN5telux4data9QcmClient20subSysRestartRecoverEv=so_stub_for_libtelux_data
-Wl,--defsym=_ZN5telux4data9QcmClient21addStaticNatEntrySyncENS0_13OperationTypeENS0_12BackhaulInfoERKNS0_3net9NatConfigESt8functionIFvNS_6common9ErrorCodeEEE=so_stub_for_libtelux_data
-Wl,--defsym=_ZN5telux4data9QcmClient21getDefaultProfileSyncENS0_13OperationTypeESt8functionIFvi6SlotIdNS_6common9ErrorCodeEEE=so_stub_for_libtelux_data
-Wl,--defsym=_ZN5telux4data9QcmClient21l2tpRemoveSessionSyncENS0_13OperationTypeEjjSt8functionIFvNS_6common9ErrorCodeEEE=so_stub_for_libtelux_data
-Wl,--defsym=_ZN5telux4data9QcmClient21onTftResponseCompleteESt6vectorISt10shared_ptrINS0_19TrafficFlowTemplateEESaIS5_EE=so_stub_for_libtelux_data
-Wl,--defsym=_ZN5telux4data9QcmClient21populateFirewallRulesER29qcmap_get_backhaul_firewall_tNS0_12BackhaulInfoERSt6vectorINS0_3net17FirewallEntryInfoESaIS7_EER18qmi_error_type_v01b=so_stub_for_libtelux_data
-Wl,--defsym=_ZN5telux4data9QcmClient21requestBridgeInfoSyncENS0_13OperationTypeESt8functionIFvRKSt6vectorINS0_3net10BridgeInfoESaIS6_EENS_6common9ErrorCodeEEE=so_stub_for_libtelux_data
-Wl,--defsym=_ZN5telux4data9QcmClient21requestFirewallConfigENS0_13OperationTypeENS0_12BackhaulInfoESt8functionIFvNS0_3net14FirewallConfigENS_6common9ErrorCodeEEE=so_stub_for_libtelux_data
-Wl,--defsym=_ZN5telux4data9QcmClient21requestFirewallStatusENS0_13OperationTypeE6SlotIdiSt8functionIFvbbNS_6common9ErrorCodeEEE=so_stub_for_libtelux_data
-Wl,--defsym=_ZN5telux4data9QcmClient21requestL2tpConfigSyncENS0_13OperationTypeESt8functionIFvRKNS0_3net13L2tpSysConfigENS_6common9ErrorCodeEEE=so_stub_for_libtelux_data
-Wl,--defsym=_ZN5telux4data9QcmClient21setBackhaulPreferenceENS0_13OperationTypeESt6vectorINS0_12BackhaulTypeESaIS4_EESt8functionIFvNS_6common9ErrorCodeEEE=so_stub_for_libtelux_data
-Wl,--defsym=_ZN5telux4data9QcmClient21setDefaultProfileSyncENS0_13OperationTypeEh6SlotIdSt8functionIFvNS_6common9ErrorCodeEEE=so_stub_for_libtelux_data
-Wl,--defsym=_ZN5telux4data9QcmClient21setEnableMacSecConfigENS0_13OperationTypeEbSt8functionIFvNS_6common9ErrorCodeEEE=so_stub_for_libtelux_data
-Wl,--defsym=_ZN5telux4data9QcmClient21setFirewallConfigSyncENS0_13OperationTypeENS0_3net14FirewallConfigESt8functionIFvNS_6common9ErrorCodeEEE=so_stub_for_libtelux_data
-Wl,--defsym=_ZN5telux4data9QcmClient21unbindFromProfileSyncENS0_13OperationTypeE6SlotIdiiSt8functionIFvNS_6common9ErrorCodeEEE=so_stub_for_libtelux_data
-Wl,--defsym=_ZN5telux4data9QcmClient22convertToQcmapBackhaulENS0_12BackhaulTypeE=so_stub_for_libtelux_data
-Wl,--defsym=_ZN5telux4data9QcmClient22getHwAccelerationStateERNS0_12ServiceStateE=so_stub_for_libtelux_data
-Wl,--defsym=_ZN5telux4data9QcmClient22getIpPassThroughConfigERKNS0_10IpptParamsERNS0_10IpptConfigE=so_stub_for_libtelux_data
-Wl,--defsym=_ZN5telux4data9QcmClient22handleHwAccelStatusIndEP17qmi_client_structjPvjj=so_stub_for_libtelux_data
-Wl,--defsym=_ZN5telux4data9QcmClient22handleSubSysRestartIndEP17qmi_client_structjPvjj=so_stub_for_libtelux_data
-Wl,--defsym=_ZN5telux4data9QcmClient22registerForIndicationsENS0_13OperationTypeE=so_stub_for_libtelux_data
-Wl,--defsym=_ZN5telux4data9QcmClient22requestDataCallBitRateEi6SlotIdNS0_13OperationTypeESt8functionIFvRNS0_11BitRateInfoENS_6common9ErrorCodeEEE=so_stub_for_libtelux_data
-Wl,--defsym=_ZN5telux4data9QcmClient22requestFirewallEntriesENS0_13OperationTypeE6SlotIdiSt8functionIFvSt6vectorISt10shared_ptrINS0_3net14IFirewallEntryEESaIS9_EENS_6common9ErrorCodeEEEb=so_stub_for_libtelux_data
-Wl,--defsym=_ZN5telux4data9QcmClient22requestFirewallEntriesENS0_13OperationTypeENS0_12BackhaulInfoESt8functionIFvSt6vectorINS0_3net17FirewallEntryInfoESaIS7_EENS_6common9ErrorCodeEEEb=so_stub_for_libtelux_data
-Wl,--defsym=_ZN5telux4data9QcmClient22requestRoamingModeSyncEhNS0_13OperationTypeESt8functionIFvbiNS_6common9ErrorCodeEEE6SlotId=so_stub_for_libtelux_data
-Wl,--defsym=_ZN5telux4data9QcmClient22restoreFactorySettingsENS0_13OperationTypeESt8functionIFvNS_6common9ErrorCodeEEEb=so_stub_for_libtelux_data
-Wl,--defsym=_ZN5telux4data9QcmClient22setIpPassThroughConfigERKNS0_10IpptParamsERKNS0_10IpptConfigE=so_stub_for_libtelux_data
-Wl,--defsym=_ZN5telux4data9QcmClient22setQcmapBackhaulLockedENS0_13OperationTypeENS0_12BackhaulInfoER33qcmap_msgr_backhaul_type_enum_v01R18qmi_error_type_v01=so_stub_for_libtelux_data
-Wl,--defsym=_ZN5telux4data9QcmClient22unbindFromBackhaulSyncENS0_13OperationTypeENS0_3net14VlanBindConfigESt8functionIFvNS_6common9ErrorCodeEEE=so_stub_for_libtelux_data
-Wl,--defsym=_ZN5telux4data9QcmClient23getDeviceDataUsageStatsERSt6vectorINS0_15DeviceDataUsageESaIS3_EE=so_stub_for_libtelux_data
-Wl,--defsym=_ZN5telux4data9QcmClient23onTftIndicationCompleteESt6vectorISt10shared_ptrINS0_13TftChangeInfoEESaIS5_EEj=so_stub_for_libtelux_data
-Wl,--defsym=_ZN5telux4data9QcmClient23qmiCallTypeFromIpFamilyE29qcmap_msgr_ip_family_enum_v01=so_stub_for_libtelux_data
-Wl,--defsym=_ZN5telux4data9QcmClient23removeFirewallEntrySyncENS0_13OperationTypeE6SlotIdijSt8functionIFvNS_6common9ErrorCodeEEE=so_stub_for_libtelux_data
-Wl,--defsym=_ZN5telux4data9QcmClient23removeFirewallEntrySyncENS0_13OperationTypeENS0_12BackhaulInfoEjSt8functionIFvNS_6common9ErrorCodeEEE=so_stub_for_libtelux_data
-Wl,--defsym=_ZN5telux4data9QcmClient23requestStaticNatEntriesENS0_13OperationTypeE6SlotIdiSt8functionIFvRKSt6vectorINS0_3net9NatConfigESaIS7_EENS_6common9ErrorCodeEEE=so_stub_for_libtelux_data
-Wl,--defsym=_ZN5telux4data9QcmClient23requestStaticNatEntriesENS0_13OperationTypeERKNS0_12BackhaulInfoESt8functionIFvRKSt6vectorINS0_3net9NatConfigESaIS9_EENS_6common9ErrorCodeEEE=so_stub_for_libtelux_data
-Wl,--defsym=_ZN5telux4data9QcmClient23resetDataCallStatisticsEii6SlotIdSt8functionIFvNS_6common9ErrorCodeEEE=so_stub_for_libtelux_data
-Wl,--defsym=_ZN5telux4data9QcmClient24convertFromQcmapBackhaulE33qcmap_msgr_backhaul_type_enum_v01Rb=so_stub_for_libtelux_data
-Wl,--defsym=_ZN5telux4data9QcmClient24convertIfTypeToQcmapTypeENS0_13InterfaceTypeE=so_stub_for_libtelux_data
-Wl,--defsym=_ZN5telux4data9QcmClient24getFirewallEntryIpv4InfoEP32qcmap_msgr_firewall_entry_conf_tRNS0_8IPv4InfoE=so_stub_for_libtelux_data
-Wl,--defsym=_ZN5telux4data9QcmClient24getFirewallEntryIpv6InfoEP32qcmap_msgr_firewall_entry_conf_tRNS0_8IPv6InfoE=so_stub_for_libtelux_data
-Wl,--defsym=_ZN5telux4data9QcmClient24getFirewallEntryProtocolEP32qcmap_msgr_firewall_entry_conf_tRSt10shared_ptrINS0_9IIpFilterEEi=so_stub_for_libtelux_data
-Wl,--defsym=_ZN5telux4data9QcmClient24queryVlanMappingListSyncENS0_13OperationTypeE6SlotIdSt8functionIFvRKNSt7__cxx114listISt4pairIiiESaIS8_EEENS_6common9ErrorCodeEEE=so_stub_for_libtelux_data
-Wl,--defsym=_ZN5telux4data9QcmClient24removeStaticNatEntrySyncENS0_13OperationTypeENS0_12BackhaulInfoERKNS0_3net9NatConfigESt8functionIFvNS_6common9ErrorCodeEEE=so_stub_for_libtelux_data
-Wl,--defsym=_ZN5telux4data9QcmClient24requestMacSecStateConfigENS0_13OperationTypeESt8functionIFvbNS_6common9ErrorCodeEEE=so_stub_for_libtelux_data
-Wl,--defsym=_ZN5telux4data9QcmClient25getIpPassThroughNatConfigENS0_13OperationTypeERb=so_stub_for_libtelux_data
-Wl,--defsym=_ZN5telux4data9QcmClient25notifyDataCallInfoChangedESt10shared_ptrINS0_9IDataCallEE=so_stub_for_libtelux_data
-Wl,--defsym=_ZN5telux4data9QcmClient25requestBackhaulPreferenceENS0_13OperationTypeESt8functionIFvSt6vectorINS0_12BackhaulTypeESaIS5_EENS_6common9ErrorCodeEEE=so_stub_for_libtelux_data
-Wl,--defsym=_ZN5telux4data9QcmClient25requestDataCallStatisticsEii6SlotIdSt8functionIFvNS0_13DataCallStatsENS_6common9ErrorCodeEEE=so_stub_for_libtelux_data
-Wl,--defsym=_ZN5telux4data9QcmClient25requestFirewallConfigSyncENS0_13OperationTypeENS0_12BackhaulInfoESt8functionIFvNS0_3net14FirewallConfigENS_6common9ErrorCodeEEE=so_stub_for_libtelux_data
-Wl,--defsym=_ZN5telux4data9QcmClient25requestFirewallStatusSyncENS0_13OperationTypeE6SlotIdiSt8functionIFvbbNS_6common9ErrorCodeEEE=so_stub_for_libtelux_data
-Wl,--defsym=_ZN5telux4data9QcmClient25setBackhaulPreferenceSyncENS0_13OperationTypeESt6vectorINS0_12BackhaulTypeESaIS4_EESt8functionIFvNS_6common9ErrorCodeEEE=so_stub_for_libtelux_data
-Wl,--defsym=_ZN5telux4data9QcmClient25setBandInterferenceConfigENS0_13OperationTypeEbSt10shared_ptrINS0_22BandInterferenceConfigEESt8functionIFvNS_6common9ErrorCodeEEE=so_stub_for_libtelux_data
-Wl,--defsym=_ZN5telux4data9QcmClient25setEnableMacSecConfigSyncENS0_13OperationTypeEbSt8functionIFvNS_6common9ErrorCodeEEE=so_stub_for_libtelux_data
-Wl,--defsym=_ZN5telux4data9QcmClient25setIpPassThroughNatConfigENS0_13OperationTypeEb=so_stub_for_libtelux_data
-Wl,--defsym=_ZN5telux4data9QcmClient25setWwanConnectivityConfigENS0_13OperationTypeE6SlotIdbSt8functionIFvNS_6common9ErrorCodeEEE=so_stub_for_libtelux_data
-Wl,--defsym=_ZN5telux4data9QcmClient26convertIfTypeFromQcmapTypeE34qcmap_msgr_interface_type_enum_v01=so_stub_for_libtelux_data
-Wl,--defsym=_ZN5telux4data9QcmClient26handlePacketStatsStatusIndEP17qmi_client_structjPvjj=so_stub_for_libtelux_data
-Wl,--defsym=_ZN5telux4data9QcmClient26onDataSubSystemInitializedEb=so_stub_for_libtelux_data
-Wl,--defsym=_ZN5telux4data9QcmClient26requestDataCallBitRateSyncEi6SlotIdNS0_13OperationTypeESt8functionIFvRNS0_11BitRateInfoENS_6common9ErrorCodeEEE=so_stub_for_libtelux_data
-Wl,--defsym=_ZN5telux4data9QcmClient26requestFirewallEntriesSyncENS0_13OperationTypeE6SlotIdiSt8functionIFvSt6vectorISt10shared_ptrINS0_3net14IFirewallEntryEESaIS9_EENS_6common9ErrorCodeEEEb=so_stub_for_libtelux_data
-Wl,--defsym=_ZN5telux4data9QcmClient26requestFirewallEntriesSyncENS0_13OperationTypeENS0_12BackhaulInfoESt8functionIFvSt6vectorINS0_3net17FirewallEntryInfoESaIS7_EENS_6common9ErrorCodeEEEb=so_stub_for_libtelux_data
-Wl,--defsym=_ZN5telux4data9QcmClient26requestTrafficFlowTemplateE6SlotIdiiSt8functionIFvRKSt6vectorISt10shared_ptrINS0_19TrafficFlowTemplateEESaIS7_EENS_6common9ErrorCodeEEE=so_stub_for_libtelux_data
-Wl,--defsym=_ZN5telux4data9QcmClient26restoreFactorySettingsSyncENS0_13OperationTypeESt8functionIFvNS_6common9ErrorCodeEEEb=so_stub_for_libtelux_data
-Wl,--defsym=_ZN5telux4data9QcmClient27getEntriesFromQcmHandleListEi26qcmap_msgr_firewall_conf_tRSt6vectorISt10shared_ptrINS0_3net14IFirewallEntryEESaIS7_EEb=so_stub_for_libtelux_data
-Wl,--defsym=_ZN5telux4data9QcmClient27onDataSubSystemStatusChangeENS_6common13ServiceStatusE=so_stub_for_libtelux_data
-Wl,--defsym=_ZN5telux4data9QcmClient27queryVlanToBackhaulBindingsENS0_13OperationTypeE6SlotIdNS0_12BackhaulTypeESt8functionIFvSt6vectorINS0_3net14VlanBindConfigESaIS8_EENS_6common9ErrorCodeEEE=so_stub_for_libtelux_data
-Wl,--defsym=_ZN5telux4data9QcmClient27requestStaticNatEntriesSyncENS0_13OperationTypeENS0_12BackhaulInfoESt8functionIFvRKSt6vectorINS0_3net9NatConfigESaIS7_EENS_6common9ErrorCodeEEE=so_stub_for_libtelux_data
-Wl,--defsym=_ZN5telux4data9QcmClient27resetDataCallStatisticsSyncEii6SlotIdSt8functionIFvNS_6common9ErrorCodeEEE=so_stub_for_libtelux_data
-Wl,--defsym=_ZN5telux4data9QcmClient28requestConnectedDataCallListENS0_13OperationTypeE6SlotIdSt8functionIFvRKSt6vectorISt10shared_ptrINS0_9IDataCallEESaIS8_EENS_6common9ErrorCodeEEEb=so_stub_for_libtelux_data
-Wl,--defsym=_ZN5telux4data9QcmClient28requestMacSecStateConfigSyncENS0_13OperationTypeESt8functionIFvbNS_6common9ErrorCodeEEE=so_stub_for_libtelux_data
-Wl,--defsym=_ZN5telux4data9QcmClient29l2tpBindSessionToBackhaulSyncENS0_13OperationTypeENS0_3net21L2tpSessionBindConfigESt8functionIFvNS_6common9ErrorCodeEEE=so_stub_for_libtelux_data
-Wl,--defsym=_ZN5telux4data9QcmClient29requestBackhaulPreferenceSyncENS0_13OperationTypeESt8functionIFvSt6vectorINS0_12BackhaulTypeESaIS5_EENS_6common9ErrorCodeEEE=so_stub_for_libtelux_data
-Wl,--defsym=_ZN5telux4data9QcmClient29requestBandInterferenceConfigENS0_13OperationTypeESt8functionIFvbSt10shared_ptrINS0_22BandInterferenceConfigEENS_6common9ErrorCodeEEE=so_stub_for_libtelux_data
-Wl,--defsym=_ZN5telux4data9QcmClient29requestDataCallStatisticsSyncEii6SlotIdSt8functionIFvNS0_13DataCallStatsENS_6common9ErrorCodeEEE=so_stub_for_libtelux_data
-Wl,--defsym=_ZN5telux4data9QcmClient29requestWwanConnectivityConfigENS0_13OperationTypeE6SlotIdSt8functionIFvS3_bNS_6common9ErrorCodeEEE=so_stub_for_libtelux_data
-Wl,--defsym=_ZN5telux4data9QcmClient29setBandInterferenceConfigSyncENS0_13OperationTypeEbSt10shared_ptrINS0_22BandInterferenceConfigEESt8functionIFvNS_6common9ErrorCodeEEE=so_stub_for_libtelux_data
-Wl,--defsym=_ZN5telux4data9QcmClient29setWwanConnectivityConfigSyncENS0_13OperationTypeE6SlotIdbSt8functionIFvNS_6common9ErrorCodeEEE=so_stub_for_libtelux_data
-Wl,--defsym=_ZN5telux4data9QcmClient30addHwAccelerationFirewallEntryENS0_13OperationTypeE6SlotIdiSt10shared_ptrINS0_3net14IFirewallEntryEESt8functionIFvjNS_6common9ErrorCodeEEE=so_stub_for_libtelux_data
-Wl,--defsym=_ZN5telux4data9QcmClient30convertBackhaulToQcmapBackhaulENS0_12BackhaulTypeE=so_stub_for_libtelux_data
-Wl,--defsym=_ZN5telux4data9QcmClient30convertQcmapBackhaulToBackhaulE33qcmap_msgr_backhaul_type_enum_v01=so_stub_for_libtelux_data
-Wl,--defsym=_ZN5telux4data9QcmClient30getProfileIdFromWwanPolicyListERijP18qmi_error_type_v01=so_stub_for_libtelux_data
-Wl,--defsym=_ZN5telux4data9QcmClient30getWwanPolicyFromProfileHandleER33qcmap_net_profile_and_policy_infojNS0_13OperationTypeE=so_stub_for_libtelux_data
-Wl,--defsym=_ZN5telux4data9QcmClient30notifyDataSysHealthChangedSyncEjhhh=so_stub_for_libtelux_data
-Wl,--defsym=_ZN5telux4data9QcmClient30notifyHwAccelStatusChangedSyncENS0_12ServiceStateE=so_stub_for_libtelux_data
-Wl,--defsym=_ZN5telux4data9QcmClient30requestTrafficFlowTemplateSyncE6SlotIdiiSt8functionIFvRKSt6vectorISt10shared_ptrINS0_19TrafficFlowTemplateEESaIS7_EENS_6common9ErrorCodeEEE=so_stub_for_libtelux_data
-Wl,--defsym=_ZN5telux4data9QcmClient30updateQcmFirewallIpFamilyEntryER26qcmap_msgr_firewall_conf_tSt10shared_ptrINS0_3net14IFirewallEntryEE=so_stub_for_libtelux_data
-Wl,--defsym=_ZN5telux4data9QcmClient30updateQcmFirewallProtocolEntryER26qcmap_msgr_firewall_conf_tSt10shared_ptrINS0_3net14IFirewallEntryEE=so_stub_for_libtelux_data
-Wl,--defsym=_ZN5telux4data9QcmClient31handleWwanConnectivityConfigIndEP17qmi_client_structjPvjj=so_stub_for_libtelux_data
-Wl,--defsym=_ZN5telux4data9QcmClient31notifyTrafficFlowTemplateChangeESt10shared_ptrINS0_9IDataCallEESt6vectorIS2_INS0_13TftChangeInfoEESaIS7_EE=so_stub_for_libtelux_data
-Wl,--defsym=_ZN5telux4data9QcmClient31queryVlanToBackhaulBindingsSyncENS0_13OperationTypeE6SlotIdNS0_12BackhaulTypeESt8functionIFvSt6vectorINS0_3net14VlanBindConfigESaIS8_EENS_6common9ErrorCodeEEE=so_stub_for_libtelux_data
-Wl,--defsym=_ZN5telux4data9QcmClient32getDataCallInfoFromProfileHandleER6SlotIdRiS4_RNS0_13OperationTypeEj=so_stub_for_libtelux_data
-Wl,--defsym=_ZN5telux4data9QcmClient32handleDataCallReadinessStatusIndEP17qmi_client_structjPvjj=so_stub_for_libtelux_data
-Wl,--defsym=_ZN5telux4data9QcmClient32requestConnectedDataCallListSyncENS0_13OperationTypeE6SlotIdSt8functionIFvRKSt6vectorISt10shared_ptrINS0_9IDataCallEESaIS8_EENS_6common9ErrorCodeEEEb=so_stub_for_libtelux_data
-Wl,--defsym=_ZN5telux4data9QcmClient33l2tpUnbindSessionFromBackhaulSyncENS0_13OperationTypeENS0_3net21L2tpSessionBindConfigESt8functionIFvNS_6common9ErrorCodeEEE=so_stub_for_libtelux_data
-Wl,--defsym=_ZN5telux4data9QcmClient33requestBandInterferenceConfigSyncENS0_13OperationTypeESt8functionIFvbSt10shared_ptrINS0_22BandInterferenceConfigEENS_6common9ErrorCodeEEE=so_stub_for_libtelux_data
-Wl,--defsym=_ZN5telux4data9QcmClient33requestWwanConnectivityConfigSyncENS0_13OperationTypeE6SlotIdSt8functionIFvS3_bNS_6common9ErrorCodeEEE=so_stub_for_libtelux_data
-Wl,--defsym=_ZN5telux4data9QcmClient34getProfileHandleFromWwanPolicyListEi6SlotIdP21qcmap_net_policy_infoP18qmi_error_type_v01=so_stub_for_libtelux_data
-Wl,--defsym=_ZN5telux4data9QcmClient34isDeviceDataUsageMonitoringEnabledEv=so_stub_for_libtelux_data
-Wl,--defsym=_ZN5telux4data9QcmClient35notifyDataCallReadinessStatusChangeEv=so_stub_for_libtelux_data
-Wl,--defsym=_ZN5telux4data9QcmClient37updateAndNotifyDataConnectionListenerENS0_14IndicationTypeENS0_14DataCallStatusEiiNSt7__cxx1112basic_stringIcSt11char_traitsIcESaIcEEENS4_4listINS0_10IpAddrInfoESaISB_EEEj6SlotIdNS0_12IpFamilyTypeENS0_20DataBearerTechnologyE=so_stub_for_libtelux_data
-Wl,--defsym=_ZN5telux4data9QcmClient38l2tpQuerySessionToBackhaulBindingsSyncENS0_13OperationTypeENS0_12BackhaulTypeESt8functionIFvSt6vectorINS0_3net21L2tpSessionBindConfigESaIS7_EENS_6common9ErrorCodeEEE=so_stub_for_libtelux_data
-Wl,--defsym=_ZN5telux4data9QcmClient38notifyDeviceDataUsageResetImminentSyncESt6vectorINS0_15DeviceDataUsageESaIS3_EENS0_16UsageResetReasonE=so_stub_for_libtelux_data
-Wl,--defsym=_ZN5telux4data9QcmClient39convertQcmapServerTypeToQcmapInstanceIdEhR44qcmap_msgr_service_instance_id_type_enum_v01=so_stub_for_libtelux_data
-Wl,--defsym=_ZN5telux4data9QcmClient39notifyWwanConnectivityConfigChangedSyncE6SlotIdb=so_stub_for_libtelux_data
-Wl,--defsym=_ZN5telux4data9QcmClient41updateAndNotifyDataConnectionListenerSyncENS0_14IndicationTypeENS0_14DataCallStatusEiiNSt7__cxx1112basic_stringIcSt11char_traitsIcESaIcEEENS4_4listINS0_10IpAddrInfoESaISB_EEEj6SlotIdNS0_12IpFamilyTypeENS0_20DataBearerTechnologyE=so_stub_for_libtelux_data
-Wl,--defsym=_ZN5telux4data9QcmClient43getConnectedDataCallListWithOpTypeAndSlotIdERSt6vectorISt10shared_ptrINS0_9IDataCallEESaIS5_EENS0_13OperationTypeE6SlotIdR18qmi_error_type_v01=so_stub_for_libtelux_data
-Wl,--defsym=_ZN5telux4data9QcmClient4initEb=so_stub_for_libtelux_data
-Wl,--defsym=_ZN5telux4data9QcmClient8exiting_E=so_stub_for_libtelux_data
-Wl,--defsym=_ZN5telux4data9QcmClient9addBridgeENS0_13OperationTypeENS0_3net10BridgeInfoESt8functionIFvNS_6common9ErrorCodeEEE=so_stub_for_libtelux_data
-Wl,--defsym=_ZN5telux4data9QcmClient9enableDmzENS0_13OperationTypeE6SlotIdiNSt7__cxx1112basic_stringIcSt11char_traitsIcESaIcEEESt8functionIFvNS_6common9ErrorCodeEEE=so_stub_for_libtelux_data
-Wl,--defsym=_ZN5telux4data9QcmClient9enableDmzENS0_13OperationTypeENS0_3net9DmzConfigESt8functionIFvNS_6common9ErrorCodeEEE=so_stub_for_libtelux_data
-Wl,--defsym=_ZN5telux4data9QcmClientC1Ev=so_stub_for_libtelux_data
-Wl,--defsym=_ZN5telux4data9QcmClientC2Ev=so_stub_for_libtelux_data
-Wl,--defsym=_ZN5telux4data9QcmClientD1Ev=so_stub_for_libtelux_data
-Wl,--defsym=_ZN5telux4data9QcmClientD2Ev=so_stub_for_libtelux_data
-Wl,--defsym=_ZN5telux6common13FactoryHelper10getManagerINS_4data16IDataLinkManagerEEESt10shared_ptrIT_ENSt7__cxx1112basic_stringIcSt11char_traitsIcESaIcEEERSt8weak_ptrIS6_ERSt6vectorISt8functionIFvNS0_13ServiceStatusEEESaISL_EESL_SI_IFS7_SL_EE=so_stub_for_libtelux_data
-Wl,--defsym=_ZN5telux6common13FactoryHelper10getManagerINS_4data16IDualDataManagerEEESt10shared_ptrIT_ENSt7__cxx1112basic_stringIcSt11char_traitsIcESaIcEEERSt8weak_ptrIS6_ERSt6vectorISt8functionIFvNS0_13ServiceStatusEEESaISL_EESL_SI_IFS7_SL_EE=so_stub_for_libtelux_data
-Wl,--defsym=_ZN5telux6common13FactoryHelper10getManagerINS_4data17IKeepAliveManagerEEESt10shared_ptrIT_ENSt7__cxx1112basic_stringIcSt11char_traitsIcESaIcEEERSt8weak_ptrIS6_ERSt6vectorISt8functionIFvNS0_13ServiceStatusEEESaISL_EESL_SI_IFS7_SL_EE=so_stub_for_libtelux_data
-Wl,--defsym=_ZN5telux6common13FactoryHelper10getManagerINS_4data19IDataControlManagerEEESt10shared_ptrIT_ENSt7__cxx1112basic_stringIcSt11char_traitsIcESaIcEEERSt8weak_ptrIS6_ERSt6vectorISt8functionIFvNS0_13ServiceStatusEEESaISL_EESL_SI_IFS7_SL_EE=so_stub_for_libtelux_data
-Wl,--defsym=_ZN5telux6common13FactoryHelper10getManagerINS_4data22IDataConnectionManagerEEESt10shared_ptrIT_ENSt7__cxx1112basic_stringIcSt11char_traitsIcESaIcEEERSt8weak_ptrIS6_ERSt6vectorISt8functionIFvNS0_13ServiceStatusEEESaISL_EESL_SI_IFS7_SL_EE=so_stub_for_libtelux_data
-Wl,--defsym=_ZN5telux6common13FactoryHelper10getManagerINS_4data3net11INatManagerEEESt10shared_ptrIT_ENSt7__cxx1112basic_stringIcSt11char_traitsIcESaIcEEERSt8weak_ptrIS7_ERSt6vectorISt8functionIFvNS0_13ServiceStatusEEESaISM_EESM_SJ_IFS8_SM_EE=so_stub_for_libtelux_data
-Wl,--defsym=_ZN5telux6common13FactoryHelper10getManagerINS_4data3net11IQoSManagerEEESt10shared_ptrIT_ENSt7__cxx1112basic_stringIcSt11char_traitsIcESaIcEEERSt8weak_ptrIS7_ERSt6vectorISt8functionIFvNS0_13ServiceStatusEEESaISM_EESM_SJ_IFS8_SM_EE=so_stub_for_libtelux_data
-Wl,--defsym=_ZN5telux6common13FactoryHelper20initCompleteNotifierENSt7__cxx1112basic_stringIcSt11char_traitsIcESaIcEEERSt6vectorISt8functionIFvNS0_13ServiceStatusEEESaISC_EESA_=so_stub_for_libtelux_data
-Wl,--defsym=_ZN5telux6common14AsyncTaskQueueIvE11executeTaskEv=so_stub_for_libtelux_data
-Wl,--defsym=_ZN5telux6common14AsyncTaskQueueIvE14purgeCompletedEv=so_stub_for_libtelux_data
-Wl,--defsym=_ZN5telux6common14AsyncTaskQueueIvE3addERSt13shared_futureIvE=so_stub_for_libtelux_data
-Wl,--defsym=_ZN5telux6common14AsyncTaskQueueIvE8shutdownEb=so_stub_for_libtelux_data
-Wl,--defsym=_ZN5telux6common14AsyncTaskQueueIvEC1Ev=so_stub_for_libtelux_data
-Wl,--defsym=_ZN5telux6common14AsyncTaskQueueIvEC2Ev=so_stub_for_libtelux_data
-Wl,--defsym=_ZN5telux6common14AsyncTaskQueueIvED1Ev=so_stub_for_libtelux_data
-Wl,--defsym=_ZN5telux6common14AsyncTaskQueueIvED2Ev=so_stub_for_libtelux_data
-Wl,--defsym=_ZN5telux6common15ListenerManager16registerListenerESt8weak_ptrINS0_12ISDKListenerEE=so_stub_for_libtelux_data
-Wl,--defsym=_ZN5telux6common15ListenerManager18deRegisterListenerESt8weak_ptrINS0_12ISDKListenerEE=so_stub_for_libtelux_data
-Wl,--defsym=_ZN5telux6common15ListenerManager21getAvailableListenersERSt6vectorISt8weak_ptrINS0_12ISDKListenerEESaIS5_EE=so_stub_for_libtelux_data
-Wl,--defsym=_ZN5telux6common15ListenerManager5purgeEv=so_stub_for_libtelux_data
-Wl,--defsym=_ZN5telux6common15ListenerManager7cleanupEv=so_stub_for_libtelux_data
-Wl,--defsym=_ZN5telux6common15ListenerManagerC1Ev=so_stub_for_libtelux_data
-Wl,--defsym=_ZN5telux6common15ListenerManagerC2Ev=so_stub_for_libtelux_data
-Wl,--defsym=_ZN5telux6common15ListenerManagerD1Ev=so_stub_for_libtelux_data
-Wl,--defsym=_ZN5telux6common15ListenerManagerD2Ev=so_stub_for_libtelux_data
-Wl,--defsym=_ZN5telux6common18FunctionalCallbackIJNS0_9ErrorCodeEEED0Ev=so_stub_for_libtelux_data
-Wl,--defsym=_ZN5telux6common18FunctionalCallbackIJNS0_9ErrorCodeEEED1Ev=so_stub_for_libtelux_data
-Wl,--defsym=_ZN5telux6common18FunctionalCallbackIJNS0_9ErrorCodeEEED2Ev=so_stub_for_libtelux_data
-Wl,--defsym=_ZN5telux6common18FunctionalCallbackIJNS_4data7DdsInfoENS0_9ErrorCodeEEED0Ev=so_stub_for_libtelux_data
-Wl,--defsym=_ZN5telux6common18FunctionalCallbackIJNS_4data7DdsInfoENS0_9ErrorCodeEEED1Ev=so_stub_for_libtelux_data
-Wl,--defsym=_ZN5telux6common18FunctionalCallbackIJNS_4data7DdsInfoENS0_9ErrorCodeEEED2Ev=so_stub_for_libtelux_data
-Wl,--defsym=_ZN5telux6common22CommandCallbackManager11addCallbackIJNS0_9ErrorCodeEEEEiSt8functionIFvDpT_EE=so_stub_for_libtelux_data
-Wl,--defsym=_ZN5telux6common22CommandCallbackManager11addCallbackIJNS_4data7DdsInfoENS0_9ErrorCodeEEEEiSt8functionIFvDpT_EE=so_stub_for_libtelux_data
-Wl,--defsym=_ZN5telux6common22CommandCallbackManager15executeCallbackIJRNS0_9ErrorCodeEEEEvSt10shared_ptrINS0_16ICommandCallbackEEDpOT_=so_stub_for_libtelux_data
-Wl,--defsym=_ZN5telux6common22CommandCallbackManager15executeCallbackIJRNS_4data7DdsInfoERNS0_9ErrorCodeEEEEvSt10shared_ptrINS0_16ICommandCallbackEEDpOT_=so_stub_for_libtelux_data
-Wl,--defsym=_ZN5telux6common22IServiceStatusListener21onServiceStatusChangeENS0_13ServiceStatusE=so_stub_for_libtelux_data
-Wl,--defsym=_ZN5telux6common3Log10logMessageIJiEEEvNS0_8LogLevelERKNSt7__cxx1112basic_stringIcSt11char_traitsIcESaIcEEESB_RKiDpT_=so_stub_for_libtelux_data
-Wl,--defsym=_ZN5telux6common3Log10logMessageIJNSt7__cxx1112basic_stringIcSt11char_traitsIcESaIcEEEPKcmSA_PNS_4data16IDataLinkManagerESA_iEEEvNS0_8LogLevelERKS8_SG_RKiDpT_=so_stub_for_libtelux_data
-Wl,--defsym=_ZN5telux6common3Log10logMessageIJNSt7__cxx1112basic_stringIcSt11char_traitsIcESaIcEEEPKcmSA_PNS_4data16IDualDataManagerESA_iEEEvNS0_8LogLevelERKS8_SG_RKiDpT_=so_stub_for_libtelux_data
-Wl,--defsym=_ZN5telux6common3Log10logMessageIJNSt7__cxx1112basic_stringIcSt11char_traitsIcESaIcEEEPKcmSA_PNS_4data17IKeepAliveManagerESA_iEEEvNS0_8LogLevelERKS8_SG_RKiDpT_=so_stub_for_libtelux_data
-Wl,--defsym=_ZN5telux6common3Log10logMessageIJNSt7__cxx1112basic_stringIcSt11char_traitsIcESaIcEEEPKcmSA_PNS_4data19IDataControlManagerESA_iEEEvNS0_8LogLevelERKS8_SG_RKiDpT_=so_stub_for_libtelux_data
-Wl,--defsym=_ZN5telux6common3Log10logMessageIJNSt7__cxx1112basic_stringIcSt11char_traitsIcESaIcEEEPKcmSA_PNS_4data22IDataConnectionManagerESA_iEEEvNS0_8LogLevelERKS8_SG_RKiDpT_=so_stub_for_libtelux_data
-Wl,--defsym=_ZN5telux6common3Log10logMessageIJNSt7__cxx1112basic_stringIcSt11char_traitsIcESaIcEEEPKcmSA_PNS_4data3net11INatManagerESA_iEEEvNS0_8LogLevelERKS8_SH_RKiDpT_=so_stub_for_libtelux_data
-Wl,--defsym=_ZN5telux6common3Log10logMessageIJNSt7__cxx1112basic_stringIcSt11char_traitsIcESaIcEEEPKcmSA_PNS_4data3net11IQoSManagerESA_iEEEvNS0_8LogLevelERKS8_SH_RKiDpT_=so_stub_for_libtelux_data
-Wl,--defsym=_ZN5telux6common3Log10logMessageIJNSt7__cxx1112basic_stringIcSt11char_traitsIcESaIcEEEPKcPNS_4data16IDataLinkManagerEEEEvNS0_8LogLevelERKS8_SG_RKiDpT_=so_stub_for_libtelux_data
-Wl,--defsym=_ZN5telux6common3Log10logMessageIJNSt7__cxx1112basic_stringIcSt11char_traitsIcESaIcEEEPKcPNS_4data16IDataLinkManagerESA_EEEvNS0_8LogLevelERKS8_SG_RKiDpT_=so_stub_for_libtelux_data
-Wl,--defsym=_ZN5telux6common3Log10logMessageIJNSt7__cxx1112basic_stringIcSt11char_traitsIcESaIcEEEPKcPNS_4data16IDataLinkManagerESA_iEEEvNS0_8LogLevelERKS8_SG_RKiDpT_=so_stub_for_libtelux_data
-Wl,--defsym=_ZN5telux6common3Log10logMessageIJNSt7__cxx1112basic_stringIcSt11char_traitsIcESaIcEEEPKcPNS_4data16IDualDataManagerEEEEvNS0_8LogLevelERKS8_SG_RKiDpT_=so_stub_for_libtelux_data
-Wl,--defsym=_ZN5telux6common3Log10logMessageIJNSt7__cxx1112basic_stringIcSt11char_traitsIcESaIcEEEPKcPNS_4data16IDualDataManagerESA_EEEvNS0_8LogLevelERKS8_SG_RKiDpT_=so_stub_for_libtelux_data
-Wl,--defsym=_ZN5telux6common3Log10logMessageIJNSt7__cxx1112basic_stringIcSt11char_traitsIcESaIcEEEPKcPNS_4data16IDualDataManagerESA_iEEEvNS0_8LogLevelERKS8_SG_RKiDpT_=so_stub_for_libtelux_data
-Wl,--defsym=_ZN5telux6common3Log10logMessageIJNSt7__cxx1112basic_stringIcSt11char_traitsIcESaIcEEEPKcPNS_4data17IKeepAliveManagerEEEEvNS0_8LogLevelERKS8_SG_RKiDpT_=so_stub_for_libtelux_data
-Wl,--defsym=_ZN5telux6common3Log10logMessageIJNSt7__cxx1112basic_stringIcSt11char_traitsIcESaIcEEEPKcPNS_4data17IKeepAliveManagerESA_EEEvNS0_8LogLevelERKS8_SG_RKiDpT_=so_stub_for_libtelux_data
-Wl,--defsym=_ZN5telux6common3Log10logMessageIJNSt7__cxx1112basic_stringIcSt11char_traitsIcESaIcEEEPKcPNS_4data17IKeepAliveManagerESA_iEEEvNS0_8LogLevelERKS8_SG_RKiDpT_=so_stub_for_libtelux_data
-Wl,--defsym=_ZN5telux6common3Log10logMessageIJNSt7__cxx1112basic_stringIcSt11char_traitsIcESaIcEEEPKcPNS_4data19IDataControlManagerEEEEvNS0_8LogLevelERKS8_SG_RKiDpT_=so_stub_for_libtelux_data
-Wl,--defsym=_ZN5telux6common3Log10logMessageIJNSt7__cxx1112basic_stringIcSt11char_traitsIcESaIcEEEPKcPNS_4data19IDataControlManagerESA_EEEvNS0_8LogLevelERKS8_SG_RKiDpT_=so_stub_for_libtelux_data
-Wl,--defsym=_ZN5telux6common3Log10logMessageIJNSt7__cxx1112basic_stringIcSt11char_traitsIcESaIcEEEPKcPNS_4data19IDataControlManagerESA_iEEEvNS0_8LogLevelERKS8_SG_RKiDpT_=so_stub_for_libtelux_data
-Wl,--defsym=_ZN5telux6common3Log10logMessageIJNSt7__cxx1112basic_stringIcSt11char_traitsIcESaIcEEEPKcPNS_4data22IDataConnectionManagerEEEEvNS0_8LogLevelERKS8_SG_RKiDpT_=so_stub_for_libtelux_data
-Wl,--defsym=_ZN5telux6common3Log10logMessageIJNSt7__cxx1112basic_stringIcSt11char_traitsIcESaIcEEEPKcPNS_4data22IDataConnectionManagerESA_EEEvNS0_8LogLevelERKS8_SG_RKiDpT_=so_stub_for_libtelux_data
-Wl,--defsym=_ZN5telux6common3Log10logMessageIJNSt7__cxx1112basic_stringIcSt11char_traitsIcESaIcEEEPKcPNS_4data22IDataConnectionManagerESA_iEEEvNS0_8LogLevelERKS8_SG_RKiDpT_=so_stub_for_libtelux_data
-Wl,--defsym=_ZN5telux6common3Log10logMessageIJNSt7__cxx1112basic_stringIcSt11char_traitsIcESaIcEEEPKcPNS_4data3net11INatManagerEEEEvNS0_8LogLevelERKS8_SH_RKiDpT_=so_stub_for_libtelux_data
-Wl,--defsym=_ZN5telux6common3Log10logMessageIJNSt7__cxx1112basic_stringIcSt11char_traitsIcESaIcEEEPKcPNS_4data3net11INatManagerESA_EEEvNS0_8LogLevelERKS8_SH_RKiDpT_=so_stub_for_libtelux_data
-Wl,--defsym=_ZN5telux6common3Log10logMessageIJNSt7__cxx1112basic_stringIcSt11char_traitsIcESaIcEEEPKcPNS_4data3net11INatManagerESA_iEEEvNS0_8LogLevelERKS8_SH_RKiDpT_=so_stub_for_libtelux_data
-Wl,--defsym=_ZN5telux6common3Log10logMessageIJNSt7__cxx1112basic_stringIcSt11char_traitsIcESaIcEEEPKcPNS_4data3net11IQoSManagerEEEEvNS0_8LogLevelERKS8_SH_RKiDpT_=so_stub_for_libtelux_data
-Wl,--defsym=_ZN5telux6common3Log10logMessageIJNSt7__cxx1112basic_stringIcSt11char_traitsIcESaIcEEEPKcPNS_4data3net11IQoSManagerESA_EEEvNS0_8LogLevelERKS8_SH_RKiDpT_=so_stub_for_libtelux_data
-Wl,--defsym=_ZN5telux6common3Log10logMessageIJNSt7__cxx1112basic_stringIcSt11char_traitsIcESaIcEEEPKcPNS_4data3net11IQoSManagerESA_iEEEvNS0_8LogLevelERKS8_SH_RKiDpT_=so_stub_for_libtelux_data
-Wl,--defsym=_ZN5telux6common3Log10logMessageIJPKc13dsi_net_evt_tEEEvNS0_8LogLevelERKNSt7__cxx1112basic_stringIcSt11char_traitsIcESaIcEEESE_RKiDpT_=so_stub_for_libtelux_data
-Wl,--defsym=_ZN5telux6common3Log10logMessageIJPKc13dsi_net_evt_tS4_EEEvNS0_8LogLevelERKNSt7__cxx1112basic_stringIcSt11char_traitsIcESaIcEEESE_RKiDpT_=so_stub_for_libtelux_data
-Wl,--defsym=_ZN5telux6common3Log10logMessageIJPKc18qmi_error_type_v01EEEvNS0_8LogLevelERKNSt7__cxx1112basic_stringIcSt11char_traitsIcESaIcEEESE_RKiDpT_=so_stub_for_libtelux_data
-Wl,--defsym=_ZN5telux6common3Log10logMessageIJPKc31qcmap_msgr_wwan_status_enum_v01EEEvNS0_8LogLevelERKNSt7__cxx1112basic_stringIcSt11char_traitsIcESaIcEEESE_RKiDpT_=so_stub_for_libtelux_data
-Wl,--defsym=_ZN5telux6common3Log10logMessageIJPKc6SlotIdEEEvNS0_8LogLevelERKNSt7__cxx1112basic_stringIcSt11char_traitsIcESaIcEEESE_RKiDpT_=so_stub_for_libtelux_data
-Wl,--defsym=_ZN5telux6common3Log10logMessageIJPKc6SlotIdS4_S4_EEEvNS0_8LogLevelERKNSt7__cxx1112basic_stringIcSt11char_traitsIcESaIcEEESE_RKiDpT_=so_stub_for_libtelux_data
-Wl,--defsym=_ZN5telux6common3Log10logMessageIJPKcbEEEvNS0_8LogLevelERKNSt7__cxx1112basic_stringIcSt11char_traitsIcESaIcEEESD_RKiDpT_=so_stub_for_libtelux_data
-Wl,--defsym=_ZN5telux6common3Log10logMessageIJPKcEEEvNS0_8LogLevelERKNSt7__cxx1112basic_stringIcSt11char_traitsIcESaIcEEESD_RKiDpT_=so_stub_for_libtelux_data
-Wl,--defsym=_ZN5telux6common3Log10logMessageIJPKchEEEvNS0_8LogLevelERKNSt7__cxx1112basic_stringIcSt11char_traitsIcESaIcEEESD_RKiDpT_=so_stub_for_libtelux_data
-Wl,--defsym=_ZN5telux6common3Log10logMessageIJPKci18dsi_v2x_ind_type_tEEEvNS0_8LogLevelERKNSt7__cxx1112basic_stringIcSt11char_traitsIcESaIcEEESE_RKiDpT_=so_stub_for_libtelux_data
-Wl,--defsym=_ZN5telux6common3Log10logMessageIJPKciEEEvNS0_8LogLevelERKNSt7__cxx1112basic_stringIcSt11char_traitsIcESaIcEEESD_RKiDpT_=so_stub_for_libtelux_data
-Wl,--defsym=_ZN5telux6common3Log10logMessageIJPKciS4_iEEEvNS0_8LogLevelERKNSt7__cxx1112basic_stringIcSt11char_traitsIcESaIcEEESD_RKiDpT_=so_stub_for_libtelux_data
-Wl,--defsym=_ZN5telux6common3Log10logMessageIJPKciS4_iS4_iEEEvNS0_8LogLevelERKNSt7__cxx1112basic_stringIcSt11char_traitsIcESaIcEEESD_RKiDpT_=so_stub_for_libtelux_data
-Wl,--defsym=_ZN5telux6common3Log10logMessageIJPKciS4_iS4_NSt7__cxx1112basic_stringIcSt11char_traitsIcESaIcEEES4_SA_EEEvNS0_8LogLevelERKSA_SD_RKiDpT_=so_stub_for_libtelux_data
-Wl,--defsym=_ZN5telux6common3Log10logMessageIJPKcjEEEvNS0_8LogLevelERKNSt7__cxx1112basic_stringIcSt11char_traitsIcESaIcEEESD_RKiDpT_=so_stub_for_libtelux_data
-Wl,--defsym=_ZN5telux6common3Log10logMessageIJPKcjS4_jEEEvNS0_8LogLevelERKNSt7__cxx1112basic_stringIcSt11char_traitsIcESaIcEEESD_RKiDpT_=so_stub_for_libtelux_data
-Wl,--defsym=_ZN5telux6common3Log10logMessageIJPKcjS4_NSt7__cxx1112basic_stringIcSt11char_traitsIcESaIcEEEEEEvNS0_8LogLevelERKSA_SD_RKiDpT_=so_stub_for_libtelux_data
-Wl,--defsym=_ZN5telux6common3Log10logMessageIJPKcmEEEvNS0_8LogLevelERKNSt7__cxx1112basic_stringIcSt11char_traitsIcESaIcEEESD_RKiDpT_=so_stub_for_libtelux_data
-Wl,--defsym=_ZN5telux6common3Log10logMessageIJPKcmS4_mEEEvNS0_8LogLevelERKNSt7__cxx1112basic_stringIcSt11char_traitsIcESaIcEEESD_RKiDpT_=so_stub_for_libtelux_data
-Wl,--defsym=_ZN5telux6common3Log10logMessageIJPKcNSt7__cxx1112basic_stringIcSt11char_traitsIcESaIcEEEEEEvNS0_8LogLevelERKSA_SD_RKiDpT_=so_stub_for_libtelux_data
-Wl,--defsym=_ZN5telux6common3Log10logMessageIJPKcNSt7__cxx1112basic_stringIcSt11char_traitsIcESaIcEEES4_iEEEvNS0_8LogLevelERKSA_SD_RKiDpT_=so_stub_for_libtelux_data
-Wl,--defsym=_ZN5telux6common3Log10logMessageIJPKcNSt7__cxx1112basic_stringIcSt11char_traitsIcESaIcEEES4_PcEEEvNS0_8LogLevelERKSA_SE_RKiDpT_=so_stub_for_libtelux_data
-Wl,--defsym=_ZN5telux6common3Log10logMessageIJPKcNSt7__cxx1112basic_stringIcSt11char_traitsIcESaIcEEES4_PNS_4data16IDataLinkManagerEEEEvNS0_8LogLevelERKSA_SG_RKiDpT_=so_stub_for_libtelux_data
-Wl,--defsym=_ZN5telux6common3Log10logMessageIJPKcNSt7__cxx1112basic_stringIcSt11char_traitsIcESaIcEEES4_PNS_4data16IDualDataManagerEEEEvNS0_8LogLevelERKSA_SG_RKiDpT_=so_stub_for_libtelux_data
-Wl,--defsym=_ZN5telux6common3Log10logMessageIJPKcNSt7__cxx1112basic_stringIcSt11char_traitsIcESaIcEEES4_PNS_4data17IKeepAliveManagerEEEEvNS0_8LogLevelERKSA_SG_RKiDpT_=so_stub_for_libtelux_data
-Wl,--defsym=_ZN5telux6common3Log10logMessageIJPKcNSt7__cxx1112basic_stringIcSt11char_traitsIcESaIcEEES4_PNS_4data19IDataControlManagerEEEEvNS0_8LogLevelERKSA_SG_RKiDpT_=so_stub_for_libtelux_data
-Wl,--defsym=_ZN5telux6common3Log10logMessageIJPKcNSt7__cxx1112basic_stringIcSt11char_traitsIcESaIcEEES4_PNS_4data22IDataConnectionManagerEEEEvNS0_8LogLevelERKSA_SG_RKiDpT_=so_stub_for_libtelux_data
-Wl,--defsym=_ZN5telux6common3Log10logMessageIJPKcNSt7__cxx1112basic_stringIcSt11char_traitsIcESaIcEEES4_PNS_4data3net11INatManagerEEEEvNS0_8LogLevelERKSA_SH_RKiDpT_=so_stub_for_libtelux_data
-Wl,--defsym=_ZN5telux6common3Log10logMessageIJPKcNSt7__cxx1112basic_stringIcSt11char_traitsIcESaIcEEES4_PNS_4data3net11IQoSManagerEEEEvNS0_8LogLevelERKSA_SH_RKiDpT_=so_stub_for_libtelux_data
-Wl,--defsym=_ZN5telux6common3Log10logMessageIJPKcNSt7__cxx1112basic_stringIcSt11char_traitsIcESaIcEEES4_SA_EEEvNS0_8LogLevelERKSA_SD_RKiDpT_=so_stub_for_libtelux_data
-Wl,--defsym=_ZN5telux6common3Log10logMessageIJPKcNSt7__cxx1112basic_stringIcSt11char_traitsIcESaIcEEES4_SA_S4_SA_EEEvNS0_8LogLevelERKSA_SD_RKiDpT_=so_stub_for_libtelux_data
-Wl,--defsym=_ZN5telux6common3Log10logMessageIJPKcPcEEEvNS0_8LogLevelERKNSt7__cxx1112basic_stringIcSt11char_traitsIcESaIcEEESE_RKiDpT_=so_stub_for_libtelux_data
-Wl,--defsym=_ZN5telux6common3Log10logMessageIJPKcPcS4_tS4_tS4_iEEEvNS0_8LogLevelERKNSt7__cxx1112basic_stringIcSt11char_traitsIcESaIcEEESE_RKiDpT_=so_stub_for_libtelux_data
-Wl,--defsym=_ZN5telux6common3Log10logMessageIJPKcPhEEEvNS0_8LogLevelERKNSt7__cxx1112basic_stringIcSt11char_traitsIcESaIcEEESE_RKiDpT_=so_stub_for_libtelux_data
-Wl,--defsym=_ZN5telux6common3Log10logMessageIJPKcPhS4_NSt7__cxx1112basic_stringIcSt11char_traitsIcESaIcEEEEEEvNS0_8LogLevelERKSB_SE_RKiDpT_=so_stub_for_libtelux_data
-Wl,--defsym=_ZN5telux6common3Log10logMessageIJPKcS4_18dsi_v2x_err_type_tEEEvNS0_8LogLevelERKNSt7__cxx1112basic_stringIcSt11char_traitsIcESaIcEEESE_RKiDpT_=so_stub_for_libtelux_data
-Wl,--defsym=_ZN5telux6common3Log10logMessageIJPKcS4_29qcmap_msgr_wwan_call_type_v01EEEvNS0_8LogLevelERKNSt7__cxx1112basic_stringIcSt11char_traitsIcESaIcEEESE_RKiDpT_=so_stub_for_libtelux_data
-Wl,--defsym=_ZN5telux6common3Log10logMessageIJPKcS4_30dsd_dds_switch_result_enum_v01EEEvNS0_8LogLevelERKNSt7__cxx1112basic_stringIcSt11char_traitsIcESaIcEEESE_RKiDpT_=so_stub_for_libtelux_data
-Wl,--defsym=_ZN5telux6common3Log10logMessageIJPKcS4_38qcmap_msgr_qos_xport_protocol_enum_v01EEEvNS0_8LogLevelERKNSt7__cxx1112basic_stringIcSt11char_traitsIcESaIcEEESE_RKiDpT_=so_stub_for_libtelux_data
-Wl,--defsym=_ZN5telux6common3Log10logMessageIJPKcS4_39qcmap_msgr_qos_ip_flow_trf_cls_enum_v01EEEvNS0_8LogLevelERKNSt7__cxx1112basic_stringIcSt11char_traitsIcESaIcEEESE_RKiDpT_=so_stub_for_libtelux_data
-Wl,--defsym=_ZN5telux6common3Log10logMessageIJPKcS4_41qcmap_msgr_qos_flow_state_change_enum_v01EEEvNS0_8LogLevelERKNSt7__cxx1112basic_stringIcSt11char_traitsIcESaIcEEESE_RKiDpT_=so_stub_for_libtelux_data
-Wl,--defsym=_ZN5telux6common3Log10logMessageIJPKcS4_44qcmap_msgr_service_instance_id_type_enum_v01S4_iS4_iS4_iEEEvNS0_8LogLevelERKNSt7__cxx1112basic_stringIcSt11char_traitsIcESaIcEEESE_RKiDpT_=so_stub_for_libtelux_data
-Wl,--defsym=_ZN5telux6common3Log10logMessageIJPKcS4_6SlotIdEEEvNS0_8LogLevelERKNSt7__cxx1112basic_stringIcSt11char_traitsIcESaIcEEESE_RKiDpT_=so_stub_for_libtelux_data
-Wl,--defsym=_ZN5telux6common3Log10logMessageIJPKcS4_6SlotIdS4_iS4_NSt7__cxx1112basic_stringIcSt11char_traitsIcESaIcEEES4_iS4_iS4_iEEEvNS0_8LogLevelERKSB_SE_RKiDpT_=so_stub_for_libtelux_data
-Wl,--defsym=_ZN5telux6common3Log10logMessageIJPKcS4_bEEEvNS0_8LogLevelERKNSt7__cxx1112basic_stringIcSt11char_traitsIcESaIcEEESD_RKiDpT_=so_stub_for_libtelux_data
-Wl,--defsym=_ZN5telux6common3Log10logMessageIJPKcS4_bS4_iEEEvNS0_8LogLevelERKNSt7__cxx1112basic_stringIcSt11char_traitsIcESaIcEEESD_RKiDpT_=so_stub_for_libtelux_data
-Wl,--defsym=_ZN5telux6common3Log10logMessageIJPKcS4_bS4_NSt7__cxx1112basic_stringIcSt11char_traitsIcESaIcEEEEEEvNS0_8LogLevelERKSA_SD_RKiDpT_=so_stub_for_libtelux_data
-Wl,--defsym=_ZN5telux6common3Log10logMessageIJPKcS4_EEEvNS0_8LogLevelERKNSt7__cxx1112basic_stringIcSt11char_traitsIcESaIcEEESD_RKiDpT_=so_stub_for_libtelux_data
-Wl,--defsym=_ZN5telux6common3Log10logMessageIJPKcS4_hEEEvNS0_8LogLevelERKNSt7__cxx1112basic_stringIcSt11char_traitsIcESaIcEEESD_RKiDpT_=so_stub_for_libtelux_data
-Wl,--defsym=_ZN5telux6common3Log10logMessageIJPKcS4_hS4_hEEEvNS0_8LogLevelERKNSt7__cxx1112basic_stringIcSt11char_traitsIcESaIcEEESD_RKiDpT_=so_stub_for_libtelux_data
-Wl,--defsym=_ZN5telux6common3Log10logMessageIJPKcS4_hS4_hS4_hS4_jEEEvNS0_8LogLevelERKNSt7__cxx1112basic_stringIcSt11char_traitsIcESaIcEEESD_RKiDpT_=so_stub_for_libtelux_data
-Wl,--defsym=_ZN5telux6common3Log10logMessageIJPKcS4_hS4_iEEEvNS0_8LogLevelERKNSt7__cxx1112basic_stringIcSt11char_traitsIcESaIcEEESD_RKiDpT_=so_stub_for_libtelux_data
-Wl,--defsym=_ZN5telux6common3Log10logMessageIJPKcS4_iEEEvNS0_8LogLevelERKNSt7__cxx1112basic_stringIcSt11char_traitsIcESaIcEEESD_RKiDpT_=so_stub_for_libtelux_data
-Wl,--defsym=_ZN5telux6common3Log10logMessageIJPKcS4_iS4_EEEvNS0_8LogLevelERKNSt7__cxx1112basic_stringIcSt11char_traitsIcESaIcEEESD_RKiDpT_=so_stub_for_libtelux_data
-Wl,--defsym=_ZN5telux6common3Log10logMessageIJPKcS4_iS4_iEEEvNS0_8LogLevelERKNSt7__cxx1112basic_stringIcSt11char_traitsIcESaIcEEESD_RKiDpT_=so_stub_for_libtelux_data
-Wl,--defsym=_ZN5telux6common3Log10logMessageIJPKcS4_iS4_iS4_6SlotIdEEEvNS0_8LogLevelERKNSt7__cxx1112basic_stringIcSt11char_traitsIcESaIcEEESE_RKiDpT_=so_stub_for_libtelux_data
-Wl,--defsym=_ZN5telux6common3Log10logMessageIJPKcS4_iS4_iS4_bEEEvNS0_8LogLevelERKNSt7__cxx1112basic_stringIcSt11char_traitsIcESaIcEEESD_RKiDpT_=so_stub_for_libtelux_data
-Wl,--defsym=_ZN5telux6common3Log10logMessageIJPKcS4_iS4_iS4_hS4_hEEEvNS0_8LogLevelERKNSt7__cxx1112basic_stringIcSt11char_traitsIcESaIcEEESD_RKiDpT_=so_stub_for_libtelux_data
-Wl,--defsym=_ZN5telux6common3Log10logMessageIJPKcS4_iS4_iS4_iEEEvNS0_8LogLevelERKNSt7__cxx1112basic_stringIcSt11char_traitsIcESaIcEEESD_RKiDpT_=so_stub_for_libtelux_data
-Wl,--defsym=_ZN5telux6common3Log10logMessageIJPKcS4_iS4_iS4_iS4_bEEEvNS0_8LogLevelERKNSt7__cxx1112basic_stringIcSt11char_traitsIcESaIcEEESD_RKiDpT_=so_stub_for_libtelux_data
-Wl,--defsym=_ZN5telux6common3Log10logMessageIJPKcS4_iS4_iS4_PcEEEvNS0_8LogLevelERKNSt7__cxx1112basic_stringIcSt11char_traitsIcESaIcEEESE_RKiDpT_=so_stub_for_libtelux_data
-Wl,--defsym=_ZN5telux6common3Log10logMessageIJPKcS4_iS4_jEEEvNS0_8LogLevelERKNSt7__cxx1112basic_stringIcSt11char_traitsIcESaIcEEESD_RKiDpT_=so_stub_for_libtelux_data
-Wl,--defsym=_ZN5telux6common3Log10logMessageIJPKcS4_iS4_mS4_mEEEvNS0_8LogLevelERKNSt7__cxx1112basic_stringIcSt11char_traitsIcESaIcEEESD_RKiDpT_=so_stub_for_libtelux_data
-Wl,--defsym=_ZN5telux6common3Log10logMessageIJPKcS4_iS4_NSt7__cxx1112basic_stringIcSt11char_traitsIcESaIcEEEEEEvNS0_8LogLevelERKSA_SD_RKiDpT_=so_stub_for_libtelux_data
-Wl,--defsym=_ZN5telux6common3Log10logMessageIJPKcS4_iS4_NSt7__cxx1112basic_stringIcSt11char_traitsIcESaIcEEES4_iEEEvNS0_8LogLevelERKSA_SD_RKiDpT_=so_stub_for_libtelux_data
-Wl,--defsym=_ZN5telux6common3Log10logMessageIJPKcS4_iS4_NSt7__cxx1112basic_stringIcSt11char_traitsIcESaIcEEES4_SA_EEEvNS0_8LogLevelERKSA_SD_RKiDpT_=so_stub_for_libtelux_data
-Wl,--defsym=_ZN5telux6common3Log10logMessageIJPKcS4_iS4_PcEEEvNS0_8LogLevelERKNSt7__cxx1112basic_stringIcSt11char_traitsIcESaIcEEESE_RKiDpT_=so_stub_for_libtelux_data
-Wl,--defsym=_ZN5telux6common3Log10logMessageIJPKcS4_iS4_S4_EEEvNS0_8LogLevelERKNSt7__cxx1112basic_stringIcSt11char_traitsIcESaIcEEESD_RKiDpT_=so_stub_for_libtelux_data
-Wl,--defsym=_ZN5telux6common3Log10logMessageIJPKcS4_iS4_S4_jS4_bEEEvNS0_8LogLevelERKNSt7__cxx1112basic_stringIcSt11char_traitsIcESaIcEEESD_RKiDpT_=so_stub_for_libtelux_data
-Wl,--defsym=_ZN5telux6common3Log10logMessageIJPKcS4_iS4_sS4_iEEEvNS0_8LogLevelERKNSt7__cxx1112basic_stringIcSt11char_traitsIcESaIcEEESD_RKiDpT_=so_stub_for_libtelux_data
-Wl,--defsym=_ZN5telux6common3Log10logMessageIJPKcS4_jEEEvNS0_8LogLevelERKNSt7__cxx1112basic_stringIcSt11char_traitsIcESaIcEEESD_RKiDpT_=so_stub_for_libtelux_data
-Wl,--defsym=_ZN5telux6common3Log10logMessageIJPKcS4_jS4_6SlotIdEEEvNS0_8LogLevelERKNSt7__cxx1112basic_stringIcSt11char_traitsIcESaIcEEESE_RKiDpT_=so_stub_for_libtelux_data
-Wl,--defsym=_ZN5telux6common3Log10logMessageIJPKcS4_jS4_EEEvNS0_8LogLevelERKNSt7__cxx1112basic_stringIcSt11char_traitsIcESaIcEEESD_RKiDpT_=so_stub_for_libtelux_data
-Wl,--defsym=_ZN5telux6common3Log10logMessageIJPKcS4_jS4_iEEEvNS0_8LogLevelERKNSt7__cxx1112basic_stringIcSt11char_traitsIcESaIcEEESD_RKiDpT_=so_stub_for_libtelux_data
-Wl,--defsym=_ZN5telux6common3Log10logMessageIJPKcS4_jS4_iS4_41qcmap_msgr_qos_flow_state_change_enum_v01EEEvNS0_8LogLevelERKNSt7__cxx1112basic_stringIcSt11char_traitsIcESaIcEEESE_RKiDpT_=so_stub_for_libtelux_data
-Wl,--defsym=_ZN5telux6common3Log10logMessageIJPKcS4_jS4_iS4_sEEEvNS0_8LogLevelERKNSt7__cxx1112basic_stringIcSt11char_traitsIcESaIcEEESD_RKiDpT_=so_stub_for_libtelux_data
-Wl,--defsym=_ZN5telux6common3Log10logMessageIJPKcS4_jS4_jEEEvNS0_8LogLevelERKNSt7__cxx1112basic_stringIcSt11char_traitsIcESaIcEEESD_RKiDpT_=so_stub_for_libtelux_data
-Wl,--defsym=_ZN5telux6common3Log10logMessageIJPKcS4_jS4_S4_EEEvNS0_8LogLevelERKNSt7__cxx1112basic_stringIcSt11char_traitsIcESaIcEEESD_RKiDpT_=so_stub_for_libtelux_data
-Wl,--defsym=_ZN5telux6common3Log10logMessageIJPKcS4_jS4_tS4_NSt7__cxx1112basic_stringIcSt11char_traitsIcESaIcEEEEEEvNS0_8LogLevelERKSA_SD_RKiDpT_=so_stub_for_libtelux_data
-Wl,--defsym=_ZN5telux6common3Log10logMessageIJPKcS4_jS4_tS4_tS4_jS4_jEEEvNS0_8LogLevelERKNSt7__cxx1112basic_stringIcSt11char_traitsIcESaIcEEESD_RKiDpT_=so_stub_for_libtelux_data
-Wl,--defsym=_ZN5telux6common3Log10logMessageIJPKcS4_mEEEvNS0_8LogLevelERKNSt7__cxx1112basic_stringIcSt11char_traitsIcESaIcEEESD_RKiDpT_=so_stub_for_libtelux_data
-Wl,--defsym=_ZN5telux6common3Log10logMessageIJPKcS4_mS4_iS4_iEEEvNS0_8LogLevelERKNSt7__cxx1112basic_stringIcSt11char_traitsIcESaIcEEESD_RKiDpT_=so_stub_for_libtelux_data
-Wl,--defsym=_ZN5telux6common3Log10logMessageIJPKcS4_mS4_iS4_iS4_jEEEvNS0_8LogLevelERKNSt7__cxx1112basic_stringIcSt11char_traitsIcESaIcEEESD_RKiDpT_=so_stub_for_libtelux_data
-Wl,--defsym=_ZN5telux6common3Log10logMessageIJPKcS4_mS4_mEEEvNS0_8LogLevelERKNSt7__cxx1112basic_stringIcSt11char_traitsIcESaIcEEESD_RKiDpT_=so_stub_for_libtelux_data
-Wl,--defsym=_ZN5telux6common3Log10logMessageIJPKcS4_NSt7__cxx1112basic_stringIcSt11char_traitsIcESaIcEEEEEEvNS0_8LogLevelERKSA_SD_RKiDpT_=so_stub_for_libtelux_data
-Wl,--defsym=_ZN5telux6common3Log10logMessageIJPKcS4_NSt7__cxx1112basic_stringIcSt11char_traitsIcESaIcEEES4_EEEvNS0_8LogLevelERKSA_SD_RKiDpT_=so_stub_for_libtelux_data
-Wl,--defsym=_ZN5telux6common3Log10logMessageIJPKcS4_NSt7__cxx1112basic_stringIcSt11char_traitsIcESaIcEEES4_iS4_PSt6vectorISt8functionIFvNS0_13ServiceStatusEEESaISF_EEEEEvNS0_8LogLevelERKSA_SL_RKiDpT_=so_stub_for_libtelux_data
-Wl,--defsym=_ZN5telux6common3Log10logMessageIJPKcS4_NSt7__cxx1112basic_stringIcSt11char_traitsIcESaIcEEES4_PNS_4data16IDataLinkManagerEEEEvNS0_8LogLevelERKSA_SG_RKiDpT_=so_stub_for_libtelux_data
-Wl,--defsym=_ZN5telux6common3Log10logMessageIJPKcS4_NSt7__cxx1112basic_stringIcSt11char_traitsIcESaIcEEES4_PNS_4data16IDualDataManagerEEEEvNS0_8LogLevelERKSA_SG_RKiDpT_=so_stub_for_libtelux_data
-Wl,--defsym=_ZN5telux6common3Log10logMessageIJPKcS4_NSt7__cxx1112basic_stringIcSt11char_traitsIcESaIcEEES4_PNS_4data17IKeepAliveManagerEEEEvNS0_8LogLevelERKSA_SG_RKiDpT_=so_stub_for_libtelux_data
-Wl,--defsym=_ZN5telux6common3Log10logMessageIJPKcS4_NSt7__cxx1112basic_stringIcSt11char_traitsIcESaIcEEES4_PNS_4data19IDataControlManagerEEEEvNS0_8LogLevelERKSA_SG_RKiDpT_=so_stub_for_libtelux_data
-Wl,--defsym=_ZN5telux6common3Log10logMessageIJPKcS4_NSt7__cxx1112basic_stringIcSt11char_traitsIcESaIcEEES4_PNS_4data22IDataConnectionManagerEEEEvNS0_8LogLevelERKSA_SG_RKiDpT_=so_stub_for_libtelux_data
-Wl,--defsym=_ZN5telux6common3Log10logMessageIJPKcS4_NSt7__cxx1112basic_stringIcSt11char_traitsIcESaIcEEES4_PNS_4data3net11INatManagerEEEEvNS0_8LogLevelERKSA_SH_RKiDpT_=so_stub_for_libtelux_data
-Wl,--defsym=_ZN5telux6common3Log10logMessageIJPKcS4_NSt7__cxx1112basic_stringIcSt11char_traitsIcESaIcEEES4_PNS_4data3net11IQoSManagerEEEEvNS0_8LogLevelERKSA_SH_RKiDpT_=so_stub_for_libtelux_data
-Wl,--defsym=_ZN5telux6common3Log10logMessageIJPKcS4_NSt7__cxx1112basic_stringIcSt11char_traitsIcESaIcEEES4_S4_EEEvNS0_8LogLevelERKSA_SD_RKiDpT_=so_stub_for_libtelux_data
-Wl,--defsym=_ZN5telux6common3Log10logMessageIJPKcS4_NSt7__cxx1112basic_stringIcSt11char_traitsIcESaIcEEES4_SA_EEEvNS0_8LogLevelERKSA_SD_RKiDpT_=so_stub_for_libtelux_data
-Wl,--defsym=_ZN5telux6common3Log10logMessageIJPKcS4_NSt7__cxx1112basic_stringIcSt11char_traitsIcESaIcEEES4_SA_S4_SA_EEEvNS0_8LogLevelERKSA_SD_RKiDpT_=so_stub_for_libtelux_data
-Wl,--defsym=_ZN5telux6common3Log10logMessageIJPKcS4_NSt7__cxx1112basic_stringIcSt11char_traitsIcESaIcEEES4_tEEEvNS0_8LogLevelERKSA_SD_RKiDpT_=so_stub_for_libtelux_data
-Wl,--defsym=_ZN5telux6common3Log10logMessageIJPKcS4_P17qmi_client_structS4_jS4_jEEEvNS0_8LogLevelERKNSt7__cxx1112basic_stringIcSt11char_traitsIcESaIcEEESF_RKiDpT_=so_stub_for_libtelux_data
-Wl,--defsym=_ZN5telux6common3Log10logMessageIJPKcS4_PcEEEvNS0_8LogLevelERKNSt7__cxx1112basic_stringIcSt11char_traitsIcESaIcEEESE_RKiDpT_=so_stub_for_libtelux_data
-Wl,--defsym=_ZN5telux6common3Log10logMessageIJPKcS4_PSt8functionIFvNS0_13ServiceStatusEEEEEEvNS0_8LogLevelERKNSt7__cxx1112basic_stringIcSt11char_traitsIcESaIcEEESI_RKiDpT_=so_stub_for_libtelux_data
-Wl,--defsym=_ZN5telux6common3Log10logMessageIJPKcS4_PvEEEvNS0_8LogLevelERKNSt7__cxx1112basic_stringIcSt11char_traitsIcESaIcEEESE_RKiDpT_=so_stub_for_libtelux_data
-Wl,--defsym=_ZN5telux6common3Log10logMessageIJPKcS4_PvS4_iEEEvNS0_8LogLevelERKNSt7__cxx1112basic_stringIcSt11char_traitsIcESaIcEEESE_RKiDpT_=so_stub_for_libtelux_data
-Wl,--defsym=_ZN5telux6common3Log10logMessageIJPKcS4_S4_EEEvNS0_8LogLevelERKNSt7__cxx1112basic_stringIcSt11char_traitsIcESaIcEEESD_RKiDpT_=so_stub_for_libtelux_data
-Wl,--defsym=_ZN5telux6common3Log10logMessageIJPKcS4_S4_iS4_PcEEEvNS0_8LogLevelERKNSt7__cxx1112basic_stringIcSt11char_traitsIcESaIcEEESE_RKiDpT_=so_stub_for_libtelux_data
-Wl,--defsym=_ZN5telux6common3Log10logMessageIJPKcS4_S4_NSt7__cxx1112basic_stringIcSt11char_traitsIcESaIcEEEEEEvNS0_8LogLevelERKSA_SD_RKiDpT_=so_stub_for_libtelux_data
-Wl,--defsym=_ZN5telux6common3Log10logMessageIJPKcS4_S4_S4_iS4_PSt6vectorISt8functionIFvNS0_13ServiceStatusEEESaIS9_EEEEEvNS0_8LogLevelERKNSt7__cxx1112basic_stringIcSt11char_traitsIcESaIcEEESL_RKiDpT_=so_stub_for_libtelux_data
-Wl,--defsym=_ZN5telux6common3Log10logMessageIJPKcS4_S4_S4_PSt6vectorISt8functionIFvNS0_13ServiceStatusEEESaIS9_EEEEEvNS0_8LogLevelERKNSt7__cxx1112basic_stringIcSt11char_traitsIcESaIcEEESL_RKiDpT_=so_stub_for_libtelux_data
-Wl,--defsym=_ZN5telux6common3Log10logMessageIJPKcS4_St10shared_ptrINS_4data9IDataCallEEEEEvNS0_8LogLevelERKNSt7__cxx1112basic_stringIcSt11char_traitsIcESaIcEEESH_RKiDpT_=so_stub_for_libtelux_data
-Wl,--defsym=_ZN5telux6common3Log10logMessageIJPKcS4_tEEEvNS0_8LogLevelERKNSt7__cxx1112basic_stringIcSt11char_traitsIcESaIcEEESD_RKiDpT_=so_stub_for_libtelux_data
-Wl,--defsym=_ZN5telux6common3Log10logMessageIJPKctEEEvNS0_8LogLevelERKNSt7__cxx1112basic_stringIcSt11char_traitsIcESaIcEEESD_RKiDpT_=so_stub_for_libtelux_data
-Wl,--defsym=_ZN5telux6common3Log10logMessageIJPKctS4_tEEEvNS0_8LogLevelERKNSt7__cxx1112basic_stringIcSt11char_traitsIcESaIcEEESD_RKiDpT_=so_stub_for_libtelux_data
-Wl,--defsym=_ZN5telux6common3Log16constructMessageINSt7__cxx1119basic_ostringstreamIcSt11char_traitsIcESaIcEEEbJPKcNS3_12basic_stringIcS6_S7_EEEEEvRT_T0_DpT1_=so_stub_for_libtelux_data
-Wl,--defsym=_ZN5telux6common3Log16constructMessageINSt7__cxx1119basic_ostringstreamIcSt11char_traitsIcESaIcEEEhJPKchSA_jEEEvRT_T0_DpT1_=so_stub_for_libtelux_data
-Wl,--defsym=_ZN5telux6common3Log16constructMessageINSt7__cxx1119basic_ostringstreamIcSt11char_traitsIcESaIcEEEiJPKciSA_bEEEvRT_T0_DpT1_=so_stub_for_libtelux_data
-Wl,--defsym=_ZN5telux6common3Log16constructMessageINSt7__cxx1119basic_ostringstreamIcSt11char_traitsIcESaIcEEEiJPKciSA_jEEEvRT_T0_DpT1_=so_stub_for_libtelux_data
-Wl,--defsym=_ZN5telux6common3Log16constructMessageINSt7__cxx1119basic_ostringstreamIcSt11char_traitsIcESaIcEEEiJPKciSA_NS3_12basic_stringIcS6_S7_EESA_SC_EEEvRT_T0_DpT1_=so_stub_for_libtelux_data
-Wl,--defsym=_ZN5telux6common3Log16constructMessageINSt7__cxx1119basic_ostringstreamIcSt11char_traitsIcESaIcEEEiJPKcNS3_12basic_stringIcS6_S7_EEEEEvRT_T0_DpT1_=so_stub_for_libtelux_data
-Wl,--defsym=_ZN5telux6common3Log16constructMessageINSt7__cxx1119basic_ostringstreamIcSt11char_traitsIcESaIcEEEiJPKcNS3_12basic_stringIcS6_S7_EESA_iEEEvRT_T0_DpT1_=so_stub_for_libtelux_data
-Wl,--defsym=_ZN5telux6common3Log16constructMessageINSt7__cxx1119basic_ostringstreamIcSt11char_traitsIcESaIcEEEiJPKcNS3_12basic_stringIcS6_S7_EESA_SC_EEEvRT_T0_DpT1_=so_stub_for_libtelux_data
-Wl,--defsym=_ZN5telux6common3Log16constructMessageINSt7__cxx1119basic_ostringstreamIcSt11char_traitsIcESaIcEEEjJPKcNS3_12basic_stringIcS6_S7_EEEEEvRT_T0_DpT1_=so_stub_for_libtelux_data
-Wl,--defsym=_ZN5telux6common3Log16constructMessageINSt7__cxx1119basic_ostringstreamIcSt11char_traitsIcESaIcEEEjJPKctSA_NS3_12basic_stringIcS6_S7_EEEEEvRT_T0_DpT1_=so_stub_for_libtelux_data
-Wl,--defsym=_ZN5telux6common3Log16constructMessageINSt7__cxx1119basic_ostringstreamIcSt11char_traitsIcESaIcEEENS3_12basic_stringIcS6_S7_EEJPKcmSC_PNS_4data16IDataLinkManagerESC_iEEEvRT_T0_DpT1_=so_stub_for_libtelux_data
-Wl,--defsym=_ZN5telux6common3Log16constructMessageINSt7__cxx1119basic_ostringstreamIcSt11char_traitsIcESaIcEEENS3_12basic_stringIcS6_S7_EEJPKcmSC_PNS_4data16IDualDataManagerESC_iEEEvRT_T0_DpT1_=so_stub_for_libtelux_data
-Wl,--defsym=_ZN5telux6common3Log16constructMessageINSt7__cxx1119basic_ostringstreamIcSt11char_traitsIcESaIcEEENS3_12basic_stringIcS6_S7_EEJPKcmSC_PNS_4data17IKeepAliveManagerESC_iEEEvRT_T0_DpT1_=so_stub_for_libtelux_data
-Wl,--defsym=_ZN5telux6common3Log16constructMessageINSt7__cxx1119basic_ostringstreamIcSt11char_traitsIcESaIcEEENS3_12basic_stringIcS6_S7_EEJPKcmSC_PNS_4data19IDataControlManagerESC_iEEEvRT_T0_DpT1_=so_stub_for_libtelux_data
-Wl,--defsym=_ZN5telux6common3Log16constructMessageINSt7__cxx1119basic_ostringstreamIcSt11char_traitsIcESaIcEEENS3_12basic_stringIcS6_S7_EEJPKcmSC_PNS_4data22IDataConnectionManagerESC_iEEEvRT_T0_DpT1_=so_stub_for_libtelux_data
-Wl,--defsym=_ZN5telux6common3Log16constructMessageINSt7__cxx1119basic_ostringstreamIcSt11char_traitsIcESaIcEEENS3_12basic_stringIcS6_S7_EEJPKcmSC_PNS_4data3net11INatManagerESC_iEEEvRT_T0_DpT1_=so_stub_for_libtelux_data
-Wl,--defsym=_ZN5telux6common3Log16constructMessageINSt7__cxx1119basic_ostringstreamIcSt11char_traitsIcESaIcEEENS3_12basic_stringIcS6_S7_EEJPKcmSC_PNS_4data3net11IQoSManagerESC_iEEEvRT_T0_DpT1_=so_stub_for_libtelux_data
-Wl,--defsym=_ZN5telux6common3Log16constructMessageINSt7__cxx1119basic_ostringstreamIcSt11char_traitsIcESaIcEEENS3_12basic_stringIcS6_S7_EEJPKcSA_EEEvRT_T0_DpT1_=so_stub_for_libtelux_data
-Wl,--defsym=_ZN5telux6common3Log16constructMessageINSt7__cxx1119basic_ostringstreamIcSt11char_traitsIcESaIcEEENS3_12basic_stringIcS6_S7_EEJPKcSA_SC_SA_EEEvRT_T0_DpT1_=so_stub_for_libtelux_data
-Wl,--defsym=_ZN5telux6common3Log16constructMessageINSt7__cxx1119basic_ostringstreamIcSt11char_traitsIcESaIcEEEPcJPKctSB_tSB_iEEEvRT_T0_DpT1_=so_stub_for_libtelux_data
-Wl,--defsym=_ZN5telux6common3Log16constructMessageINSt7__cxx1119basic_ostringstreamIcSt11char_traitsIcESaIcEEEPhJPKcNS3_12basic_stringIcS6_S7_EEEEEvRT_T0_DpT1_=so_stub_for_libtelux_data
-Wl,--defsym=_ZN5telux6common3Log16constructMessageINSt7__cxx1119basic_ostringstreamIcSt11char_traitsIcESaIcEEEPKcJ6SlotIdSA_iSA_NS3_12basic_stringIcS6_S7_EESA_iSA_iSA_iEEEvRT_T0_DpT1_=so_stub_for_libtelux_data
-Wl,--defsym=_ZN5telux6common3Log16constructMessageINSt7__cxx1119basic_ostringstreamIcSt11char_traitsIcESaIcEEEPKcJbSA_NS3_12basic_stringIcS6_S7_EEEEEvRT_T0_DpT1_=so_stub_for_libtelux_data
-Wl,--defsym=_ZN5telux6common3Log16constructMessageINSt7__cxx1119basic_ostringstreamIcSt11char_traitsIcESaIcEEEPKcJiSA_iSA_NS3_12basic_stringIcS6_S7_EESA_SC_EEEvRT_T0_DpT1_=so_stub_for_libtelux_data
-Wl,--defsym=_ZN5telux6common3Log16constructMessageINSt7__cxx1119basic_ostringstreamIcSt11char_traitsIcESaIcEEEPKcJiSA_NS3_12basic_stringIcS6_S7_EEEEEvRT_T0_DpT1_=so_stub_for_libtelux_data
-Wl,--defsym=_ZN5telux6common3Log16constructMessageINSt7__cxx1119basic_ostringstreamIcSt11char_traitsIcESaIcEEEPKcJiSA_NS3_12basic_stringIcS6_S7_EESA_iEEEvRT_T0_DpT1_=so_stub_for_libtelux_data
-Wl,--defsym=_ZN5telux6common3Log16constructMessageINSt7__cxx1119basic_ostringstreamIcSt11char_traitsIcESaIcEEEPKcJiSA_NS3_12basic_stringIcS6_S7_EESA_iSA_iSA_iEEEvRT_T0_DpT1_=so_stub_for_libtelux_data
-Wl,--defsym=_ZN5telux6common3Log16constructMessageINSt7__cxx1119basic_ostringstreamIcSt11char_traitsIcESaIcEEEPKcJiSA_NS3_12basic_stringIcS6_S7_EESA_SC_EEEvRT_T0_DpT1_=so_stub_for_libtelux_data
-Wl,--defsym=_ZN5telux6common3Log16constructMessageINSt7__cxx1119basic_ostringstreamIcSt11char_traitsIcESaIcEEEPKcJiSA_SA_jSA_bEEEvRT_T0_DpT1_=so_stub_for_libtelux_data
-Wl,--defsym=_ZN5telux6common3Log16constructMessageINSt7__cxx1119basic_ostringstreamIcSt11char_traitsIcESaIcEEEPKcJjSA_NS3_12basic_stringIcS6_S7_EEEEEvRT_T0_DpT1_=so_stub_for_libtelux_data
-Wl,--defsym=_ZN5telux6common3Log16constructMessageINSt7__cxx1119basic_ostringstreamIcSt11char_traitsIcESaIcEEEPKcJjSA_tSA_NS3_12basic_stringIcS6_S7_EEEEEvRT_T0_DpT1_=so_stub_for_libtelux_data
-Wl,--defsym=_ZN5telux6common3Log16constructMessageINSt7__cxx1119basic_ostringstreamIcSt11char_traitsIcESaIcEEEPKcJNS3_12basic_stringIcS6_S7_EEEEEvRT_T0_DpT1_=so_stub_for_libtelux_data
-Wl,--defsym=_ZN5telux6common3Log16constructMessageINSt7__cxx1119basic_ostringstreamIcSt11char_traitsIcESaIcEEEPKcJNS3_12basic_stringIcS6_S7_EESA_EEEvRT_T0_DpT1_=so_stub_for_libtelux_data
-Wl,--defsym=_ZN5telux6common3Log16constructMessageINSt7__cxx1119basic_ostringstreamIcSt11char_traitsIcESaIcEEEPKcJNS3_12basic_stringIcS6_S7_EESA_iEEEvRT_T0_DpT1_=so_stub_for_libtelux_data
-Wl,--defsym=_ZN5telux6common3Log16constructMessageINSt7__cxx1119basic_ostringstreamIcSt11char_traitsIcESaIcEEEPKcJNS3_12basic_stringIcS6_S7_EESA_iSA_iSA_iEEEvRT_T0_DpT1_=so_stub_for_libtelux_data
-Wl,--defsym=_ZN5telux6common3Log16constructMessageINSt7__cxx1119basic_ostringstreamIcSt11char_traitsIcESaIcEEEPKcJNS3_12basic_stringIcS6_S7_EESA_iSA_PSt6vectorISt8functionIFvNS0_13ServiceStatusEEESaISH_EEEEEvRT_T0_DpT1_=so_stub_for_libtelux_data
-Wl,--defsym=_ZN5telux6common3Log16constructMessageINSt7__cxx1119basic_ostringstreamIcSt11char_traitsIcESaIcEEEPKcJNS3_12basic_stringIcS6_S7_EESA_PcEEEvRT_T0_DpT1_=so_stub_for_libtelux_data
-Wl,--defsym=_ZN5telux6common3Log16constructMessageINSt7__cxx1119basic_ostringstreamIcSt11char_traitsIcESaIcEEEPKcJNS3_12basic_stringIcS6_S7_EESA_PNS_4data16IDataLinkManagerEEEEvRT_T0_DpT1_=so_stub_for_libtelux_data
-Wl,--defsym=_ZN5telux6common3Log16constructMessageINSt7__cxx1119basic_ostringstreamIcSt11char_traitsIcESaIcEEEPKcJNS3_12basic_stringIcS6_S7_EESA_PNS_4data16IDualDataManagerEEEEvRT_T0_DpT1_=so_stub_for_libtelux_data
-Wl,--defsym=_ZN5telux6common3Log16constructMessageINSt7__cxx1119basic_ostringstreamIcSt11char_traitsIcESaIcEEEPKcJNS3_12basic_stringIcS6_S7_EESA_PNS_4data17IKeepAliveManagerEEEEvRT_T0_DpT1_=so_stub_for_libtelux_data
-Wl,--defsym=_ZN5telux6common3Log16constructMessageINSt7__cxx1119basic_ostringstreamIcSt11char_traitsIcESaIcEEEPKcJNS3_12basic_stringIcS6_S7_EESA_PNS_4data19IDataControlManagerEEEEvRT_T0_DpT1_=so_stub_for_libtelux_data
-Wl,--defsym=_ZN5telux6common3Log16constructMessageINSt7__cxx1119basic_ostringstreamIcSt11char_traitsIcESaIcEEEPKcJNS3_12basic_stringIcS6_S7_EESA_PNS_4data22IDataConnectionManagerEEEEvRT_T0_DpT1_=so_stub_for_libtelux_data
-Wl,--defsym=_ZN5telux6common3Log16constructMessageINSt7__cxx1119basic_ostringstreamIcSt11char_traitsIcESaIcEEEPKcJNS3_12basic_stringIcS6_S7_EESA_PNS_4data3net11INatManagerEEEEvRT_T0_DpT1_=so_stub_for_libtelux_data
-Wl,--defsym=_ZN5telux6common3Log16constructMessageINSt7__cxx1119basic_ostringstreamIcSt11char_traitsIcESaIcEEEPKcJNS3_12basic_stringIcS6_S7_EESA_PNS_4data3net11IQoSManagerEEEEvRT_T0_DpT1_=so_stub_for_libtelux_data
-Wl,--defsym=_ZN5telux6common3Log16constructMessageINSt7__cxx1119basic_ostringstreamIcSt11char_traitsIcESaIcEEEPKcJNS3_12basic_stringIcS6_S7_EESA_SA_EEEvRT_T0_DpT1_=so_stub_for_libtelux_data
-Wl,--defsym=_ZN5telux6common3Log16constructMessageINSt7__cxx1119basic_ostringstreamIcSt11char_traitsIcESaIcEEEPKcJNS3_12basic_stringIcS6_S7_EESA_SC_EEEvRT_T0_DpT1_=so_stub_for_libtelux_data
-Wl,--defsym=_ZN5telux6common3Log16constructMessageINSt7__cxx1119basic_ostringstreamIcSt11char_traitsIcESaIcEEEPKcJNS3_12basic_stringIcS6_S7_EESA_SC_SA_SC_EEEvRT_T0_DpT1_=so_stub_for_libtelux_data
-Wl,--defsym=_ZN5telux6common3Log16constructMessageINSt7__cxx1119basic_ostringstreamIcSt11char_traitsIcESaIcEEEPKcJNS3_12basic_stringIcS6_S7_EESA_tEEEvRT_T0_DpT1_=so_stub_for_libtelux_data
-Wl,--defsym=_ZN5telux6common3Log16constructMessageINSt7__cxx1119basic_ostringstreamIcSt11char_traitsIcESaIcEEEPKcJPhSA_NS3_12basic_stringIcS6_S7_EEEEEvRT_T0_DpT1_=so_stub_for_libtelux_data
-Wl,--defsym=_ZN5telux6common3Log16constructMessageINSt7__cxx1119basic_ostringstreamIcSt11char_traitsIcESaIcEEEPKcJSA_44qcmap_msgr_service_instance_id_type_enum_v01SA_iSA_iSA_iEEEvRT_T0_DpT1_=so_stub_for_libtelux_data
-Wl,--defsym=_ZN5telux6common3Log16constructMessageINSt7__cxx1119basic_ostringstreamIcSt11char_traitsIcESaIcEEEPKcJSA_bSA_iEEEvRT_T0_DpT1_=so_stub_for_libtelux_data
-Wl,--defsym=_ZN5telux6common3Log16constructMessageINSt7__cxx1119basic_ostringstreamIcSt11char_traitsIcESaIcEEEPKcJSA_bSA_NS3_12basic_stringIcS6_S7_EEEEEvRT_T0_DpT1_=so_stub_for_libtelux_data
-Wl,--defsym=_ZN5telux6common3Log16constructMessageINSt7__cxx1119basic_ostringstreamIcSt11char_traitsIcESaIcEEEPKcJSA_hSA_hSA_hSA_jEEEvRT_T0_DpT1_=so_stub_for_libtelux_data
-Wl,--defsym=_ZN5telux6common3Log16constructMessageINSt7__cxx1119basic_ostringstreamIcSt11char_traitsIcESaIcEEEPKcJSA_hSA_iEEEvRT_T0_DpT1_=so_stub_for_libtelux_data
-Wl,--defsym=_ZN5telux6common3Log16constructMessageINSt7__cxx1119basic_ostringstreamIcSt11char_traitsIcESaIcEEEPKcJSA_iSA_iEEEvRT_T0_DpT1_=so_stub_for_libtelux_data
-Wl,--defsym=_ZN5telux6common3Log16constructMessageINSt7__cxx1119basic_ostringstreamIcSt11char_traitsIcESaIcEEEPKcJSA_iSA_iSA_6SlotIdEEEvRT_T0_DpT1_=so_stub_for_libtelux_data
-Wl,--defsym=_ZN5telux6common3Log16constructMessageINSt7__cxx1119basic_ostringstreamIcSt11char_traitsIcESaIcEEEPKcJSA_iSA_iSA_bEEEvRT_T0_DpT1_=so_stub_for_libtelux_data
-Wl,--defsym=_ZN5telux6common3Log16constructMessageINSt7__cxx1119basic_ostringstreamIcSt11char_traitsIcESaIcEEEPKcJSA_iSA_iSA_hSA_hEEEvRT_T0_DpT1_=so_stub_for_libtelux_data
-Wl,--defsym=_ZN5telux6common3Log16constructMessageINSt7__cxx1119basic_ostringstreamIcSt11char_traitsIcESaIcEEEPKcJSA_iSA_iSA_iEEEvRT_T0_DpT1_=so_stub_for_libtelux_data
-Wl,--defsym=_ZN5telux6common3Log16constructMessageINSt7__cxx1119basic_ostringstreamIcSt11char_traitsIcESaIcEEEPKcJSA_iSA_iSA_iSA_bEEEvRT_T0_DpT1_=so_stub_for_libtelux_data
-Wl,--defsym=_ZN5telux6common3Log16constructMessageINSt7__cxx1119basic_ostringstreamIcSt11char_traitsIcESaIcEEEPKcJSA_iSA_iSA_PcEEEvRT_T0_DpT1_=so_stub_for_libtelux_data
-Wl,--defsym=_ZN5telux6common3Log16constructMessageINSt7__cxx1119basic_ostringstreamIcSt11char_traitsIcESaIcEEEPKcJSA_iSA_jEEEvRT_T0_DpT1_=so_stub_for_libtelux_data
-Wl,--defsym=_ZN5telux6common3Log16constructMessageINSt7__cxx1119basic_ostringstreamIcSt11char_traitsIcESaIcEEEPKcJSA_iSA_mSA_mEEEvRT_T0_DpT1_=so_stub_for_libtelux_data
-Wl,--defsym=_ZN5telux6common3Log16constructMessageINSt7__cxx1119basic_ostringstreamIcSt11char_traitsIcESaIcEEEPKcJSA_iSA_NS3_12basic_stringIcS6_S7_EEEEEvRT_T0_DpT1_=so_stub_for_libtelux_data
-Wl,--defsym=_ZN5telux6common3Log16constructMessageINSt7__cxx1119basic_ostringstreamIcSt11char_traitsIcESaIcEEEPKcJSA_iSA_NS3_12basic_stringIcS6_S7_EESA_iEEEvRT_T0_DpT1_=so_stub_for_libtelux_data
-Wl,--defsym=_ZN5telux6common3Log16constructMessageINSt7__cxx1119basic_ostringstreamIcSt11char_traitsIcESaIcEEEPKcJSA_iSA_NS3_12basic_stringIcS6_S7_EESA_SC_EEEvRT_T0_DpT1_=so_stub_for_libtelux_data
-Wl,--defsym=_ZN5telux6common3Log16constructMessageINSt7__cxx1119basic_ostringstreamIcSt11char_traitsIcESaIcEEEPKcJSA_iSA_PcEEEvRT_T0_DpT1_=so_stub_for_libtelux_data
-Wl,--defsym=_ZN5telux6common3Log16constructMessageINSt7__cxx1119basic_ostringstreamIcSt11char_traitsIcESaIcEEEPKcJSA_iSA_SA_EEEvRT_T0_DpT1_=so_stub_for_libtelux_data
-Wl,--defsym=_ZN5telux6common3Log16constructMessageINSt7__cxx1119basic_ostringstreamIcSt11char_traitsIcESaIcEEEPKcJSA_iSA_sSA_iEEEvRT_T0_DpT1_=so_stub_for_libtelux_data
-Wl,--defsym=_ZN5telux6common3Log16constructMessageINSt7__cxx1119basic_ostringstreamIcSt11char_traitsIcESaIcEEEPKcJSA_jSA_6SlotIdEEEvRT_T0_DpT1_=so_stub_for_libtelux_data
-Wl,--defsym=_ZN5telux6common3Log16constructMessageINSt7__cxx1119basic_ostringstreamIcSt11char_traitsIcESaIcEEEPKcJSA_jSA_iEEEvRT_T0_DpT1_=so_stub_for_libtelux_data
-Wl,--defsym=_ZN5telux6common3Log16constructMessageINSt7__cxx1119basic_ostringstreamIcSt11char_traitsIcESaIcEEEPKcJSA_jSA_iSA_41qcmap_msgr_qos_flow_state_change_enum_v01EEEvRT_T0_DpT1_=so_stub_for_libtelux_data
-Wl,--defsym=_ZN5telux6common3Log16constructMessageINSt7__cxx1119basic_ostringstreamIcSt11char_traitsIcESaIcEEEPKcJSA_jSA_iSA_sEEEvRT_T0_DpT1_=so_stub_for_libtelux_data
-Wl,--defsym=_ZN5telux6common3Log16constructMessageINSt7__cxx1119basic_ostringstreamIcSt11char_traitsIcESaIcEEEPKcJSA_jSA_SA_EEEvRT_T0_DpT1_=so_stub_for_libtelux_data
-Wl,--defsym=_ZN5telux6common3Log16constructMessageINSt7__cxx1119basic_ostringstreamIcSt11char_traitsIcESaIcEEEPKcJSA_jSA_tSA_NS3_12basic_stringIcS6_S7_EEEEEvRT_T0_DpT1_=so_stub_for_libtelux_data
-Wl,--defsym=_ZN5telux6common3Log16constructMessageINSt7__cxx1119basic_ostringstreamIcSt11char_traitsIcESaIcEEEPKcJSA_jSA_tSA_tSA_jSA_jEEEvRT_T0_DpT1_=so_stub_for_libtelux_data
-Wl,--defsym=_ZN5telux6common3Log16constructMessageINSt7__cxx1119basic_ostringstreamIcSt11char_traitsIcESaIcEEEPKcJSA_mSA_iSA_iEEEvRT_T0_DpT1_=so_stub_for_libtelux_data
-Wl,--defsym=_ZN5telux6common3Log16constructMessageINSt7__cxx1119basic_ostringstreamIcSt11char_traitsIcESaIcEEEPKcJSA_mSA_iSA_iSA_jEEEvRT_T0_DpT1_=so_stub_for_libtelux_data
-Wl,--defsym=_ZN5telux6common3Log16constructMessageINSt7__cxx1119basic_ostringstreamIcSt11char_traitsIcESaIcEEEPKcJSA_mSA_mEEEvRT_T0_DpT1_=so_stub_for_libtelux_data
-Wl,--defsym=_ZN5telux6common3Log16constructMessageINSt7__cxx1119basic_ostringstreamIcSt11char_traitsIcESaIcEEEPKcJSA_NS3_12basic_stringIcS6_S7_EEEEEvRT_T0_DpT1_=so_stub_for_libtelux_data
-Wl,--defsym=_ZN5telux6common3Log16constructMessageINSt7__cxx1119basic_ostringstreamIcSt11char_traitsIcESaIcEEEPKcJSA_NS3_12basic_stringIcS6_S7_EESA_EEEvRT_T0_DpT1_=so_stub_for_libtelux_data
-Wl,--defsym=_ZN5telux6common3Log16constructMessageINSt7__cxx1119basic_ostringstreamIcSt11char_traitsIcESaIcEEEPKcJSA_NS3_12basic_stringIcS6_S7_EESA_iSA_PSt6vectorISt8functionIFvNS0_13ServiceStatusEEESaISH_EEEEEvRT_T0_DpT1_=so_stub_for_libtelux_data
-Wl,--defsym=_ZN5telux6common3Log16constructMessageINSt7__cxx1119basic_ostringstreamIcSt11char_traitsIcESaIcEEEPKcJSA_NS3_12basic_stringIcS6_S7_EESA_PNS_4data16IDataLinkManagerEEEEvRT_T0_DpT1_=so_stub_for_libtelux_data
-Wl,--defsym=_ZN5telux6common3Log16constructMessageINSt7__cxx1119basic_ostringstreamIcSt11char_traitsIcESaIcEEEPKcJSA_NS3_12basic_stringIcS6_S7_EESA_PNS_4data16IDualDataManagerEEEEvRT_T0_DpT1_=so_stub_for_libtelux_data
-Wl,--defsym=_ZN5telux6common3Log16constructMessageINSt7__cxx1119basic_ostringstreamIcSt11char_traitsIcESaIcEEEPKcJSA_NS3_12basic_stringIcS6_S7_EESA_PNS_4data17IKeepAliveManagerEEEEvRT_T0_DpT1_=so_stub_for_libtelux_data
-Wl,--defsym=_ZN5telux6common3Log16constructMessageINSt7__cxx1119basic_ostringstreamIcSt11char_traitsIcESaIcEEEPKcJSA_NS3_12basic_stringIcS6_S7_EESA_PNS_4data19IDataControlManagerEEEEvRT_T0_DpT1_=so_stub_for_libtelux_data
-Wl,--defsym=_ZN5telux6common3Log16constructMessageINSt7__cxx1119basic_ostringstreamIcSt11char_traitsIcESaIcEEEPKcJSA_NS3_12basic_stringIcS6_S7_EESA_PNS_4data22IDataConnectionManagerEEEEvRT_T0_DpT1_=so_stub_for_libtelux_data
-Wl,--defsym=_ZN5telux6common3Log16constructMessageINSt7__cxx1119basic_ostringstreamIcSt11char_traitsIcESaIcEEEPKcJSA_NS3_12basic_stringIcS6_S7_EESA_PNS_4data3net11INatManagerEEEEvRT_T0_DpT1_=so_stub_for_libtelux_data
-Wl,--defsym=_ZN5telux6common3Log16constructMessageINSt7__cxx1119basic_ostringstreamIcSt11char_traitsIcESaIcEEEPKcJSA_NS3_12basic_stringIcS6_S7_EESA_PNS_4data3net11IQoSManagerEEEEvRT_T0_DpT1_=so_stub_for_libtelux_data
-Wl,--defsym=_ZN5telux6common3Log16constructMessageINSt7__cxx1119basic_ostringstreamIcSt11char_traitsIcESaIcEEEPKcJSA_NS3_12basic_stringIcS6_S7_EESA_SA_EEEvRT_T0_DpT1_=so_stub_for_libtelux_data
-Wl,--defsym=_ZN5telux6common3Log16constructMessageINSt7__cxx1119basic_ostringstreamIcSt11char_traitsIcESaIcEEEPKcJSA_NS3_12basic_stringIcS6_S7_EESA_SC_EEEvRT_T0_DpT1_=so_stub_for_libtelux_data
-Wl,--defsym=_ZN5telux6common3Log16constructMessageINSt7__cxx1119basic_ostringstreamIcSt11char_traitsIcESaIcEEEPKcJSA_NS3_12basic_stringIcS6_S7_EESA_SC_SA_SC_EEEvRT_T0_DpT1_=so_stub_for_libtelux_data
-Wl,--defsym=_ZN5telux6common3Log16constructMessageINSt7__cxx1119basic_ostringstreamIcSt11char_traitsIcESaIcEEEPKcJSA_NS3_12basic_stringIcS6_S7_EESA_tEEEvRT_T0_DpT1_=so_stub_for_libtelux_data
-Wl,--defsym=_ZN5telux6common3Log16constructMessageINSt7__cxx1119basic_ostringstreamIcSt11char_traitsIcESaIcEEEPKcJSA_P17qmi_client_structSA_jSA_jEEEvRT_T0_DpT1_=so_stub_for_libtelux_data
-Wl,--defsym=_ZN5telux6common3Log16constructMessageINSt7__cxx1119basic_ostringstreamIcSt11char_traitsIcESaIcEEEPKcJSA_PvSA_iEEEvRT_T0_DpT1_=so_stub_for_libtelux_data
-Wl,--defsym=_ZN5telux6common3Log16constructMessageINSt7__cxx1119basic_ostringstreamIcSt11char_traitsIcESaIcEEEPKcJSA_SA_NS3_12basic_stringIcS6_S7_EEEEEvRT_T0_DpT1_=so_stub_for_libtelux_data
-Wl,--defsym=_ZN5telux6common3Log16constructMessageINSt7__cxx1119basic_ostringstreamIcSt11char_traitsIcESaIcEEEPKcJSA_SA_SA_iSA_PSt6vectorISt8functionIFvNS0_13ServiceStatusEEESaISF_EEEEEvRT_T0_DpT1_=so_stub_for_libtelux_data
-Wl,--defsym=_ZN5telux6common3Log16constructMessageINSt7__cxx1119basic_ostringstreamIcSt11char_traitsIcESaIcEEEPKcJSA_SA_SA_PSt6vectorISt8functionIFvNS0_13ServiceStatusEEESaISF_EEEEEvRT_T0_DpT1_=so_stub_for_libtelux_data
-Wl,--defsym=_ZN5telux6common3Log16constructMessageINSt7__cxx1119basic_ostringstreamIcSt11char_traitsIcESaIcEEEPKcJSA_St10shared_ptrINS_4data9IDataCallEEEEEvRT_T0_DpT1_=so_stub_for_libtelux_data
-Wl,--defsym=_ZN5telux6common3Log16constructMessageINSt7__cxx1119basic_ostringstreamIcSt11char_traitsIcESaIcEEEPKcJSt10shared_ptrINS_4data9IDataCallEEEEEvRT_T0_DpT1_=so_stub_for_libtelux_data
-Wl,--defsym=_ZN5telux6common3Log16constructMessageINSt7__cxx1119basic_ostringstreamIcSt11char_traitsIcESaIcEEEPKcJtSA_NS3_12basic_stringIcS6_S7_EEEEEvRT_T0_DpT1_=so_stub_for_libtelux_data
-Wl,--defsym=_ZN5telux6common3Log16constructMessageINSt7__cxx1119basic_ostringstreamIcSt11char_traitsIcESaIcEEEtJPKcNS3_12basic_stringIcS6_S7_EEEEEvRT_T0_DpT1_=so_stub_for_libtelux_data
-Wl,--defsym=_ZN5telux6common3Log16constructMessageINSt7__cxx1119basic_ostringstreamIcSt11char_traitsIcESaIcEEEtJPKctSA_jSA_jEEEvRT_T0_DpT1_=so_stub_for_libtelux_data
-Wl,--defsym=_ZN5telux6common5EventD0Ev=so_stub_for_libtelux_data
-Wl,--defsym=_ZN5telux6common5EventD1Ev=so_stub_for_libtelux_data
-Wl,--defsym=_ZN5telux6common5EventD2Ev=so_stub_for_libtelux_data
-Wl,--defsym=_ZN9__gnu_cxx13new_allocatorIN5telux4data10TftBuilderEE9constructIS3_JSt5_BindIFMNS2_9QcmClientEFvSt6vectorISt10shared_ptrINS2_19TrafficFlowTemplateEESaISB_EEEPS7_St12_PlaceholderILi1EEEES6_IFMS7_FvS8_IS9_INS2_13TftChangeInfoEESaISM_EEjESG_SI_SH_ILi2EEEEEEEvPT_DpOT0_=so_stub_for_libtelux_data
-Wl,--defsym=_ZN9__gnu_cxx13new_allocatorIN5telux4data14WdsCmdListenerEE9constructIS3_JRSt8weak_ptrINS2_22DataProfileManagerImplEESt5_BindIFMS7_FvNS1_6common13ServiceStatusEEPS7_St12_PlaceholderILi1EEEESA_IFMS7_FvP31wds_profile_changed_ind_msg_v01ESF_SH_EESA_IFMS7_FvNSB_9ErrorCodeEPvESF_SH_SG_ILi2EEEEEEEvPT_DpOT0_=so_stub_for_libtelux_data
-Wl,--defsym=_ZN9__gnu_cxx13new_allocatorIN5telux4data16ProfileRetrieverEE9constructIS3_JRSt10shared_ptrINS2_37AddProfileIdInApnThrottleInfoCallbackEERS6_INS1_3qmi12WdsQmiClientEEEEEvPT_DpOT0_=so_stub_for_libtelux_data
-Wl,--defsym=_ZN9__gnu_cxx13new_allocatorIN5telux4data16ProfileRetrieverEE9constructIS3_JSt10shared_ptrINS2_22DataProfileManagerImplEERS6_INS1_3qmi12WdsQmiClientEEEEEvPT_DpOT0_=so_stub_for_libtelux_data
-Wl,--defsym=_ZN9__gnu_cxx13new_allocatorIN5telux4data17ClientManagerImplEE9constructIS3_JKSt10shared_ptrINS2_9QcmClientEEEEEvPT_DpOT0_=so_stub_for_libtelux_data
-Wl,--defsym=_ZN9__gnu_cxx13new_allocatorIN5telux4data17DataPowerListenerEE9constructIS3_JRSt10shared_ptrINS1_3qmi12WdsQmiClientEERS6_INS7_12DsdQmiClientEERSt8weak_ptrINS2_24ServingSystemManagerImplEERSt6bitsetILm32EEEEEvPT_DpOT0_=so_stub_for_libtelux_data
-Wl,--defsym=_ZN9__gnu_cxx13new_allocatorIN5telux4data17KeepAliveListenerEE9constructIS3_JRSt10shared_ptrINS1_6common15ListenerManagerEEEEEvPT_DpOT0_=so_stub_for_libtelux_data
-Wl,--defsym=_ZN9__gnu_cxx13new_allocatorIN5telux4data18DataSubSystemEventEE9constructIS3_JRNS2_25DataSubSystemStateMachine7EventIDERNSt7__cxx1112basic_stringIcSt11char_traitsIcESaIcEEERbEEEvPT_DpOT0_=so_stub_for_libtelux_data
-Wl,--defsym=_ZN9__gnu_cxx13new_allocatorIN5telux4data19DualDataManagerImplEE9constructIS3_JKSt10shared_ptrINS1_3qms9QmsClientEEEEEvPT_DpOT0_=so_stub_for_libtelux_data
-Wl,--defsym=_ZN9__gnu_cxx13new_allocatorIN5telux4data20KeepAliveManagerImplEE9constructIS3_JRK6SlotIdKSt10shared_ptrINS2_9QcmClientEEEEEvPT_DpOT0_=so_stub_for_libtelux_data
-Wl,--defsym=_ZN9__gnu_cxx13new_allocatorIN5telux4data22DataControlManagerImplEE9constructIS3_JKSt10shared_ptrINS1_3qms9QmsClientEEEEEvPT_DpOT0_=so_stub_for_libtelux_data
-Wl,--defsym=_ZN9__gnu_cxx13new_allocatorIN5telux4data23DataSettingsManagerImplEE9constructIS3_JRNS2_13OperationTypeEKSt10shared_ptrINS2_9QcmClientEEEEEvPT_DpOT0_=so_stub_for_libtelux_data
-Wl,--defsym=_ZN9__gnu_cxx13new_allocatorIN5telux4data25DataConnectionManagerImplEE9constructIS3_JRK6SlotIdKSt10shared_ptrINS2_9QcmClientEEEEEvPT_DpOT0_=so_stub_for_libtelux_data
-Wl,--defsym=_ZN9__gnu_cxx13new_allocatorIN5telux4data25DataSubSystemStateMachineEE9constructIS3_JKSt10shared_ptrINS2_9QcmClientEEEEEvPT_DpOT0_=so_stub_for_libtelux_data
-Wl,--defsym=_ZN9__gnu_cxx13new_allocatorIN5telux4data27DataConnectionPowerListenerEE9constructIS3_JRSt10shared_ptrINS1_3qmi12WdsQmiClientEERSt6bitsetILm32EEEEEvPT_DpOT0_=so_stub_for_libtelux_data
-Wl,--defsym=_ZN9__gnu_cxx13new_allocatorIN5telux4data27DataSubSystemStateAvailableEE9constructIS3_JRKSt8weak_ptrINS1_6common16BaseStateMachineEEEEEvPT_DpOT0_=so_stub_for_libtelux_data
-Wl,--defsym=_ZN9__gnu_cxx13new_allocatorIN5telux4data29DataSubSystemStateUnavailableEE9constructIS3_JRKSt8weak_ptrINS1_6common16BaseStateMachineEEEEEvPT_DpOT0_=so_stub_for_libtelux_data
-Wl,--defsym=_ZN9__gnu_cxx13new_allocatorIN5telux4data29DataSubSystemStateUnavailableEE9constructIS3_JSt10shared_ptrINS2_25DataSubSystemStateMachineEEEEEvPT_DpOT0_=so_stub_for_libtelux_data
-Wl,--defsym=_ZN9__gnu_cxx13new_allocatorIN5telux4data3net14NatManagerImplEE9constructIS4_JRKNS2_13OperationTypeEKSt10shared_ptrINS2_9QcmClientEEEEEvPT_DpOT0_=so_stub_for_libtelux_data
-Wl,--defsym=_ZN9__gnu_cxx13new_allocatorIN5telux4data3net14QoSManagerImplEE9constructIS4_JKSt10shared_ptrINS2_9QcmClientEEEEEvPT_DpOT0_=so_stub_for_libtelux_data
-Wl,--defsym=_ZN9__gnu_cxx13new_allocatorIN5telux4data3net15L2tpManagerImplEE9constructIS4_JKSt10shared_ptrINS2_9QcmClientEEEEEvPT_DpOT0_=so_stub_for_libtelux_data
-Wl,--defsym=_ZN9__gnu_cxx13new_allocatorIN5telux4data3net15VlanManagerImplEE9constructIS4_JRNS2_13OperationTypeEKSt10shared_ptrINS2_9QcmClientEEEEEvPT_DpOT0_=so_stub_for_libtelux_data
-Wl,--defsym=_ZN9__gnu_cxx13new_allocatorIN5telux4data3net16SocksManagerImplEE9constructIS4_JRNS2_13OperationTypeEKSt10shared_ptrINS2_9QcmClientEEEEEvPT_DpOT0_=so_stub_for_libtelux_data
-Wl,--defsym=_ZN9__gnu_cxx13new_allocatorIN5telux4data3net17BridgeManagerImplEE9constructIS4_JKSt10shared_ptrINS2_9QcmClientEEEEEvPT_DpOT0_=so_stub_for_libtelux_data
-Wl,--defsym=_ZN9__gnu_cxx13new_allocatorIN5telux4data3net17FirewallEntryImplEE9constructIS4_JRSt10shared_ptrINS2_9IIpFilterEERNS2_9DirectionERNS2_12IpFamilyTypeEEEEvPT_DpOT0_=so_stub_for_libtelux_data
-Wl,--defsym=_ZN9__gnu_cxx13new_allocatorIN5telux4data3net19FirewallManagerImplEE9constructIS4_JRNS2_13OperationTypeEKSt10shared_ptrINS2_9QcmClientEEEEEvPT_DpOT0_=so_stub_for_libtelux_data
-Wl,--defsym=_ZN9__gnu_cxx5__ops10_Iter_predIZN5telux6common15ListenerManager16registerListenerESt8weak_ptrINS3_12ISDKListenerEEEUlS7_E_EclINS_17__normal_iteratorIPS7_St6vectorIS7_SaIS7_EEEEEEbT_=so_stub_for_libtelux_data
-Wl,--defsym=_ZNK5telux4data12DataCallImpl17getDataCallStatusERNS0_14DataCallStatusES3_=so_stub_for_libtelux_data
-Wl,--defsym=_ZNK5telux4data25DataSubSystemStateMachine11areQcmapsUpEv=so_stub_for_libtelux_data
-Wl,--defsym=_ZNK5telux4data25DataSubSystemStateMachine12getQcmClientEv=so_stub_for_libtelux_data
-Wl,--defsym=_ZNK5telux4data25DataSubSystemStateMachine18areAllSubSystemsUpEv=so_stub_for_libtelux_data
-Wl,--defsym=_ZNK5telux4data25DataSubSystemStateMachine22isSubSystemInitializedEv=so_stub_for_libtelux_data
-Wl,--defsym=_ZNKSt10_HashtableINSt7__cxx1112basic_stringIcSt11char_traitsIcESaIcEEES5_SaIS5_ENSt8__detail9_IdentityESt8equal_toIS5_ESt4hashIS5_ENS7_18_Mod_range_hashingENS7_20_Default_ranged_hashENS7_20_Prime_rehash_policyENS7_17_Hashtable_traitsILb1ELb1ELb1EEEE19_M_find_before_nodeEmRKS5_m=so_stub_for_libtelux_data
-Wl,--defsym=_ZNKSt10_HashtableINSt7__cxx1112basic_stringIcSt11char_traitsIcESaIcEEESt4pairIKS5_N5telux4data15DeviceDataUsageEESaISB_ENSt8__detail10_Select1stESt8equal_toIS5_ESt4hashIS5_ENSD_18_Mod_range_hashingENSD_20_Default_ranged_hashENSD_20_Prime_rehash_policyENSD_17_Hashtable_traitsILb1ELb0ELb1EEEE19_M_find_before_nodeEmRS7_m=so_stub_for_libtelux_data
-Wl,--defsym=_ZNKSt10_HashtableINSt7__cxx1112basic_stringIcSt11char_traitsIcESaIcEEESt4pairIKS5_St10shared_ptrIN5telux4data15APNThrottleInfoEEESaISD_ENSt8__detail10_Select1stESt8equal_toIS5_ESt4hashIS5_ENSF_18_Mod_range_hashingENSF_20_Default_ranged_hashENSF_20_Prime_rehash_policyENSF_17_Hashtable_traitsILb1ELb0ELb1EEEE19_M_find_before_nodeEmRS7_m=so_stub_for_libtelux_data
-Wl,--defsym=_ZNKSt13__future_base12_Task_setterISt10unique_ptrINS_7_ResultIvEENS_12_Result_base8_DeleterEENSt6thread8_InvokerISt5tupleIJMN5telux4data9QcmClientEFvSt10shared_ptrINSB_9IDataCallEEEPSC_SD_INSB_12DataCallImplEEEEEEvEclEv=so_stub_for_libtelux_data
-Wl,--defsym=_ZNKSt13__future_base13_State_baseV221_M_is_deferred_futureEv=so_stub_for_libtelux_data
-Wl,--defsym=_ZNKSt13__future_base15_Deferred_stateINSt6thread8_InvokerISt5tupleIJMN5telux4data9QcmClientEFvSt10shared_ptrINS5_9IDataCallEEEPS6_S7_INS5_12DataCallImplEEEEEEvE21_M_is_deferred_futureEv=so_stub_for_libtelux_data
-Wl,--defsym=_ZNKSt14__basic_futureI18dsi_v2x_ind_info_tE13_M_get_resultEv=so_stub_for_libtelux_data
-Wl,--defsym=_ZNKSt14__basic_futureIbE13_M_get_resultEv=so_stub_for_libtelux_data
-Wl,--defsym=_ZNKSt14__basic_futureIjE13_M_get_resultEv=so_stub_for_libtelux_data
-Wl,--defsym=_ZNKSt14__basic_futureIN5telux4data23NetLinkModeChangeStatusEE13_M_get_resultEv=so_stub_for_libtelux_data
-Wl,--defsym=_ZNKSt14__basic_futureIN5telux6common9ErrorCodeEE13_M_get_resultEv=so_stub_for_libtelux_data
-Wl,--defsym=_ZNKSt14__basic_futureIvE13_M_get_resultEv=so_stub_for_libtelux_data
-Wl,--defsym=_ZNSt10_HashtableIiSt4pairIKiSt10shared_ptrIN5telux6common16ICommandCallbackEEESaIS7_ENSt8__detail10_Select1stESt8equal_toIiESt4hashIiENS9_18_Mod_range_hashingENS9_20_Default_ranged_hashENS9_20_Prime_rehash_policyENS9_17_Hashtable_traitsILb0ELb0ELb1EEEE13_M_rehash_auxEmSt17integral_constantIbLb1EE=so_stub_for_libtelux_data
-Wl,--defsym=_ZNSt10_HashtableIiSt4pairIKiSt10shared_ptrIN5telux6common16ICommandCallbackEEESaIS7_ENSt8__detail10_Select1stESt8equal_toIiESt4hashIiENS9_18_Mod_range_hashingENS9_20_Default_ranged_hashENS9_20_Prime_rehash_policyENS9_17_Hashtable_traitsILb0ELb0ELb1EEEE21_M_insert_unique_nodeEmmPNS9_10_Hash_nodeIS7_Lb0EEEm=so_stub_for_libtelux_data
-Wl,--defsym=_ZNSt10_HashtableIiSt4pairIKiSt10shared_ptrIN5telux6common16ICommandCallbackEEESaIS7_ENSt8__detail10_Select1stESt8equal_toIiESt4hashIiENS9_18_Mod_range_hashingENS9_20_Default_ranged_hashENS9_20_Prime_rehash_policyENS9_17_Hashtable_traitsILb0ELb0ELb1EEEE9_M_rehashEmRKm=so_stub_for_libtelux_data
-Wl,--defsym=_ZNSt10_HashtableINSt7__cxx1112basic_stringIcSt11char_traitsIcESaIcEEES5_SaIS5_ENSt8__detail9_IdentityESt8equal_toIS5_ESt4hashIS5_ENS7_18_Mod_range_hashingENS7_20_Default_ranged_hashENS7_20_Prime_rehash_policyENS7_17_Hashtable_traitsILb1ELb1ELb1EEEE13_M_rehash_auxEmSt17integral_constantIbLb1EE=so_stub_for_libtelux_data
-Wl,--defsym=_ZNSt10_HashtableINSt7__cxx1112basic_stringIcSt11char_traitsIcESaIcEEES5_SaIS5_ENSt8__detail9_IdentityESt8equal_toIS5_ESt4hashIS5_ENS7_18_Mod_range_hashingENS7_20_Default_ranged_hashENS7_20_Prime_rehash_policyENS7_17_Hashtable_traitsILb1ELb1ELb1EEEE21_M_insert_unique_nodeEmmPNS7_10_Hash_nodeIS5_Lb1EEEm=so_stub_for_libtelux_data
-Wl,--defsym=_ZNSt10_HashtableINSt7__cxx1112basic_stringIcSt11char_traitsIcESaIcEEES5_SaIS5_ENSt8__detail9_IdentityESt8equal_toIS5_ESt4hashIS5_ENS7_18_Mod_range_hashingENS7_20_Default_ranged_hashENS7_20_Prime_rehash_policyENS7_17_Hashtable_traitsILb1ELb1ELb1EEEE9_M_insertIS5_NS7_10_AllocNodeISaINS7_10_Hash_nodeIS5_Lb1EEEEEEEESt4pairINS7_14_Node_iteratorIS5_Lb1ELb1EEEbEOT_RKT0_St17integral_constantIbLb1EE=so_stub_for_libtelux_data
-Wl,--defsym=_ZNSt10_HashtableINSt7__cxx1112basic_stringIcSt11char_traitsIcESaIcEEES5_SaIS5_ENSt8__detail9_IdentityESt8equal_toIS5_ESt4hashIS5_ENS7_18_Mod_range_hashingENS7_20_Default_ranged_hashENS7_20_Prime_rehash_policyENS7_17_Hashtable_traitsILb1ELb1ELb1EEEE9_M_rehashEmRKm=so_stub_for_libtelux_data
-Wl,--defsym=_ZNSt10_HashtableINSt7__cxx1112basic_stringIcSt11char_traitsIcESaIcEEES5_SaIS5_ENSt8__detail9_IdentityESt8equal_toIS5_ESt4hashIS5_ENS7_18_Mod_range_hashingENS7_20_Default_ranged_hashENS7_20_Prime_rehash_policyENS7_17_Hashtable_traitsILb1ELb1ELb1EEEED1Ev=so_stub_for_libtelux_data
-Wl,--defsym=_ZNSt10_HashtableINSt7__cxx1112basic_stringIcSt11char_traitsIcESaIcEEES5_SaIS5_ENSt8__detail9_IdentityESt8equal_toIS5_ESt4hashIS5_ENS7_18_Mod_range_hashingENS7_20_Default_ranged_hashENS7_20_Prime_rehash_policyENS7_17_Hashtable_traitsILb1ELb1ELb1EEEED2Ev=so_stub_for_libtelux_data
-Wl,--defsym=_ZNSt10_HashtableINSt7__cxx1112basic_stringIcSt11char_traitsIcESaIcEEESt4pairIKS5_N5telux4data15DeviceDataUsageEESaISB_ENSt8__detail10_Select1stESt8equal_toIS5_ESt4hashIS5_ENSD_18_Mod_range_hashingENSD_20_Default_ranged_hashENSD_20_Prime_rehash_policyENSD_17_Hashtable_traitsILb1ELb0ELb1EEEE13_M_rehash_auxEmSt17integral_constantIbLb1EE=so_stub_for_libtelux_data
-Wl,--defsym=_ZNSt10_HashtableINSt7__cxx1112basic_stringIcSt11char_traitsIcESaIcEEESt4pairIKS5_N5telux4data15DeviceDataUsageEESaISB_ENSt8__detail10_Select1stESt8equal_toIS5_ESt4hashIS5_ENSD_18_Mod_range_hashingENSD_20_Default_ranged_hashENSD_20_Prime_rehash_policyENSD_17_Hashtable_traitsILb1ELb0ELb1EEEE21_M_insert_unique_nodeEmmPNSD_10_Hash_nodeISB_Lb1EEEm=so_stub_for_libtelux_data
-Wl,--defsym=_ZNSt10_HashtableINSt7__cxx1112basic_stringIcSt11char_traitsIcESaIcEEESt4pairIKS5_N5telux4data15DeviceDataUsageEESaISB_ENSt8__detail10_Select1stESt8equal_toIS5_ESt4hashIS5_ENSD_18_Mod_range_hashingENSD_20_Default_ranged_hashENSD_20_Prime_rehash_policyENSD_17_Hashtable_traitsILb1ELb0ELb1EEEE9_M_rehashEmRKm=so_stub_for_libtelux_data
-Wl,--defsym=_ZNSt10_HashtableINSt7__cxx1112basic_stringIcSt11char_traitsIcESaIcEEESt4pairIKS5_N5telux4data15DeviceDataUsageEESaISB_ENSt8__detail10_Select1stESt8equal_toIS5_ESt4hashIS5_ENSD_18_Mod_range_hashingENSD_20_Default_ranged_hashENSD_20_Prime_rehash_policyENSD_17_Hashtable_traitsILb1ELb0ELb1EEEED1Ev=so_stub_for_libtelux_data
-Wl,--defsym=_ZNSt10_HashtableINSt7__cxx1112basic_stringIcSt11char_traitsIcESaIcEEESt4pairIKS5_N5telux4data15DeviceDataUsageEESaISB_ENSt8__detail10_Select1stESt8equal_toIS5_ESt4hashIS5_ENSD_18_Mod_range_hashingENSD_20_Default_ranged_hashENSD_20_Prime_rehash_policyENSD_17_Hashtable_traitsILb1ELb0ELb1EEEED2Ev=so_stub_for_libtelux_data
-Wl,--defsym=_ZNSt10_HashtableINSt7__cxx1112basic_stringIcSt11char_traitsIcESaIcEEESt4pairIKS5_St10shared_ptrIN5telux4data15APNThrottleInfoEEESaISD_ENSt8__detail10_Select1stESt8equal_toIS5_ESt4hashIS5_ENSF_18_Mod_range_hashingENSF_20_Default_ranged_hashENSF_20_Prime_rehash_policyENSF_17_Hashtable_traitsILb1ELb0ELb1EEEE10_M_emplaceIJSD_EEES6_INSF_14_Node_iteratorISD_Lb0ELb1EEEbESt17integral_constantIbLb1EEDpOT_=so_stub_for_libtelux_data
-Wl,--defsym=_ZNSt10_HashtableINSt7__cxx1112basic_stringIcSt11char_traitsIcESaIcEEESt4pairIKS5_St10shared_ptrIN5telux4data15APNThrottleInfoEEESaISD_ENSt8__detail10_Select1stESt8equal_toIS5_ESt4hashIS5_ENSF_18_Mod_range_hashingENSF_20_Default_ranged_hashENSF_20_Prime_rehash_policyENSF_17_Hashtable_traitsILb1ELb0ELb1EEEE13_M_rehash_auxEmSt17integral_constantIbLb1EE=so_stub_for_libtelux_data
-Wl,--defsym=_ZNSt10_HashtableINSt7__cxx1112basic_stringIcSt11char_traitsIcESaIcEEESt4pairIKS5_St10shared_ptrIN5telux4data15APNThrottleInfoEEESaISD_ENSt8__detail10_Select1stESt8equal_toIS5_ESt4hashIS5_ENSF_18_Mod_range_hashingENSF_20_Default_ranged_hashENSF_20_Prime_rehash_policyENSF_17_Hashtable_traitsILb1ELb0ELb1EEEE21_M_insert_unique_nodeEmmPNSF_10_Hash_nodeISD_Lb1EEEm=so_stub_for_libtelux_data
-Wl,--defsym=_ZNSt10_HashtableINSt7__cxx1112basic_stringIcSt11char_traitsIcESaIcEEESt4pairIKS5_St10shared_ptrIN5telux4data15APNThrottleInfoEEESaISD_ENSt8__detail10_Select1stESt8equal_toIS5_ESt4hashIS5_ENSF_18_Mod_range_hashingENSF_20_Default_ranged_hashENSF_20_Prime_rehash_policyENSF_17_Hashtable_traitsILb1ELb0ELb1EEEE5clearEv=so_stub_for_libtelux_data
-Wl,--defsym=_ZNSt10_HashtableINSt7__cxx1112basic_stringIcSt11char_traitsIcESaIcEEESt4pairIKS5_St10shared_ptrIN5telux4data15APNThrottleInfoEEESaISD_ENSt8__detail10_Select1stESt8equal_toIS5_ESt4hashIS5_ENSF_18_Mod_range_hashingENSF_20_Default_ranged_hashENSF_20_Prime_rehash_policyENSF_17_Hashtable_traitsILb1ELb0ELb1EEEE9_M_assignIRKSQ_NSF_10_AllocNodeISaINSF_10_Hash_nodeISD_Lb1EEEEEEEEvOT_RKT0_=so_stub_for_libtelux_data
-Wl,--defsym=_ZNSt10_HashtableINSt7__cxx1112basic_stringIcSt11char_traitsIcESaIcEEESt4pairIKS5_St10shared_ptrIN5telux4data15APNThrottleInfoEEESaISD_ENSt8__detail10_Select1stESt8equal_toIS5_ESt4hashIS5_ENSF_18_Mod_range_hashingENSF_20_Default_ranged_hashENSF_20_Prime_rehash_policyENSF_17_Hashtable_traitsILb1ELb0ELb1EEEE9_M_rehashEmRKm=so_stub_for_libtelux_data
-Wl,--defsym=_ZNSt10_HashtableINSt7__cxx1112basic_stringIcSt11char_traitsIcESaIcEEESt4pairIKS5_St10shared_ptrIN5telux4data15APNThrottleInfoEEESaISD_ENSt8__detail10_Select1stESt8equal_toIS5_ESt4hashIS5_ENSF_18_Mod_range_hashingENSF_20_Default_ranged_hashENSF_20_Prime_rehash_policyENSF_17_Hashtable_traitsILb1ELb0ELb1EEEEC1EOSQ_OSaINSF_10_Hash_nodeISD_Lb1EEEESt17integral_constantIbLb1EE=so_stub_for_libtelux_data
-Wl,--defsym=_ZNSt10_HashtableINSt7__cxx1112basic_stringIcSt11char_traitsIcESaIcEEESt4pairIKS5_St10shared_ptrIN5telux4data15APNThrottleInfoEEESaISD_ENSt8__detail10_Select1stESt8equal_toIS5_ESt4hashIS5_ENSF_18_Mod_range_hashingENSF_20_Default_ranged_hashENSF_20_Prime_rehash_policyENSF_17_Hashtable_traitsILb1ELb0ELb1EEEEC1ERKSQ_=so_stub_for_libtelux_data
-Wl,--defsym=_ZNSt10_HashtableINSt7__cxx1112basic_stringIcSt11char_traitsIcESaIcEEESt4pairIKS5_St10shared_ptrIN5telux4data15APNThrottleInfoEEESaISD_ENSt8__detail10_Select1stESt8equal_toIS5_ESt4hashIS5_ENSF_18_Mod_range_hashingENSF_20_Default_ranged_hashENSF_20_Prime_rehash_policyENSF_17_Hashtable_traitsILb1ELb0ELb1EEEEC2EOSQ_OSaINSF_10_Hash_nodeISD_Lb1EEEESt17integral_constantIbLb1EE=so_stub_for_libtelux_data
-Wl,--defsym=_ZNSt10_HashtableINSt7__cxx1112basic_stringIcSt11char_traitsIcESaIcEEESt4pairIKS5_St10shared_ptrIN5telux4data15APNThrottleInfoEEESaISD_ENSt8__detail10_Select1stESt8equal_toIS5_ESt4hashIS5_ENSF_18_Mod_range_hashingENSF_20_Default_ranged_hashENSF_20_Prime_rehash_policyENSF_17_Hashtable_traitsILb1ELb0ELb1EEEEC2ERKSQ_=so_stub_for_libtelux_data
-Wl,--defsym=_ZNSt10_HashtableINSt7__cxx1112basic_stringIcSt11char_traitsIcESaIcEEESt4pairIKS5_St10shared_ptrIN5telux4data15APNThrottleInfoEEESaISD_ENSt8__detail10_Select1stESt8equal_toIS5_ESt4hashIS5_ENSF_18_Mod_range_hashingENSF_20_Default_ranged_hashENSF_20_Prime_rehash_policyENSF_17_Hashtable_traitsILb1ELb0ELb1EEEED1Ev=so_stub_for_libtelux_data
-Wl,--defsym=_ZNSt10_HashtableINSt7__cxx1112basic_stringIcSt11char_traitsIcESaIcEEESt4pairIKS5_St10shared_ptrIN5telux4data15APNThrottleInfoEEESaISD_ENSt8__detail10_Select1stESt8equal_toIS5_ESt4hashIS5_ENSF_18_Mod_range_hashingENSF_20_Default_ranged_hashENSF_20_Prime_rehash_policyENSF_17_Hashtable_traitsILb1ELb0ELb1EEEED2Ev=so_stub_for_libtelux_data
-Wl,--defsym=_ZNSt10shared_ptrIN5telux4data11WdsListenerEEC1ISaIS2_EJRS_INS0_6common15ListenerManagerEERS_ISt6atomicINS1_9DrbStatusEEEEEESt20_Sp_alloc_shared_tagIT_EDpOT0_=so_stub_for_libtelux_data
-Wl,--defsym=_ZNSt10shared_ptrIN5telux4data11WdsListenerEEC2ISaIS2_EJRS_INS0_6common15ListenerManagerEERS_ISt6atomicINS1_9DrbStatusEEEEEESt20_Sp_alloc_shared_tagIT_EDpOT0_=so_stub_for_libtelux_data
-Wl,--defsym=_ZNSt10shared_ptrIN5telux4data12DataCallImplEEC1ISaIS2_EJEEESt20_Sp_alloc_shared_tagIT_EDpOT0_=so_stub_for_libtelux_data
-Wl,--defsym=_ZNSt10shared_ptrIN5telux4data12DataCallImplEEC2ISaIS2_EJEEESt20_Sp_alloc_shared_tagIT_EDpOT0_=so_stub_for_libtelux_data
-Wl,--defsym=_ZNSt10shared_ptrIN5telux4data15APNThrottleInfoEEC1ISaIS2_EJEEESt20_Sp_alloc_shared_tagIT_EDpOT0_=so_stub_for_libtelux_data
-Wl,--defsym=_ZNSt10shared_ptrIN5telux4data15APNThrottleInfoEEC2ISaIS2_EJEEESt20_Sp_alloc_shared_tagIT_EDpOT0_=so_stub_for_libtelux_data
-Wl,--defsym=_ZNSt10shared_ptrIN5telux4data17DataNetlinkClientEEC1ISaIS2_EJEEESt20_Sp_alloc_shared_tagIT_EDpOT0_=so_stub_for_libtelux_data
-Wl,--defsym=_ZNSt10shared_ptrIN5telux4data17DataNetlinkClientEEC2ISaIS2_EJEEESt20_Sp_alloc_shared_tagIT_EDpOT0_=so_stub_for_libtelux_data
-Wl,--defsym=_ZNSt10shared_ptrIN5telux4data18DsiEventDispatcherEEC1ISaIS2_EJEEESt20_Sp_alloc_shared_tagIT_EDpOT0_=so_stub_for_libtelux_data
-Wl,--defsym=_ZNSt10shared_ptrIN5telux4data18DsiEventDispatcherEEC2ISaIS2_EJEEESt20_Sp_alloc_shared_tagIT_EDpOT0_=so_stub_for_libtelux_data
-Wl,--defsym=_ZNSt10shared_ptrIN5telux4data19TrafficFlowTemplateEEC1ISaIS2_EJEEESt20_Sp_alloc_shared_tagIT_EDpOT0_=so_stub_for_libtelux_data
-Wl,--defsym=_ZNSt10shared_ptrIN5telux4data19TrafficFlowTemplateEEC2ISaIS2_EJEEESt20_Sp_alloc_shared_tagIT_EDpOT0_=so_stub_for_libtelux_data
-Wl,--defsym=_ZNSt10shared_ptrIN5telux4data30RequestPdnThrottleInfoCallbackEEC1ISaIS2_EJEEESt20_Sp_alloc_shared_tagIT_EDpOT0_=so_stub_for_libtelux_data
-Wl,--defsym=_ZNSt10shared_ptrIN5telux4data30RequestPdnThrottleInfoCallbackEEC2ISaIS2_EJEEESt20_Sp_alloc_shared_tagIT_EDpOT0_=so_stub_for_libtelux_data
-Wl,--defsym=_ZNSt10shared_ptrIN5telux4data3net13QoSFilterImplEEC1ISaIS3_EJEEESt20_Sp_alloc_shared_tagIT_EDpOT0_=so_stub_for_libtelux_data
-Wl,--defsym=_ZNSt10shared_ptrIN5telux4data3net13QoSFilterImplEEC2ISaIS3_EJEEESt20_Sp_alloc_shared_tagIT_EDpOT0_=so_stub_for_libtelux_data
-Wl,--defsym=_ZNSt10shared_ptrIN5telux4data9DsiClientEED1Ev=so_stub_for_libtelux_data
-Wl,--defsym=_ZNSt10shared_ptrIN5telux4data9DsiClientEED2Ev=so_stub_for_libtelux_data
-Wl,--defsym=_ZNSt10shared_ptrIN5telux4data9QcmClientEED1Ev=so_stub_for_libtelux_data
-Wl,--defsym=_ZNSt10shared_ptrIN5telux4data9QcmClientEED2Ev=so_stub_for_libtelux_data
-Wl,--defsym=_ZNSt10shared_ptrIN5telux6common14AsyncTaskQueueIvEEEC1ISaIS3_EJEEESt20_Sp_alloc_shared_tagIT_EDpOT0_=so_stub_for_libtelux_data
-Wl,--defsym=_ZNSt10shared_ptrIN5telux6common14AsyncTaskQueueIvEEEC2ISaIS3_EJEEESt20_Sp_alloc_shared_tagIT_EDpOT0_=so_stub_for_libtelux_data
-Wl,--defsym=_ZNSt10shared_ptrIN5telux6common15ListenerManagerEEC1ISaIS2_EJEEESt20_Sp_alloc_shared_tagIT_EDpOT0_=so_stub_for_libtelux_data
-Wl,--defsym=_ZNSt10shared_ptrIN5telux6common15ListenerManagerEEC2ISaIS2_EJEEESt20_Sp_alloc_shared_tagIT_EDpOT0_=so_stub_for_libtelux_data
-Wl,--defsym=_ZNSt10shared_ptrINSt13__future_base15_Deferred_stateINSt6thread8_InvokerISt5tupleIJMN5telux4data9QcmClientEFvS_INS6_9IDataCallEEEPS7_S_INS6_12DataCallImplEEEEEEvEEEC1ISaISH_EJSB_SC_RSE_EEESt20_Sp_alloc_shared_tagIT_EDpOT0_=so_stub_for_libtelux_data
-Wl,--defsym=_ZNSt10shared_ptrINSt13__future_base15_Deferred_stateINSt6thread8_InvokerISt5tupleIJMN5telux4data9QcmClientEFvS_INS6_9IDataCallEEEPS7_S_INS6_12DataCallImplEEEEEEvEEEC2ISaISH_EJSB_SC_RSE_EEESt20_Sp_alloc_shared_tagIT_EDpOT0_=so_stub_for_libtelux_data
-Wl,--defsym=_ZNSt10shared_ptrINSt13__future_base17_Async_state_implINSt6thread8_InvokerISt5tupleIJMN5telux4data9QcmClientEFvS_INS6_9IDataCallEEEPS7_S_INS6_12DataCallImplEEEEEEvEEEC1ISaISH_EJSB_SC_RSE_EEESt20_Sp_alloc_shared_tagIT_EDpOT0_=so_stub_for_libtelux_data
-Wl,--defsym=_ZNSt10shared_ptrINSt13__future_base17_Async_state_implINSt6thread8_InvokerISt5tupleIJMN5telux4data9QcmClientEFvS_INS6_9IDataCallEEEPS7_S_INS6_12DataCallImplEEEEEEvEEEC2ISaISH_EJSB_SC_RSE_EEESt20_Sp_alloc_shared_tagIT_EDpOT0_=so_stub_for_libtelux_data
-Wl,--defsym=_ZNSt10shared_ptrISt6threadEC1ISaIS0_EJMN5telux6common14AsyncTaskQueueIvEEFvvEPS7_EEESt20_Sp_alloc_shared_tagIT_EDpOT0_=so_stub_for_libtelux_data
-Wl,--defsym=_ZNSt10shared_ptrISt6threadEC2ISaIS0_EJMN5telux6common14AsyncTaskQueueIvEEFvvEPS7_EEESt20_Sp_alloc_shared_tagIT_EDpOT0_=so_stub_for_libtelux_data
-Wl,--defsym=_ZNSt10unique_ptrINSt13__future_base12_Result_baseENS1_8_DeleterEED1Ev=so_stub_for_libtelux_data
-Wl,--defsym=_ZNSt10unique_ptrINSt13__future_base12_Result_baseENS1_8_DeleterEED2Ev=so_stub_for_libtelux_data
-Wl,--defsym=_ZNSt10unique_ptrINSt13__future_base7_ResultIvEENS0_12_Result_base8_DeleterEED1Ev=so_stub_for_libtelux_data
-Wl,--defsym=_ZNSt10unique_ptrINSt13__future_base7_ResultIvEENS0_12_Result_base8_DeleterEED2Ev=so_stub_for_libtelux_data
-Wl,--defsym=_ZNSt10unique_ptrINSt6thread6_StateESt14default_deleteIS1_EED1Ev=so_stub_for_libtelux_data
-Wl,--defsym=_ZNSt10unique_ptrINSt6thread6_StateESt14default_deleteIS1_EED2Ev=so_stub_for_libtelux_data
-Wl,--defsym=_ZNSt10__weak_ptrIN5telux3qmi12IQmiListenerELN9__gnu_cxx12_Lock_policyE2EEC1INS0_4data14WdsCmdListenerEvEERKSt12__shared_ptrIT_LS4_2EE=so_stub_for_libtelux_data
-Wl,--defsym=_ZNSt10__weak_ptrIN5telux3qmi12IQmiListenerELN9__gnu_cxx12_Lock_policyE2EEC1INS0_4data19DualDataManagerImplEvEERKS_IT_LS4_2EE=so_stub_for_libtelux_data
-Wl,--defsym=_ZNSt10__weak_ptrIN5telux3qmi12IQmiListenerELN9__gnu_cxx12_Lock_policyE2EEC1INS0_4data20KeepAliveManagerImplEvEERKS_IT_LS4_2EE=so_stub_for_libtelux_data
-Wl,--defsym=_ZNSt10__weak_ptrIN5telux3qmi12IQmiListenerELN9__gnu_cxx12_Lock_policyE2EEC1INS0_4data25DataConnectionManagerImplEvEERKS_IT_LS4_2EE=so_stub_for_libtelux_data
-Wl,--defsym=_ZNSt10__weak_ptrIN5telux3qmi12IQmiListenerELN9__gnu_cxx12_Lock_policyE2EEC2INS0_4data14WdsCmdListenerEvEERKSt12__shared_ptrIT_LS4_2EE=so_stub_for_libtelux_data
-Wl,--defsym=_ZNSt10__weak_ptrIN5telux3qmi12IQmiListenerELN9__gnu_cxx12_Lock_policyE2EEC2INS0_4data19DualDataManagerImplEvEERKS_IT_LS4_2EE=so_stub_for_libtelux_data
-Wl,--defsym=_ZNSt10__weak_ptrIN5telux3qmi12IQmiListenerELN9__gnu_cxx12_Lock_policyE2EEC2INS0_4data20KeepAliveManagerImplEvEERKS_IT_LS4_2EE=so_stub_for_libtelux_data
-Wl,--defsym=_ZNSt10__weak_ptrIN5telux3qmi12IQmiListenerELN9__gnu_cxx12_Lock_policyE2EEC2INS0_4data25DataConnectionManagerImplEvEERKS_IT_LS4_2EE=so_stub_for_libtelux_data
-Wl,--defsym=_ZNSt10__weak_ptrIN5telux3qmi15IQmiDsdListenerELN9__gnu_cxx12_Lock_policyE2EEC1INS0_4data19DualDataManagerImplEvEERKS_IT_LS4_2EE=so_stub_for_libtelux_data
-Wl,--defsym=_ZNSt10__weak_ptrIN5telux3qmi15IQmiDsdListenerELN9__gnu_cxx12_Lock_policyE2EEC1INS0_4data24ServingSystemManagerImplEvEERKS_IT_LS4_2EE=so_stub_for_libtelux_data
-Wl,--defsym=_ZNSt10__weak_ptrIN5telux3qmi15IQmiDsdListenerELN9__gnu_cxx12_Lock_policyE2EEC2INS0_4data19DualDataManagerImplEvEERKS_IT_LS4_2EE=so_stub_for_libtelux_data
-Wl,--defsym=_ZNSt10__weak_ptrIN5telux3qmi15IQmiDsdListenerELN9__gnu_cxx12_Lock_policyE2EEC2INS0_4data24ServingSystemManagerImplEvEERKS_IT_LS4_2EE=so_stub_for_libtelux_data
-Wl,--defsym=_ZNSt10__weak_ptrIN5telux3qms18IQmsClientListenerELN9__gnu_cxx12_Lock_policyE2EEC1INS0_4data19DualDataManagerImplEvEERKS_IT_LS4_2EE=so_stub_for_libtelux_data
-Wl,--defsym=_ZNSt10__weak_ptrIN5telux3qms18IQmsClientListenerELN9__gnu_cxx12_Lock_policyE2EEC2INS0_4data19DualDataManagerImplEvEERKS_IT_LS4_2EE=so_stub_for_libtelux_data
-Wl,--defsym=_ZNSt10__weak_ptrIN5telux4data18IQcmClientListenerELN9__gnu_cxx12_Lock_policyE2EEC1INS1_20KeepAliveManagerImplEvEERKS_IT_LS4_2EE=so_stub_for_libtelux_data
-Wl,--defsym=_ZNSt10__weak_ptrIN5telux4data18IQcmClientListenerELN9__gnu_cxx12_Lock_policyE2EEC2INS1_20KeepAliveManagerImplEvEERKS_IT_LS4_2EE=so_stub_for_libtelux_data
-Wl,--defsym=_ZNSt10__weak_ptrIN5telux4data20IDataNetlinkListenerELN9__gnu_cxx12_Lock_policyE2EEC1INS1_19DataLinkManagerImplEvEERKS_IT_LS4_2EE=so_stub_for_libtelux_data
-Wl,--defsym=_ZNSt10__weak_ptrIN5telux4data20IDataNetlinkListenerELN9__gnu_cxx12_Lock_policyE2EEC2INS1_19DataLinkManagerImplEvEERKS_IT_LS4_2EE=so_stub_for_libtelux_data
-Wl,--defsym=_ZNSt10__weak_ptrIN5telux6common12ISDKListenerELN9__gnu_cxx12_Lock_policyE2EEC1INS0_4data15IClientListenerEvEERKS_IT_LS4_2EE=so_stub_for_libtelux_data
-Wl,--defsym=_ZNSt10__weak_ptrIN5telux6common12ISDKListenerELN9__gnu_cxx12_Lock_policyE2EEC1INS0_4data17IDataLinkListenerEvEERKS_IT_LS4_2EE=so_stub_for_libtelux_data
-Wl,--defsym=_ZNSt10__weak_ptrIN5telux6common12ISDKListenerELN9__gnu_cxx12_Lock_policyE2EEC1INS0_4data17IDualDataListenerEvEERKS_IT_LS4_2EE=so_stub_for_libtelux_data
-Wl,--defsym=_ZNSt10__weak_ptrIN5telux6common12ISDKListenerELN9__gnu_cxx12_Lock_policyE2EEC1INS0_4data18IKeepAliveListenerEvEERKS_IT_LS4_2EE=so_stub_for_libtelux_data
-Wl,--defsym=_ZNSt10__weak_ptrIN5telux6common12ISDKListenerELN9__gnu_cxx12_Lock_policyE2EEC1INS0_4data18IQcmClientListenerEvEERKS_IT_LS4_2EE=so_stub_for_libtelux_data
-Wl,--defsym=_ZNSt10__weak_ptrIN5telux6common12ISDKListenerELN9__gnu_cxx12_Lock_policyE2EEC1INS0_4data20IDataControlListenerEvEERKS_IT_LS4_2EE=so_stub_for_libtelux_data
-Wl,--defsym=_ZNSt10__weak_ptrIN5telux6common12ISDKListenerELN9__gnu_cxx12_Lock_policyE2EEC1INS0_4data20IDataNetlinkListenerEvEERKS_IT_LS4_2EE=so_stub_for_libtelux_data
-Wl,--defsym=_ZNSt10__weak_ptrIN5telux6common12ISDKListenerELN9__gnu_cxx12_Lock_policyE2EEC1INS0_4data21IDataSettingsListenerEvEERKS_IT_LS4_2EE=so_stub_for_libtelux_data
-Wl,--defsym=_ZNSt10__weak_ptrIN5telux6common12ISDKListenerELN9__gnu_cxx12_Lock_policyE2EEC1INS0_4data22IServingSystemListenerEvEERKS_IT_LS4_2EE=so_stub_for_libtelux_data
-Wl,--defsym=_ZNSt10__weak_ptrIN5telux6common12ISDKListenerELN9__gnu_cxx12_Lock_policyE2EEC1INS0_4data23IDataConnectionListenerEvEERKS_IT_LS4_2EE=so_stub_for_libtelux_data
-Wl,--defsym=_ZNSt10__weak_ptrIN5telux6common12ISDKListenerELN9__gnu_cxx12_Lock_policyE2EEC1INS0_4data3net12INatListenerEvEERKS_IT_LS4_2EE=so_stub_for_libtelux_data
-Wl,--defsym=_ZNSt10__weak_ptrIN5telux6common12ISDKListenerELN9__gnu_cxx12_Lock_policyE2EEC1INS0_4data3net12IQoSListenerEvEERKS_IT_LS4_2EE=so_stub_for_libtelux_data
-Wl,--defsym=_ZNSt10__weak_ptrIN5telux6common12ISDKListenerELN9__gnu_cxx12_Lock_policyE2EEC1INS0_4data3net13IL2tpListenerEvEERKS_IT_LS4_2EE=so_stub_for_libtelux_data
-Wl,--defsym=_ZNSt10__weak_ptrIN5telux6common12ISDKListenerELN9__gnu_cxx12_Lock_policyE2EEC1INS0_4data3net14ISocksListenerEvEERKS_IT_LS4_2EE=so_stub_for_libtelux_data
-Wl,--defsym=_ZNSt10__weak_ptrIN5telux6common12ISDKListenerELN9__gnu_cxx12_Lock_policyE2EEC1INS0_4data3net15IBridgeListenerEvEERKS_IT_LS4_2EE=so_stub_for_libtelux_data
-Wl,--defsym=_ZNSt10__weak_ptrIN5telux6common12ISDKListenerELN9__gnu_cxx12_Lock_policyE2EEC1INS0_4data3net17IFirewallListenerEvEERKS_IT_LS4_2EE=so_stub_for_libtelux_data
-Wl,--defsym=_ZNSt10__weak_ptrIN5telux6common12ISDKListenerELN9__gnu_cxx12_Lock_policyE2EEC2INS0_4data15IClientListenerEvEERKS_IT_LS4_2EE=so_stub_for_libtelux_data
-Wl,--defsym=_ZNSt10__weak_ptrIN5telux6common12ISDKListenerELN9__gnu_cxx12_Lock_policyE2EEC2INS0_4data17IDataLinkListenerEvEERKS_IT_LS4_2EE=so_stub_for_libtelux_data
-Wl,--defsym=_ZNSt10__weak_ptrIN5telux6common12ISDKListenerELN9__gnu_cxx12_Lock_policyE2EEC2INS0_4data17IDualDataListenerEvEERKS_IT_LS4_2EE=so_stub_for_libtelux_data
-Wl,--defsym=_ZNSt10__weak_ptrIN5telux6common12ISDKListenerELN9__gnu_cxx12_Lock_policyE2EEC2INS0_4data18IKeepAliveListenerEvEERKS_IT_LS4_2EE=so_stub_for_libtelux_data
-Wl,--defsym=_ZNSt10__weak_ptrIN5telux6common12ISDKListenerELN9__gnu_cxx12_Lock_policyE2EEC2INS0_4data18IQcmClientListenerEvEERKS_IT_LS4_2EE=so_stub_for_libtelux_data
-Wl,--defsym=_ZNSt10__weak_ptrIN5telux6common12ISDKListenerELN9__gnu_cxx12_Lock_policyE2EEC2INS0_4data20IDataControlListenerEvEERKS_IT_LS4_2EE=so_stub_for_libtelux_data
-Wl,--defsym=_ZNSt10__weak_ptrIN5telux6common12ISDKListenerELN9__gnu_cxx12_Lock_policyE2EEC2INS0_4data20IDataNetlinkListenerEvEERKS_IT_LS4_2EE=so_stub_for_libtelux_data
-Wl,--defsym=_ZNSt10__weak_ptrIN5telux6common12ISDKListenerELN9__gnu_cxx12_Lock_policyE2EEC2INS0_4data21IDataSettingsListenerEvEERKS_IT_LS4_2EE=so_stub_for_libtelux_data
-Wl,--defsym=_ZNSt10__weak_ptrIN5telux6common12ISDKListenerELN9__gnu_cxx12_Lock_policyE2EEC2INS0_4data22IServingSystemListenerEvEERKS_IT_LS4_2EE=so_stub_for_libtelux_data
-Wl,--defsym=_ZNSt10__weak_ptrIN5telux6common12ISDKListenerELN9__gnu_cxx12_Lock_policyE2EEC2INS0_4data23IDataConnectionListenerEvEERKS_IT_LS4_2EE=so_stub_for_libtelux_data
-Wl,--defsym=_ZNSt10__weak_ptrIN5telux6common12ISDKListenerELN9__gnu_cxx12_Lock_policyE2EEC2INS0_4data3net12INatListenerEvEERKS_IT_LS4_2EE=so_stub_for_libtelux_data
-Wl,--defsym=_ZNSt10__weak_ptrIN5telux6common12ISDKListenerELN9__gnu_cxx12_Lock_policyE2EEC2INS0_4data3net12IQoSListenerEvEERKS_IT_LS4_2EE=so_stub_for_libtelux_data
-Wl,--defsym=_ZNSt10__weak_ptrIN5telux6common12ISDKListenerELN9__gnu_cxx12_Lock_policyE2EEC2INS0_4data3net13IL2tpListenerEvEERKS_IT_LS4_2EE=so_stub_for_libtelux_data
-Wl,--defsym=_ZNSt10__weak_ptrIN5telux6common12ISDKListenerELN9__gnu_cxx12_Lock_policyE2EEC2INS0_4data3net14ISocksListenerEvEERKS_IT_LS4_2EE=so_stub_for_libtelux_data
-Wl,--defsym=_ZNSt10__weak_ptrIN5telux6common12ISDKListenerELN9__gnu_cxx12_Lock_policyE2EEC2INS0_4data3net15IBridgeListenerEvEERKS_IT_LS4_2EE=so_stub_for_libtelux_data
-Wl,--defsym=_ZNSt10__weak_ptrIN5telux6common12ISDKListenerELN9__gnu_cxx12_Lock_policyE2EEC2INS0_4data3net17IFirewallListenerEvEERKS_IT_LS4_2EE=so_stub_for_libtelux_data
-Wl,--defsym=_ZNSt11__copy_moveILb0ELb0ESt26random_access_iterator_tagE8__copy_mIPSt13shared_futureIvES5_EET0_T_S7_S6_=so_stub_for_libtelux_data
-Wl,--defsym=_ZNSt11_Deque_baseISt13shared_futureIvESaIS1_EE15_M_create_nodesEPPS1_S5_=so_stub_for_libtelux_data
-Wl,--defsym=_ZNSt11_Deque_baseISt13shared_futureIvESaIS1_EE16_M_destroy_nodesEPPS1_S5_=so_stub_for_libtelux_data
-Wl,--defsym=_ZNSt11_Deque_baseISt13shared_futureIvESaIS1_EE17_M_initialize_mapEm=so_stub_for_libtelux_data
-Wl,--defsym=_ZNSt11unique_lockISt5mutexE6unlockEv=so_stub_for_libtelux_data
-Wl,--defsym=_ZNSt12_Destroy_auxILb0EE9__destroyIPN5telux4data15DeviceDataUsageEEEvT_S6_=so_stub_for_libtelux_data
-Wl,--defsym=_ZNSt12_Destroy_auxILb0EE9__destroyIPN5telux4data3net9DmzConfigEEEvT_S7_=so_stub_for_libtelux_data
-Wl,--defsym=_ZNSt12_Destroy_auxILb0EE9__destroyIPNSt7__cxx1112basic_stringIcSt11char_traitsIcESaIcEEEEEvT_S9_=so_stub_for_libtelux_data
-Wl,--defsym=_ZNSt12future_errorC1ESt10error_code=so_stub_for_libtelux_data
-Wl,--defsym=_ZNSt12future_errorC2ESt10error_code=so_stub_for_libtelux_data
-Wl,--defsym=_ZNSt12__shared_ptrIN5telux4data10TftBuilderELN9__gnu_cxx12_Lock_policyE2EEC1ISaIS2_EJSt5_BindIFMNS1_9QcmClientEFvSt6vectorISt10shared_ptrINS1_19TrafficFlowTemplateEESaISD_EEEPS9_St12_PlaceholderILi1EEEES8_IFMS9_FvSA_ISB_INS1_13TftChangeInfoEESaISO_EEjESI_SK_SJ_ILi2EEEEEEESt20_Sp_alloc_shared_tagIT_EDpOT0_=so_stub_for_libtelux_data
-Wl,--defsym=_ZNSt12__shared_ptrIN5telux4data10TftBuilderELN9__gnu_cxx12_Lock_policyE2EEC2ISaIS2_EJSt5_BindIFMNS1_9QcmClientEFvSt6vectorISt10shared_ptrINS1_19TrafficFlowTemplateEESaISD_EEEPS9_St12_PlaceholderILi1EEEES8_IFMS9_FvSA_ISB_INS1_13TftChangeInfoEESaISO_EEjESI_SK_SJ_ILi2EEEEEEESt20_Sp_alloc_shared_tagIT_EDpOT0_=so_stub_for_libtelux_data
-Wl,--defsym=_ZNSt12__shared_ptrIN5telux4data16ProfileRetrieverELN9__gnu_cxx12_Lock_policyE2EEC1ISaIS2_EJRSt10shared_ptrINS1_37AddProfileIdInApnThrottleInfoCallbackEERS8_INS0_3qmi12WdsQmiClientEEEEESt20_Sp_alloc_shared_tagIT_EDpOT0_=so_stub_for_libtelux_data
-Wl,--defsym=_ZNSt12__shared_ptrIN5telux4data16ProfileRetrieverELN9__gnu_cxx12_Lock_policyE2EEC1ISaIS2_EJSt10shared_ptrINS1_22DataProfileManagerImplEERS8_INS0_3qmi12WdsQmiClientEEEEESt20_Sp_alloc_shared_tagIT_EDpOT0_=so_stub_for_libtelux_data
-Wl,--defsym=_ZNSt12__shared_ptrIN5telux4data16ProfileRetrieverELN9__gnu_cxx12_Lock_policyE2EEC2ISaIS2_EJRSt10shared_ptrINS1_37AddProfileIdInApnThrottleInfoCallbackEERS8_INS0_3qmi12WdsQmiClientEEEEESt20_Sp_alloc_shared_tagIT_EDpOT0_=so_stub_for_libtelux_data
-Wl,--defsym=_ZNSt12__shared_ptrIN5telux4data16ProfileRetrieverELN9__gnu_cxx12_Lock_policyE2EEC2ISaIS2_EJSt10shared_ptrINS1_22DataProfileManagerImplEERS8_INS0_3qmi12WdsQmiClientEEEEESt20_Sp_alloc_shared_tagIT_EDpOT0_=so_stub_for_libtelux_data
-Wl,--defsym=_ZNSt12__shared_ptrIN5telux4data17ClientManagerImplELN9__gnu_cxx12_Lock_policyE2EEC1ISaIS2_EJKSt10shared_ptrINS1_9QcmClientEEEEESt20_Sp_alloc_shared_tagIT_EDpOT0_=so_stub_for_libtelux_data
-Wl,--defsym=_ZNSt12__shared_ptrIN5telux4data17ClientManagerImplELN9__gnu_cxx12_Lock_policyE2EEC2ISaIS2_EJKSt10shared_ptrINS1_9QcmClientEEEEESt20_Sp_alloc_shared_tagIT_EDpOT0_=so_stub_for_libtelux_data
-Wl,--defsym=_ZNSt12__shared_ptrIN5telux4data19DataLinkManagerImplELN9__gnu_cxx12_Lock_policyE2EEC1ISaIS2_EJEEESt20_Sp_alloc_shared_tagIT_EDpOT0_=so_stub_for_libtelux_data
-Wl,--defsym=_ZNSt12__shared_ptrIN5telux4data19DataLinkManagerImplELN9__gnu_cxx12_Lock_policyE2EEC2ISaIS2_EJEEESt20_Sp_alloc_shared_tagIT_EDpOT0_=so_stub_for_libtelux_data
-Wl,--defsym=_ZNSt12__shared_ptrIN5telux4data19DualDataManagerImplELN9__gnu_cxx12_Lock_policyE2EEC1ISaIS2_EJKSt10shared_ptrINS0_3qms9QmsClientEEEEESt20_Sp_alloc_shared_tagIT_EDpOT0_=so_stub_for_libtelux_data
-Wl,--defsym=_ZNSt12__shared_ptrIN5telux4data19DualDataManagerImplELN9__gnu_cxx12_Lock_policyE2EEC2ISaIS2_EJKSt10shared_ptrINS0_3qms9QmsClientEEEEESt20_Sp_alloc_shared_tagIT_EDpOT0_=so_stub_for_libtelux_data
-Wl,--defsym=_ZNSt12__shared_ptrIN5telux4data19IDataFilterListenerELN9__gnu_cxx12_Lock_policyE2EEC1ERKSt10__weak_ptrIS2_LS4_2EESt9nothrow_t=so_stub_for_libtelux_data
-Wl,--defsym=_ZNSt12__shared_ptrIN5telux4data19IDataFilterListenerELN9__gnu_cxx12_Lock_policyE2EEC2ERKSt10__weak_ptrIS2_LS4_2EESt9nothrow_t=so_stub_for_libtelux_data
-Wl,--defsym=_ZNSt12__shared_ptrIN5telux4data20KeepAliveManagerImplELN9__gnu_cxx12_Lock_policyE2EEC1ISaIS2_EJRK6SlotIdKSt10shared_ptrINS1_9QcmClientEEEEESt20_Sp_alloc_shared_tagIT_EDpOT0_=so_stub_for_libtelux_data
-Wl,--defsym=_ZNSt12__shared_ptrIN5telux4data20KeepAliveManagerImplELN9__gnu_cxx12_Lock_policyE2EEC2ISaIS2_EJRK6SlotIdKSt10shared_ptrINS1_9QcmClientEEEEESt20_Sp_alloc_shared_tagIT_EDpOT0_=so_stub_for_libtelux_data
-Wl,--defsym=_ZNSt12__shared_ptrIN5telux4data21DataFilterManagerImplELN9__gnu_cxx12_Lock_policyE2EEC1ISaIS2_EJR6SlotIdEEESt20_Sp_alloc_shared_tagIT_EDpOT0_=so_stub_for_libtelux_data
-Wl,--defsym=_ZNSt12__shared_ptrIN5telux4data21DataFilterManagerImplELN9__gnu_cxx12_Lock_policyE2EEC2ISaIS2_EJR6SlotIdEEESt20_Sp_alloc_shared_tagIT_EDpOT0_=so_stub_for_libtelux_data
-Wl,--defsym=_ZNSt12__shared_ptrIN5telux4data22DataControlManagerImplELN9__gnu_cxx12_Lock_policyE2EEC1ISaIS2_EJKSt10shared_ptrINS0_3qms9QmsClientEEEEESt20_Sp_alloc_shared_tagIT_EDpOT0_=so_stub_for_libtelux_data
-Wl,--defsym=_ZNSt12__shared_ptrIN5telux4data22DataControlManagerImplELN9__gnu_cxx12_Lock_policyE2EEC2ISaIS2_EJKSt10shared_ptrINS0_3qms9QmsClientEEEEESt20_Sp_alloc_shared_tagIT_EDpOT0_=so_stub_for_libtelux_data
-Wl,--defsym=_ZNSt12__shared_ptrIN5telux4data22DataProfileManagerImplELN9__gnu_cxx12_Lock_policyE2EEC1ISaIS2_EJR6SlotIdEEESt20_Sp_alloc_shared_tagIT_EDpOT0_=so_stub_for_libtelux_data
-Wl,--defsym=_ZNSt12__shared_ptrIN5telux4data22DataProfileManagerImplELN9__gnu_cxx12_Lock_policyE2EEC2ISaIS2_EJR6SlotIdEEESt20_Sp_alloc_shared_tagIT_EDpOT0_=so_stub_for_libtelux_data
-Wl,--defsym=_ZNSt12__shared_ptrIN5telux4data23DataSettingsManagerImplELN9__gnu_cxx12_Lock_policyE2EEC1ISaIS2_EJRNS1_13OperationTypeEKSt10shared_ptrINS1_9QcmClientEEEEESt20_Sp_alloc_shared_tagIT_EDpOT0_=so_stub_for_libtelux_data
-Wl,--defsym=_ZNSt12__shared_ptrIN5telux4data23DataSettingsManagerImplELN9__gnu_cxx12_Lock_policyE2EEC2ISaIS2_EJRNS1_13OperationTypeEKSt10shared_ptrINS1_9QcmClientEEEEESt20_Sp_alloc_shared_tagIT_EDpOT0_=so_stub_for_libtelux_data
-Wl,--defsym=_ZNSt12__shared_ptrIN5telux4data24ServingSystemManagerImplELN9__gnu_cxx12_Lock_policyE2EEC1ISaIS2_EJR6SlotIdEEESt20_Sp_alloc_shared_tagIT_EDpOT0_=so_stub_for_libtelux_data
-Wl,--defsym=_ZNSt12__shared_ptrIN5telux4data24ServingSystemManagerImplELN9__gnu_cxx12_Lock_policyE2EEC2ISaIS2_EJR6SlotIdEEESt20_Sp_alloc_shared_tagIT_EDpOT0_=so_stub_for_libtelux_data
-Wl,--defsym=_ZNSt12__shared_ptrIN5telux4data25DataConnectionManagerImplELN9__gnu_cxx12_Lock_policyE2EEC1ISaIS2_EJRK6SlotIdKSt10shared_ptrINS1_9QcmClientEEEEESt20_Sp_alloc_shared_tagIT_EDpOT0_=so_stub_for_libtelux_data
-Wl,--defsym=_ZNSt12__shared_ptrIN5telux4data25DataConnectionManagerImplELN9__gnu_cxx12_Lock_policyE2EEC2ISaIS2_EJRK6SlotIdKSt10shared_ptrINS1_9QcmClientEEEEESt20_Sp_alloc_shared_tagIT_EDpOT0_=so_stub_for_libtelux_data
-Wl,--defsym=_ZNSt12__shared_ptrIN5telux4data25DataSubSystemStateMachineELN9__gnu_cxx12_Lock_policyE2EEC1ISaIS2_EJKSt10shared_ptrINS1_9QcmClientEEEEESt20_Sp_alloc_shared_tagIT_EDpOT0_=so_stub_for_libtelux_data
-Wl,--defsym=_ZNSt12__shared_ptrIN5telux4data25DataSubSystemStateMachineELN9__gnu_cxx12_Lock_policyE2EEC2ISaIS2_EJKSt10shared_ptrINS1_9QcmClientEEEEESt20_Sp_alloc_shared_tagIT_EDpOT0_=so_stub_for_libtelux_data
-Wl,--defsym=_ZNSt12__shared_ptrIN5telux4data3net13IVlanListenerELN9__gnu_cxx12_Lock_policyE2EEC1ERKSt10__weak_ptrIS3_LS5_2EESt9nothrow_t=so_stub_for_libtelux_data
-Wl,--defsym=_ZNSt12__shared_ptrIN5telux4data3net13IVlanListenerELN9__gnu_cxx12_Lock_policyE2EEC2ERKSt10__weak_ptrIS3_LS5_2EESt9nothrow_t=so_stub_for_libtelux_data
-Wl,--defsym=_ZNSt12__shared_ptrIN5telux4data3net14NatManagerImplELN9__gnu_cxx12_Lock_policyE2EEC1ISaIS3_EJRKNS1_13OperationTypeEKSt10shared_ptrINS1_9QcmClientEEEEESt20_Sp_alloc_shared_tagIT_EDpOT0_=so_stub_for_libtelux_data
-Wl,--defsym=_ZNSt12__shared_ptrIN5telux4data3net14NatManagerImplELN9__gnu_cxx12_Lock_policyE2EEC2ISaIS3_EJRKNS1_13OperationTypeEKSt10shared_ptrINS1_9QcmClientEEEEESt20_Sp_alloc_shared_tagIT_EDpOT0_=so_stub_for_libtelux_data
-Wl,--defsym=_ZNSt12__shared_ptrIN5telux4data3net14QoSManagerImplELN9__gnu_cxx12_Lock_policyE2EEC1ISaIS3_EJKSt10shared_ptrINS1_9QcmClientEEEEESt20_Sp_alloc_shared_tagIT_EDpOT0_=so_stub_for_libtelux_data
-Wl,--defsym=_ZNSt12__shared_ptrIN5telux4data3net14QoSManagerImplELN9__gnu_cxx12_Lock_policyE2EEC2ISaIS3_EJKSt10shared_ptrINS1_9QcmClientEEEEESt20_Sp_alloc_shared_tagIT_EDpOT0_=so_stub_for_libtelux_data
-Wl,--defsym=_ZNSt12__shared_ptrIN5telux4data3net15L2tpManagerImplELN9__gnu_cxx12_Lock_policyE2EEC1ISaIS3_EJKSt10shared_ptrINS1_9QcmClientEEEEESt20_Sp_alloc_shared_tagIT_EDpOT0_=so_stub_for_libtelux_data
-Wl,--defsym=_ZNSt12__shared_ptrIN5telux4data3net15L2tpManagerImplELN9__gnu_cxx12_Lock_policyE2EEC2ISaIS3_EJKSt10shared_ptrINS1_9QcmClientEEEEESt20_Sp_alloc_shared_tagIT_EDpOT0_=so_stub_for_libtelux_data
-Wl,--defsym=_ZNSt12__shared_ptrIN5telux4data3net15VlanManagerImplELN9__gnu_cxx12_Lock_policyE2EEC1ISaIS3_EJRNS1_13OperationTypeEKSt10shared_ptrINS1_9QcmClientEEEEESt20_Sp_alloc_shared_tagIT_EDpOT0_=so_stub_for_libtelux_data
-Wl,--defsym=_ZNSt12__shared_ptrIN5telux4data3net15VlanManagerImplELN9__gnu_cxx12_Lock_policyE2EEC2ISaIS3_EJRNS1_13OperationTypeEKSt10shared_ptrINS1_9QcmClientEEEEESt20_Sp_alloc_shared_tagIT_EDpOT0_=so_stub_for_libtelux_data
-Wl,--defsym=_ZNSt12__shared_ptrIN5telux4data3net16SocksManagerImplELN9__gnu_cxx12_Lock_policyE2EEC1ISaIS3_EJRNS1_13OperationTypeEKSt10shared_ptrINS1_9QcmClientEEEEESt20_Sp_alloc_shared_tagIT_EDpOT0_=so_stub_for_libtelux_data
-Wl,--defsym=_ZNSt12__shared_ptrIN5telux4data3net16SocksManagerImplELN9__gnu_cxx12_Lock_policyE2EEC2ISaIS3_EJRNS1_13OperationTypeEKSt10shared_ptrINS1_9QcmClientEEEEESt20_Sp_alloc_shared_tagIT_EDpOT0_=so_stub_for_libtelux_data
-Wl,--defsym=_ZNSt12__shared_ptrIN5telux4data3net17BridgeManagerImplELN9__gnu_cxx12_Lock_policyE2EEC1ISaIS3_EJKSt10shared_ptrINS1_9QcmClientEEEEESt20_Sp_alloc_shared_tagIT_EDpOT0_=so_stub_for_libtelux_data
-Wl,--defsym=_ZNSt12__shared_ptrIN5telux4data3net17BridgeManagerImplELN9__gnu_cxx12_Lock_policyE2EEC2ISaIS3_EJKSt10shared_ptrINS1_9QcmClientEEEEESt20_Sp_alloc_shared_tagIT_EDpOT0_=so_stub_for_libtelux_data
-Wl,--defsym=_ZNSt12__shared_ptrIN5telux4data3net19FirewallManagerImplELN9__gnu_cxx12_Lock_policyE2EEC1ISaIS3_EJRNS1_13OperationTypeEKSt10shared_ptrINS1_9QcmClientEEEEESt20_Sp_alloc_shared_tagIT_EDpOT0_=so_stub_for_libtelux_data
-Wl,--defsym=_ZNSt12__shared_ptrIN5telux4data3net19FirewallManagerImplELN9__gnu_cxx12_Lock_policyE2EEC2ISaIS3_EJRNS1_13OperationTypeEKSt10shared_ptrINS1_9QcmClientEEEEESt20_Sp_alloc_shared_tagIT_EDpOT0_=so_stub_for_libtelux_data
-Wl,--defsym=_ZNSt12__shared_ptrIN5telux6common12ISDKListenerELN9__gnu_cxx12_Lock_policyE2EEC1ERKSt10__weak_ptrIS2_LS4_2EESt9nothrow_t=so_stub_for_libtelux_data
-Wl,--defsym=_ZNSt12__shared_ptrIN5telux6common12ISDKListenerELN9__gnu_cxx12_Lock_policyE2EEC2ERKSt10__weak_ptrIS2_LS4_2EESt9nothrow_t=so_stub_for_libtelux_data
-Wl,--defsym=_ZNSt12__shared_ptrIN5telux6common16BaseStateMachineELN9__gnu_cxx12_Lock_policyE2EEC1ERKSt10__weak_ptrIS2_LS4_2EESt9nothrow_t=so_stub_for_libtelux_data
-Wl,--defsym=_ZNSt12__shared_ptrIN5telux6common16BaseStateMachineELN9__gnu_cxx12_Lock_policyE2EEC2ERKSt10__weak_ptrIS2_LS4_2EESt9nothrow_t=so_stub_for_libtelux_data
-Wl,--defsym=_ZNSt12__shared_ptrINSt13__future_base13_State_baseV2ELN9__gnu_cxx12_Lock_policyE2EE5resetEv=so_stub_for_libtelux_data
-Wl,--defsym=_ZNSt12__weak_countILN9__gnu_cxx12_Lock_policyE2EEaSERKSt14__shared_countILS1_2EE=so_stub_for_libtelux_data
-Wl,--defsym=_ZNSt13__future_base13_State_baseV210wait_untilINSt6chrono3_V212system_clockENS2_8durationIlSt5ratioILl1ELl1000000000EEEEEESt13future_statusRKNS2_10time_pointIT_T0_EE=so_stub_for_libtelux_data
-Wl,--defsym=_ZNSt13__future_base13_State_baseV213_M_set_resultESt8functionIFSt10unique_ptrINS_12_Result_baseENS3_8_DeleterEEvEEb=so_stub_for_libtelux_data
-Wl,--defsym=_ZNSt13__future_base13_State_baseV216_M_break_promiseESt10unique_ptrINS_12_Result_baseENS2_8_DeleterEE=so_stub_for_libtelux_data
-Wl,--defsym=_ZNSt13__future_base13_State_baseV217_M_complete_asyncEv=so_stub_for_libtelux_data
-Wl,--defsym=_ZNSt13__future_base13_State_baseV24waitEv=so_stub_for_libtelux_data
-Wl,--defsym=_ZNSt13__future_base13_State_baseV28wait_forIlSt5ratioILl1ELl1EEEESt13future_statusRKNSt6chrono8durationIT_T0_EE=so_stub_for_libtelux_data
-Wl,--defsym=_ZNSt13__future_base13_State_baseV29_M_do_setEPSt8functionIFSt10unique_ptrINS_12_Result_baseENS3_8_DeleterEEvEEPb=so_stub_for_libtelux_data
-Wl,--defsym=_ZNSt13__future_base13_State_baseV2D0Ev=so_stub_for_libtelux_data
-Wl,--defsym=_ZNSt13__future_base13_State_baseV2D1Ev=so_stub_for_libtelux_data
-Wl,--defsym=_ZNSt13__future_base13_State_baseV2D2Ev=so_stub_for_libtelux_data
-Wl,--defsym=_ZNSt13__future_base15_Deferred_stateINSt6thread8_InvokerISt5tupleIJMN5telux4data9QcmClientEFvSt10shared_ptrINS5_9IDataCallEEEPS6_S7_INS5_12DataCallImplEEEEEEvE17_M_complete_asyncEv=so_stub_for_libtelux_data
-Wl,--defsym=_ZNSt13__future_base15_Deferred_stateINSt6thread8_InvokerISt5tupleIJMN5telux4data9QcmClientEFvSt10shared_ptrINS5_9IDataCallEEEPS6_S7_INS5_12DataCallImplEEEEEEvEC1IJSB_SC_RSE_EEEDpOT_=so_stub_for_libtelux_data
-Wl,--defsym=_ZNSt13__future_base15_Deferred_stateINSt6thread8_InvokerISt5tupleIJMN5telux4data9QcmClientEFvSt10shared_ptrINS5_9IDataCallEEEPS6_S7_INS5_12DataCallImplEEEEEEvEC2IJSB_SC_RSE_EEEDpOT_=so_stub_for_libtelux_data
-Wl,--defsym=_ZNSt13__future_base15_Deferred_stateINSt6thread8_InvokerISt5tupleIJMN5telux4data9QcmClientEFvSt10shared_ptrINS5_9IDataCallEEEPS6_S7_INS5_12DataCallImplEEEEEEvED0Ev=so_stub_for_libtelux_data
-Wl,--defsym=_ZNSt13__future_base15_Deferred_stateINSt6thread8_InvokerISt5tupleIJMN5telux4data9QcmClientEFvSt10shared_ptrINS5_9IDataCallEEEPS6_S7_INS5_12DataCallImplEEEEEEvED1Ev=so_stub_for_libtelux_data
-Wl,--defsym=_ZNSt13__future_base15_Deferred_stateINSt6thread8_InvokerISt5tupleIJMN5telux4data9QcmClientEFvSt10shared_ptrINS5_9IDataCallEEEPS6_S7_INS5_12DataCallImplEEEEEEvED2Ev=so_stub_for_libtelux_data
-Wl,--defsym=_ZNSt13__future_base17_Async_state_implINSt6thread8_InvokerISt5tupleIJMN5telux4data9QcmClientEFvSt10shared_ptrINS5_9IDataCallEEEPS6_S7_INS5_12DataCallImplEEEEEEvE6_M_runEv=so_stub_for_libtelux_data
-Wl,--defsym=_ZNSt13__future_base17_Async_state_implINSt6thread8_InvokerISt5tupleIJMN5telux4data9QcmClientEFvSt10shared_ptrINS5_9IDataCallEEEPS6_S7_INS5_12DataCallImplEEEEEEvEC1IJSB_SC_RSE_EEEDpOT_=so_stub_for_libtelux_data
-Wl,--defsym=_ZNSt13__future_base17_Async_state_implINSt6thread8_InvokerISt5tupleIJMN5telux4data9QcmClientEFvSt10shared_ptrINS5_9IDataCallEEEPS6_S7_INS5_12DataCallImplEEEEEEvEC2IJSB_SC_RSE_EEEDpOT_=so_stub_for_libtelux_data
-Wl,--defsym=_ZNSt13__future_base17_Async_state_implINSt6thread8_InvokerISt5tupleIJMN5telux4data9QcmClientEFvSt10shared_ptrINS5_9IDataCallEEEPS6_S7_INS5_12DataCallImplEEEEEEvED0Ev=so_stub_for_libtelux_data
-Wl,--defsym=_ZNSt13__future_base17_Async_state_implINSt6thread8_InvokerISt5tupleIJMN5telux4data9QcmClientEFvSt10shared_ptrINS5_9IDataCallEEEPS6_S7_INS5_12DataCallImplEEEEEEvED1Ev=so_stub_for_libtelux_data
-Wl,--defsym=_ZNSt13__future_base17_Async_state_implINSt6thread8_InvokerISt5tupleIJMN5telux4data9QcmClientEFvSt10shared_ptrINS5_9IDataCallEEEPS6_S7_INS5_12DataCallImplEEEEEEvED2Ev=so_stub_for_libtelux_data
-Wl,--defsym=_ZNSt13__future_base21_Async_state_commonV217_M_complete_asyncEv=so_stub_for_libtelux_data
-Wl,--defsym=_ZNSt13__future_base21_Async_state_commonV2D0Ev=so_stub_for_libtelux_data
-Wl,--defsym=_ZNSt13__future_base21_Async_state_commonV2D1Ev=so_stub_for_libtelux_data
-Wl,--defsym=_ZNSt13__future_base21_Async_state_commonV2D2Ev=so_stub_for_libtelux_data
-Wl,--defsym=_ZNSt13__future_base7_ResultI18dsi_v2x_ind_info_tE10_M_destroyEv=so_stub_for_libtelux_data
-Wl,--defsym=_ZNSt13__future_base7_ResultI18dsi_v2x_ind_info_tED0Ev=so_stub_for_libtelux_data
-Wl,--defsym=_ZNSt13__future_base7_ResultI18dsi_v2x_ind_info_tED1Ev=so_stub_for_libtelux_data
-Wl,--defsym=_ZNSt13__future_base7_ResultI18dsi_v2x_ind_info_tED2Ev=so_stub_for_libtelux_data
-Wl,--defsym=_ZNSt13__future_base7_ResultIbE10_M_destroyEv=so_stub_for_libtelux_data
-Wl,--defsym=_ZNSt13__future_base7_ResultIbED0Ev=so_stub_for_libtelux_data
-Wl,--defsym=_ZNSt13__future_base7_ResultIbED1Ev=so_stub_for_libtelux_data
-Wl,--defsym=_ZNSt13__future_base7_ResultIbED2Ev=so_stub_for_libtelux_data
-Wl,--defsym=_ZNSt13__future_base7_ResultIjE10_M_destroyEv=so_stub_for_libtelux_data
-Wl,--defsym=_ZNSt13__future_base7_ResultIjED0Ev=so_stub_for_libtelux_data
-Wl,--defsym=_ZNSt13__future_base7_ResultIjED1Ev=so_stub_for_libtelux_data
-Wl,--defsym=_ZNSt13__future_base7_ResultIjED2Ev=so_stub_for_libtelux_data
-Wl,--defsym=_ZNSt13__future_base7_ResultIN5telux4data23NetLinkModeChangeStatusEE10_M_destroyEv=so_stub_for_libtelux_data
-Wl,--defsym=_ZNSt13__future_base7_ResultIN5telux4data23NetLinkModeChangeStatusEED0Ev=so_stub_for_libtelux_data
-Wl,--defsym=_ZNSt13__future_base7_ResultIN5telux4data23NetLinkModeChangeStatusEED1Ev=so_stub_for_libtelux_data
-Wl,--defsym=_ZNSt13__future_base7_ResultIN5telux4data23NetLinkModeChangeStatusEED2Ev=so_stub_for_libtelux_data
-Wl,--defsym=_ZNSt13__future_base7_ResultIN5telux6common9ErrorCodeEE10_M_destroyEv=so_stub_for_libtelux_data
-Wl,--defsym=_ZNSt13__future_base7_ResultIN5telux6common9ErrorCodeEED0Ev=so_stub_for_libtelux_data
-Wl,--defsym=_ZNSt13__future_base7_ResultIN5telux6common9ErrorCodeEED1Ev=so_stub_for_libtelux_data
-Wl,--defsym=_ZNSt13__future_base7_ResultIN5telux6common9ErrorCodeEED2Ev=so_stub_for_libtelux_data
-Wl,--defsym=_ZNSt13__future_base7_ResultIvE10_M_destroyEv=so_stub_for_libtelux_data
-Wl,--defsym=_ZNSt13__future_base7_ResultIvED0Ev=so_stub_for_libtelux_data
-Wl,--defsym=_ZNSt13__future_base7_ResultIvED1Ev=so_stub_for_libtelux_data
-Wl,--defsym=_ZNSt13__future_base7_ResultIvED2Ev=so_stub_for_libtelux_data
-Wl,--defsym=_ZNSt14__basic_futureI18dsi_v2x_ind_info_tEC1ERKSt10shared_ptrINSt13__future_base13_State_baseV2EE=so_stub_for_libtelux_data
-Wl,--defsym=_ZNSt14__basic_futureI18dsi_v2x_ind_info_tEC2ERKSt10shared_ptrINSt13__future_base13_State_baseV2EE=so_stub_for_libtelux_data
-Wl,--defsym=_ZNSt14__basic_futureIbEC1ERKSt10shared_ptrINSt13__future_base13_State_baseV2EE=so_stub_for_libtelux_data
-Wl,--defsym=_ZNSt14__basic_futureIbEC2ERKSt10shared_ptrINSt13__future_base13_State_baseV2EE=so_stub_for_libtelux_data
-Wl,--defsym=_ZNSt14__basic_futureIjEC1ERKSt10shared_ptrINSt13__future_base13_State_baseV2EE=so_stub_for_libtelux_data
-Wl,--defsym=_ZNSt14__basic_futureIjEC2ERKSt10shared_ptrINSt13__future_base13_State_baseV2EE=so_stub_for_libtelux_data
-Wl,--defsym=_ZNSt14__basic_futureIN5telux4data23NetLinkModeChangeStatusEEC1ERKSt10shared_ptrINSt13__future_base13_State_baseV2EE=so_stub_for_libtelux_data
-Wl,--defsym=_ZNSt14__basic_futureIN5telux4data23NetLinkModeChangeStatusEEC2ERKSt10shared_ptrINSt13__future_base13_State_baseV2EE=so_stub_for_libtelux_data
-Wl,--defsym=_ZNSt14__basic_futureIN5telux6common9ErrorCodeEEC1ERKSt10shared_ptrINSt13__future_base13_State_baseV2EE=so_stub_for_libtelux_data
-Wl,--defsym=_ZNSt14__basic_futureIN5telux6common9ErrorCodeEEC2ERKSt10shared_ptrINSt13__future_base13_State_baseV2EE=so_stub_for_libtelux_data
-Wl,--defsym=_ZNSt14__basic_futureIvEC1ERKSt10shared_ptrINSt13__future_base13_State_baseV2EE=so_stub_for_libtelux_data
-Wl,--defsym=_ZNSt14__basic_futureIvEC2ERKSt10shared_ptrINSt13__future_base13_State_baseV2EE=so_stub_for_libtelux_data
-Wl,--defsym=_ZNSt14_Function_base13_Base_managerISt5_BindIFMN5telux4data22DataProfileManagerImplEFvNS2_6common13ServiceStatusEEPS4_St12_PlaceholderILi1EEEEE10_M_managerERSt9_Any_dataRKSF_St18_Manager_operation=so_stub_for_libtelux_data
-Wl,--defsym=_ZNSt14_Function_base13_Base_managerISt5_BindIFMN5telux4data22DataProfileManagerImplEFvNS2_6common9ErrorCodeEPvEPS4_St12_PlaceholderILi1EESB_ILi2EEEEE10_M_managerERSt9_Any_dataRKSH_St18_Manager_operation=so_stub_for_libtelux_data
-Wl,--defsym=_ZNSt14_Function_base13_Base_managerISt5_BindIFMN5telux4data22DataProfileManagerImplEFvP31wds_profile_changed_ind_msg_v01EPS4_St12_PlaceholderILi1EEEEE10_M_managerERSt9_Any_dataRKSF_St18_Manager_operation=so_stub_for_libtelux_data
-Wl,--defsym=_ZNSt14_Function_base13_Base_managerISt5_BindIFMN5telux4data9DsiClientEFvRKSt10shared_ptrINS3_21DsiStatusCallbackDataEEEPS4_St12_PlaceholderILi1EEEEE10_M_managerERSt9_Any_dataRKSI_St18_Manager_operation=so_stub_for_libtelux_data
-Wl,--defsym=_ZNSt14_Function_base13_Base_managerISt5_BindIFMN5telux4data9QcmClientEFvSt6vectorISt10shared_ptrINS3_13TftChangeInfoEESaIS8_EEjEPS4_St12_PlaceholderILi1EESE_ILi2EEEEE10_M_managerERSt9_Any_dataRKSK_St18_Manager_operation=so_stub_for_libtelux_data
-Wl,--defsym=_ZNSt14_Function_base13_Base_managerISt5_BindIFMN5telux4data9QcmClientEFvSt6vectorISt10shared_ptrINS3_19TrafficFlowTemplateEESaIS8_EEEPS4_St12_PlaceholderILi1EEEEE10_M_managerERSt9_Any_dataRKSJ_St18_Manager_operation=so_stub_for_libtelux_data
-Wl,--defsym=_ZNSt14_Function_base13_Base_managerISt8functionIFvRKSt10shared_ptrIN5telux4data21DsiStatusCallbackDataEEEEE10_M_managerERSt9_Any_dataRKSC_St18_Manager_operation=so_stub_for_libtelux_data
-Wl,--defsym=_ZNSt14_Function_base13_Base_managerIZN5telux6common13FactoryHelper10getManagerINS1_4data16IDataLinkManagerEEESt10shared_ptrIT_ENSt7__cxx1112basic_stringIcSt11char_traitsIcESaIcEEERSt8weak_ptrIS8_ERSt6vectorISt8functionIFvNS2_13ServiceStatusEEESaISN_EESN_SK_IFS9_SN_EEEUlSL_E0_E10_M_managerERSt9_Any_dataRKSV_St18_Manager_operation=so_stub_for_libtelux_data
-Wl,--defsym=_ZNSt14_Function_base13_Base_managerIZN5telux6common13FactoryHelper10getManagerINS1_4data16IDualDataManagerEEESt10shared_ptrIT_ENSt7__cxx1112basic_stringIcSt11char_traitsIcESaIcEEERSt8weak_ptrIS8_ERSt6vectorISt8functionIFvNS2_13ServiceStatusEEESaISN_EESN_SK_IFS9_SN_EEEUlSL_E0_E10_M_managerERSt9_Any_dataRKSV_St18_Manager_operation=so_stub_for_libtelux_data
-Wl,--defsym=_ZNSt14_Function_base13_Base_managerIZN5telux6common13FactoryHelper10getManagerINS1_4data17IKeepAliveManagerEEESt10shared_ptrIT_ENSt7__cxx1112basic_stringIcSt11char_traitsIcESaIcEEERSt8weak_ptrIS8_ERSt6vectorISt8functionIFvNS2_13ServiceStatusEEESaISN_EESN_SK_IFS9_SN_EEEUlSL_E0_E10_M_managerERSt9_Any_dataRKSV_St18_Manager_operation=so_stub_for_libtelux_data
-Wl,--defsym=_ZNSt14_Function_base13_Base_managerIZN5telux6common13FactoryHelper10getManagerINS1_4data19IDataControlManagerEEESt10shared_ptrIT_ENSt7__cxx1112basic_stringIcSt11char_traitsIcESaIcEEERSt8weak_ptrIS8_ERSt6vectorISt8functionIFvNS2_13ServiceStatusEEESaISN_EESN_SK_IFS9_SN_EEEUlSL_E0_E10_M_managerERSt9_Any_dataRKSV_St18_Manager_operation=so_stub_for_libtelux_data
-Wl,--defsym=_ZNSt14_Function_base13_Base_managerIZN5telux6common13FactoryHelper10getManagerINS1_4data22IDataConnectionManagerEEESt10shared_ptrIT_ENSt7__cxx1112basic_stringIcSt11char_traitsIcESaIcEEERSt8weak_ptrIS8_ERSt6vectorISt8functionIFvNS2_13ServiceStatusEEESaISN_EESN_SK_IFS9_SN_EEEUlSL_E0_E10_M_managerERSt9_Any_dataRKSV_St18_Manager_operation=so_stub_for_libtelux_data
-Wl,--defsym=_ZNSt14_Function_base13_Base_managerIZN5telux6common13FactoryHelper10getManagerINS1_4data3net11INatManagerEEESt10shared_ptrIT_ENSt7__cxx1112basic_stringIcSt11char_traitsIcESaIcEEERSt8weak_ptrIS9_ERSt6vectorISt8functionIFvNS2_13ServiceStatusEEESaISO_EESO_SL_IFSA_SO_EEEUlSM_E0_E10_M_managerERSt9_Any_dataRKSW_St18_Manager_operation=so_stub_for_libtelux_data
-Wl,--defsym=_ZNSt14_Function_base13_Base_managerIZN5telux6common13FactoryHelper10getManagerINS1_4data3net11IQoSManagerEEESt10shared_ptrIT_ENSt7__cxx1112basic_stringIcSt11char_traitsIcESaIcEEERSt8weak_ptrIS9_ERSt6vectorISt8functionIFvNS2_13ServiceStatusEEESaISO_EESO_SL_IFSA_SO_EEEUlSM_E0_E10_M_managerERSt9_Any_dataRKSW_St18_Manager_operation=so_stub_for_libtelux_data
-Wl,--defsym=_ZNSt14_Function_baseD1Ev=so_stub_for_libtelux_data
-Wl,--defsym=_ZNSt14_Function_baseD2Ev=so_stub_for_libtelux_data
-Wl,--defsym=_ZNSt14__shared_countILN9__gnu_cxx12_Lock_policyE2EEaSERKS2_=so_stub_for_libtelux_data
-Wl,--defsym=_ZNSt14__shared_countILN9__gnu_cxx12_Lock_policyE2EEC1ERKSt12__weak_countILS1_2EE=so_stub_for_libtelux_data
-Wl,--defsym=_ZNSt14__shared_countILN9__gnu_cxx12_Lock_policyE2EEC1ERKSt12__weak_countILS1_2EESt9nothrow_t=so_stub_for_libtelux_data
-Wl,--defsym=_ZNSt14__shared_countILN9__gnu_cxx12_Lock_policyE2EEC1I12QCMAP_ClientSaIS4_EJRFvP17qmi_client_structjPvjS8_ER29qcmap_msgr_arch_type_enum_v01EEERPT_St20_Sp_alloc_shared_tagIT0_EDpOT1_=so_stub_for_libtelux_data
-Wl,--defsym=_ZNSt14__shared_countILN9__gnu_cxx12_Lock_policyE2EEC1IN5telux4data10TftBuilderESaIS6_EJSt5_BindIFMNS5_9QcmClientEFvSt6vectorISt10shared_ptrINS5_19TrafficFlowTemplateEESaISD_EEEPS9_St12_PlaceholderILi1EEEES8_IFMS9_FvSA_ISB_INS5_13TftChangeInfoEESaISO_EEjESI_SK_SJ_ILi2EEEEEEERPT_St20_Sp_alloc_shared_tagIT0_EDpOT1_=so_stub_for_libtelux_data
-Wl,--defsym=_ZNSt14__shared_countILN9__gnu_cxx12_Lock_policyE2EEC1IN5telux4data12EventHandlerESaIS6_EJEEERPT_St20_Sp_alloc_shared_tagIT0_EDpOT1_=so_stub_for_libtelux_data
-Wl,--defsym=_ZNSt14__shared_countILN9__gnu_cxx12_Lock_policyE2EEC1IN5telux4data13EspFilterImplESaIS6_EJRhEEERPT_St20_Sp_alloc_shared_tagIT0_EDpOT1_=so_stub_for_libtelux_data
-Wl,--defsym=_ZNSt14__shared_countILN9__gnu_cxx12_Lock_policyE2EEC1IN5telux4data13TcpFilterImplESaIS6_EJiEEERPT_St20_Sp_alloc_shared_tagIT0_EDpOT1_=so_stub_for_libtelux_data
-Wl,--defsym=_ZNSt14__shared_countILN9__gnu_cxx12_Lock_policyE2EEC1IN5telux4data13TcpFilterImplESaIS6_EJRhEEERPT_St20_Sp_alloc_shared_tagIT0_EDpOT1_=so_stub_for_libtelux_data
-Wl,--defsym=_ZNSt14__shared_countILN9__gnu_cxx12_Lock_policyE2EEC1IN5telux4data13UdpFilterImplESaIS6_EJiEEERPT_St20_Sp_alloc_shared_tagIT0_EDpOT1_=so_stub_for_libtelux_data
-Wl,--defsym=_ZNSt14__shared_countILN9__gnu_cxx12_Lock_policyE2EEC1IN5telux4data13UdpFilterImplESaIS6_EJRhEEERPT_St20_Sp_alloc_shared_tagIT0_EDpOT1_=so_stub_for_libtelux_data
-Wl,--defsym=_ZNSt14__shared_countILN9__gnu_cxx12_Lock_policyE2EEC1IN5telux4data14IcmpFilterImplESaIS6_EJRhEEERPT_St20_Sp_alloc_shared_tagIT0_EDpOT1_=so_stub_for_libtelux_data
-Wl,--defsym=_ZNSt14__shared_countILN9__gnu_cxx12_Lock_policyE2EEC1IN5telux4data16ProfileRetrieverESaIS6_EJRSt10shared_ptrINS5_37AddProfileIdInApnThrottleInfoCallbackEERS8_INS4_3qmi12WdsQmiClientEEEEERPT_St20_Sp_alloc_shared_tagIT0_EDpOT1_=so_stub_for_libtelux_data
-Wl,--defsym=_ZNSt14__shared_countILN9__gnu_cxx12_Lock_policyE2EEC1IN5telux4data16ProfileRetrieverESaIS6_EJSt10shared_ptrINS5_22DataProfileManagerImplEERS8_INS4_3qmi12WdsQmiClientEEEEERPT_St20_Sp_alloc_shared_tagIT0_EDpOT1_=so_stub_for_libtelux_data
-Wl,--defsym=_ZNSt14__shared_countILN9__gnu_cxx12_Lock_policyE2EEC1IN5telux4data17ClientManagerImplESaIS6_EJKSt10shared_ptrINS5_9QcmClientEEEEERPT_St20_Sp_alloc_shared_tagIT0_EDpOT1_=so_stub_for_libtelux_data
-Wl,--defsym=_ZNSt14__shared_countILN9__gnu_cxx12_Lock_policyE2EEC1IN5telux4data17KeepAliveListenerESaIS6_EJRSt10shared_ptrINS4_6common15ListenerManagerEEEEERPT_St20_Sp_alloc_shared_tagIT0_EDpOT1_=so_stub_for_libtelux_data
-Wl,--defsym=_ZNSt14__shared_countILN9__gnu_cxx12_Lock_policyE2EEC1IN5telux4data17TrafficFilterImplESaIS6_EJEEERPT_St20_Sp_alloc_shared_tagIT0_EDpOT1_=so_stub_for_libtelux_data
-Wl,--defsym=_ZNSt14__shared_countILN9__gnu_cxx12_Lock_policyE2EEC1IN5telux4data18DataSubSystemEventESaIS6_EJRNS5_25DataSubSystemStateMachine7EventIDERNSt7__cxx1112basic_stringIcSt11char_traitsIcESaIcEEERbEEERPT_St20_Sp_alloc_shared_tagIT0_EDpOT1_=so_stub_for_libtelux_data
-Wl,--defsym=_ZNSt14__shared_countILN9__gnu_cxx12_Lock_policyE2EEC1IN5telux4data19DualDataManagerImplESaIS6_EJKSt10shared_ptrINS4_3qms9QmsClientEEEEERPT_St20_Sp_alloc_shared_tagIT0_EDpOT1_=so_stub_for_libtelux_data
-Wl,--defsym=_ZNSt14__shared_countILN9__gnu_cxx12_Lock_policyE2EEC1IN5telux4data20KeepAliveManagerImplESaIS6_EJRK6SlotIdKSt10shared_ptrINS5_9QcmClientEEEEERPT_St20_Sp_alloc_shared_tagIT0_EDpOT1_=so_stub_for_libtelux_data
-Wl,--defsym=_ZNSt14__shared_countILN9__gnu_cxx12_Lock_policyE2EEC1IN5telux4data21DataFilterManagerImplESaIS6_EJR6SlotIdEEERPT_St20_Sp_alloc_shared_tagIT0_EDpOT1_=so_stub_for_libtelux_data
-Wl,--defsym=_ZNSt14__shared_countILN9__gnu_cxx12_Lock_policyE2EEC1IN5telux4data22DataControlManagerImplESaIS6_EJKSt10shared_ptrINS4_3qms9QmsClientEEEEERPT_St20_Sp_alloc_shared_tagIT0_EDpOT1_=so_stub_for_libtelux_data
-Wl,--defsym=_ZNSt14__shared_countILN9__gnu_cxx12_Lock_policyE2EEC1IN5telux4data22DataProfileManagerImplESaIS6_EJR6SlotIdEEERPT_St20_Sp_alloc_shared_tagIT0_EDpOT1_=so_stub_for_libtelux_data
-Wl,--defsym=_ZNSt14__shared_countILN9__gnu_cxx12_Lock_policyE2EEC1IN5telux4data23DataSettingsManagerImplESaIS6_EJRNS5_13OperationTypeEKSt10shared_ptrINS5_9QcmClientEEEEERPT_St20_Sp_alloc_shared_tagIT0_EDpOT1_=so_stub_for_libtelux_data
-Wl,--defsym=_ZNSt14__shared_countILN9__gnu_cxx12_Lock_policyE2EEC1IN5telux4data23NLEthCapabilityCallbackESaIS6_EJEEERPT_St20_Sp_alloc_shared_tagIT0_EDpOT1_=so_stub_for_libtelux_data
-Wl,--defsym=_ZNSt14__shared_countILN9__gnu_cxx12_Lock_policyE2EEC1IN5telux4data24ServingSystemManagerImplESaIS6_EJR6SlotIdEEERPT_St20_Sp_alloc_shared_tagIT0_EDpOT1_=so_stub_for_libtelux_data
-Wl,--defsym=_ZNSt14__shared_countILN9__gnu_cxx12_Lock_policyE2EEC1IN5telux4data25DataConnectionManagerImplESaIS6_EJRK6SlotIdKSt10shared_ptrINS5_9QcmClientEEEEERPT_St20_Sp_alloc_shared_tagIT0_EDpOT1_=so_stub_for_libtelux_data
-Wl,--defsym=_ZNSt14__shared_countILN9__gnu_cxx12_Lock_policyE2EEC1IN5telux4data25DataSubSystemStateMachineESaIS6_EJKSt10shared_ptrINS5_9QcmClientEEEEERPT_St20_Sp_alloc_shared_tagIT0_EDpOT1_=so_stub_for_libtelux_data
-Wl,--defsym=_ZNSt14__shared_countILN9__gnu_cxx12_Lock_policyE2EEC1IN5telux4data27DataConnectionPowerListenerESaIS6_EJRSt10shared_ptrINS4_3qmi12WdsQmiClientEERSt6bitsetILm32EEEEERPT_St20_Sp_alloc_shared_tagIT0_EDpOT1_=so_stub_for_libtelux_data
-Wl,--defsym=_ZNSt14__shared_countILN9__gnu_cxx12_Lock_policyE2EEC1IN5telux4data27DataSubSystemStateAvailableESaIS6_EJRKSt8weak_ptrINS4_6common16BaseStateMachineEEEEERPT_St20_Sp_alloc_shared_tagIT0_EDpOT1_=so_stub_for_libtelux_data
-Wl,--defsym=_ZNSt14__shared_countILN9__gnu_cxx12_Lock_policyE2EEC1IN5telux4data34NLSetLocalEthOperatingModeCallbackESaIS6_EJEEERPT_St20_Sp_alloc_shared_tagIT0_EDpOT1_=so_stub_for_libtelux_data
-Wl,--defsym=_ZNSt14__shared_countILN9__gnu_cxx12_Lock_policyE2EEC1IN5telux4data37AddProfileIdInApnThrottleInfoCallbackESaIS6_EJRSt13unordered_mapINSt7__cxx1112basic_stringIcSt11char_traitsIcESaIcEEESt10shared_ptrINS5_15APNThrottleInfoEESt4hashISE_ESt8equal_toISE_ESaISt4pairIKSE_SH_EEEEEERPT_St20_Sp_alloc_shared_tagIT0_EDpOT1_=so_stub_for_libtelux_data
-Wl,--defsym=_ZNSt14__shared_countILN9__gnu_cxx12_Lock_policyE2EEC1IN5telux4data3net14NatManagerImplESaIS7_EJRKNS5_13OperationTypeEKSt10shared_ptrINS5_9QcmClientEEEEERPT_St20_Sp_alloc_shared_tagIT0_EDpOT1_=so_stub_for_libtelux_data
-Wl,--defsym=_ZNSt14__shared_countILN9__gnu_cxx12_Lock_policyE2EEC1IN5telux4data3net14QoSManagerImplESaIS7_EJKSt10shared_ptrINS5_9QcmClientEEEEERPT_St20_Sp_alloc_shared_tagIT0_EDpOT1_=so_stub_for_libtelux_data
-Wl,--defsym=_ZNSt14__shared_countILN9__gnu_cxx12_Lock_policyE2EEC1IN5telux4data3net15L2tpManagerImplESaIS7_EJKSt10shared_ptrINS5_9QcmClientEEEEERPT_St20_Sp_alloc_shared_tagIT0_EDpOT1_=so_stub_for_libtelux_data
-Wl,--defsym=_ZNSt14__shared_countILN9__gnu_cxx12_Lock_policyE2EEC1IN5telux4data3net15VlanManagerImplESaIS7_EJRNS5_13OperationTypeEKSt10shared_ptrINS5_9QcmClientEEEEERPT_St20_Sp_alloc_shared_tagIT0_EDpOT1_=so_stub_for_libtelux_data
-Wl,--defsym=_ZNSt14__shared_countILN9__gnu_cxx12_Lock_policyE2EEC1IN5telux4data3net16SocksManagerImplESaIS7_EJRNS5_13OperationTypeEKSt10shared_ptrINS5_9QcmClientEEEEERPT_St20_Sp_alloc_shared_tagIT0_EDpOT1_=so_stub_for_libtelux_data
-Wl,--defsym=_ZNSt14__shared_countILN9__gnu_cxx12_Lock_policyE2EEC1IN5telux4data3net17BridgeManagerImplESaIS7_EJKSt10shared_ptrINS5_9QcmClientEEEEERPT_St20_Sp_alloc_shared_tagIT0_EDpOT1_=so_stub_for_libtelux_data
-Wl,--defsym=_ZNSt14__shared_countILN9__gnu_cxx12_Lock_policyE2EEC1IN5telux4data3net17FirewallEntryImplESaIS7_EJRSt10shared_ptrINS5_9IIpFilterEERNS5_9DirectionERNS5_12IpFamilyTypeEEEERPT_St20_Sp_alloc_shared_tagIT0_EDpOT1_=so_stub_for_libtelux_data
-Wl,--defsym=_ZNSt14__shared_countILN9__gnu_cxx12_Lock_policyE2EEC1IN5telux4data3net19FirewallManagerImplESaIS7_EJRNS5_13OperationTypeEKSt10shared_ptrINS5_9QcmClientEEEEERPT_St20_Sp_alloc_shared_tagIT0_EDpOT1_=so_stub_for_libtelux_data
-Wl,--defsym=_ZNSt14__shared_countILN9__gnu_cxx12_Lock_policyE2EEC1IN5telux4data9EventInfoINS5_21DsiStatusCallbackDataEEESaIS8_EJRKSt10shared_ptrIS7_ERSt8functionIFvSD_EEEEERPT_St20_Sp_alloc_shared_tagIT0_EDpOT1_=so_stub_for_libtelux_data
-Wl,--defsym=_ZNSt14__shared_countILN9__gnu_cxx12_Lock_policyE2EEC1IN5telux6common18FunctionalCallbackIJNS4_4data7DdsInfoENS5_9ErrorCodeEEEESaISA_EJRSt8functionIFvS8_S9_EEEEERPT_St20_Sp_alloc_shared_tagIT0_EDpOT1_=so_stub_for_libtelux_data
-Wl,--defsym=_ZNSt14__shared_countILN9__gnu_cxx12_Lock_policyE2EEC1IN5telux6common18FunctionalCallbackIJNS5_9ErrorCodeEEEESaIS8_EJRSt8functionIFvS7_EEEEERPT_St20_Sp_alloc_shared_tagIT0_EDpOT1_=so_stub_for_libtelux_data
-Wl,--defsym=_ZNSt14__shared_countILN9__gnu_cxx12_Lock_policyE2EEC1IPN5telux4data9DsiClientEEET_=so_stub_for_libtelux_data
-Wl,--defsym=_ZNSt14__shared_countILN9__gnu_cxx12_Lock_policyE2EEC1IPN5telux4data9QcmClientEEET_=so_stub_for_libtelux_data
-Wl,--defsym=_ZNSt14__shared_countILN9__gnu_cxx12_Lock_policyE2EEC2ERKSt12__weak_countILS1_2EE=so_stub_for_libtelux_data
-Wl,--defsym=_ZNSt14__shared_countILN9__gnu_cxx12_Lock_policyE2EEC2ERKSt12__weak_countILS1_2EESt9nothrow_t=so_stub_for_libtelux_data
-Wl,--defsym=_ZNSt14__shared_countILN9__gnu_cxx12_Lock_policyE2EEC2I12QCMAP_ClientSaIS4_EJRFvP17qmi_client_structjPvjS8_ER29qcmap_msgr_arch_type_enum_v01EEERPT_St20_Sp_alloc_shared_tagIT0_EDpOT1_=so_stub_for_libtelux_data
-Wl,--defsym=_ZNSt14__shared_countILN9__gnu_cxx12_Lock_policyE2EEC2IN5telux4data10TftBuilderESaIS6_EJSt5_BindIFMNS5_9QcmClientEFvSt6vectorISt10shared_ptrINS5_19TrafficFlowTemplateEESaISD_EEEPS9_St12_PlaceholderILi1EEEES8_IFMS9_FvSA_ISB_INS5_13TftChangeInfoEESaISO_EEjESI_SK_SJ_ILi2EEEEEEERPT_St20_Sp_alloc_shared_tagIT0_EDpOT1_=so_stub_for_libtelux_data
-Wl,--defsym=_ZNSt14__shared_countILN9__gnu_cxx12_Lock_policyE2EEC2IN5telux4data12EventHandlerESaIS6_EJEEERPT_St20_Sp_alloc_shared_tagIT0_EDpOT1_=so_stub_for_libtelux_data
-Wl,--defsym=_ZNSt14__shared_countILN9__gnu_cxx12_Lock_policyE2EEC2IN5telux4data13EspFilterImplESaIS6_EJRhEEERPT_St20_Sp_alloc_shared_tagIT0_EDpOT1_=so_stub_for_libtelux_data
-Wl,--defsym=_ZNSt14__shared_countILN9__gnu_cxx12_Lock_policyE2EEC2IN5telux4data13TcpFilterImplESaIS6_EJiEEERPT_St20_Sp_alloc_shared_tagIT0_EDpOT1_=so_stub_for_libtelux_data
-Wl,--defsym=_ZNSt14__shared_countILN9__gnu_cxx12_Lock_policyE2EEC2IN5telux4data13TcpFilterImplESaIS6_EJRhEEERPT_St20_Sp_alloc_shared_tagIT0_EDpOT1_=so_stub_for_libtelux_data
-Wl,--defsym=_ZNSt14__shared_countILN9__gnu_cxx12_Lock_policyE2EEC2IN5telux4data13UdpFilterImplESaIS6_EJiEEERPT_St20_Sp_alloc_shared_tagIT0_EDpOT1_=so_stub_for_libtelux_data
-Wl,--defsym=_ZNSt14__shared_countILN9__gnu_cxx12_Lock_policyE2EEC2IN5telux4data13UdpFilterImplESaIS6_EJRhEEERPT_St20_Sp_alloc_shared_tagIT0_EDpOT1_=so_stub_for_libtelux_data
-Wl,--defsym=_ZNSt14__shared_countILN9__gnu_cxx12_Lock_policyE2EEC2IN5telux4data14IcmpFilterImplESaIS6_EJRhEEERPT_St20_Sp_alloc_shared_tagIT0_EDpOT1_=so_stub_for_libtelux_data
-Wl,--defsym=_ZNSt14__shared_countILN9__gnu_cxx12_Lock_policyE2EEC2IN5telux4data16ProfileRetrieverESaIS6_EJRSt10shared_ptrINS5_37AddProfileIdInApnThrottleInfoCallbackEERS8_INS4_3qmi12WdsQmiClientEEEEERPT_St20_Sp_alloc_shared_tagIT0_EDpOT1_=so_stub_for_libtelux_data
-Wl,--defsym=_ZNSt14__shared_countILN9__gnu_cxx12_Lock_policyE2EEC2IN5telux4data16ProfileRetrieverESaIS6_EJSt10shared_ptrINS5_22DataProfileManagerImplEERS8_INS4_3qmi12WdsQmiClientEEEEERPT_St20_Sp_alloc_shared_tagIT0_EDpOT1_=so_stub_for_libtelux_data
-Wl,--defsym=_ZNSt14__shared_countILN9__gnu_cxx12_Lock_policyE2EEC2IN5telux4data17ClientManagerImplESaIS6_EJKSt10shared_ptrINS5_9QcmClientEEEEERPT_St20_Sp_alloc_shared_tagIT0_EDpOT1_=so_stub_for_libtelux_data
-Wl,--defsym=_ZNSt14__shared_countILN9__gnu_cxx12_Lock_policyE2EEC2IN5telux4data17KeepAliveListenerESaIS6_EJRSt10shared_ptrINS4_6common15ListenerManagerEEEEERPT_St20_Sp_alloc_shared_tagIT0_EDpOT1_=so_stub_for_libtelux_data
-Wl,--defsym=_ZNSt14__shared_countILN9__gnu_cxx12_Lock_policyE2EEC2IN5telux4data17TrafficFilterImplESaIS6_EJEEERPT_St20_Sp_alloc_shared_tagIT0_EDpOT1_=so_stub_for_libtelux_data
-Wl,--defsym=_ZNSt14__shared_countILN9__gnu_cxx12_Lock_policyE2EEC2IN5telux4data18DataSubSystemEventESaIS6_EJRNS5_25DataSubSystemStateMachine7EventIDERNSt7__cxx1112basic_stringIcSt11char_traitsIcESaIcEEERbEEERPT_St20_Sp_alloc_shared_tagIT0_EDpOT1_=so_stub_for_libtelux_data
-Wl,--defsym=_ZNSt14__shared_countILN9__gnu_cxx12_Lock_policyE2EEC2IN5telux4data19DualDataManagerImplESaIS6_EJKSt10shared_ptrINS4_3qms9QmsClientEEEEERPT_St20_Sp_alloc_shared_tagIT0_EDpOT1_=so_stub_for_libtelux_data
-Wl,--defsym=_ZNSt14__shared_countILN9__gnu_cxx12_Lock_policyE2EEC2IN5telux4data20KeepAliveManagerImplESaIS6_EJRK6SlotIdKSt10shared_ptrINS5_9QcmClientEEEEERPT_St20_Sp_alloc_shared_tagIT0_EDpOT1_=so_stub_for_libtelux_data
-Wl,--defsym=_ZNSt14__shared_countILN9__gnu_cxx12_Lock_policyE2EEC2IN5telux4data21DataFilterManagerImplESaIS6_EJR6SlotIdEEERPT_St20_Sp_alloc_shared_tagIT0_EDpOT1_=so_stub_for_libtelux_data
-Wl,--defsym=_ZNSt14__shared_countILN9__gnu_cxx12_Lock_policyE2EEC2IN5telux4data22DataControlManagerImplESaIS6_EJKSt10shared_ptrINS4_3qms9QmsClientEEEEERPT_St20_Sp_alloc_shared_tagIT0_EDpOT1_=so_stub_for_libtelux_data
-Wl,--defsym=_ZNSt14__shared_countILN9__gnu_cxx12_Lock_policyE2EEC2IN5telux4data22DataProfileManagerImplESaIS6_EJR6SlotIdEEERPT_St20_Sp_alloc_shared_tagIT0_EDpOT1_=so_stub_for_libtelux_data
-Wl,--defsym=_ZNSt14__shared_countILN9__gnu_cxx12_Lock_policyE2EEC2IN5telux4data23DataSettingsManagerImplESaIS6_EJRNS5_13OperationTypeEKSt10shared_ptrINS5_9QcmClientEEEEERPT_St20_Sp_alloc_shared_tagIT0_EDpOT1_=so_stub_for_libtelux_data
-Wl,--defsym=_ZNSt14__shared_countILN9__gnu_cxx12_Lock_policyE2EEC2IN5telux4data23NLEthCapabilityCallbackESaIS6_EJEEERPT_St20_Sp_alloc_shared_tagIT0_EDpOT1_=so_stub_for_libtelux_data
-Wl,--defsym=_ZNSt14__shared_countILN9__gnu_cxx12_Lock_policyE2EEC2IN5telux4data24ServingSystemManagerImplESaIS6_EJR6SlotIdEEERPT_St20_Sp_alloc_shared_tagIT0_EDpOT1_=so_stub_for_libtelux_data
-Wl,--defsym=_ZNSt14__shared_countILN9__gnu_cxx12_Lock_policyE2EEC2IN5telux4data25DataConnectionManagerImplESaIS6_EJRK6SlotIdKSt10shared_ptrINS5_9QcmClientEEEEERPT_St20_Sp_alloc_shared_tagIT0_EDpOT1_=so_stub_for_libtelux_data
-Wl,--defsym=_ZNSt14__shared_countILN9__gnu_cxx12_Lock_policyE2EEC2IN5telux4data25DataSubSystemStateMachineESaIS6_EJKSt10shared_ptrINS5_9QcmClientEEEEERPT_St20_Sp_alloc_shared_tagIT0_EDpOT1_=so_stub_for_libtelux_data
-Wl,--defsym=_ZNSt14__shared_countILN9__gnu_cxx12_Lock_policyE2EEC2IN5telux4data27DataConnectionPowerListenerESaIS6_EJRSt10shared_ptrINS4_3qmi12WdsQmiClientEERSt6bitsetILm32EEEEERPT_St20_Sp_alloc_shared_tagIT0_EDpOT1_=so_stub_for_libtelux_data
-Wl,--defsym=_ZNSt14__shared_countILN9__gnu_cxx12_Lock_policyE2EEC2IN5telux4data27DataSubSystemStateAvailableESaIS6_EJRKSt8weak_ptrINS4_6common16BaseStateMachineEEEEERPT_St20_Sp_alloc_shared_tagIT0_EDpOT1_=so_stub_for_libtelux_data
-Wl,--defsym=_ZNSt14__shared_countILN9__gnu_cxx12_Lock_policyE2EEC2IN5telux4data34NLSetLocalEthOperatingModeCallbackESaIS6_EJEEERPT_St20_Sp_alloc_shared_tagIT0_EDpOT1_=so_stub_for_libtelux_data
-Wl,--defsym=_ZNSt14__shared_countILN9__gnu_cxx12_Lock_policyE2EEC2IN5telux4data37AddProfileIdInApnThrottleInfoCallbackESaIS6_EJRSt13unordered_mapINSt7__cxx1112basic_stringIcSt11char_traitsIcESaIcEEESt10shared_ptrINS5_15APNThrottleInfoEESt4hashISE_ESt8equal_toISE_ESaISt4pairIKSE_SH_EEEEEERPT_St20_Sp_alloc_shared_tagIT0_EDpOT1_=so_stub_for_libtelux_data
-Wl,--defsym=_ZNSt14__shared_countILN9__gnu_cxx12_Lock_policyE2EEC2IN5telux4data3net14NatManagerImplESaIS7_EJRKNS5_13OperationTypeEKSt10shared_ptrINS5_9QcmClientEEEEERPT_St20_Sp_alloc_shared_tagIT0_EDpOT1_=so_stub_for_libtelux_data
-Wl,--defsym=_ZNSt14__shared_countILN9__gnu_cxx12_Lock_policyE2EEC2IN5telux4data3net14QoSManagerImplESaIS7_EJKSt10shared_ptrINS5_9QcmClientEEEEERPT_St20_Sp_alloc_shared_tagIT0_EDpOT1_=so_stub_for_libtelux_data
-Wl,--defsym=_ZNSt14__shared_countILN9__gnu_cxx12_Lock_policyE2EEC2IN5telux4data3net15L2tpManagerImplESaIS7_EJKSt10shared_ptrINS5_9QcmClientEEEEERPT_St20_Sp_alloc_shared_tagIT0_EDpOT1_=so_stub_for_libtelux_data
-Wl,--defsym=_ZNSt14__shared_countILN9__gnu_cxx12_Lock_policyE2EEC2IN5telux4data3net15VlanManagerImplESaIS7_EJRNS5_13OperationTypeEKSt10shared_ptrINS5_9QcmClientEEEEERPT_St20_Sp_alloc_shared_tagIT0_EDpOT1_=so_stub_for_libtelux_data
-Wl,--defsym=_ZNSt14__shared_countILN9__gnu_cxx12_Lock_policyE2EEC2IN5telux4data3net16SocksManagerImplESaIS7_EJRNS5_13OperationTypeEKSt10shared_ptrINS5_9QcmClientEEEEERPT_St20_Sp_alloc_shared_tagIT0_EDpOT1_=so_stub_for_libtelux_data
-Wl,--defsym=_ZNSt14__shared_countILN9__gnu_cxx12_Lock_policyE2EEC2IN5telux4data3net17BridgeManagerImplESaIS7_EJKSt10shared_ptrINS5_9QcmClientEEEEERPT_St20_Sp_alloc_shared_tagIT0_EDpOT1_=so_stub_for_libtelux_data
-Wl,--defsym=_ZNSt14__shared_countILN9__gnu_cxx12_Lock_policyE2EEC2IN5telux4data3net17FirewallEntryImplESaIS7_EJRSt10shared_ptrINS5_9IIpFilterEERNS5_9DirectionERNS5_12IpFamilyTypeEEEERPT_St20_Sp_alloc_shared_tagIT0_EDpOT1_=so_stub_for_libtelux_data
-Wl,--defsym=_ZNSt14__shared_countILN9__gnu_cxx12_Lock_policyE2EEC2IN5telux4data3net19FirewallManagerImplESaIS7_EJRNS5_13OperationTypeEKSt10shared_ptrINS5_9QcmClientEEEEERPT_St20_Sp_alloc_shared_tagIT0_EDpOT1_=so_stub_for_libtelux_data
-Wl,--defsym=_ZNSt14__shared_countILN9__gnu_cxx12_Lock_policyE2EEC2IN5telux4data9EventInfoINS5_21DsiStatusCallbackDataEEESaIS8_EJRKSt10shared_ptrIS7_ERSt8functionIFvSD_EEEEERPT_St20_Sp_alloc_shared_tagIT0_EDpOT1_=so_stub_for_libtelux_data
-Wl,--defsym=_ZNSt14__shared_countILN9__gnu_cxx12_Lock_policyE2EEC2IN5telux6common18FunctionalCallbackIJNS4_4data7DdsInfoENS5_9ErrorCodeEEEESaISA_EJRSt8functionIFvS8_S9_EEEEERPT_St20_Sp_alloc_shared_tagIT0_EDpOT1_=so_stub_for_libtelux_data
-Wl,--defsym=_ZNSt14__shared_countILN9__gnu_cxx12_Lock_policyE2EEC2IN5telux6common18FunctionalCallbackIJNS5_9ErrorCodeEEEESaIS8_EJRSt8functionIFvS7_EEEEERPT_St20_Sp_alloc_shared_tagIT0_EDpOT1_=so_stub_for_libtelux_data
-Wl,--defsym=_ZNSt14__shared_countILN9__gnu_cxx12_Lock_policyE2EEC2IPN5telux4data9DsiClientEEET_=so_stub_for_libtelux_data
-Wl,--defsym=_ZNSt14__shared_countILN9__gnu_cxx12_Lock_policyE2EEC2IPN5telux4data9QcmClientEEET_=so_stub_for_libtelux_data
-Wl,--defsym=_ZNSt15_Deque_iteratorISt13shared_futureIvERKS1_PS2_EpLEl=so_stub_for_libtelux_data
-Wl,--defsym=_ZNSt15_Deque_iteratorISt13shared_futureIvERS1_PS1_EpLEl=so_stub_for_libtelux_data
-Wl,--defsym=_ZNSt15__exception_ptr12__dest_thunkISt12future_errorEEvPv=so_stub_for_libtelux_data
-Wl,--defsym=_ZNSt15__exception_ptr13exception_ptraSEOS0_=so_stub_for_libtelux_data
-Wl,--defsym=_ZNSt15_Sp_counted_ptrIPN5telux4data9DsiClientELN9__gnu_cxx12_Lock_policyE2EE10_M_destroyEv=so_stub_for_libtelux_data
-Wl,--defsym=_ZNSt15_Sp_counted_ptrIPN5telux4data9DsiClientELN9__gnu_cxx12_Lock_policyE2EE10_M_disposeEv=so_stub_for_libtelux_data
-Wl,--defsym=_ZNSt15_Sp_counted_ptrIPN5telux4data9DsiClientELN9__gnu_cxx12_Lock_policyE2EE14_M_get_deleterERKSt9type_info=so_stub_for_libtelux_data
-Wl,--defsym=_ZNSt15_Sp_counted_ptrIPN5telux4data9DsiClientELN9__gnu_cxx12_Lock_policyE2EED0Ev=so_stub_for_libtelux_data
-Wl,--defsym=_ZNSt15_Sp_counted_ptrIPN5telux4data9DsiClientELN9__gnu_cxx12_Lock_policyE2EED1Ev=so_stub_for_libtelux_data
-Wl,--defsym=_ZNSt15_Sp_counted_ptrIPN5telux4data9DsiClientELN9__gnu_cxx12_Lock_policyE2EED2Ev=so_stub_for_libtelux_data
-Wl,--defsym=_ZNSt15_Sp_counted_ptrIPN5telux4data9QcmClientELN9__gnu_cxx12_Lock_policyE2EE10_M_destroyEv=so_stub_for_libtelux_data
-Wl,--defsym=_ZNSt15_Sp_counted_ptrIPN5telux4data9QcmClientELN9__gnu_cxx12_Lock_policyE2EE10_M_disposeEv=so_stub_for_libtelux_data
-Wl,--defsym=_ZNSt15_Sp_counted_ptrIPN5telux4data9QcmClientELN9__gnu_cxx12_Lock_policyE2EE14_M_get_deleterERKSt9type_info=so_stub_for_libtelux_data
-Wl,--defsym=_ZNSt15_Sp_counted_ptrIPN5telux4data9QcmClientELN9__gnu_cxx12_Lock_policyE2EED0Ev=so_stub_for_libtelux_data
-Wl,--defsym=_ZNSt15_Sp_counted_ptrIPN5telux4data9QcmClientELN9__gnu_cxx12_Lock_policyE2EED1Ev=so_stub_for_libtelux_data
-Wl,--defsym=_ZNSt15_Sp_counted_ptrIPN5telux4data9QcmClientELN9__gnu_cxx12_Lock_policyE2EED2Ev=so_stub_for_libtelux_data
-Wl,--defsym=_ZNSt16_Sp_counted_baseILN9__gnu_cxx12_Lock_policyE2EE10_M_releaseEv=so_stub_for_libtelux_data
-Wl,--defsym=_ZNSt16_Sp_counted_baseILN9__gnu_cxx12_Lock_policyE2EE15_M_weak_releaseEv=so_stub_for_libtelux_data
-Wl,--defsym=_ZNSt17_Function_handlerIFSt10unique_ptrINSt13__future_base12_Result_baseENS2_8_DeleterEEvENS1_12_Task_setterIS0_INS1_7_ResultIvEES3_ENSt6thread8_InvokerISt5tupleIJMN5telux4data9QcmClientEFvSt10shared_ptrINSE_9IDataCallEEEPSF_SG_INSE_12DataCallImplEEEEEEvEEE10_M_managerERSt9_Any_dataRKSS_St18_Manager_operation=so_stub_for_libtelux_data
-Wl,--defsym=_ZNSt17_Function_handlerIFSt10unique_ptrINSt13__future_base12_Result_baseENS2_8_DeleterEEvENS1_12_Task_setterIS0_INS1_7_ResultIvEES3_ENSt6thread8_InvokerISt5tupleIJMN5telux4data9QcmClientEFvSt10shared_ptrINSE_9IDataCallEEEPSF_SG_INSE_12DataCallImplEEEEEEvEEE9_M_invokeERKSt9_Any_data=so_stub_for_libtelux_data
-Wl,--defsym=_ZNSt17_Function_handlerIFSt10unique_ptrINSt13__future_base12_Result_baseENS2_8_DeleterEEvENS1_13_State_baseV27_SetterI18dsi_v2x_ind_info_tRKS8_EEE10_M_managerERSt9_Any_dataRKSD_St18_Manager_operation=so_stub_for_libtelux_data
-Wl,--defsym=_ZNSt17_Function_handlerIFSt10unique_ptrINSt13__future_base12_Result_baseENS2_8_DeleterEEvENS1_13_State_baseV27_SetterI18dsi_v2x_ind_info_tRKS8_EEE9_M_invokeERKSt9_Any_data=so_stub_for_libtelux_data
-Wl,--defsym=_ZNSt17_Function_handlerIFSt10unique_ptrINSt13__future_base12_Result_baseENS2_8_DeleterEEvENS1_13_State_baseV27_SetterIjRKjEEE10_M_managerERSt9_Any_dataRKSC_St18_Manager_operation=so_stub_for_libtelux_data
-Wl,--defsym=_ZNSt17_Function_handlerIFSt10unique_ptrINSt13__future_base12_Result_baseENS2_8_DeleterEEvENS1_13_State_baseV27_SetterIjRKjEEE9_M_invokeERKSt9_Any_data=so_stub_for_libtelux_data
-Wl,--defsym=_ZNSt17_Function_handlerIFSt10unique_ptrINSt13__future_base12_Result_baseENS2_8_DeleterEEvENS1_13_State_baseV27_SetterIN5telux4data23NetLinkModeChangeStatusERKSA_EEE10_M_managerERSt9_Any_dataRKSF_St18_Manager_operation=so_stub_for_libtelux_data
-Wl,--defsym=_ZNSt17_Function_handlerIFSt10unique_ptrINSt13__future_base12_Result_baseENS2_8_DeleterEEvENS1_13_State_baseV27_SetterIN5telux4data23NetLinkModeChangeStatusERKSA_EEE9_M_invokeERKSt9_Any_data=so_stub_for_libtelux_data
-Wl,--defsym=_ZNSt17_Function_handlerIFSt10unique_ptrINSt13__future_base12_Result_baseENS2_8_DeleterEEvENS1_13_State_baseV27_SetterIN5telux6common9ErrorCodeEOSA_EEE10_M_managerERSt9_Any_dataRKSE_St18_Manager_operation=so_stub_for_libtelux_data
-Wl,--defsym=_ZNSt17_Function_handlerIFSt10unique_ptrINSt13__future_base12_Result_baseENS2_8_DeleterEEvENS1_13_State_baseV27_SetterIN5telux6common9ErrorCodeEOSA_EEE9_M_invokeERKSt9_Any_data=so_stub_for_libtelux_data
-Wl,--defsym=_ZNSt17_Function_handlerIFSt10unique_ptrINSt13__future_base12_Result_baseENS2_8_DeleterEEvENS1_13_State_baseV27_SetterIN5telux6common9ErrorCodeERKSA_EEE10_M_managerERSt9_Any_dataRKSF_St18_Manager_operation=so_stub_for_libtelux_data
-Wl,--defsym=_ZNSt17_Function_handlerIFSt10unique_ptrINSt13__future_base12_Result_baseENS2_8_DeleterEEvENS1_13_State_baseV27_SetterIN5telux6common9ErrorCodeERKSA_EEE9_M_invokeERKSt9_Any_data=so_stub_for_libtelux_data
-Wl,--defsym=_ZNSt17_Function_handlerIFvN5telux6common13ServiceStatusEESt5_BindIFMNS0_4data22DataProfileManagerImplEFvS2_EPS6_St12_PlaceholderILi1EEEEE10_M_managerERSt9_Any_dataRKSF_St18_Manager_operation=so_stub_for_libtelux_data
-Wl,--defsym=_ZNSt17_Function_handlerIFvN5telux6common13ServiceStatusEESt5_BindIFMNS0_4data22DataProfileManagerImplEFvS2_EPS6_St12_PlaceholderILi1EEEEE9_M_invokeERKSt9_Any_dataOS2_=so_stub_for_libtelux_data
-Wl,--defsym=_ZNSt17_Function_handlerIFvN5telux6common13ServiceStatusEEZNS1_13FactoryHelper10getManagerINS0_4data16IDataLinkManagerEEESt10shared_ptrIT_ENSt7__cxx1112basic_stringIcSt11char_traitsIcESaIcEEERSt8weak_ptrIS9_ERSt6vectorISt8functionIS3_ESaISM_EESM_SL_IFSA_SM_EEEUlS2_E0_E10_M_managerERSt9_Any_dataRKSU_St18_Manager_operation=so_stub_for_libtelux_data
-Wl,--defsym=_ZNSt17_Function_handlerIFvN5telux6common13ServiceStatusEEZNS1_13FactoryHelper10getManagerINS0_4data16IDataLinkManagerEEESt10shared_ptrIT_ENSt7__cxx1112basic_stringIcSt11char_traitsIcESaIcEEERSt8weak_ptrIS9_ERSt6vectorISt8functionIS3_ESaISM_EESM_SL_IFSA_SM_EEEUlS2_E0_E9_M_invokeERKSt9_Any_dataOS2_=so_stub_for_libtelux_data
-Wl,--defsym=_ZNSt17_Function_handlerIFvN5telux6common13ServiceStatusEEZNS1_13FactoryHelper10getManagerINS0_4data16IDualDataManagerEEESt10shared_ptrIT_ENSt7__cxx1112basic_stringIcSt11char_traitsIcESaIcEEERSt8weak_ptrIS9_ERSt6vectorISt8functionIS3_ESaISM_EESM_SL_IFSA_SM_EEEUlS2_E0_E10_M_managerERSt9_Any_dataRKSU_St18_Manager_operation=so_stub_for_libtelux_data
-Wl,--defsym=_ZNSt17_Function_handlerIFvN5telux6common13ServiceStatusEEZNS1_13FactoryHelper10getManagerINS0_4data16IDualDataManagerEEESt10shared_ptrIT_ENSt7__cxx1112basic_stringIcSt11char_traitsIcESaIcEEERSt8weak_ptrIS9_ERSt6vectorISt8functionIS3_ESaISM_EESM_SL_IFSA_SM_EEEUlS2_E0_E9_M_invokeERKSt9_Any_dataOS2_=so_stub_for_libtelux_data
-Wl,--defsym=_ZNSt17_Function_handlerIFvN5telux6common13ServiceStatusEEZNS1_13FactoryHelper10getManagerINS0_4data17IKeepAliveManagerEEESt10shared_ptrIT_ENSt7__cxx1112basic_stringIcSt11char_traitsIcESaIcEEERSt8weak_ptrIS9_ERSt6vectorISt8functionIS3_ESaISM_EESM_SL_IFSA_SM_EEEUlS2_E0_E10_M_managerERSt9_Any_dataRKSU_St18_Manager_operation=so_stub_for_libtelux_data
-Wl,--defsym=_ZNSt17_Function_handlerIFvN5telux6common13ServiceStatusEEZNS1_13FactoryHelper10getManagerINS0_4data17IKeepAliveManagerEEESt10shared_ptrIT_ENSt7__cxx1112basic_stringIcSt11char_traitsIcESaIcEEERSt8weak_ptrIS9_ERSt6vectorISt8functionIS3_ESaISM_EESM_SL_IFSA_SM_EEEUlS2_E0_E9_M_invokeERKSt9_Any_dataOS2_=so_stub_for_libtelux_data
-Wl,--defsym=_ZNSt17_Function_handlerIFvN5telux6common13ServiceStatusEEZNS1_13FactoryHelper10getManagerINS0_4data19IDataControlManagerEEESt10shared_ptrIT_ENSt7__cxx1112basic_stringIcSt11char_traitsIcESaIcEEERSt8weak_ptrIS9_ERSt6vectorISt8functionIS3_ESaISM_EESM_SL_IFSA_SM_EEEUlS2_E0_E10_M_managerERSt9_Any_dataRKSU_St18_Manager_operation=so_stub_for_libtelux_data
-Wl,--defsym=_ZNSt17_Function_handlerIFvN5telux6common13ServiceStatusEEZNS1_13FactoryHelper10getManagerINS0_4data19IDataControlManagerEEESt10shared_ptrIT_ENSt7__cxx1112basic_stringIcSt11char_traitsIcESaIcEEERSt8weak_ptrIS9_ERSt6vectorISt8functionIS3_ESaISM_EESM_SL_IFSA_SM_EEEUlS2_E0_E9_M_invokeERKSt9_Any_dataOS2_=so_stub_for_libtelux_data
-Wl,--defsym=_ZNSt17_Function_handlerIFvN5telux6common13ServiceStatusEEZNS1_13FactoryHelper10getManagerINS0_4data22IDataConnectionManagerEEESt10shared_ptrIT_ENSt7__cxx1112basic_stringIcSt11char_traitsIcESaIcEEERSt8weak_ptrIS9_ERSt6vectorISt8functionIS3_ESaISM_EESM_SL_IFSA_SM_EEEUlS2_E0_E10_M_managerERSt9_Any_dataRKSU_St18_Manager_operation=so_stub_for_libtelux_data
-Wl,--defsym=_ZNSt17_Function_handlerIFvN5telux6common13ServiceStatusEEZNS1_13FactoryHelper10getManagerINS0_4data22IDataConnectionManagerEEESt10shared_ptrIT_ENSt7__cxx1112basic_stringIcSt11char_traitsIcESaIcEEERSt8weak_ptrIS9_ERSt6vectorISt8functionIS3_ESaISM_EESM_SL_IFSA_SM_EEEUlS2_E0_E9_M_invokeERKSt9_Any_dataOS2_=so_stub_for_libtelux_data
-Wl,--defsym=_ZNSt17_Function_handlerIFvN5telux6common13ServiceStatusEEZNS1_13FactoryHelper10getManagerINS0_4data3net11INatManagerEEESt10shared_ptrIT_ENSt7__cxx1112basic_stringIcSt11char_traitsIcESaIcEEERSt8weak_ptrISA_ERSt6vectorISt8functionIS3_ESaISN_EESN_SM_IFSB_SN_EEEUlS2_E0_E10_M_managerERSt9_Any_dataRKSV_St18_Manager_operation=so_stub_for_libtelux_data
-Wl,--defsym=_ZNSt17_Function_handlerIFvN5telux6common13ServiceStatusEEZNS1_13FactoryHelper10getManagerINS0_4data3net11INatManagerEEESt10shared_ptrIT_ENSt7__cxx1112basic_stringIcSt11char_traitsIcESaIcEEERSt8weak_ptrISA_ERSt6vectorISt8functionIS3_ESaISN_EESN_SM_IFSB_SN_EEEUlS2_E0_E9_M_invokeERKSt9_Any_dataOS2_=so_stub_for_libtelux_data
-Wl,--defsym=_ZNSt17_Function_handlerIFvN5telux6common13ServiceStatusEEZNS1_13FactoryHelper10getManagerINS0_4data3net11IQoSManagerEEESt10shared_ptrIT_ENSt7__cxx1112basic_stringIcSt11char_traitsIcESaIcEEERSt8weak_ptrISA_ERSt6vectorISt8functionIS3_ESaISN_EESN_SM_IFSB_SN_EEEUlS2_E0_E10_M_managerERSt9_Any_dataRKSV_St18_Manager_operation=so_stub_for_libtelux_data
-Wl,--defsym=_ZNSt17_Function_handlerIFvN5telux6common13ServiceStatusEEZNS1_13FactoryHelper10getManagerINS0_4data3net11IQoSManagerEEESt10shared_ptrIT_ENSt7__cxx1112basic_stringIcSt11char_traitsIcESaIcEEERSt8weak_ptrISA_ERSt6vectorISt8functionIS3_ESaISN_EESN_SM_IFSB_SN_EEEUlS2_E0_E9_M_invokeERKSt9_Any_dataOS2_=so_stub_for_libtelux_data
-Wl,--defsym=_ZNSt17_Function_handlerIFvN5telux6common9ErrorCodeEPvESt5_BindIFMNS0_4data22DataProfileManagerImplEFvS2_S3_EPS7_St12_PlaceholderILi1EESB_ILi2EEEEE10_M_managerERSt9_Any_dataRKSH_St18_Manager_operation=so_stub_for_libtelux_data
-Wl,--defsym=_ZNSt17_Function_handlerIFvN5telux6common9ErrorCodeEPvESt5_BindIFMNS0_4data22DataProfileManagerImplEFvS2_S3_EPS7_St12_PlaceholderILi1EESB_ILi2EEEEE9_M_invokeERKSt9_Any_dataOS2_OS3_=so_stub_for_libtelux_data
-Wl,--defsym=_ZNSt17_Function_handlerIFvP31wds_profile_changed_ind_msg_v01ESt5_BindIFMN5telux4data22DataProfileManagerImplEFvS1_EPS6_St12_PlaceholderILi1EEEEE10_M_managerERSt9_Any_dataRKSF_St18_Manager_operation=so_stub_for_libtelux_data
-Wl,--defsym=_ZNSt17_Function_handlerIFvP31wds_profile_changed_ind_msg_v01ESt5_BindIFMN5telux4data22DataProfileManagerImplEFvS1_EPS6_St12_PlaceholderILi1EEEEE9_M_invokeERKSt9_Any_dataOS1_=so_stub_for_libtelux_data
-Wl,--defsym=_ZNSt17_Function_handlerIFvRKSt10shared_ptrIN5telux4data21DsiStatusCallbackDataEEESt5_BindIFMNS2_9DsiClientEFvS6_EPS9_St12_PlaceholderILi1EEEEE10_M_managerERSt9_Any_dataRKSI_St18_Manager_operation=so_stub_for_libtelux_data
-Wl,--defsym=_ZNSt17_Function_handlerIFvRKSt10shared_ptrIN5telux4data21DsiStatusCallbackDataEEESt5_BindIFMNS2_9DsiClientEFvS6_EPS9_St12_PlaceholderILi1EEEEE9_M_invokeERKSt9_Any_dataS6_=so_stub_for_libtelux_data
-Wl,--defsym=_ZNSt17_Function_handlerIFvSt10shared_ptrIN5telux4data21DsiStatusCallbackDataEEESt8functionIFvRKS4_EEE10_M_managerERSt9_Any_dataRKSC_St18_Manager_operation=so_stub_for_libtelux_data
-Wl,--defsym=_ZNSt17_Function_handlerIFvSt10shared_ptrIN5telux4data21DsiStatusCallbackDataEEESt8functionIFvRKS4_EEE9_M_invokeERKSt9_Any_dataOS4_=so_stub_for_libtelux_data
-Wl,--defsym=_ZNSt17_Function_handlerIFvSt6vectorISt10shared_ptrIN5telux4data13TftChangeInfoEESaIS5_EEjESt5_BindIFMNS3_9QcmClientEFvS7_jEPSA_St12_PlaceholderILi1EESE_ILi2EEEEE10_M_managerERSt9_Any_dataRKSK_St18_Manager_operation=so_stub_for_libtelux_data
-Wl,--defsym=_ZNSt17_Function_handlerIFvSt6vectorISt10shared_ptrIN5telux4data13TftChangeInfoEESaIS5_EEjESt5_BindIFMNS3_9QcmClientEFvS7_jEPSA_St12_PlaceholderILi1EESE_ILi2EEEEE9_M_invokeERKSt9_Any_dataOS7_Oj=so_stub_for_libtelux_data
-Wl,--defsym=_ZNSt17_Function_handlerIFvSt6vectorISt10shared_ptrIN5telux4data19TrafficFlowTemplateEESaIS5_EEESt5_BindIFMNS3_9QcmClientEFvS7_EPSA_St12_PlaceholderILi1EEEEE10_M_managerERSt9_Any_dataRKSJ_St18_Manager_operation=so_stub_for_libtelux_data
-Wl,--defsym=_ZNSt17_Function_handlerIFvSt6vectorISt10shared_ptrIN5telux4data19TrafficFlowTemplateEESaIS5_EEESt5_BindIFMNS3_9QcmClientEFvS7_EPSA_St12_PlaceholderILi1EEEEE9_M_invokeERKSt9_Any_dataOS7_=so_stub_for_libtelux_data
-Wl,--defsym=_ZNSt18condition_variable4waitIZN5telux6common14AsyncTaskQueueIvE11executeTaskEvEUlvE_EEvRSt11unique_lockISt5mutexET_=so_stub_for_libtelux_data
-Wl,--defsym=_ZNSt20__uninitialized_copyILb0EE13__uninit_copyIN9__gnu_cxx17__normal_iteratorIPKN5telux4data15APNThrottleInfoESt6vectorIS6_SaIS6_EEEEPS6_EET0_T_SF_SE_=so_stub_for_libtelux_data
-Wl,--defsym=_ZNSt20__uninitialized_copyILb0EE13__uninit_copyIN9__gnu_cxx17__normal_iteratorIPKN5telux4data15DeviceDataUsageESt6vectorIS6_SaIS6_EEEEPS6_EET0_T_SF_SE_=so_stub_for_libtelux_data
-Wl,--defsym=_ZNSt20__uninitialized_copyILb0EE13__uninit_copyIN9__gnu_cxx17__normal_iteratorIPKN5telux4data3net9DmzConfigESt6vectorIS7_SaIS7_EEEEPS7_EET0_T_SG_SF_=so_stub_for_libtelux_data
-Wl,--defsym=_ZNSt20__uninitialized_copyILb0EE13__uninit_copyIN9__gnu_cxx17__normal_iteratorIPKNSt7__cxx1112basic_stringIcSt11char_traitsIcESaIcEEESt6vectorIS9_SaIS9_EEEEPS9_EET0_T_SI_SH_=so_stub_for_libtelux_data
-Wl,--defsym=_ZNSt20__uninitialized_copyILb0EE13__uninit_copyIN9__gnu_cxx17__normal_iteratorIPKSt8functionIFvN5telux4data10NrIconTypeENS5_6common9ErrorCodeEEESt6vectorISB_SaISB_EEEEPSB_EET0_T_SK_SJ_=so_stub_for_libtelux_data
-Wl,--defsym=_ZNSt20__uninitialized_copyILb0EE13__uninit_copyIN9__gnu_cxx17__normal_iteratorIPKSt8functionIFvN5telux4data13RoamingStatusENS5_6common9ErrorCodeEEESt6vectorISB_SaISB_EEEEPSB_EET0_T_SK_SJ_=so_stub_for_libtelux_data
-Wl,--defsym=_ZNSt20__uninitialized_copyILb0EE13__uninit_copyIN9__gnu_cxx17__normal_iteratorIPKSt8functionIFvN5telux4data13ServiceStatusENS5_6common9ErrorCodeEEESt6vectorISB_SaISB_EEEEPSB_EET0_T_SK_SJ_=so_stub_for_libtelux_data
-Wl,--defsym=_ZNSt20__uninitialized_copyILb0EE13__uninit_copyIN9__gnu_cxx17__normal_iteratorIPKSt8functionIFvN5telux6common13ServiceStatusEEESt6vectorIS9_SaIS9_EEEEPS9_EET0_T_SI_SH_=so_stub_for_libtelux_data
-Wl,--defsym=_ZNSt20__uninitialized_copyILb0EE13__uninit_copyIPN5telux4data15DeviceDataUsageES5_EET0_T_S7_S6_=so_stub_for_libtelux_data
-Wl,--defsym=_ZNSt20__uninitialized_copyILb0EE13__uninit_copyIPSt8functionIFvN5telux4data10NrIconTypeENS3_6common9ErrorCodeEEESA_EET0_T_SC_SB_=so_stub_for_libtelux_data
-Wl,--defsym=_ZNSt20__uninitialized_copyILb0EE13__uninit_copyIPSt8functionIFvN5telux4data13RoamingStatusENS3_6common9ErrorCodeEEESA_EET0_T_SC_SB_=so_stub_for_libtelux_data
-Wl,--defsym=_ZNSt20__uninitialized_copyILb0EE13__uninit_copyIPSt8functionIFvN5telux4data13ServiceStatusENS3_6common9ErrorCodeEEESA_EET0_T_SC_SB_=so_stub_for_libtelux_data
-Wl,--defsym=_ZNSt20__uninitialized_copyILb0EE13__uninit_copyIPSt8functionIFvN5telux6common13ServiceStatusEEES8_EET0_T_SA_S9_=so_stub_for_libtelux_data
-Wl,--defsym=_ZNSt20__uninitialized_copyILb0EE13__uninit_copyISt15_Deque_iteratorISt13shared_futureIvERKS4_PS5_ES2_IS4_RS4_PS4_EEET0_T_SD_SC_=so_stub_for_libtelux_data
-Wl,--defsym=_ZNSt23_Sp_counted_ptr_inplaceI12QCMAP_ClientSaIS0_ELN9__gnu_cxx12_Lock_policyE2EE10_M_destroyEv=so_stub_for_libtelux_data
-Wl,--defsym=_ZNSt23_Sp_counted_ptr_inplaceI12QCMAP_ClientSaIS0_ELN9__gnu_cxx12_Lock_policyE2EE10_M_disposeEv=so_stub_for_libtelux_data
-Wl,--defsym=_ZNSt23_Sp_counted_ptr_inplaceI12QCMAP_ClientSaIS0_ELN9__gnu_cxx12_Lock_policyE2EE14_M_get_deleterERKSt9type_info=so_stub_for_libtelux_data
-Wl,--defsym=_ZNSt23_Sp_counted_ptr_inplaceI12QCMAP_ClientSaIS0_ELN9__gnu_cxx12_Lock_policyE2EED0Ev=so_stub_for_libtelux_data
-Wl,--defsym=_ZNSt23_Sp_counted_ptr_inplaceI12QCMAP_ClientSaIS0_ELN9__gnu_cxx12_Lock_policyE2EED1Ev=so_stub_for_libtelux_data
-Wl,--defsym=_ZNSt23_Sp_counted_ptr_inplaceI12QCMAP_ClientSaIS0_ELN9__gnu_cxx12_Lock_policyE2EED2Ev=so_stub_for_libtelux_data
-Wl,--defsym=_ZNSt23_Sp_counted_ptr_inplaceIN5telux4data10TftBuilderESaIS2_ELN9__gnu_cxx12_Lock_policyE2EE10_M_destroyEv=so_stub_for_libtelux_data
-Wl,--defsym=_ZNSt23_Sp_counted_ptr_inplaceIN5telux4data10TftBuilderESaIS2_ELN9__gnu_cxx12_Lock_policyE2EE10_M_disposeEv=so_stub_for_libtelux_data
-Wl,--defsym=_ZNSt23_Sp_counted_ptr_inplaceIN5telux4data10TftBuilderESaIS2_ELN9__gnu_cxx12_Lock_policyE2EE14_M_get_deleterERKSt9type_info=so_stub_for_libtelux_data
-Wl,--defsym=_ZNSt23_Sp_counted_ptr_inplaceIN5telux4data10TftBuilderESaIS2_ELN9__gnu_cxx12_Lock_policyE2EED0Ev=so_stub_for_libtelux_data
-Wl,--defsym=_ZNSt23_Sp_counted_ptr_inplaceIN5telux4data10TftBuilderESaIS2_ELN9__gnu_cxx12_Lock_policyE2EED1Ev=so_stub_for_libtelux_data
-Wl,--defsym=_ZNSt23_Sp_counted_ptr_inplaceIN5telux4data10TftBuilderESaIS2_ELN9__gnu_cxx12_Lock_policyE2EED2Ev=so_stub_for_libtelux_data
-Wl,--defsym=_ZNSt23_Sp_counted_ptr_inplaceIN5telux4data11DataProfileESaIS2_ELN9__gnu_cxx12_Lock_policyE2EE10_M_destroyEv=so_stub_for_libtelux_data
-Wl,--defsym=_ZNSt23_Sp_counted_ptr_inplaceIN5telux4data11DataProfileESaIS2_ELN9__gnu_cxx12_Lock_policyE2EE10_M_disposeEv=so_stub_for_libtelux_data
-Wl,--defsym=_ZNSt23_Sp_counted_ptr_inplaceIN5telux4data11DataProfileESaIS2_ELN9__gnu_cxx12_Lock_policyE2EE14_M_get_deleterERKSt9type_info=so_stub_for_libtelux_data
-Wl,--defsym=_ZNSt23_Sp_counted_ptr_inplaceIN5telux4data11DataProfileESaIS2_ELN9__gnu_cxx12_Lock_policyE2EED0Ev=so_stub_for_libtelux_data
-Wl,--defsym=_ZNSt23_Sp_counted_ptr_inplaceIN5telux4data11DataProfileESaIS2_ELN9__gnu_cxx12_Lock_policyE2EED1Ev=so_stub_for_libtelux_data
-Wl,--defsym=_ZNSt23_Sp_counted_ptr_inplaceIN5telux4data11DataProfileESaIS2_ELN9__gnu_cxx12_Lock_policyE2EED2Ev=so_stub_for_libtelux_data
-Wl,--defsym=_ZNSt23_Sp_counted_ptr_inplaceIN5telux4data11WdsListenerESaIS2_ELN9__gnu_cxx12_Lock_policyE2EE10_M_destroyEv=so_stub_for_libtelux_data
-Wl,--defsym=_ZNSt23_Sp_counted_ptr_inplaceIN5telux4data11WdsListenerESaIS2_ELN9__gnu_cxx12_Lock_policyE2EE10_M_disposeEv=so_stub_for_libtelux_data
-Wl,--defsym=_ZNSt23_Sp_counted_ptr_inplaceIN5telux4data11WdsListenerESaIS2_ELN9__gnu_cxx12_Lock_policyE2EE14_M_get_deleterERKSt9type_info=so_stub_for_libtelux_data
-Wl,--defsym=_ZNSt23_Sp_counted_ptr_inplaceIN5telux4data11WdsListenerESaIS2_ELN9__gnu_cxx12_Lock_policyE2EED0Ev=so_stub_for_libtelux_data
-Wl,--defsym=_ZNSt23_Sp_counted_ptr_inplaceIN5telux4data11WdsListenerESaIS2_ELN9__gnu_cxx12_Lock_policyE2EED1Ev=so_stub_for_libtelux_data
-Wl,--defsym=_ZNSt23_Sp_counted_ptr_inplaceIN5telux4data11WdsListenerESaIS2_ELN9__gnu_cxx12_Lock_policyE2EED2Ev=so_stub_for_libtelux_data
-Wl,--defsym=_ZNSt23_Sp_counted_ptr_inplaceIN5telux4data12DataCallImplESaIS2_ELN9__gnu_cxx12_Lock_policyE2EE10_M_destroyEv=so_stub_for_libtelux_data
-Wl,--defsym=_ZNSt23_Sp_counted_ptr_inplaceIN5telux4data12DataCallImplESaIS2_ELN9__gnu_cxx12_Lock_policyE2EE10_M_disposeEv=so_stub_for_libtelux_data
-Wl,--defsym=_ZNSt23_Sp_counted_ptr_inplaceIN5telux4data12DataCallImplESaIS2_ELN9__gnu_cxx12_Lock_policyE2EE14_M_get_deleterERKSt9type_info=so_stub_for_libtelux_data
-Wl,--defsym=_ZNSt23_Sp_counted_ptr_inplaceIN5telux4data12DataCallImplESaIS2_ELN9__gnu_cxx12_Lock_policyE2EED0Ev=so_stub_for_libtelux_data
-Wl,--defsym=_ZNSt23_Sp_counted_ptr_inplaceIN5telux4data12DataCallImplESaIS2_ELN9__gnu_cxx12_Lock_policyE2EED1Ev=so_stub_for_libtelux_data
-Wl,--defsym=_ZNSt23_Sp_counted_ptr_inplaceIN5telux4data12DataCallImplESaIS2_ELN9__gnu_cxx12_Lock_policyE2EED2Ev=so_stub_for_libtelux_data
-Wl,--defsym=_ZNSt23_Sp_counted_ptr_inplaceIN5telux4data12EventHandlerESaIS2_ELN9__gnu_cxx12_Lock_policyE2EE10_M_destroyEv=so_stub_for_libtelux_data
-Wl,--defsym=_ZNSt23_Sp_counted_ptr_inplaceIN5telux4data12EventHandlerESaIS2_ELN9__gnu_cxx12_Lock_policyE2EE10_M_disposeEv=so_stub_for_libtelux_data
-Wl,--defsym=_ZNSt23_Sp_counted_ptr_inplaceIN5telux4data12EventHandlerESaIS2_ELN9__gnu_cxx12_Lock_policyE2EE14_M_get_deleterERKSt9type_info=so_stub_for_libtelux_data
-Wl,--defsym=_ZNSt23_Sp_counted_ptr_inplaceIN5telux4data12EventHandlerESaIS2_ELN9__gnu_cxx12_Lock_policyE2EED0Ev=so_stub_for_libtelux_data
-Wl,--defsym=_ZNSt23_Sp_counted_ptr_inplaceIN5telux4data12EventHandlerESaIS2_ELN9__gnu_cxx12_Lock_policyE2EED1Ev=so_stub_for_libtelux_data
-Wl,--defsym=_ZNSt23_Sp_counted_ptr_inplaceIN5telux4data12EventHandlerESaIS2_ELN9__gnu_cxx12_Lock_policyE2EED2Ev=so_stub_for_libtelux_data
-Wl,--defsym=_ZNSt23_Sp_counted_ptr_inplaceIN5telux4data13EspFilterImplESaIS2_ELN9__gnu_cxx12_Lock_policyE2EE10_M_destroyEv=so_stub_for_libtelux_data
-Wl,--defsym=_ZNSt23_Sp_counted_ptr_inplaceIN5telux4data13EspFilterImplESaIS2_ELN9__gnu_cxx12_Lock_policyE2EE10_M_disposeEv=so_stub_for_libtelux_data
-Wl,--defsym=_ZNSt23_Sp_counted_ptr_inplaceIN5telux4data13EspFilterImplESaIS2_ELN9__gnu_cxx12_Lock_policyE2EE14_M_get_deleterERKSt9type_info=so_stub_for_libtelux_data
-Wl,--defsym=_ZNSt23_Sp_counted_ptr_inplaceIN5telux4data13EspFilterImplESaIS2_ELN9__gnu_cxx12_Lock_policyE2EED0Ev=so_stub_for_libtelux_data
-Wl,--defsym=_ZNSt23_Sp_counted_ptr_inplaceIN5telux4data13EspFilterImplESaIS2_ELN9__gnu_cxx12_Lock_policyE2EED1Ev=so_stub_for_libtelux_data
-Wl,--defsym=_ZNSt23_Sp_counted_ptr_inplaceIN5telux4data13EspFilterImplESaIS2_ELN9__gnu_cxx12_Lock_policyE2EED2Ev=so_stub_for_libtelux_data
-Wl,--defsym=_ZNSt23_Sp_counted_ptr_inplaceIN5telux4data13TcpFilterImplESaIS2_ELN9__gnu_cxx12_Lock_policyE2EE10_M_destroyEv=so_stub_for_libtelux_data
-Wl,--defsym=_ZNSt23_Sp_counted_ptr_inplaceIN5telux4data13TcpFilterImplESaIS2_ELN9__gnu_cxx12_Lock_policyE2EE10_M_disposeEv=so_stub_for_libtelux_data
-Wl,--defsym=_ZNSt23_Sp_counted_ptr_inplaceIN5telux4data13TcpFilterImplESaIS2_ELN9__gnu_cxx12_Lock_policyE2EE14_M_get_deleterERKSt9type_info=so_stub_for_libtelux_data
-Wl,--defsym=_ZNSt23_Sp_counted_ptr_inplaceIN5telux4data13TcpFilterImplESaIS2_ELN9__gnu_cxx12_Lock_policyE2EED0Ev=so_stub_for_libtelux_data
-Wl,--defsym=_ZNSt23_Sp_counted_ptr_inplaceIN5telux4data13TcpFilterImplESaIS2_ELN9__gnu_cxx12_Lock_policyE2EED1Ev=so_stub_for_libtelux_data
-Wl,--defsym=_ZNSt23_Sp_counted_ptr_inplaceIN5telux4data13TcpFilterImplESaIS2_ELN9__gnu_cxx12_Lock_policyE2EED2Ev=so_stub_for_libtelux_data
-Wl,--defsym=_ZNSt23_Sp_counted_ptr_inplaceIN5telux4data13TftChangeInfoESaIS2_ELN9__gnu_cxx12_Lock_policyE2EE10_M_destroyEv=so_stub_for_libtelux_data
-Wl,--defsym=_ZNSt23_Sp_counted_ptr_inplaceIN5telux4data13TftChangeInfoESaIS2_ELN9__gnu_cxx12_Lock_policyE2EE10_M_disposeEv=so_stub_for_libtelux_data
-Wl,--defsym=_ZNSt23_Sp_counted_ptr_inplaceIN5telux4data13TftChangeInfoESaIS2_ELN9__gnu_cxx12_Lock_policyE2EE14_M_get_deleterERKSt9type_info=so_stub_for_libtelux_data
-Wl,--defsym=_ZNSt23_Sp_counted_ptr_inplaceIN5telux4data13TftChangeInfoESaIS2_ELN9__gnu_cxx12_Lock_policyE2EED0Ev=so_stub_for_libtelux_data
-Wl,--defsym=_ZNSt23_Sp_counted_ptr_inplaceIN5telux4data13TftChangeInfoESaIS2_ELN9__gnu_cxx12_Lock_policyE2EED1Ev=so_stub_for_libtelux_data
-Wl,--defsym=_ZNSt23_Sp_counted_ptr_inplaceIN5telux4data13TftChangeInfoESaIS2_ELN9__gnu_cxx12_Lock_policyE2EED2Ev=so_stub_for_libtelux_data
-Wl,--defsym=_ZNSt23_Sp_counted_ptr_inplaceIN5telux4data13UdpFilterImplESaIS2_ELN9__gnu_cxx12_Lock_policyE2EE10_M_destroyEv=so_stub_for_libtelux_data
-Wl,--defsym=_ZNSt23_Sp_counted_ptr_inplaceIN5telux4data13UdpFilterImplESaIS2_ELN9__gnu_cxx12_Lock_policyE2EE10_M_disposeEv=so_stub_for_libtelux_data
-Wl,--defsym=_ZNSt23_Sp_counted_ptr_inplaceIN5telux4data13UdpFilterImplESaIS2_ELN9__gnu_cxx12_Lock_policyE2EE14_M_get_deleterERKSt9type_info=so_stub_for_libtelux_data
-Wl,--defsym=_ZNSt23_Sp_counted_ptr_inplaceIN5telux4data13UdpFilterImplESaIS2_ELN9__gnu_cxx12_Lock_policyE2EED0Ev=so_stub_for_libtelux_data
-Wl,--defsym=_ZNSt23_Sp_counted_ptr_inplaceIN5telux4data13UdpFilterImplESaIS2_ELN9__gnu_cxx12_Lock_policyE2EED1Ev=so_stub_for_libtelux_data
-Wl,--defsym=_ZNSt23_Sp_counted_ptr_inplaceIN5telux4data13UdpFilterImplESaIS2_ELN9__gnu_cxx12_Lock_policyE2EED2Ev=so_stub_for_libtelux_data
-Wl,--defsym=_ZNSt23_Sp_counted_ptr_inplaceIN5telux4data14IcmpFilterImplESaIS2_ELN9__gnu_cxx12_Lock_policyE2EE10_M_destroyEv=so_stub_for_libtelux_data
-Wl,--defsym=_ZNSt23_Sp_counted_ptr_inplaceIN5telux4data14IcmpFilterImplESaIS2_ELN9__gnu_cxx12_Lock_policyE2EE10_M_disposeEv=so_stub_for_libtelux_data
-Wl,--defsym=_ZNSt23_Sp_counted_ptr_inplaceIN5telux4data14IcmpFilterImplESaIS2_ELN9__gnu_cxx12_Lock_policyE2EE14_M_get_deleterERKSt9type_info=so_stub_for_libtelux_data
-Wl,--defsym=_ZNSt23_Sp_counted_ptr_inplaceIN5telux4data14IcmpFilterImplESaIS2_ELN9__gnu_cxx12_Lock_policyE2EED0Ev=so_stub_for_libtelux_data
-Wl,--defsym=_ZNSt23_Sp_counted_ptr_inplaceIN5telux4data14IcmpFilterImplESaIS2_ELN9__gnu_cxx12_Lock_policyE2EED1Ev=so_stub_for_libtelux_data
-Wl,--defsym=_ZNSt23_Sp_counted_ptr_inplaceIN5telux4data14IcmpFilterImplESaIS2_ELN9__gnu_cxx12_Lock_policyE2EED2Ev=so_stub_for_libtelux_data
-Wl,--defsym=_ZNSt23_Sp_counted_ptr_inplaceIN5telux4data14WdsCmdListenerESaIS2_ELN9__gnu_cxx12_Lock_policyE2EE10_M_destroyEv=so_stub_for_libtelux_data
-Wl,--defsym=_ZNSt23_Sp_counted_ptr_inplaceIN5telux4data14WdsCmdListenerESaIS2_ELN9__gnu_cxx12_Lock_policyE2EE10_M_disposeEv=so_stub_for_libtelux_data
-Wl,--defsym=_ZNSt23_Sp_counted_ptr_inplaceIN5telux4data14WdsCmdListenerESaIS2_ELN9__gnu_cxx12_Lock_policyE2EE14_M_get_deleterERKSt9type_info=so_stub_for_libtelux_data
-Wl,--defsym=_ZNSt23_Sp_counted_ptr_inplaceIN5telux4data14WdsCmdListenerESaIS2_ELN9__gnu_cxx12_Lock_policyE2EED0Ev=so_stub_for_libtelux_data
-Wl,--defsym=_ZNSt23_Sp_counted_ptr_inplaceIN5telux4data14WdsCmdListenerESaIS2_ELN9__gnu_cxx12_Lock_policyE2EED1Ev=so_stub_for_libtelux_data
-Wl,--defsym=_ZNSt23_Sp_counted_ptr_inplaceIN5telux4data14WdsCmdListenerESaIS2_ELN9__gnu_cxx12_Lock_policyE2EED2Ev=so_stub_for_libtelux_data
-Wl,--defsym=_ZNSt23_Sp_counted_ptr_inplaceIN5telux4data15APNThrottleInfoESaIS2_ELN9__gnu_cxx12_Lock_policyE2EE10_M_destroyEv=so_stub_for_libtelux_data
-Wl,--defsym=_ZNSt23_Sp_counted_ptr_inplaceIN5telux4data15APNThrottleInfoESaIS2_ELN9__gnu_cxx12_Lock_policyE2EE10_M_disposeEv=so_stub_for_libtelux_data
-Wl,--defsym=_ZNSt23_Sp_counted_ptr_inplaceIN5telux4data15APNThrottleInfoESaIS2_ELN9__gnu_cxx12_Lock_policyE2EE14_M_get_deleterERKSt9type_info=so_stub_for_libtelux_data
-Wl,--defsym=_ZNSt23_Sp_counted_ptr_inplaceIN5telux4data15APNThrottleInfoESaIS2_ELN9__gnu_cxx12_Lock_policyE2EED0Ev=so_stub_for_libtelux_data
-Wl,--defsym=_ZNSt23_Sp_counted_ptr_inplaceIN5telux4data15APNThrottleInfoESaIS2_ELN9__gnu_cxx12_Lock_policyE2EED1Ev=so_stub_for_libtelux_data
-Wl,--defsym=_ZNSt23_Sp_counted_ptr_inplaceIN5telux4data15APNThrottleInfoESaIS2_ELN9__gnu_cxx12_Lock_policyE2EED2Ev=so_stub_for_libtelux_data
-Wl,--defsym=_ZNSt23_Sp_counted_ptr_inplaceIN5telux4data16ProfileRetrieverESaIS2_ELN9__gnu_cxx12_Lock_policyE2EE10_M_destroyEv=so_stub_for_libtelux_data
-Wl,--defsym=_ZNSt23_Sp_counted_ptr_inplaceIN5telux4data16ProfileRetrieverESaIS2_ELN9__gnu_cxx12_Lock_policyE2EE10_M_disposeEv=so_stub_for_libtelux_data
-Wl,--defsym=_ZNSt23_Sp_counted_ptr_inplaceIN5telux4data16ProfileRetrieverESaIS2_ELN9__gnu_cxx12_Lock_policyE2EE14_M_get_deleterERKSt9type_info=so_stub_for_libtelux_data
-Wl,--defsym=_ZNSt23_Sp_counted_ptr_inplaceIN5telux4data16ProfileRetrieverESaIS2_ELN9__gnu_cxx12_Lock_policyE2EED0Ev=so_stub_for_libtelux_data
-Wl,--defsym=_ZNSt23_Sp_counted_ptr_inplaceIN5telux4data16ProfileRetrieverESaIS2_ELN9__gnu_cxx12_Lock_policyE2EED1Ev=so_stub_for_libtelux_data
-Wl,--defsym=_ZNSt23_Sp_counted_ptr_inplaceIN5telux4data16ProfileRetrieverESaIS2_ELN9__gnu_cxx12_Lock_policyE2EED2Ev=so_stub_for_libtelux_data
-Wl,--defsym=_ZNSt23_Sp_counted_ptr_inplaceIN5telux4data17ClientManagerImplESaIS2_ELN9__gnu_cxx12_Lock_policyE2EE10_M_destroyEv=so_stub_for_libtelux_data
-Wl,--defsym=_ZNSt23_Sp_counted_ptr_inplaceIN5telux4data17ClientManagerImplESaIS2_ELN9__gnu_cxx12_Lock_policyE2EE10_M_disposeEv=so_stub_for_libtelux_data
-Wl,--defsym=_ZNSt23_Sp_counted_ptr_inplaceIN5telux4data17ClientManagerImplESaIS2_ELN9__gnu_cxx12_Lock_policyE2EE14_M_get_deleterERKSt9type_info=so_stub_for_libtelux_data
-Wl,--defsym=_ZNSt23_Sp_counted_ptr_inplaceIN5telux4data17ClientManagerImplESaIS2_ELN9__gnu_cxx12_Lock_policyE2EED0Ev=so_stub_for_libtelux_data
-Wl,--defsym=_ZNSt23_Sp_counted_ptr_inplaceIN5telux4data17ClientManagerImplESaIS2_ELN9__gnu_cxx12_Lock_policyE2EED1Ev=so_stub_for_libtelux_data
-Wl,--defsym=_ZNSt23_Sp_counted_ptr_inplaceIN5telux4data17ClientManagerImplESaIS2_ELN9__gnu_cxx12_Lock_policyE2EED2Ev=so_stub_for_libtelux_data
-Wl,--defsym=_ZNSt23_Sp_counted_ptr_inplaceIN5telux4data17DataNetlinkClientESaIS2_ELN9__gnu_cxx12_Lock_policyE2EE10_M_destroyEv=so_stub_for_libtelux_data
-Wl,--defsym=_ZNSt23_Sp_counted_ptr_inplaceIN5telux4data17DataNetlinkClientESaIS2_ELN9__gnu_cxx12_Lock_policyE2EE10_M_disposeEv=so_stub_for_libtelux_data
-Wl,--defsym=_ZNSt23_Sp_counted_ptr_inplaceIN5telux4data17DataNetlinkClientESaIS2_ELN9__gnu_cxx12_Lock_policyE2EE14_M_get_deleterERKSt9type_info=so_stub_for_libtelux_data
-Wl,--defsym=_ZNSt23_Sp_counted_ptr_inplaceIN5telux4data17DataNetlinkClientESaIS2_ELN9__gnu_cxx12_Lock_policyE2EED0Ev=so_stub_for_libtelux_data
-Wl,--defsym=_ZNSt23_Sp_counted_ptr_inplaceIN5telux4data17DataNetlinkClientESaIS2_ELN9__gnu_cxx12_Lock_policyE2EED1Ev=so_stub_for_libtelux_data
-Wl,--defsym=_ZNSt23_Sp_counted_ptr_inplaceIN5telux4data17DataNetlinkClientESaIS2_ELN9__gnu_cxx12_Lock_policyE2EED2Ev=so_stub_for_libtelux_data
-Wl,--defsym=_ZNSt23_Sp_counted_ptr_inplaceIN5telux4data17DataPowerListenerESaIS2_ELN9__gnu_cxx12_Lock_policyE2EE10_M_destroyEv=so_stub_for_libtelux_data
-Wl,--defsym=_ZNSt23_Sp_counted_ptr_inplaceIN5telux4data17DataPowerListenerESaIS2_ELN9__gnu_cxx12_Lock_policyE2EE10_M_disposeEv=so_stub_for_libtelux_data
-Wl,--defsym=_ZNSt23_Sp_counted_ptr_inplaceIN5telux4data17DataPowerListenerESaIS2_ELN9__gnu_cxx12_Lock_policyE2EE14_M_get_deleterERKSt9type_info=so_stub_for_libtelux_data
-Wl,--defsym=_ZNSt23_Sp_counted_ptr_inplaceIN5telux4data17DataPowerListenerESaIS2_ELN9__gnu_cxx12_Lock_policyE2EED0Ev=so_stub_for_libtelux_data
-Wl,--defsym=_ZNSt23_Sp_counted_ptr_inplaceIN5telux4data17DataPowerListenerESaIS2_ELN9__gnu_cxx12_Lock_policyE2EED1Ev=so_stub_for_libtelux_data
-Wl,--defsym=_ZNSt23_Sp_counted_ptr_inplaceIN5telux4data17DataPowerListenerESaIS2_ELN9__gnu_cxx12_Lock_policyE2EED2Ev=so_stub_for_libtelux_data
-Wl,--defsym=_ZNSt23_Sp_counted_ptr_inplaceIN5telux4data17DualDataDdsSwitchESaIS2_ELN9__gnu_cxx12_Lock_policyE2EE10_M_destroyEv=so_stub_for_libtelux_data
-Wl,--defsym=_ZNSt23_Sp_counted_ptr_inplaceIN5telux4data17DualDataDdsSwitchESaIS2_ELN9__gnu_cxx12_Lock_policyE2EE10_M_disposeEv=so_stub_for_libtelux_data
-Wl,--defsym=_ZNSt23_Sp_counted_ptr_inplaceIN5telux4data17DualDataDdsSwitchESaIS2_ELN9__gnu_cxx12_Lock_policyE2EE14_M_get_deleterERKSt9type_info=so_stub_for_libtelux_data
-Wl,--defsym=_ZNSt23_Sp_counted_ptr_inplaceIN5telux4data17DualDataDdsSwitchESaIS2_ELN9__gnu_cxx12_Lock_policyE2EED0Ev=so_stub_for_libtelux_data
-Wl,--defsym=_ZNSt23_Sp_counted_ptr_inplaceIN5telux4data17DualDataDdsSwitchESaIS2_ELN9__gnu_cxx12_Lock_policyE2EED1Ev=so_stub_for_libtelux_data
-Wl,--defsym=_ZNSt23_Sp_counted_ptr_inplaceIN5telux4data17DualDataDdsSwitchESaIS2_ELN9__gnu_cxx12_Lock_policyE2EED2Ev=so_stub_for_libtelux_data
-Wl,--defsym=_ZNSt23_Sp_counted_ptr_inplaceIN5telux4data17KeepAliveListenerESaIS2_ELN9__gnu_cxx12_Lock_policyE2EE10_M_destroyEv=so_stub_for_libtelux_data
-Wl,--defsym=_ZNSt23_Sp_counted_ptr_inplaceIN5telux4data17KeepAliveListenerESaIS2_ELN9__gnu_cxx12_Lock_policyE2EE10_M_disposeEv=so_stub_for_libtelux_data
-Wl,--defsym=_ZNSt23_Sp_counted_ptr_inplaceIN5telux4data17KeepAliveListenerESaIS2_ELN9__gnu_cxx12_Lock_policyE2EE14_M_get_deleterERKSt9type_info=so_stub_for_libtelux_data
-Wl,--defsym=_ZNSt23_Sp_counted_ptr_inplaceIN5telux4data17KeepAliveListenerESaIS2_ELN9__gnu_cxx12_Lock_policyE2EED0Ev=so_stub_for_libtelux_data
-Wl,--defsym=_ZNSt23_Sp_counted_ptr_inplaceIN5telux4data17KeepAliveListenerESaIS2_ELN9__gnu_cxx12_Lock_policyE2EED1Ev=so_stub_for_libtelux_data
-Wl,--defsym=_ZNSt23_Sp_counted_ptr_inplaceIN5telux4data17KeepAliveListenerESaIS2_ELN9__gnu_cxx12_Lock_policyE2EED2Ev=so_stub_for_libtelux_data
-Wl,--defsym=_ZNSt23_Sp_counted_ptr_inplaceIN5telux4data17TrafficFilterImplESaIS2_ELN9__gnu_cxx12_Lock_policyE2EE10_M_destroyEv=so_stub_for_libtelux_data
-Wl,--defsym=_ZNSt23_Sp_counted_ptr_inplaceIN5telux4data17TrafficFilterImplESaIS2_ELN9__gnu_cxx12_Lock_policyE2EE10_M_disposeEv=so_stub_for_libtelux_data
-Wl,--defsym=_ZNSt23_Sp_counted_ptr_inplaceIN5telux4data17TrafficFilterImplESaIS2_ELN9__gnu_cxx12_Lock_policyE2EE14_M_get_deleterERKSt9type_info=so_stub_for_libtelux_data
-Wl,--defsym=_ZNSt23_Sp_counted_ptr_inplaceIN5telux4data17TrafficFilterImplESaIS2_ELN9__gnu_cxx12_Lock_policyE2EED0Ev=so_stub_for_libtelux_data
-Wl,--defsym=_ZNSt23_Sp_counted_ptr_inplaceIN5telux4data17TrafficFilterImplESaIS2_ELN9__gnu_cxx12_Lock_policyE2EED1Ev=so_stub_for_libtelux_data
-Wl,--defsym=_ZNSt23_Sp_counted_ptr_inplaceIN5telux4data17TrafficFilterImplESaIS2_ELN9__gnu_cxx12_Lock_policyE2EED2Ev=so_stub_for_libtelux_data
-Wl,--defsym=_ZNSt23_Sp_counted_ptr_inplaceIN5telux4data18DataSubSystemEventESaIS2_ELN9__gnu_cxx12_Lock_policyE2EE10_M_destroyEv=so_stub_for_libtelux_data
-Wl,--defsym=_ZNSt23_Sp_counted_ptr_inplaceIN5telux4data18DataSubSystemEventESaIS2_ELN9__gnu_cxx12_Lock_policyE2EE10_M_disposeEv=so_stub_for_libtelux_data
-Wl,--defsym=_ZNSt23_Sp_counted_ptr_inplaceIN5telux4data18DataSubSystemEventESaIS2_ELN9__gnu_cxx12_Lock_policyE2EE14_M_get_deleterERKSt9type_info=so_stub_for_libtelux_data
-Wl,--defsym=_ZNSt23_Sp_counted_ptr_inplaceIN5telux4data18DataSubSystemEventESaIS2_ELN9__gnu_cxx12_Lock_policyE2EED0Ev=so_stub_for_libtelux_data
-Wl,--defsym=_ZNSt23_Sp_counted_ptr_inplaceIN5telux4data18DataSubSystemEventESaIS2_ELN9__gnu_cxx12_Lock_policyE2EED1Ev=so_stub_for_libtelux_data
-Wl,--defsym=_ZNSt23_Sp_counted_ptr_inplaceIN5telux4data18DataSubSystemEventESaIS2_ELN9__gnu_cxx12_Lock_policyE2EED2Ev=so_stub_for_libtelux_data
-Wl,--defsym=_ZNSt23_Sp_counted_ptr_inplaceIN5telux4data18DsiEventDispatcherESaIS2_ELN9__gnu_cxx12_Lock_policyE2EE10_M_destroyEv=so_stub_for_libtelux_data
-Wl,--defsym=_ZNSt23_Sp_counted_ptr_inplaceIN5telux4data18DsiEventDispatcherESaIS2_ELN9__gnu_cxx12_Lock_policyE2EE10_M_disposeEv=so_stub_for_libtelux_data
-Wl,--defsym=_ZNSt23_Sp_counted_ptr_inplaceIN5telux4data18DsiEventDispatcherESaIS2_ELN9__gnu_cxx12_Lock_policyE2EE14_M_get_deleterERKSt9type_info=so_stub_for_libtelux_data
-Wl,--defsym=_ZNSt23_Sp_counted_ptr_inplaceIN5telux4data18DsiEventDispatcherESaIS2_ELN9__gnu_cxx12_Lock_policyE2EED0Ev=so_stub_for_libtelux_data
-Wl,--defsym=_ZNSt23_Sp_counted_ptr_inplaceIN5telux4data18DsiEventDispatcherESaIS2_ELN9__gnu_cxx12_Lock_policyE2EED1Ev=so_stub_for_libtelux_data
-Wl,--defsym=_ZNSt23_Sp_counted_ptr_inplaceIN5telux4data18DsiEventDispatcherESaIS2_ELN9__gnu_cxx12_Lock_policyE2EED2Ev=so_stub_for_libtelux_data
-Wl,--defsym=_ZNSt23_Sp_counted_ptr_inplaceIN5telux4data19DataLinkManagerImplESaIS2_ELN9__gnu_cxx12_Lock_policyE2EE10_M_destroyEv=so_stub_for_libtelux_data
-Wl,--defsym=_ZNSt23_Sp_counted_ptr_inplaceIN5telux4data19DataLinkManagerImplESaIS2_ELN9__gnu_cxx12_Lock_policyE2EE10_M_disposeEv=so_stub_for_libtelux_data
-Wl,--defsym=_ZNSt23_Sp_counted_ptr_inplaceIN5telux4data19DataLinkManagerImplESaIS2_ELN9__gnu_cxx12_Lock_policyE2EE14_M_get_deleterERKSt9type_info=so_stub_for_libtelux_data
-Wl,--defsym=_ZNSt23_Sp_counted_ptr_inplaceIN5telux4data19DataLinkManagerImplESaIS2_ELN9__gnu_cxx12_Lock_policyE2EED0Ev=so_stub_for_libtelux_data
-Wl,--defsym=_ZNSt23_Sp_counted_ptr_inplaceIN5telux4data19DataLinkManagerImplESaIS2_ELN9__gnu_cxx12_Lock_policyE2EED1Ev=so_stub_for_libtelux_data
-Wl,--defsym=_ZNSt23_Sp_counted_ptr_inplaceIN5telux4data19DataLinkManagerImplESaIS2_ELN9__gnu_cxx12_Lock_policyE2EED2Ev=so_stub_for_libtelux_data
-Wl,--defsym=_ZNSt23_Sp_counted_ptr_inplaceIN5telux4data19DualDataManagerImplESaIS2_ELN9__gnu_cxx12_Lock_policyE2EE10_M_destroyEv=so_stub_for_libtelux_data
-Wl,--defsym=_ZNSt23_Sp_counted_ptr_inplaceIN5telux4data19DualDataManagerImplESaIS2_ELN9__gnu_cxx12_Lock_policyE2EE10_M_disposeEv=so_stub_for_libtelux_data
-Wl,--defsym=_ZNSt23_Sp_counted_ptr_inplaceIN5telux4data19DualDataManagerImplESaIS2_ELN9__gnu_cxx12_Lock_policyE2EE14_M_get_deleterERKSt9type_info=so_stub_for_libtelux_data
-Wl,--defsym=_ZNSt23_Sp_counted_ptr_inplaceIN5telux4data19DualDataManagerImplESaIS2_ELN9__gnu_cxx12_Lock_policyE2EED0Ev=so_stub_for_libtelux_data
-Wl,--defsym=_ZNSt23_Sp_counted_ptr_inplaceIN5telux4data19DualDataManagerImplESaIS2_ELN9__gnu_cxx12_Lock_policyE2EED1Ev=so_stub_for_libtelux_data
-Wl,--defsym=_ZNSt23_Sp_counted_ptr_inplaceIN5telux4data19DualDataManagerImplESaIS2_ELN9__gnu_cxx12_Lock_policyE2EED2Ev=so_stub_for_libtelux_data
-Wl,--defsym=_ZNSt23_Sp_counted_ptr_inplaceIN5telux4data19TrafficFlowTemplateESaIS2_ELN9__gnu_cxx12_Lock_policyE2EE10_M_destroyEv=so_stub_for_libtelux_data
-Wl,--defsym=_ZNSt23_Sp_counted_ptr_inplaceIN5telux4data19TrafficFlowTemplateESaIS2_ELN9__gnu_cxx12_Lock_policyE2EE10_M_disposeEv=so_stub_for_libtelux_data
-Wl,--defsym=_ZNSt23_Sp_counted_ptr_inplaceIN5telux4data19TrafficFlowTemplateESaIS2_ELN9__gnu_cxx12_Lock_policyE2EE14_M_get_deleterERKSt9type_info=so_stub_for_libtelux_data
-Wl,--defsym=_ZNSt23_Sp_counted_ptr_inplaceIN5telux4data19TrafficFlowTemplateESaIS2_ELN9__gnu_cxx12_Lock_policyE2EED0Ev=so_stub_for_libtelux_data
-Wl,--defsym=_ZNSt23_Sp_counted_ptr_inplaceIN5telux4data19TrafficFlowTemplateESaIS2_ELN9__gnu_cxx12_Lock_policyE2EED1Ev=so_stub_for_libtelux_data
-Wl,--defsym=_ZNSt23_Sp_counted_ptr_inplaceIN5telux4data19TrafficFlowTemplateESaIS2_ELN9__gnu_cxx12_Lock_policyE2EED2Ev=so_stub_for_libtelux_data
-Wl,--defsym=_ZNSt23_Sp_counted_ptr_inplaceIN5telux4data20KeepAliveManagerImplESaIS2_ELN9__gnu_cxx12_Lock_policyE2EE10_M_destroyEv=so_stub_for_libtelux_data
-Wl,--defsym=_ZNSt23_Sp_counted_ptr_inplaceIN5telux4data20KeepAliveManagerImplESaIS2_ELN9__gnu_cxx12_Lock_policyE2EE10_M_disposeEv=so_stub_for_libtelux_data
-Wl,--defsym=_ZNSt23_Sp_counted_ptr_inplaceIN5telux4data20KeepAliveManagerImplESaIS2_ELN9__gnu_cxx12_Lock_policyE2EE14_M_get_deleterERKSt9type_info=so_stub_for_libtelux_data
-Wl,--defsym=_ZNSt23_Sp_counted_ptr_inplaceIN5telux4data20KeepAliveManagerImplESaIS2_ELN9__gnu_cxx12_Lock_policyE2EED0Ev=so_stub_for_libtelux_data
-Wl,--defsym=_ZNSt23_Sp_counted_ptr_inplaceIN5telux4data20KeepAliveManagerImplESaIS2_ELN9__gnu_cxx12_Lock_policyE2EED1Ev=so_stub_for_libtelux_data
-Wl,--defsym=_ZNSt23_Sp_counted_ptr_inplaceIN5telux4data20KeepAliveManagerImplESaIS2_ELN9__gnu_cxx12_Lock_policyE2EED2Ev=so_stub_for_libtelux_data
-Wl,--defsym=_ZNSt23_Sp_counted_ptr_inplaceIN5telux4data21DataFilterManagerImplESaIS2_ELN9__gnu_cxx12_Lock_policyE2EE10_M_destroyEv=so_stub_for_libtelux_data
-Wl,--defsym=_ZNSt23_Sp_counted_ptr_inplaceIN5telux4data21DataFilterManagerImplESaIS2_ELN9__gnu_cxx12_Lock_policyE2EE10_M_disposeEv=so_stub_for_libtelux_data
-Wl,--defsym=_ZNSt23_Sp_counted_ptr_inplaceIN5telux4data21DataFilterManagerImplESaIS2_ELN9__gnu_cxx12_Lock_policyE2EE14_M_get_deleterERKSt9type_info=so_stub_for_libtelux_data
-Wl,--defsym=_ZNSt23_Sp_counted_ptr_inplaceIN5telux4data21DataFilterManagerImplESaIS2_ELN9__gnu_cxx12_Lock_policyE2EED0Ev=so_stub_for_libtelux_data
-Wl,--defsym=_ZNSt23_Sp_counted_ptr_inplaceIN5telux4data21DataFilterManagerImplESaIS2_ELN9__gnu_cxx12_Lock_policyE2EED1Ev=so_stub_for_libtelux_data
-Wl,--defsym=_ZNSt23_Sp_counted_ptr_inplaceIN5telux4data21DataFilterManagerImplESaIS2_ELN9__gnu_cxx12_Lock_policyE2EED2Ev=so_stub_for_libtelux_data
-Wl,--defsym=_ZNSt23_Sp_counted_ptr_inplaceIN5telux4data21DsiStatusCallbackDataESaIS2_ELN9__gnu_cxx12_Lock_policyE2EE10_M_destroyEv=so_stub_for_libtelux_data
-Wl,--defsym=_ZNSt23_Sp_counted_ptr_inplaceIN5telux4data21DsiStatusCallbackDataESaIS2_ELN9__gnu_cxx12_Lock_policyE2EE10_M_disposeEv=so_stub_for_libtelux_data
-Wl,--defsym=_ZNSt23_Sp_counted_ptr_inplaceIN5telux4data21DsiStatusCallbackDataESaIS2_ELN9__gnu_cxx12_Lock_policyE2EE14_M_get_deleterERKSt9type_info=so_stub_for_libtelux_data
-Wl,--defsym=_ZNSt23_Sp_counted_ptr_inplaceIN5telux4data21DsiStatusCallbackDataESaIS2_ELN9__gnu_cxx12_Lock_policyE2EED0Ev=so_stub_for_libtelux_data
-Wl,--defsym=_ZNSt23_Sp_counted_ptr_inplaceIN5telux4data21DsiStatusCallbackDataESaIS2_ELN9__gnu_cxx12_Lock_policyE2EED1Ev=so_stub_for_libtelux_data
-Wl,--defsym=_ZNSt23_Sp_counted_ptr_inplaceIN5telux4data21DsiStatusCallbackDataESaIS2_ELN9__gnu_cxx12_Lock_policyE2EED2Ev=so_stub_for_libtelux_data
-Wl,--defsym=_ZNSt23_Sp_counted_ptr_inplaceIN5telux4data22BandInterferenceConfigESaIS2_ELN9__gnu_cxx12_Lock_policyE2EE10_M_destroyEv=so_stub_for_libtelux_data
-Wl,--defsym=_ZNSt23_Sp_counted_ptr_inplaceIN5telux4data22BandInterferenceConfigESaIS2_ELN9__gnu_cxx12_Lock_policyE2EE10_M_disposeEv=so_stub_for_libtelux_data
-Wl,--defsym=_ZNSt23_Sp_counted_ptr_inplaceIN5telux4data22BandInterferenceConfigESaIS2_ELN9__gnu_cxx12_Lock_policyE2EE14_M_get_deleterERKSt9type_info=so_stub_for_libtelux_data
-Wl,--defsym=_ZNSt23_Sp_counted_ptr_inplaceIN5telux4data22BandInterferenceConfigESaIS2_ELN9__gnu_cxx12_Lock_policyE2EED0Ev=so_stub_for_libtelux_data
-Wl,--defsym=_ZNSt23_Sp_counted_ptr_inplaceIN5telux4data22BandInterferenceConfigESaIS2_ELN9__gnu_cxx12_Lock_policyE2EED1Ev=so_stub_for_libtelux_data
-Wl,--defsym=_ZNSt23_Sp_counted_ptr_inplaceIN5telux4data22BandInterferenceConfigESaIS2_ELN9__gnu_cxx12_Lock_policyE2EED2Ev=so_stub_for_libtelux_data
-Wl,--defsym=_ZNSt23_Sp_counted_ptr_inplaceIN5telux4data22DataControlManagerImplESaIS2_ELN9__gnu_cxx12_Lock_policyE2EE10_M_destroyEv=so_stub_for_libtelux_data
-Wl,--defsym=_ZNSt23_Sp_counted_ptr_inplaceIN5telux4data22DataControlManagerImplESaIS2_ELN9__gnu_cxx12_Lock_policyE2EE10_M_disposeEv=so_stub_for_libtelux_data
-Wl,--defsym=_ZNSt23_Sp_counted_ptr_inplaceIN5telux4data22DataControlManagerImplESaIS2_ELN9__gnu_cxx12_Lock_policyE2EE14_M_get_deleterERKSt9type_info=so_stub_for_libtelux_data
-Wl,--defsym=_ZNSt23_Sp_counted_ptr_inplaceIN5telux4data22DataControlManagerImplESaIS2_ELN9__gnu_cxx12_Lock_policyE2EED0Ev=so_stub_for_libtelux_data
-Wl,--defsym=_ZNSt23_Sp_counted_ptr_inplaceIN5telux4data22DataControlManagerImplESaIS2_ELN9__gnu_cxx12_Lock_policyE2EED1Ev=so_stub_for_libtelux_data
-Wl,--defsym=_ZNSt23_Sp_counted_ptr_inplaceIN5telux4data22DataControlManagerImplESaIS2_ELN9__gnu_cxx12_Lock_policyE2EED2Ev=so_stub_for_libtelux_data
-Wl,--defsym=_ZNSt23_Sp_counted_ptr_inplaceIN5telux4data22DataProfileManagerImplESaIS2_ELN9__gnu_cxx12_Lock_policyE2EE10_M_destroyEv=so_stub_for_libtelux_data
-Wl,--defsym=_ZNSt23_Sp_counted_ptr_inplaceIN5telux4data22DataProfileManagerImplESaIS2_ELN9__gnu_cxx12_Lock_policyE2EE10_M_disposeEv=so_stub_for_libtelux_data
-Wl,--defsym=_ZNSt23_Sp_counted_ptr_inplaceIN5telux4data22DataProfileManagerImplESaIS2_ELN9__gnu_cxx12_Lock_policyE2EE14_M_get_deleterERKSt9type_info=so_stub_for_libtelux_data
-Wl,--defsym=_ZNSt23_Sp_counted_ptr_inplaceIN5telux4data22DataProfileManagerImplESaIS2_ELN9__gnu_cxx12_Lock_policyE2EED0Ev=so_stub_for_libtelux_data
-Wl,--defsym=_ZNSt23_Sp_counted_ptr_inplaceIN5telux4data22DataProfileManagerImplESaIS2_ELN9__gnu_cxx12_Lock_policyE2EED1Ev=so_stub_for_libtelux_data
-Wl,--defsym=_ZNSt23_Sp_counted_ptr_inplaceIN5telux4data22DataProfileManagerImplESaIS2_ELN9__gnu_cxx12_Lock_policyE2EED2Ev=so_stub_for_libtelux_data
-Wl,--defsym=_ZNSt23_Sp_counted_ptr_inplaceIN5telux4data23DataSettingsManagerImplESaIS2_ELN9__gnu_cxx12_Lock_policyE2EE10_M_destroyEv=so_stub_for_libtelux_data
-Wl,--defsym=_ZNSt23_Sp_counted_ptr_inplaceIN5telux4data23DataSettingsManagerImplESaIS2_ELN9__gnu_cxx12_Lock_policyE2EE10_M_disposeEv=so_stub_for_libtelux_data
-Wl,--defsym=_ZNSt23_Sp_counted_ptr_inplaceIN5telux4data23DataSettingsManagerImplESaIS2_ELN9__gnu_cxx12_Lock_policyE2EE14_M_get_deleterERKSt9type_info=so_stub_for_libtelux_data
-Wl,--defsym=_ZNSt23_Sp_counted_ptr_inplaceIN5telux4data23DataSettingsManagerImplESaIS2_ELN9__gnu_cxx12_Lock_policyE2EED0Ev=so_stub_for_libtelux_data
-Wl,--defsym=_ZNSt23_Sp_counted_ptr_inplaceIN5telux4data23DataSettingsManagerImplESaIS2_ELN9__gnu_cxx12_Lock_policyE2EED1Ev=so_stub_for_libtelux_data
-Wl,--defsym=_ZNSt23_Sp_counted_ptr_inplaceIN5telux4data23DataSettingsManagerImplESaIS2_ELN9__gnu_cxx12_Lock_policyE2EED2Ev=so_stub_for_libtelux_data
-Wl,--defsym=_ZNSt23_Sp_counted_ptr_inplaceIN5telux4data23NLEthCapabilityCallbackESaIS2_ELN9__gnu_cxx12_Lock_policyE2EE10_M_destroyEv=so_stub_for_libtelux_data
-Wl,--defsym=_ZNSt23_Sp_counted_ptr_inplaceIN5telux4data23NLEthCapabilityCallbackESaIS2_ELN9__gnu_cxx12_Lock_policyE2EE10_M_disposeEv=so_stub_for_libtelux_data
-Wl,--defsym=_ZNSt23_Sp_counted_ptr_inplaceIN5telux4data23NLEthCapabilityCallbackESaIS2_ELN9__gnu_cxx12_Lock_policyE2EE14_M_get_deleterERKSt9type_info=so_stub_for_libtelux_data
-Wl,--defsym=_ZNSt23_Sp_counted_ptr_inplaceIN5telux4data23NLEthCapabilityCallbackESaIS2_ELN9__gnu_cxx12_Lock_policyE2EED0Ev=so_stub_for_libtelux_data
-Wl,--defsym=_ZNSt23_Sp_counted_ptr_inplaceIN5telux4data23NLEthCapabilityCallbackESaIS2_ELN9__gnu_cxx12_Lock_policyE2EED1Ev=so_stub_for_libtelux_data
-Wl,--defsym=_ZNSt23_Sp_counted_ptr_inplaceIN5telux4data23NLEthCapabilityCallbackESaIS2_ELN9__gnu_cxx12_Lock_policyE2EED2Ev=so_stub_for_libtelux_data
-Wl,--defsym=_ZNSt23_Sp_counted_ptr_inplaceIN5telux4data24ServingSystemManagerImplESaIS2_ELN9__gnu_cxx12_Lock_policyE2EE10_M_destroyEv=so_stub_for_libtelux_data
-Wl,--defsym=_ZNSt23_Sp_counted_ptr_inplaceIN5telux4data24ServingSystemManagerImplESaIS2_ELN9__gnu_cxx12_Lock_policyE2EE10_M_disposeEv=so_stub_for_libtelux_data
-Wl,--defsym=_ZNSt23_Sp_counted_ptr_inplaceIN5telux4data24ServingSystemManagerImplESaIS2_ELN9__gnu_cxx12_Lock_policyE2EE14_M_get_deleterERKSt9type_info=so_stub_for_libtelux_data
-Wl,--defsym=_ZNSt23_Sp_counted_ptr_inplaceIN5telux4data24ServingSystemManagerImplESaIS2_ELN9__gnu_cxx12_Lock_policyE2EED0Ev=so_stub_for_libtelux_data
-Wl,--defsym=_ZNSt23_Sp_counted_ptr_inplaceIN5telux4data24ServingSystemManagerImplESaIS2_ELN9__gnu_cxx12_Lock_policyE2EED1Ev=so_stub_for_libtelux_data
-Wl,--defsym=_ZNSt23_Sp_counted_ptr_inplaceIN5telux4data24ServingSystemManagerImplESaIS2_ELN9__gnu_cxx12_Lock_policyE2EED2Ev=so_stub_for_libtelux_data
-Wl,--defsym=_ZNSt23_Sp_counted_ptr_inplaceIN5telux4data25DataConnectionManagerImplESaIS2_ELN9__gnu_cxx12_Lock_policyE2EE10_M_destroyEv=so_stub_for_libtelux_data
-Wl,--defsym=_ZNSt23_Sp_counted_ptr_inplaceIN5telux4data25DataConnectionManagerImplESaIS2_ELN9__gnu_cxx12_Lock_policyE2EE10_M_disposeEv=so_stub_for_libtelux_data
-Wl,--defsym=_ZNSt23_Sp_counted_ptr_inplaceIN5telux4data25DataConnectionManagerImplESaIS2_ELN9__gnu_cxx12_Lock_policyE2EE14_M_get_deleterERKSt9type_info=so_stub_for_libtelux_data
-Wl,--defsym=_ZNSt23_Sp_counted_ptr_inplaceIN5telux4data25DataConnectionManagerImplESaIS2_ELN9__gnu_cxx12_Lock_policyE2EED0Ev=so_stub_for_libtelux_data
-Wl,--defsym=_ZNSt23_Sp_counted_ptr_inplaceIN5telux4data25DataConnectionManagerImplESaIS2_ELN9__gnu_cxx12_Lock_policyE2EED1Ev=so_stub_for_libtelux_data
-Wl,--defsym=_ZNSt23_Sp_counted_ptr_inplaceIN5telux4data25DataConnectionManagerImplESaIS2_ELN9__gnu_cxx12_Lock_policyE2EED2Ev=so_stub_for_libtelux_data
-Wl,--defsym=_ZNSt23_Sp_counted_ptr_inplaceIN5telux4data25DataSubSystemStateMachineESaIS2_ELN9__gnu_cxx12_Lock_policyE2EE10_M_destroyEv=so_stub_for_libtelux_data
-Wl,--defsym=_ZNSt23_Sp_counted_ptr_inplaceIN5telux4data25DataSubSystemStateMachineESaIS2_ELN9__gnu_cxx12_Lock_policyE2EE10_M_disposeEv=so_stub_for_libtelux_data
-Wl,--defsym=_ZNSt23_Sp_counted_ptr_inplaceIN5telux4data25DataSubSystemStateMachineESaIS2_ELN9__gnu_cxx12_Lock_policyE2EE14_M_get_deleterERKSt9type_info=so_stub_for_libtelux_data
-Wl,--defsym=_ZNSt23_Sp_counted_ptr_inplaceIN5telux4data25DataSubSystemStateMachineESaIS2_ELN9__gnu_cxx12_Lock_policyE2EED0Ev=so_stub_for_libtelux_data
-Wl,--defsym=_ZNSt23_Sp_counted_ptr_inplaceIN5telux4data25DataSubSystemStateMachineESaIS2_ELN9__gnu_cxx12_Lock_policyE2EED1Ev=so_stub_for_libtelux_data
-Wl,--defsym=_ZNSt23_Sp_counted_ptr_inplaceIN5telux4data25DataSubSystemStateMachineESaIS2_ELN9__gnu_cxx12_Lock_policyE2EED2Ev=so_stub_for_libtelux_data
-Wl,--defsym=_ZNSt23_Sp_counted_ptr_inplaceIN5telux4data27DataConnectionPowerListenerESaIS2_ELN9__gnu_cxx12_Lock_policyE2EE10_M_destroyEv=so_stub_for_libtelux_data
-Wl,--defsym=_ZNSt23_Sp_counted_ptr_inplaceIN5telux4data27DataConnectionPowerListenerESaIS2_ELN9__gnu_cxx12_Lock_policyE2EE10_M_disposeEv=so_stub_for_libtelux_data
-Wl,--defsym=_ZNSt23_Sp_counted_ptr_inplaceIN5telux4data27DataConnectionPowerListenerESaIS2_ELN9__gnu_cxx12_Lock_policyE2EE14_M_get_deleterERKSt9type_info=so_stub_for_libtelux_data
-Wl,--defsym=_ZNSt23_Sp_counted_ptr_inplaceIN5telux4data27DataConnectionPowerListenerESaIS2_ELN9__gnu_cxx12_Lock_policyE2EED0Ev=so_stub_for_libtelux_data
-Wl,--defsym=_ZNSt23_Sp_counted_ptr_inplaceIN5telux4data27DataConnectionPowerListenerESaIS2_ELN9__gnu_cxx12_Lock_policyE2EED1Ev=so_stub_for_libtelux_data
-Wl,--defsym=_ZNSt23_Sp_counted_ptr_inplaceIN5telux4data27DataConnectionPowerListenerESaIS2_ELN9__gnu_cxx12_Lock_policyE2EED2Ev=so_stub_for_libtelux_data
-Wl,--defsym=_ZNSt23_Sp_counted_ptr_inplaceIN5telux4data27DataSubSystemStateAvailableESaIS2_ELN9__gnu_cxx12_Lock_policyE2EE10_M_destroyEv=so_stub_for_libtelux_data
-Wl,--defsym=_ZNSt23_Sp_counted_ptr_inplaceIN5telux4data27DataSubSystemStateAvailableESaIS2_ELN9__gnu_cxx12_Lock_policyE2EE10_M_disposeEv=so_stub_for_libtelux_data
-Wl,--defsym=_ZNSt23_Sp_counted_ptr_inplaceIN5telux4data27DataSubSystemStateAvailableESaIS2_ELN9__gnu_cxx12_Lock_policyE2EE14_M_get_deleterERKSt9type_info=so_stub_for_libtelux_data
-Wl,--defsym=_ZNSt23_Sp_counted_ptr_inplaceIN5telux4data27DataSubSystemStateAvailableESaIS2_ELN9__gnu_cxx12_Lock_policyE2EED0Ev=so_stub_for_libtelux_data
-Wl,--defsym=_ZNSt23_Sp_counted_ptr_inplaceIN5telux4data27DataSubSystemStateAvailableESaIS2_ELN9__gnu_cxx12_Lock_policyE2EED1Ev=so_stub_for_libtelux_data
-Wl,--defsym=_ZNSt23_Sp_counted_ptr_inplaceIN5telux4data27DataSubSystemStateAvailableESaIS2_ELN9__gnu_cxx12_Lock_policyE2EED2Ev=so_stub_for_libtelux_data
-Wl,--defsym=_ZNSt23_Sp_counted_ptr_inplaceIN5telux4data29DataSubSystemStateUnavailableESaIS2_ELN9__gnu_cxx12_Lock_policyE2EE10_M_destroyEv=so_stub_for_libtelux_data
-Wl,--defsym=_ZNSt23_Sp_counted_ptr_inplaceIN5telux4data29DataSubSystemStateUnavailableESaIS2_ELN9__gnu_cxx12_Lock_policyE2EE10_M_disposeEv=so_stub_for_libtelux_data
-Wl,--defsym=_ZNSt23_Sp_counted_ptr_inplaceIN5telux4data29DataSubSystemStateUnavailableESaIS2_ELN9__gnu_cxx12_Lock_policyE2EE14_M_get_deleterERKSt9type_info=so_stub_for_libtelux_data
-Wl,--defsym=_ZNSt23_Sp_counted_ptr_inplaceIN5telux4data29DataSubSystemStateUnavailableESaIS2_ELN9__gnu_cxx12_Lock_policyE2EED0Ev=so_stub_for_libtelux_data
-Wl,--defsym=_ZNSt23_Sp_counted_ptr_inplaceIN5telux4data29DataSubSystemStateUnavailableESaIS2_ELN9__gnu_cxx12_Lock_policyE2EED1Ev=so_stub_for_libtelux_data
-Wl,--defsym=_ZNSt23_Sp_counted_ptr_inplaceIN5telux4data29DataSubSystemStateUnavailableESaIS2_ELN9__gnu_cxx12_Lock_policyE2EED2Ev=so_stub_for_libtelux_data
-Wl,--defsym=_ZNSt23_Sp_counted_ptr_inplaceIN5telux4data30RequestPdnThrottleInfoCallbackESaIS2_ELN9__gnu_cxx12_Lock_policyE2EE10_M_destroyEv=so_stub_for_libtelux_data
-Wl,--defsym=_ZNSt23_Sp_counted_ptr_inplaceIN5telux4data30RequestPdnThrottleInfoCallbackESaIS2_ELN9__gnu_cxx12_Lock_policyE2EE10_M_disposeEv=so_stub_for_libtelux_data
-Wl,--defsym=_ZNSt23_Sp_counted_ptr_inplaceIN5telux4data30RequestPdnThrottleInfoCallbackESaIS2_ELN9__gnu_cxx12_Lock_policyE2EE14_M_get_deleterERKSt9type_info=so_stub_for_libtelux_data
-Wl,--defsym=_ZNSt23_Sp_counted_ptr_inplaceIN5telux4data30RequestPdnThrottleInfoCallbackESaIS2_ELN9__gnu_cxx12_Lock_policyE2EED0Ev=so_stub_for_libtelux_data
-Wl,--defsym=_ZNSt23_Sp_counted_ptr_inplaceIN5telux4data30RequestPdnThrottleInfoCallbackESaIS2_ELN9__gnu_cxx12_Lock_policyE2EED1Ev=so_stub_for_libtelux_data
-Wl,--defsym=_ZNSt23_Sp_counted_ptr_inplaceIN5telux4data30RequestPdnThrottleInfoCallbackESaIS2_ELN9__gnu_cxx12_Lock_policyE2EED2Ev=so_stub_for_libtelux_data
-Wl,--defsym=_ZNSt23_Sp_counted_ptr_inplaceIN5telux4data34NLSetLocalEthOperatingModeCallbackESaIS2_ELN9__gnu_cxx12_Lock_policyE2EE10_M_destroyEv=so_stub_for_libtelux_data
-Wl,--defsym=_ZNSt23_Sp_counted_ptr_inplaceIN5telux4data34NLSetLocalEthOperatingModeCallbackESaIS2_ELN9__gnu_cxx12_Lock_policyE2EE10_M_disposeEv=so_stub_for_libtelux_data
-Wl,--defsym=_ZNSt23_Sp_counted_ptr_inplaceIN5telux4data34NLSetLocalEthOperatingModeCallbackESaIS2_ELN9__gnu_cxx12_Lock_policyE2EE14_M_get_deleterERKSt9type_info=so_stub_for_libtelux_data
-Wl,--defsym=_ZNSt23_Sp_counted_ptr_inplaceIN5telux4data34NLSetLocalEthOperatingModeCallbackESaIS2_ELN9__gnu_cxx12_Lock_policyE2EED0Ev=so_stub_for_libtelux_data
-Wl,--defsym=_ZNSt23_Sp_counted_ptr_inplaceIN5telux4data34NLSetLocalEthOperatingModeCallbackESaIS2_ELN9__gnu_cxx12_Lock_policyE2EED1Ev=so_stub_for_libtelux_data
-Wl,--defsym=_ZNSt23_Sp_counted_ptr_inplaceIN5telux4data34NLSetLocalEthOperatingModeCallbackESaIS2_ELN9__gnu_cxx12_Lock_policyE2EED2Ev=so_stub_for_libtelux_data
-Wl,--defsym=_ZNSt23_Sp_counted_ptr_inplaceIN5telux4data37AddProfileIdInApnThrottleInfoCallbackESaIS2_ELN9__gnu_cxx12_Lock_policyE2EE10_M_destroyEv=so_stub_for_libtelux_data
-Wl,--defsym=_ZNSt23_Sp_counted_ptr_inplaceIN5telux4data37AddProfileIdInApnThrottleInfoCallbackESaIS2_ELN9__gnu_cxx12_Lock_policyE2EE10_M_disposeEv=so_stub_for_libtelux_data
-Wl,--defsym=_ZNSt23_Sp_counted_ptr_inplaceIN5telux4data37AddProfileIdInApnThrottleInfoCallbackESaIS2_ELN9__gnu_cxx12_Lock_policyE2EE14_M_get_deleterERKSt9type_info=so_stub_for_libtelux_data
-Wl,--defsym=_ZNSt23_Sp_counted_ptr_inplaceIN5telux4data37AddProfileIdInApnThrottleInfoCallbackESaIS2_ELN9__gnu_cxx12_Lock_policyE2EED0Ev=so_stub_for_libtelux_data
-Wl,--defsym=_ZNSt23_Sp_counted_ptr_inplaceIN5telux4data37AddProfileIdInApnThrottleInfoCallbackESaIS2_ELN9__gnu_cxx12_Lock_policyE2EED1Ev=so_stub_for_libtelux_data
-Wl,--defsym=_ZNSt23_Sp_counted_ptr_inplaceIN5telux4data37AddProfileIdInApnThrottleInfoCallbackESaIS2_ELN9__gnu_cxx12_Lock_policyE2EED2Ev=so_stub_for_libtelux_data
-Wl,--defsym=_ZNSt23_Sp_counted_ptr_inplaceIN5telux4data3net12TcConfigImplESaIS3_ELN9__gnu_cxx12_Lock_policyE2EE10_M_destroyEv=so_stub_for_libtelux_data
-Wl,--defsym=_ZNSt23_Sp_counted_ptr_inplaceIN5telux4data3net12TcConfigImplESaIS3_ELN9__gnu_cxx12_Lock_policyE2EE10_M_disposeEv=so_stub_for_libtelux_data
-Wl,--defsym=_ZNSt23_Sp_counted_ptr_inplaceIN5telux4data3net12TcConfigImplESaIS3_ELN9__gnu_cxx12_Lock_policyE2EE14_M_get_deleterERKSt9type_info=so_stub_for_libtelux_data
-Wl,--defsym=_ZNSt23_Sp_counted_ptr_inplaceIN5telux4data3net12TcConfigImplESaIS3_ELN9__gnu_cxx12_Lock_policyE2EED0Ev=so_stub_for_libtelux_data
-Wl,--defsym=_ZNSt23_Sp_counted_ptr_inplaceIN5telux4data3net12TcConfigImplESaIS3_ELN9__gnu_cxx12_Lock_policyE2EED1Ev=so_stub_for_libtelux_data
-Wl,--defsym=_ZNSt23_Sp_counted_ptr_inplaceIN5telux4data3net12TcConfigImplESaIS3_ELN9__gnu_cxx12_Lock_policyE2EED2Ev=so_stub_for_libtelux_data
-Wl,--defsym=_ZNSt23_Sp_counted_ptr_inplaceIN5telux4data3net13QoSFilterImplESaIS3_ELN9__gnu_cxx12_Lock_policyE2EE10_M_destroyEv=so_stub_for_libtelux_data
-Wl,--defsym=_ZNSt23_Sp_counted_ptr_inplaceIN5telux4data3net13QoSFilterImplESaIS3_ELN9__gnu_cxx12_Lock_policyE2EE10_M_disposeEv=so_stub_for_libtelux_data
-Wl,--defsym=_ZNSt23_Sp_counted_ptr_inplaceIN5telux4data3net13QoSFilterImplESaIS3_ELN9__gnu_cxx12_Lock_policyE2EE14_M_get_deleterERKSt9type_info=so_stub_for_libtelux_data
-Wl,--defsym=_ZNSt23_Sp_counted_ptr_inplaceIN5telux4data3net13QoSFilterImplESaIS3_ELN9__gnu_cxx12_Lock_policyE2EED0Ev=so_stub_for_libtelux_data
-Wl,--defsym=_ZNSt23_Sp_counted_ptr_inplaceIN5telux4data3net13QoSFilterImplESaIS3_ELN9__gnu_cxx12_Lock_policyE2EED1Ev=so_stub_for_libtelux_data
-Wl,--defsym=_ZNSt23_Sp_counted_ptr_inplaceIN5telux4data3net13QoSFilterImplESaIS3_ELN9__gnu_cxx12_Lock_policyE2EED2Ev=so_stub_for_libtelux_data
-Wl,--defsym=_ZNSt23_Sp_counted_ptr_inplaceIN5telux4data3net14NatManagerImplESaIS3_ELN9__gnu_cxx12_Lock_policyE2EE10_M_destroyEv=so_stub_for_libtelux_data
-Wl,--defsym=_ZNSt23_Sp_counted_ptr_inplaceIN5telux4data3net14NatManagerImplESaIS3_ELN9__gnu_cxx12_Lock_policyE2EE10_M_disposeEv=so_stub_for_libtelux_data
-Wl,--defsym=_ZNSt23_Sp_counted_ptr_inplaceIN5telux4data3net14NatManagerImplESaIS3_ELN9__gnu_cxx12_Lock_policyE2EE14_M_get_deleterERKSt9type_info=so_stub_for_libtelux_data
-Wl,--defsym=_ZNSt23_Sp_counted_ptr_inplaceIN5telux4data3net14NatManagerImplESaIS3_ELN9__gnu_cxx12_Lock_policyE2EED0Ev=so_stub_for_libtelux_data
-Wl,--defsym=_ZNSt23_Sp_counted_ptr_inplaceIN5telux4data3net14NatManagerImplESaIS3_ELN9__gnu_cxx12_Lock_policyE2EED1Ev=so_stub_for_libtelux_data
-Wl,--defsym=_ZNSt23_Sp_counted_ptr_inplaceIN5telux4data3net14NatManagerImplESaIS3_ELN9__gnu_cxx12_Lock_policyE2EED2Ev=so_stub_for_libtelux_data
-Wl,--defsym=_ZNSt23_Sp_counted_ptr_inplaceIN5telux4data3net14QoSManagerImplESaIS3_ELN9__gnu_cxx12_Lock_policyE2EE10_M_destroyEv=so_stub_for_libtelux_data
-Wl,--defsym=_ZNSt23_Sp_counted_ptr_inplaceIN5telux4data3net14QoSManagerImplESaIS3_ELN9__gnu_cxx12_Lock_policyE2EE10_M_disposeEv=so_stub_for_libtelux_data
-Wl,--defsym=_ZNSt23_Sp_counted_ptr_inplaceIN5telux4data3net14QoSManagerImplESaIS3_ELN9__gnu_cxx12_Lock_policyE2EE14_M_get_deleterERKSt9type_info=so_stub_for_libtelux_data
-Wl,--defsym=_ZNSt23_Sp_counted_ptr_inplaceIN5telux4data3net14QoSManagerImplESaIS3_ELN9__gnu_cxx12_Lock_policyE2EED0Ev=so_stub_for_libtelux_data
-Wl,--defsym=_ZNSt23_Sp_counted_ptr_inplaceIN5telux4data3net14QoSManagerImplESaIS3_ELN9__gnu_cxx12_Lock_policyE2EED1Ev=so_stub_for_libtelux_data
-Wl,--defsym=_ZNSt23_Sp_counted_ptr_inplaceIN5telux4data3net14QoSManagerImplESaIS3_ELN9__gnu_cxx12_Lock_policyE2EED2Ev=so_stub_for_libtelux_data
-Wl,--defsym=_ZNSt23_Sp_counted_ptr_inplaceIN5telux4data3net15L2tpManagerImplESaIS3_ELN9__gnu_cxx12_Lock_policyE2EE10_M_destroyEv=so_stub_for_libtelux_data
-Wl,--defsym=_ZNSt23_Sp_counted_ptr_inplaceIN5telux4data3net15L2tpManagerImplESaIS3_ELN9__gnu_cxx12_Lock_policyE2EE10_M_disposeEv=so_stub_for_libtelux_data
-Wl,--defsym=_ZNSt23_Sp_counted_ptr_inplaceIN5telux4data3net15L2tpManagerImplESaIS3_ELN9__gnu_cxx12_Lock_policyE2EE14_M_get_deleterERKSt9type_info=so_stub_for_libtelux_data
-Wl,--defsym=_ZNSt23_Sp_counted_ptr_inplaceIN5telux4data3net15L2tpManagerImplESaIS3_ELN9__gnu_cxx12_Lock_policyE2EED0Ev=so_stub_for_libtelux_data
-Wl,--defsym=_ZNSt23_Sp_counted_ptr_inplaceIN5telux4data3net15L2tpManagerImplESaIS3_ELN9__gnu_cxx12_Lock_policyE2EED1Ev=so_stub_for_libtelux_data
-Wl,--defsym=_ZNSt23_Sp_counted_ptr_inplaceIN5telux4data3net15L2tpManagerImplESaIS3_ELN9__gnu_cxx12_Lock_policyE2EED2Ev=so_stub_for_libtelux_data
-Wl,--defsym=_ZNSt23_Sp_counted_ptr_inplaceIN5telux4data3net15VlanManagerImplESaIS3_ELN9__gnu_cxx12_Lock_policyE2EE10_M_destroyEv=so_stub_for_libtelux_data
-Wl,--defsym=_ZNSt23_Sp_counted_ptr_inplaceIN5telux4data3net15VlanManagerImplESaIS3_ELN9__gnu_cxx12_Lock_policyE2EE10_M_disposeEv=so_stub_for_libtelux_data
-Wl,--defsym=_ZNSt23_Sp_counted_ptr_inplaceIN5telux4data3net15VlanManagerImplESaIS3_ELN9__gnu_cxx12_Lock_policyE2EE14_M_get_deleterERKSt9type_info=so_stub_for_libtelux_data
-Wl,--defsym=_ZNSt23_Sp_counted_ptr_inplaceIN5telux4data3net15VlanManagerImplESaIS3_ELN9__gnu_cxx12_Lock_policyE2EED0Ev=so_stub_for_libtelux_data
-Wl,--defsym=_ZNSt23_Sp_counted_ptr_inplaceIN5telux4data3net15VlanManagerImplESaIS3_ELN9__gnu_cxx12_Lock_policyE2EED1Ev=so_stub_for_libtelux_data
-Wl,--defsym=_ZNSt23_Sp_counted_ptr_inplaceIN5telux4data3net15VlanManagerImplESaIS3_ELN9__gnu_cxx12_Lock_policyE2EED2Ev=so_stub_for_libtelux_data
-Wl,--defsym=_ZNSt23_Sp_counted_ptr_inplaceIN5telux4data3net16SocksManagerImplESaIS3_ELN9__gnu_cxx12_Lock_policyE2EE10_M_destroyEv=so_stub_for_libtelux_data
-Wl,--defsym=_ZNSt23_Sp_counted_ptr_inplaceIN5telux4data3net16SocksManagerImplESaIS3_ELN9__gnu_cxx12_Lock_policyE2EE10_M_disposeEv=so_stub_for_libtelux_data
-Wl,--defsym=_ZNSt23_Sp_counted_ptr_inplaceIN5telux4data3net16SocksManagerImplESaIS3_ELN9__gnu_cxx12_Lock_policyE2EE14_M_get_deleterERKSt9type_info=so_stub_for_libtelux_data
-Wl,--defsym=_ZNSt23_Sp_counted_ptr_inplaceIN5telux4data3net16SocksManagerImplESaIS3_ELN9__gnu_cxx12_Lock_policyE2EED0Ev=so_stub_for_libtelux_data
-Wl,--defsym=_ZNSt23_Sp_counted_ptr_inplaceIN5telux4data3net16SocksManagerImplESaIS3_ELN9__gnu_cxx12_Lock_policyE2EED1Ev=so_stub_for_libtelux_data
-Wl,--defsym=_ZNSt23_Sp_counted_ptr_inplaceIN5telux4data3net16SocksManagerImplESaIS3_ELN9__gnu_cxx12_Lock_policyE2EED2Ev=so_stub_for_libtelux_data
-Wl,--defsym=_ZNSt23_Sp_counted_ptr_inplaceIN5telux4data3net17BridgeManagerImplESaIS3_ELN9__gnu_cxx12_Lock_policyE2EE10_M_destroyEv=so_stub_for_libtelux_data
-Wl,--defsym=_ZNSt23_Sp_counted_ptr_inplaceIN5telux4data3net17BridgeManagerImplESaIS3_ELN9__gnu_cxx12_Lock_policyE2EE10_M_disposeEv=so_stub_for_libtelux_data
-Wl,--defsym=_ZNSt23_Sp_counted_ptr_inplaceIN5telux4data3net17BridgeManagerImplESaIS3_ELN9__gnu_cxx12_Lock_policyE2EE14_M_get_deleterERKSt9type_info=so_stub_for_libtelux_data
-Wl,--defsym=_ZNSt23_Sp_counted_ptr_inplaceIN5telux4data3net17BridgeManagerImplESaIS3_ELN9__gnu_cxx12_Lock_policyE2EED0Ev=so_stub_for_libtelux_data
-Wl,--defsym=_ZNSt23_Sp_counted_ptr_inplaceIN5telux4data3net17BridgeManagerImplESaIS3_ELN9__gnu_cxx12_Lock_policyE2EED1Ev=so_stub_for_libtelux_data
-Wl,--defsym=_ZNSt23_Sp_counted_ptr_inplaceIN5telux4data3net17BridgeManagerImplESaIS3_ELN9__gnu_cxx12_Lock_policyE2EED2Ev=so_stub_for_libtelux_data
-Wl,--defsym=_ZNSt23_Sp_counted_ptr_inplaceIN5telux4data3net17FirewallEntryImplESaIS3_ELN9__gnu_cxx12_Lock_policyE2EE10_M_destroyEv=so_stub_for_libtelux_data
-Wl,--defsym=_ZNSt23_Sp_counted_ptr_inplaceIN5telux4data3net17FirewallEntryImplESaIS3_ELN9__gnu_cxx12_Lock_policyE2EE10_M_disposeEv=so_stub_for_libtelux_data
-Wl,--defsym=_ZNSt23_Sp_counted_ptr_inplaceIN5telux4data3net17FirewallEntryImplESaIS3_ELN9__gnu_cxx12_Lock_policyE2EE14_M_get_deleterERKSt9type_info=so_stub_for_libtelux_data
-Wl,--defsym=_ZNSt23_Sp_counted_ptr_inplaceIN5telux4data3net17FirewallEntryImplESaIS3_ELN9__gnu_cxx12_Lock_policyE2EED0Ev=so_stub_for_libtelux_data
-Wl,--defsym=_ZNSt23_Sp_counted_ptr_inplaceIN5telux4data3net17FirewallEntryImplESaIS3_ELN9__gnu_cxx12_Lock_policyE2EED1Ev=so_stub_for_libtelux_data
-Wl,--defsym=_ZNSt23_Sp_counted_ptr_inplaceIN5telux4data3net17FirewallEntryImplESaIS3_ELN9__gnu_cxx12_Lock_policyE2EED2Ev=so_stub_for_libtelux_data
-Wl,--defsym=_ZNSt23_Sp_counted_ptr_inplaceIN5telux4data3net19FirewallManagerImplESaIS3_ELN9__gnu_cxx12_Lock_policyE2EE10_M_destroyEv=so_stub_for_libtelux_data
-Wl,--defsym=_ZNSt23_Sp_counted_ptr_inplaceIN5telux4data3net19FirewallManagerImplESaIS3_ELN9__gnu_cxx12_Lock_policyE2EE10_M_disposeEv=so_stub_for_libtelux_data
-Wl,--defsym=_ZNSt23_Sp_counted_ptr_inplaceIN5telux4data3net19FirewallManagerImplESaIS3_ELN9__gnu_cxx12_Lock_policyE2EE14_M_get_deleterERKSt9type_info=so_stub_for_libtelux_data
-Wl,--defsym=_ZNSt23_Sp_counted_ptr_inplaceIN5telux4data3net19FirewallManagerImplESaIS3_ELN9__gnu_cxx12_Lock_policyE2EED0Ev=so_stub_for_libtelux_data
-Wl,--defsym=_ZNSt23_Sp_counted_ptr_inplaceIN5telux4data3net19FirewallManagerImplESaIS3_ELN9__gnu_cxx12_Lock_policyE2EED1Ev=so_stub_for_libtelux_data
-Wl,--defsym=_ZNSt23_Sp_counted_ptr_inplaceIN5telux4data3net19FirewallManagerImplESaIS3_ELN9__gnu_cxx12_Lock_policyE2EED2Ev=so_stub_for_libtelux_data
-Wl,--defsym=_ZNSt23_Sp_counted_ptr_inplaceIN5telux4data9DdsSwitchESaIS2_ELN9__gnu_cxx12_Lock_policyE2EE10_M_destroyEv=so_stub_for_libtelux_data
-Wl,--defsym=_ZNSt23_Sp_counted_ptr_inplaceIN5telux4data9DdsSwitchESaIS2_ELN9__gnu_cxx12_Lock_policyE2EE10_M_disposeEv=so_stub_for_libtelux_data
-Wl,--defsym=_ZNSt23_Sp_counted_ptr_inplaceIN5telux4data9DdsSwitchESaIS2_ELN9__gnu_cxx12_Lock_policyE2EE14_M_get_deleterERKSt9type_info=so_stub_for_libtelux_data
-Wl,--defsym=_ZNSt23_Sp_counted_ptr_inplaceIN5telux4data9DdsSwitchESaIS2_ELN9__gnu_cxx12_Lock_policyE2EED0Ev=so_stub_for_libtelux_data
-Wl,--defsym=_ZNSt23_Sp_counted_ptr_inplaceIN5telux4data9DdsSwitchESaIS2_ELN9__gnu_cxx12_Lock_policyE2EED1Ev=so_stub_for_libtelux_data
-Wl,--defsym=_ZNSt23_Sp_counted_ptr_inplaceIN5telux4data9DdsSwitchESaIS2_ELN9__gnu_cxx12_Lock_policyE2EED2Ev=so_stub_for_libtelux_data
-Wl,--defsym=_ZNSt23_Sp_counted_ptr_inplaceIN5telux4data9EventInfoINS1_21DsiStatusCallbackDataEEESaIS4_ELN9__gnu_cxx12_Lock_policyE2EE10_M_destroyEv=so_stub_for_libtelux_data
-Wl,--defsym=_ZNSt23_Sp_counted_ptr_inplaceIN5telux4data9EventInfoINS1_21DsiStatusCallbackDataEEESaIS4_ELN9__gnu_cxx12_Lock_policyE2EE10_M_disposeEv=so_stub_for_libtelux_data
-Wl,--defsym=_ZNSt23_Sp_counted_ptr_inplaceIN5telux4data9EventInfoINS1_21DsiStatusCallbackDataEEESaIS4_ELN9__gnu_cxx12_Lock_policyE2EE14_M_get_deleterERKSt9type_info=so_stub_for_libtelux_data
-Wl,--defsym=_ZNSt23_Sp_counted_ptr_inplaceIN5telux4data9EventInfoINS1_21DsiStatusCallbackDataEEESaIS4_ELN9__gnu_cxx12_Lock_policyE2EED0Ev=so_stub_for_libtelux_data
-Wl,--defsym=_ZNSt23_Sp_counted_ptr_inplaceIN5telux4data9EventInfoINS1_21DsiStatusCallbackDataEEESaIS4_ELN9__gnu_cxx12_Lock_policyE2EED1Ev=so_stub_for_libtelux_data
-Wl,--defsym=_ZNSt23_Sp_counted_ptr_inplaceIN5telux4data9EventInfoINS1_21DsiStatusCallbackDataEEESaIS4_ELN9__gnu_cxx12_Lock_policyE2EED2Ev=so_stub_for_libtelux_data
-Wl,--defsym=_ZNSt23_Sp_counted_ptr_inplaceIN5telux6common14AsyncTaskQueueIvEESaIS3_ELN9__gnu_cxx12_Lock_policyE2EE10_M_destroyEv=so_stub_for_libtelux_data
-Wl,--defsym=_ZNSt23_Sp_counted_ptr_inplaceIN5telux6common14AsyncTaskQueueIvEESaIS3_ELN9__gnu_cxx12_Lock_policyE2EE10_M_disposeEv=so_stub_for_libtelux_data
-Wl,--defsym=_ZNSt23_Sp_counted_ptr_inplaceIN5telux6common14AsyncTaskQueueIvEESaIS3_ELN9__gnu_cxx12_Lock_policyE2EE14_M_get_deleterERKSt9type_info=so_stub_for_libtelux_data
-Wl,--defsym=_ZNSt23_Sp_counted_ptr_inplaceIN5telux6common14AsyncTaskQueueIvEESaIS3_ELN9__gnu_cxx12_Lock_policyE2EED0Ev=so_stub_for_libtelux_data
-Wl,--defsym=_ZNSt23_Sp_counted_ptr_inplaceIN5telux6common14AsyncTaskQueueIvEESaIS3_ELN9__gnu_cxx12_Lock_policyE2EED1Ev=so_stub_for_libtelux_data
-Wl,--defsym=_ZNSt23_Sp_counted_ptr_inplaceIN5telux6common14AsyncTaskQueueIvEESaIS3_ELN9__gnu_cxx12_Lock_policyE2EED2Ev=so_stub_for_libtelux_data
-Wl,--defsym=_ZNSt23_Sp_counted_ptr_inplaceIN5telux6common15ListenerManagerESaIS2_ELN9__gnu_cxx12_Lock_policyE2EE10_M_destroyEv=so_stub_for_libtelux_data
-Wl,--defsym=_ZNSt23_Sp_counted_ptr_inplaceIN5telux6common15ListenerManagerESaIS2_ELN9__gnu_cxx12_Lock_policyE2EE10_M_disposeEv=so_stub_for_libtelux_data
-Wl,--defsym=_ZNSt23_Sp_counted_ptr_inplaceIN5telux6common15ListenerManagerESaIS2_ELN9__gnu_cxx12_Lock_policyE2EE14_M_get_deleterERKSt9type_info=so_stub_for_libtelux_data
-Wl,--defsym=_ZNSt23_Sp_counted_ptr_inplaceIN5telux6common15ListenerManagerESaIS2_ELN9__gnu_cxx12_Lock_policyE2EED0Ev=so_stub_for_libtelux_data
-Wl,--defsym=_ZNSt23_Sp_counted_ptr_inplaceIN5telux6common15ListenerManagerESaIS2_ELN9__gnu_cxx12_Lock_policyE2EED1Ev=so_stub_for_libtelux_data
-Wl,--defsym=_ZNSt23_Sp_counted_ptr_inplaceIN5telux6common15ListenerManagerESaIS2_ELN9__gnu_cxx12_Lock_policyE2EED2Ev=so_stub_for_libtelux_data
-Wl,--defsym=_ZNSt23_Sp_counted_ptr_inplaceIN5telux6common18FunctionalCallbackIJNS0_4data7DdsInfoENS1_9ErrorCodeEEEESaIS6_ELN9__gnu_cxx12_Lock_policyE2EE10_M_destroyEv=so_stub_for_libtelux_data
-Wl,--defsym=_ZNSt23_Sp_counted_ptr_inplaceIN5telux6common18FunctionalCallbackIJNS0_4data7DdsInfoENS1_9ErrorCodeEEEESaIS6_ELN9__gnu_cxx12_Lock_policyE2EE10_M_disposeEv=so_stub_for_libtelux_data
-Wl,--defsym=_ZNSt23_Sp_counted_ptr_inplaceIN5telux6common18FunctionalCallbackIJNS0_4data7DdsInfoENS1_9ErrorCodeEEEESaIS6_ELN9__gnu_cxx12_Lock_policyE2EE14_M_get_deleterERKSt9type_info=so_stub_for_libtelux_data
-Wl,--defsym=_ZNSt23_Sp_counted_ptr_inplaceIN5telux6common18FunctionalCallbackIJNS0_4data7DdsInfoENS1_9ErrorCodeEEEESaIS6_ELN9__gnu_cxx12_Lock_policyE2EED0Ev=so_stub_for_libtelux_data
-Wl,--defsym=_ZNSt23_Sp_counted_ptr_inplaceIN5telux6common18FunctionalCallbackIJNS0_4data7DdsInfoENS1_9ErrorCodeEEEESaIS6_ELN9__gnu_cxx12_Lock_policyE2EED1Ev=so_stub_for_libtelux_data
-Wl,--defsym=_ZNSt23_Sp_counted_ptr_inplaceIN5telux6common18FunctionalCallbackIJNS0_4data7DdsInfoENS1_9ErrorCodeEEEESaIS6_ELN9__gnu_cxx12_Lock_policyE2EED2Ev=so_stub_for_libtelux_data
-Wl,--defsym=_ZNSt23_Sp_counted_ptr_inplaceIN5telux6common18FunctionalCallbackIJNS1_9ErrorCodeEEEESaIS4_ELN9__gnu_cxx12_Lock_policyE2EE10_M_destroyEv=so_stub_for_libtelux_data
-Wl,--defsym=_ZNSt23_Sp_counted_ptr_inplaceIN5telux6common18FunctionalCallbackIJNS1_9ErrorCodeEEEESaIS4_ELN9__gnu_cxx12_Lock_policyE2EE10_M_disposeEv=so_stub_for_libtelux_data
-Wl,--defsym=_ZNSt23_Sp_counted_ptr_inplaceIN5telux6common18FunctionalCallbackIJNS1_9ErrorCodeEEEESaIS4_ELN9__gnu_cxx12_Lock_policyE2EE14_M_get_deleterERKSt9type_info=so_stub_for_libtelux_data
-Wl,--defsym=_ZNSt23_Sp_counted_ptr_inplaceIN5telux6common18FunctionalCallbackIJNS1_9ErrorCodeEEEESaIS4_ELN9__gnu_cxx12_Lock_policyE2EED0Ev=so_stub_for_libtelux_data
-Wl,--defsym=_ZNSt23_Sp_counted_ptr_inplaceIN5telux6common18FunctionalCallbackIJNS1_9ErrorCodeEEEESaIS4_ELN9__gnu_cxx12_Lock_policyE2EED1Ev=so_stub_for_libtelux_data
-Wl,--defsym=_ZNSt23_Sp_counted_ptr_inplaceIN5telux6common18FunctionalCallbackIJNS1_9ErrorCodeEEEESaIS4_ELN9__gnu_cxx12_Lock_policyE2EED2Ev=so_stub_for_libtelux_data
-Wl,--defsym=_ZNSt23_Sp_counted_ptr_inplaceINSt13__future_base13_State_baseV2ESaIS1_ELN9__gnu_cxx12_Lock_policyE2EE10_M_destroyEv=so_stub_for_libtelux_data
-Wl,--defsym=_ZNSt23_Sp_counted_ptr_inplaceINSt13__future_base13_State_baseV2ESaIS1_ELN9__gnu_cxx12_Lock_policyE2EE10_M_disposeEv=so_stub_for_libtelux_data
-Wl,--defsym=_ZNSt23_Sp_counted_ptr_inplaceINSt13__future_base13_State_baseV2ESaIS1_ELN9__gnu_cxx12_Lock_policyE2EE14_M_get_deleterERKSt9type_info=so_stub_for_libtelux_data
-Wl,--defsym=_ZNSt23_Sp_counted_ptr_inplaceINSt13__future_base13_State_baseV2ESaIS1_ELN9__gnu_cxx12_Lock_policyE2EED0Ev=so_stub_for_libtelux_data
-Wl,--defsym=_ZNSt23_Sp_counted_ptr_inplaceINSt13__future_base13_State_baseV2ESaIS1_ELN9__gnu_cxx12_Lock_policyE2EED1Ev=so_stub_for_libtelux_data
-Wl,--defsym=_ZNSt23_Sp_counted_ptr_inplaceINSt13__future_base13_State_baseV2ESaIS1_ELN9__gnu_cxx12_Lock_policyE2EED2Ev=so_stub_for_libtelux_data
-Wl,--defsym=_ZNSt23_Sp_counted_ptr_inplaceINSt13__future_base15_Deferred_stateINSt6thread8_InvokerISt5tupleIJMN5telux4data9QcmClientEFvSt10shared_ptrINS6_9IDataCallEEEPS7_S8_INS6_12DataCallImplEEEEEEvEESaISI_ELN9__gnu_cxx12_Lock_policyE2EE10_M_destroyEv=so_stub_for_libtelux_data
-Wl,--defsym=_ZNSt23_Sp_counted_ptr_inplaceINSt13__future_base15_Deferred_stateINSt6thread8_InvokerISt5tupleIJMN5telux4data9QcmClientEFvSt10shared_ptrINS6_9IDataCallEEEPS7_S8_INS6_12DataCallImplEEEEEEvEESaISI_ELN9__gnu_cxx12_Lock_policyE2EE10_M_disposeEv=so_stub_for_libtelux_data
-Wl,--defsym=_ZNSt23_Sp_counted_ptr_inplaceINSt13__future_base15_Deferred_stateINSt6thread8_InvokerISt5tupleIJMN5telux4data9QcmClientEFvSt10shared_ptrINS6_9IDataCallEEEPS7_S8_INS6_12DataCallImplEEEEEEvEESaISI_ELN9__gnu_cxx12_Lock_policyE2EE14_M_get_deleterERKSt9type_info=so_stub_for_libtelux_data
-Wl,--defsym=_ZNSt23_Sp_counted_ptr_inplaceINSt13__future_base15_Deferred_stateINSt6thread8_InvokerISt5tupleIJMN5telux4data9QcmClientEFvSt10shared_ptrINS6_9IDataCallEEEPS7_S8_INS6_12DataCallImplEEEEEEvEESaISI_ELN9__gnu_cxx12_Lock_policyE2EED0Ev=so_stub_for_libtelux_data
-Wl,--defsym=_ZNSt23_Sp_counted_ptr_inplaceINSt13__future_base15_Deferred_stateINSt6thread8_InvokerISt5tupleIJMN5telux4data9QcmClientEFvSt10shared_ptrINS6_9IDataCallEEEPS7_S8_INS6_12DataCallImplEEEEEEvEESaISI_ELN9__gnu_cxx12_Lock_policyE2EED1Ev=so_stub_for_libtelux_data
-Wl,--defsym=_ZNSt23_Sp_counted_ptr_inplaceINSt13__future_base15_Deferred_stateINSt6thread8_InvokerISt5tupleIJMN5telux4data9QcmClientEFvSt10shared_ptrINS6_9IDataCallEEEPS7_S8_INS6_12DataCallImplEEEEEEvEESaISI_ELN9__gnu_cxx12_Lock_policyE2EED2Ev=so_stub_for_libtelux_data
-Wl,--defsym=_ZNSt23_Sp_counted_ptr_inplaceINSt13__future_base17_Async_state_implINSt6thread8_InvokerISt5tupleIJMN5telux4data9QcmClientEFvSt10shared_ptrINS6_9IDataCallEEEPS7_S8_INS6_12DataCallImplEEEEEEvEESaISI_ELN9__gnu_cxx12_Lock_policyE2EE10_M_destroyEv=so_stub_for_libtelux_data
-Wl,--defsym=_ZNSt23_Sp_counted_ptr_inplaceINSt13__future_base17_Async_state_implINSt6thread8_InvokerISt5tupleIJMN5telux4data9QcmClientEFvSt10shared_ptrINS6_9IDataCallEEEPS7_S8_INS6_12DataCallImplEEEEEEvEESaISI_ELN9__gnu_cxx12_Lock_policyE2EE10_M_disposeEv=so_stub_for_libtelux_data
-Wl,--defsym=_ZNSt23_Sp_counted_ptr_inplaceINSt13__future_base17_Async_state_implINSt6thread8_InvokerISt5tupleIJMN5telux4data9QcmClientEFvSt10shared_ptrINS6_9IDataCallEEEPS7_S8_INS6_12DataCallImplEEEEEEvEESaISI_ELN9__gnu_cxx12_Lock_policyE2EE14_M_get_deleterERKSt9type_info=so_stub_for_libtelux_data
-Wl,--defsym=_ZNSt23_Sp_counted_ptr_inplaceINSt13__future_base17_Async_state_implINSt6thread8_InvokerISt5tupleIJMN5telux4data9QcmClientEFvSt10shared_ptrINS6_9IDataCallEEEPS7_S8_INS6_12DataCallImplEEEEEEvEESaISI_ELN9__gnu_cxx12_Lock_policyE2EED0Ev=so_stub_for_libtelux_data
-Wl,--defsym=_ZNSt23_Sp_counted_ptr_inplaceINSt13__future_base17_Async_state_implINSt6thread8_InvokerISt5tupleIJMN5telux4data9QcmClientEFvSt10shared_ptrINS6_9IDataCallEEEPS7_S8_INS6_12DataCallImplEEEEEEvEESaISI_ELN9__gnu_cxx12_Lock_policyE2EED1Ev=so_stub_for_libtelux_data
-Wl,--defsym=_ZNSt23_Sp_counted_ptr_inplaceINSt13__future_base17_Async_state_implINSt6thread8_InvokerISt5tupleIJMN5telux4data9QcmClientEFvSt10shared_ptrINS6_9IDataCallEEEPS7_S8_INS6_12DataCallImplEEEEEEvEESaISI_ELN9__gnu_cxx12_Lock_policyE2EED2Ev=so_stub_for_libtelux_data
-Wl,--defsym=_ZNSt23_Sp_counted_ptr_inplaceISt6atomicIN5telux4data9DrbStatusEESaIS4_ELN9__gnu_cxx12_Lock_policyE2EE10_M_destroyEv=so_stub_for_libtelux_data
-Wl,--defsym=_ZNSt23_Sp_counted_ptr_inplaceISt6atomicIN5telux4data9DrbStatusEESaIS4_ELN9__gnu_cxx12_Lock_policyE2EE10_M_disposeEv=so_stub_for_libtelux_data
-Wl,--defsym=_ZNSt23_Sp_counted_ptr_inplaceISt6atomicIN5telux4data9DrbStatusEESaIS4_ELN9__gnu_cxx12_Lock_policyE2EE14_M_get_deleterERKSt9type_info=so_stub_for_libtelux_data
-Wl,--defsym=_ZNSt23_Sp_counted_ptr_inplaceISt6atomicIN5telux4data9DrbStatusEESaIS4_ELN9__gnu_cxx12_Lock_policyE2EED0Ev=so_stub_for_libtelux_data
-Wl,--defsym=_ZNSt23_Sp_counted_ptr_inplaceISt6atomicIN5telux4data9DrbStatusEESaIS4_ELN9__gnu_cxx12_Lock_policyE2EED1Ev=so_stub_for_libtelux_data
-Wl,--defsym=_ZNSt23_Sp_counted_ptr_inplaceISt6atomicIN5telux4data9DrbStatusEESaIS4_ELN9__gnu_cxx12_Lock_policyE2EED2Ev=so_stub_for_libtelux_data
-Wl,--defsym=_ZNSt23_Sp_counted_ptr_inplaceISt6threadSaIS0_ELN9__gnu_cxx12_Lock_policyE2EE10_M_destroyEv=so_stub_for_libtelux_data
-Wl,--defsym=_ZNSt23_Sp_counted_ptr_inplaceISt6threadSaIS0_ELN9__gnu_cxx12_Lock_policyE2EE10_M_disposeEv=so_stub_for_libtelux_data
-Wl,--defsym=_ZNSt23_Sp_counted_ptr_inplaceISt6threadSaIS0_ELN9__gnu_cxx12_Lock_policyE2EE14_M_get_deleterERKSt9type_info=so_stub_for_libtelux_data
-Wl,--defsym=_ZNSt23_Sp_counted_ptr_inplaceISt6threadSaIS0_ELN9__gnu_cxx12_Lock_policyE2EED0Ev=so_stub_for_libtelux_data
-Wl,--defsym=_ZNSt23_Sp_counted_ptr_inplaceISt6threadSaIS0_ELN9__gnu_cxx12_Lock_policyE2EED1Ev=so_stub_for_libtelux_data
-Wl,--defsym=_ZNSt23_Sp_counted_ptr_inplaceISt6threadSaIS0_ELN9__gnu_cxx12_Lock_policyE2EED2Ev=so_stub_for_libtelux_data
-Wl,--defsym=_ZNSt3mapI13dsi_net_evt_tNSt7__cxx1112basic_stringIcSt11char_traitsIcESaIcEEESt4lessIS0_ESaISt4pairIKS0_S6_EEED1Ev=so_stub_for_libtelux_data
-Wl,--defsym=_ZNSt3mapI13dsi_net_evt_tNSt7__cxx1112basic_stringIcSt11char_traitsIcESaIcEEESt4lessIS0_ESaISt4pairIKS0_S6_EEED2Ev=so_stub_for_libtelux_data
-Wl,--defsym=_ZNSt3mapI18dsi_v2x_err_type_tNSt7__cxx1112basic_stringIcSt11char_traitsIcESaIcEEESt4lessIS0_ESaISt4pairIKS0_S6_EEED1Ev=so_stub_for_libtelux_data
-Wl,--defsym=_ZNSt3mapI18dsi_v2x_err_type_tNSt7__cxx1112basic_stringIcSt11char_traitsIcESaIcEEESt4lessIS0_ESaISt4pairIKS0_S6_EEED2Ev=so_stub_for_libtelux_data
-Wl,--defsym=_ZNSt3mapI18dsi_v2x_err_type_tNSt7__cxx1112basic_stringIcSt11char_traitsIcESaIcEEESt4lessIS0_ESaISt4pairIKS0_S6_EEEixEOS0_=so_stub_for_libtelux_data
-Wl,--defsym=_ZNSt3mapI18dsi_v2x_err_type_tNSt7__cxx1112basic_stringIcSt11char_traitsIcESaIcEEESt4lessIS0_ESaISt4pairIKS0_S6_EEEixERSA_=so_stub_for_libtelux_data
-Wl,--defsym=_ZNSt3mapI6SlotIdSt6vectorISt8functionIFvN5telux6common13ServiceStatusEEESaIS7_EESt4lessIS0_ESaISt4pairIKS0_S9_EEEixERSD_=so_stub_for_libtelux_data
-Wl,--defsym=_ZNSt3mapI6SlotIdSt8weak_ptrIN5telux4data17IKeepAliveManagerEESt4lessIS0_ESaISt4pairIKS0_S5_EEEixERS9_=so_stub_for_libtelux_data
-Wl,--defsym=_ZNSt3mapI6SlotIdSt8weak_ptrIN5telux4data18IDataFilterManagerEESt4lessIS0_ESaISt4pairIKS0_S5_EEEixERS9_=so_stub_for_libtelux_data
-Wl,--defsym=_ZNSt3mapI6SlotIdSt8weak_ptrIN5telux4data19IDataProfileManagerEESt4lessIS0_ESaISt4pairIKS0_S5_EEEixERS9_=so_stub_for_libtelux_data
-Wl,--defsym=_ZNSt3mapI6SlotIdSt8weak_ptrIN5telux4data21IServingSystemManagerEESt4lessIS0_ESaISt4pairIKS0_S5_EEEixERS9_=so_stub_for_libtelux_data
-Wl,--defsym=_ZNSt3mapI6SlotIdSt8weak_ptrIN5telux4data22IDataConnectionManagerEESt4lessIS0_ESaISt4pairIKS0_S5_EEEixERS9_=so_stub_for_libtelux_data
-Wl,--defsym=_ZNSt3mapIN5telux4data13OperationTypeEbSt4lessIS2_ESaISt4pairIKS2_bEEEixEOS2_=so_stub_for_libtelux_data
-Wl,--defsym=_ZNSt3mapIN5telux4data13OperationTypeEbSt4lessIS2_ESaISt4pairIKS2_bEEEixERS6_=so_stub_for_libtelux_data
-Wl,--defsym=_ZNSt3mapIN5telux4data13OperationTypeESt6vectorISt8functionIFvNS0_6common13ServiceStatusEEESaIS8_EESt4lessIS2_ESaISt4pairIKS2_SA_EEEixERSE_=so_stub_for_libtelux_data
-Wl,--defsym=_ZNSt3mapIN5telux4data13OperationTypeESt8weak_ptrINS1_20IDataSettingsManagerEESt4lessIS2_ESaISt4pairIKS2_S5_EEEixERS9_=so_stub_for_libtelux_data
-Wl,--defsym=_ZNSt3mapIN5telux4data13OperationTypeESt8weak_ptrINS1_3net11INatManagerEESt4lessIS2_ESaISt4pairIKS2_S6_EEEixERSA_=so_stub_for_libtelux_data
-Wl,--defsym=_ZNSt3mapIN5telux4data13OperationTypeESt8weak_ptrINS1_3net12IVlanManagerEESt4lessIS2_ESaISt4pairIKS2_S6_EEEixERSA_=so_stub_for_libtelux_data
-Wl,--defsym=_ZNSt3mapIN5telux4data13OperationTypeESt8weak_ptrINS1_3net13ISocksManagerEESt4lessIS2_ESaISt4pairIKS2_S6_EEEixERSA_=so_stub_for_libtelux_data
-Wl,--defsym=_ZNSt3mapIN5telux4data13OperationTypeESt8weak_ptrINS1_3net16IFirewallManagerEESt4lessIS2_ESaISt4pairIKS2_S6_EEEixERSA_=so_stub_for_libtelux_data
-Wl,--defsym=_ZNSt5dequeISt13shared_futureIvESaIS1_EE13_M_insert_auxISt15_Deque_iteratorIS1_RKS1_PS6_EEEvS5_IS1_RS1_PS1_ET_SD_m=so_stub_for_libtelux_data
-Wl,--defsym=_ZNSt5dequeISt13shared_futureIvESaIS1_EE15_M_erase_at_endESt15_Deque_iteratorIS1_RS1_PS1_E=so_stub_for_libtelux_data
-Wl,--defsym=_ZNSt5dequeISt13shared_futureIvESaIS1_EE16_M_pop_front_auxEv=so_stub_for_libtelux_data
-Wl,--defsym=_ZNSt5dequeISt13shared_futureIvESaIS1_EE16_M_push_back_auxIJRKS1_EEEvDpOT_=so_stub_for_libtelux_data
-Wl,--defsym=_ZNSt5dequeISt13shared_futureIvESaIS1_EE17_M_reallocate_mapEmb=so_stub_for_libtelux_data
-Wl,--defsym=_ZNSt5dequeISt13shared_futureIvESaIS1_EE19_M_destroy_data_auxESt15_Deque_iteratorIS1_RS1_PS1_ES7_=so_stub_for_libtelux_data
-Wl,--defsym=_ZNSt5dequeISt13shared_futureIvESaIS1_EE19_M_range_insert_auxISt15_Deque_iteratorIS1_RKS1_PS6_EEEvS5_IS1_RS1_PS1_ET_SD_St20forward_iterator_tag=so_stub_for_libtelux_data
-Wl,--defsym=_ZNSt5dequeISt13shared_futureIvESaIS1_EE23_M_new_elements_at_backEm=so_stub_for_libtelux_data
-Wl,--defsym=_ZNSt5dequeISt13shared_futureIvESaIS1_EE24_M_new_elements_at_frontEm=so_stub_for_libtelux_data
-Wl,--defsym=_ZNSt5dequeISt13shared_futureIvESaIS1_EE8_M_eraseESt15_Deque_iteratorIS1_RS1_PS1_E=so_stub_for_libtelux_data
-Wl,--defsym=_ZNSt5dequeISt13shared_futureIvESaIS1_EE9push_backERKS1_=so_stub_for_libtelux_data
-Wl,--defsym=_ZNSt5dequeISt13shared_futureIvESaIS1_EEaSERKS3_=so_stub_for_libtelux_data
-Wl,--defsym=_ZNSt5dequeISt13shared_futureIvESaIS1_EED1Ev=so_stub_for_libtelux_data
-Wl,--defsym=_ZNSt5dequeISt13shared_futureIvESaIS1_EED2Ev=so_stub_for_libtelux_data
-Wl,--defsym=_ZNSt6futureI18dsi_v2x_ind_info_tE3getEv=so_stub_for_libtelux_data
-Wl,--defsym=_ZNSt6futureIbE3getEv=so_stub_for_libtelux_data
-Wl,--defsym=_ZNSt6futureIN5telux6common9ErrorCodeEE3getEv=so_stub_for_libtelux_data
-Wl,--defsym=_ZNSt6thread11_State_implINS_8_InvokerISt5tupleIJMN5telux6common14AsyncTaskQueueIvEEFvvEPS6_EEEEE6_M_runEv=so_stub_for_libtelux_data
-Wl,--defsym=_ZNSt6thread11_State_implINS_8_InvokerISt5tupleIJMN5telux6common14AsyncTaskQueueIvEEFvvEPS6_EEEEED0Ev=so_stub_for_libtelux_data
-Wl,--defsym=_ZNSt6thread11_State_implINS_8_InvokerISt5tupleIJMN5telux6common14AsyncTaskQueueIvEEFvvEPS6_EEEEED1Ev=so_stub_for_libtelux_data
-Wl,--defsym=_ZNSt6thread11_State_implINS_8_InvokerISt5tupleIJMN5telux6common14AsyncTaskQueueIvEEFvvEPS6_EEEEED2Ev=so_stub_for_libtelux_data
-Wl,--defsym=_ZNSt6thread11_State_implINS_8_InvokerISt5tupleIJMNSt13__future_base17_Async_state_implINS1_IS2_IJMN5telux4data9QcmClientEFvSt10shared_ptrINS6_9IDataCallEEEPS7_S8_INS6_12DataCallImplEEEEEEvEEFvvEPSI_EEEEE6_M_runEv=so_stub_for_libtelux_data
-Wl,--defsym=_ZNSt6thread11_State_implINS_8_InvokerISt5tupleIJMNSt13__future_base17_Async_state_implINS1_IS2_IJMN5telux4data9QcmClientEFvSt10shared_ptrINS6_9IDataCallEEEPS7_S8_INS6_12DataCallImplEEEEEEvEEFvvEPSI_EEEEED0Ev=so_stub_for_libtelux_data
-Wl,--defsym=_ZNSt6thread11_State_implINS_8_InvokerISt5tupleIJMNSt13__future_base17_Async_state_implINS1_IS2_IJMN5telux4data9QcmClientEFvSt10shared_ptrINS6_9IDataCallEEEPS7_S8_INS6_12DataCallImplEEEEEEvEEFvvEPSI_EEEEED1Ev=so_stub_for_libtelux_data
-Wl,--defsym=_ZNSt6thread11_State_implINS_8_InvokerISt5tupleIJMNSt13__future_base17_Async_state_implINS1_IS2_IJMN5telux4data9QcmClientEFvSt10shared_ptrINS6_9IDataCallEEEPS7_S8_INS6_12DataCallImplEEEEEEvEEFvvEPSI_EEEEED2Ev=so_stub_for_libtelux_data
-Wl,--defsym=_ZNSt6thread11_State_implINS_8_InvokerISt5tupleIJZN5telux6common13FactoryHelper10getManagerINS3_4data16IDataLinkManagerEEESt10shared_ptrIT_ENSt7__cxx1112basic_stringIcSt11char_traitsIcESaIcEEERSt8weak_ptrISA_ERSt6vectorISt8functionIFvNS4_13ServiceStatusEEESaISP_EESP_SM_IFSB_SP_EEEUlvE_EEEEE6_M_runEv=so_stub_for_libtelux_data
-Wl,--defsym=_ZNSt6thread11_State_implINS_8_InvokerISt5tupleIJZN5telux6common13FactoryHelper10getManagerINS3_4data16IDataLinkManagerEEESt10shared_ptrIT_ENSt7__cxx1112basic_stringIcSt11char_traitsIcESaIcEEERSt8weak_ptrISA_ERSt6vectorISt8functionIFvNS4_13ServiceStatusEEESaISP_EESP_SM_IFSB_SP_EEEUlvE_EEEEED0Ev=so_stub_for_libtelux_data
-Wl,--defsym=_ZNSt6thread11_State_implINS_8_InvokerISt5tupleIJZN5telux6common13FactoryHelper10getManagerINS3_4data16IDataLinkManagerEEESt10shared_ptrIT_ENSt7__cxx1112basic_stringIcSt11char_traitsIcESaIcEEERSt8weak_ptrISA_ERSt6vectorISt8functionIFvNS4_13ServiceStatusEEESaISP_EESP_SM_IFSB_SP_EEEUlvE_EEEEED1Ev=so_stub_for_libtelux_data
-Wl,--defsym=_ZNSt6thread11_State_implINS_8_InvokerISt5tupleIJZN5telux6common13FactoryHelper10getManagerINS3_4data16IDataLinkManagerEEESt10shared_ptrIT_ENSt7__cxx1112basic_stringIcSt11char_traitsIcESaIcEEERSt8weak_ptrISA_ERSt6vectorISt8functionIFvNS4_13ServiceStatusEEESaISP_EESP_SM_IFSB_SP_EEEUlvE_EEEEED2Ev=so_stub_for_libtelux_data
-Wl,--defsym=_ZNSt6thread11_State_implINS_8_InvokerISt5tupleIJZN5telux6common13FactoryHelper10getManagerINS3_4data16IDualDataManagerEEESt10shared_ptrIT_ENSt7__cxx1112basic_stringIcSt11char_traitsIcESaIcEEERSt8weak_ptrISA_ERSt6vectorISt8functionIFvNS4_13ServiceStatusEEESaISP_EESP_SM_IFSB_SP_EEEUlvE_EEEEE6_M_runEv=so_stub_for_libtelux_data
-Wl,--defsym=_ZNSt6thread11_State_implINS_8_InvokerISt5tupleIJZN5telux6common13FactoryHelper10getManagerINS3_4data16IDualDataManagerEEESt10shared_ptrIT_ENSt7__cxx1112basic_stringIcSt11char_traitsIcESaIcEEERSt8weak_ptrISA_ERSt6vectorISt8functionIFvNS4_13ServiceStatusEEESaISP_EESP_SM_IFSB_SP_EEEUlvE_EEEEED0Ev=so_stub_for_libtelux_data
-Wl,--defsym=_ZNSt6thread11_State_implINS_8_InvokerISt5tupleIJZN5telux6common13FactoryHelper10getManagerINS3_4data16IDualDataManagerEEESt10shared_ptrIT_ENSt7__cxx1112basic_stringIcSt11char_traitsIcESaIcEEERSt8weak_ptrISA_ERSt6vectorISt8functionIFvNS4_13ServiceStatusEEESaISP_EESP_SM_IFSB_SP_EEEUlvE_EEEEED1Ev=so_stub_for_libtelux_data
-Wl,--defsym=_ZNSt6thread11_State_implINS_8_InvokerISt5tupleIJZN5telux6common13FactoryHelper10getManagerINS3_4data16IDualDataManagerEEESt10shared_ptrIT_ENSt7__cxx1112basic_stringIcSt11char_traitsIcESaIcEEERSt8weak_ptrISA_ERSt6vectorISt8functionIFvNS4_13ServiceStatusEEESaISP_EESP_SM_IFSB_SP_EEEUlvE_EEEEED2Ev=so_stub_for_libtelux_data
-Wl,--defsym=_ZNSt6thread11_State_implINS_8_InvokerISt5tupleIJZN5telux6common13FactoryHelper10getManagerINS3_4data17IKeepAliveManagerEEESt10shared_ptrIT_ENSt7__cxx1112basic_stringIcSt11char_traitsIcESaIcEEERSt8weak_ptrISA_ERSt6vectorISt8functionIFvNS4_13ServiceStatusEEESaISP_EESP_SM_IFSB_SP_EEEUlvE_EEEEE6_M_runEv=so_stub_for_libtelux_data
-Wl,--defsym=_ZNSt6thread11_State_implINS_8_InvokerISt5tupleIJZN5telux6common13FactoryHelper10getManagerINS3_4data17IKeepAliveManagerEEESt10shared_ptrIT_ENSt7__cxx1112basic_stringIcSt11char_traitsIcESaIcEEERSt8weak_ptrISA_ERSt6vectorISt8functionIFvNS4_13ServiceStatusEEESaISP_EESP_SM_IFSB_SP_EEEUlvE_EEEEED0Ev=so_stub_for_libtelux_data
-Wl,--defsym=_ZNSt6thread11_State_implINS_8_InvokerISt5tupleIJZN5telux6common13FactoryHelper10getManagerINS3_4data17IKeepAliveManagerEEESt10shared_ptrIT_ENSt7__cxx1112basic_stringIcSt11char_traitsIcESaIcEEERSt8weak_ptrISA_ERSt6vectorISt8functionIFvNS4_13ServiceStatusEEESaISP_EESP_SM_IFSB_SP_EEEUlvE_EEEEED1Ev=so_stub_for_libtelux_data
-Wl,--defsym=_ZNSt6thread11_State_implINS_8_InvokerISt5tupleIJZN5telux6common13FactoryHelper10getManagerINS3_4data17IKeepAliveManagerEEESt10shared_ptrIT_ENSt7__cxx1112basic_stringIcSt11char_traitsIcESaIcEEERSt8weak_ptrISA_ERSt6vectorISt8functionIFvNS4_13ServiceStatusEEESaISP_EESP_SM_IFSB_SP_EEEUlvE_EEEEED2Ev=so_stub_for_libtelux_data
-Wl,--defsym=_ZNSt6thread11_State_implINS_8_InvokerISt5tupleIJZN5telux6common13FactoryHelper10getManagerINS3_4data19IDataControlManagerEEESt10shared_ptrIT_ENSt7__cxx1112basic_stringIcSt11char_traitsIcESaIcEEERSt8weak_ptrISA_ERSt6vectorISt8functionIFvNS4_13ServiceStatusEEESaISP_EESP_SM_IFSB_SP_EEEUlvE_EEEEE6_M_runEv=so_stub_for_libtelux_data
-Wl,--defsym=_ZNSt6thread11_State_implINS_8_InvokerISt5tupleIJZN5telux6common13FactoryHelper10getManagerINS3_4data19IDataControlManagerEEESt10shared_ptrIT_ENSt7__cxx1112basic_stringIcSt11char_traitsIcESaIcEEERSt8weak_ptrISA_ERSt6vectorISt8functionIFvNS4_13ServiceStatusEEESaISP_EESP_SM_IFSB_SP_EEEUlvE_EEEEED0Ev=so_stub_for_libtelux_data
-Wl,--defsym=_ZNSt6thread11_State_implINS_8_InvokerISt5tupleIJZN5telux6common13FactoryHelper10getManagerINS3_4data19IDataControlManagerEEESt10shared_ptrIT_ENSt7__cxx1112basic_stringIcSt11char_traitsIcESaIcEEERSt8weak_ptrISA_ERSt6vectorISt8functionIFvNS4_13ServiceStatusEEESaISP_EESP_SM_IFSB_SP_EEEUlvE_EEEEED1Ev=so_stub_for_libtelux_data
-Wl,--defsym=_ZNSt6thread11_State_implINS_8_InvokerISt5tupleIJZN5telux6common13FactoryHelper10getManagerINS3_4data19IDataControlManagerEEESt10shared_ptrIT_ENSt7__cxx1112basic_stringIcSt11char_traitsIcESaIcEEERSt8weak_ptrISA_ERSt6vectorISt8functionIFvNS4_13ServiceStatusEEESaISP_EESP_SM_IFSB_SP_EEEUlvE_EEEEED2Ev=so_stub_for_libtelux_data
-Wl,--defsym=_ZNSt6thread11_State_implINS_8_InvokerISt5tupleIJZN5telux6common13FactoryHelper10getManagerINS3_4data22IDataConnectionManagerEEESt10shared_ptrIT_ENSt7__cxx1112basic_stringIcSt11char_traitsIcESaIcEEERSt8weak_ptrISA_ERSt6vectorISt8functionIFvNS4_13ServiceStatusEEESaISP_EESP_SM_IFSB_SP_EEEUlvE_EEEEE6_M_runEv=so_stub_for_libtelux_data
-Wl,--defsym=_ZNSt6thread11_State_implINS_8_InvokerISt5tupleIJZN5telux6common13FactoryHelper10getManagerINS3_4data22IDataConnectionManagerEEESt10shared_ptrIT_ENSt7__cxx1112basic_stringIcSt11char_traitsIcESaIcEEERSt8weak_ptrISA_ERSt6vectorISt8functionIFvNS4_13ServiceStatusEEESaISP_EESP_SM_IFSB_SP_EEEUlvE_EEEEED0Ev=so_stub_for_libtelux_data
-Wl,--defsym=_ZNSt6thread11_State_implINS_8_InvokerISt5tupleIJZN5telux6common13FactoryHelper10getManagerINS3_4data22IDataConnectionManagerEEESt10shared_ptrIT_ENSt7__cxx1112basic_stringIcSt11char_traitsIcESaIcEEERSt8weak_ptrISA_ERSt6vectorISt8functionIFvNS4_13ServiceStatusEEESaISP_EESP_SM_IFSB_SP_EEEUlvE_EEEEED1Ev=so_stub_for_libtelux_data
-Wl,--defsym=_ZNSt6thread11_State_implINS_8_InvokerISt5tupleIJZN5telux6common13FactoryHelper10getManagerINS3_4data22IDataConnectionManagerEEESt10shared_ptrIT_ENSt7__cxx1112basic_stringIcSt11char_traitsIcESaIcEEERSt8weak_ptrISA_ERSt6vectorISt8functionIFvNS4_13ServiceStatusEEESaISP_EESP_SM_IFSB_SP_EEEUlvE_EEEEED2Ev=so_stub_for_libtelux_data
-Wl,--defsym=_ZNSt6thread11_State_implINS_8_InvokerISt5tupleIJZN5telux6common13FactoryHelper10getManagerINS3_4data3net11INatManagerEEESt10shared_ptrIT_ENSt7__cxx1112basic_stringIcSt11char_traitsIcESaIcEEERSt8weak_ptrISB_ERSt6vectorISt8functionIFvNS4_13ServiceStatusEEESaISQ_EESQ_SN_IFSC_SQ_EEEUlvE_EEEEE6_M_runEv=so_stub_for_libtelux_data
-Wl,--defsym=_ZNSt6thread11_State_implINS_8_InvokerISt5tupleIJZN5telux6common13FactoryHelper10getManagerINS3_4data3net11INatManagerEEESt10shared_ptrIT_ENSt7__cxx1112basic_stringIcSt11char_traitsIcESaIcEEERSt8weak_ptrISB_ERSt6vectorISt8functionIFvNS4_13ServiceStatusEEESaISQ_EESQ_SN_IFSC_SQ_EEEUlvE_EEEEED0Ev=so_stub_for_libtelux_data
-Wl,--defsym=_ZNSt6thread11_State_implINS_8_InvokerISt5tupleIJZN5telux6common13FactoryHelper10getManagerINS3_4data3net11INatManagerEEESt10shared_ptrIT_ENSt7__cxx1112basic_stringIcSt11char_traitsIcESaIcEEERSt8weak_ptrISB_ERSt6vectorISt8functionIFvNS4_13ServiceStatusEEESaISQ_EESQ_SN_IFSC_SQ_EEEUlvE_EEEEED1Ev=so_stub_for_libtelux_data
-Wl,--defsym=_ZNSt6thread11_State_implINS_8_InvokerISt5tupleIJZN5telux6common13FactoryHelper10getManagerINS3_4data3net11INatManagerEEESt10shared_ptrIT_ENSt7__cxx1112basic_stringIcSt11char_traitsIcESaIcEEERSt8weak_ptrISB_ERSt6vectorISt8functionIFvNS4_13ServiceStatusEEESaISQ_EESQ_SN_IFSC_SQ_EEEUlvE_EEEEED2Ev=so_stub_for_libtelux_data
-Wl,--defsym=_ZNSt6thread11_State_implINS_8_InvokerISt5tupleIJZN5telux6common13FactoryHelper10getManagerINS3_4data3net11IQoSManagerEEESt10shared_ptrIT_ENSt7__cxx1112basic_stringIcSt11char_traitsIcESaIcEEERSt8weak_ptrISB_ERSt6vectorISt8functionIFvNS4_13ServiceStatusEEESaISQ_EESQ_SN_IFSC_SQ_EEEUlvE_EEEEE6_M_runEv=so_stub_for_libtelux_data
-Wl,--defsym=_ZNSt6thread11_State_implINS_8_InvokerISt5tupleIJZN5telux6common13FactoryHelper10getManagerINS3_4data3net11IQoSManagerEEESt10shared_ptrIT_ENSt7__cxx1112basic_stringIcSt11char_traitsIcESaIcEEERSt8weak_ptrISB_ERSt6vectorISt8functionIFvNS4_13ServiceStatusEEESaISQ_EESQ_SN_IFSC_SQ_EEEUlvE_EEEEED0Ev=so_stub_for_libtelux_data
-Wl,--defsym=_ZNSt6thread11_State_implINS_8_InvokerISt5tupleIJZN5telux6common13FactoryHelper10getManagerINS3_4data3net11IQoSManagerEEESt10shared_ptrIT_ENSt7__cxx1112basic_stringIcSt11char_traitsIcESaIcEEERSt8weak_ptrISB_ERSt6vectorISt8functionIFvNS4_13ServiceStatusEEESaISQ_EESQ_SN_IFSC_SQ_EEEUlvE_EEEEED1Ev=so_stub_for_libtelux_data
-Wl,--defsym=_ZNSt6thread11_State_implINS_8_InvokerISt5tupleIJZN5telux6common13FactoryHelper10getManagerINS3_4data3net11IQoSManagerEEESt10shared_ptrIT_ENSt7__cxx1112basic_stringIcSt11char_traitsIcESaIcEEERSt8weak_ptrISB_ERSt6vectorISt8functionIFvNS4_13ServiceStatusEEESaISQ_EESQ_SN_IFSC_SQ_EEEUlvE_EEEEED2Ev=so_stub_for_libtelux_data
-Wl,--defsym=_ZNSt6threadC1IMN5telux6common14AsyncTaskQueueIvEEFvvEJPS4_EvEEOT_DpOT0_=so_stub_for_libtelux_data
-Wl,--defsym=_ZNSt6threadC1IMNSt13__future_base17_Async_state_implINS_8_InvokerISt5tupleIJMN5telux4data9QcmClientEFvSt10shared_ptrINS6_9IDataCallEEEPS7_S8_INS6_12DataCallImplEEEEEEvEEFvvEJPSI_EvEEOT_DpOT0_=so_stub_for_libtelux_data
-Wl,--defsym=_ZNSt6threadC1IZN5telux6common13FactoryHelper10getManagerINS1_4data16IDataLinkManagerEEESt10shared_ptrIT_ENSt7__cxx1112basic_stringIcSt11char_traitsIcESaIcEEERSt8weak_ptrIS8_ERSt6vectorISt8functionIFvNS2_13ServiceStatusEEESaISN_EESN_SK_IFS9_SN_EEEUlvE_JEvEEOS8_DpOT0_=so_stub_for_libtelux_data
-Wl,--defsym=_ZNSt6threadC1IZN5telux6common13FactoryHelper10getManagerINS1_4data16IDualDataManagerEEESt10shared_ptrIT_ENSt7__cxx1112basic_stringIcSt11char_traitsIcESaIcEEERSt8weak_ptrIS8_ERSt6vectorISt8functionIFvNS2_13ServiceStatusEEESaISN_EESN_SK_IFS9_SN_EEEUlvE_JEvEEOS8_DpOT0_=so_stub_for_libtelux_data
-Wl,--defsym=_ZNSt6threadC1IZN5telux6common13FactoryHelper10getManagerINS1_4data17IKeepAliveManagerEEESt10shared_ptrIT_ENSt7__cxx1112basic_stringIcSt11char_traitsIcESaIcEEERSt8weak_ptrIS8_ERSt6vectorISt8functionIFvNS2_13ServiceStatusEEESaISN_EESN_SK_IFS9_SN_EEEUlvE_JEvEEOS8_DpOT0_=so_stub_for_libtelux_data
-Wl,--defsym=_ZNSt6threadC1IZN5telux6common13FactoryHelper10getManagerINS1_4data19IDataControlManagerEEESt10shared_ptrIT_ENSt7__cxx1112basic_stringIcSt11char_traitsIcESaIcEEERSt8weak_ptrIS8_ERSt6vectorISt8functionIFvNS2_13ServiceStatusEEESaISN_EESN_SK_IFS9_SN_EEEUlvE_JEvEEOS8_DpOT0_=so_stub_for_libtelux_data
-Wl,--defsym=_ZNSt6threadC1IZN5telux6common13FactoryHelper10getManagerINS1_4data22IDataConnectionManagerEEESt10shared_ptrIT_ENSt7__cxx1112basic_stringIcSt11char_traitsIcESaIcEEERSt8weak_ptrIS8_ERSt6vectorISt8functionIFvNS2_13ServiceStatusEEESaISN_EESN_SK_IFS9_SN_EEEUlvE_JEvEEOS8_DpOT0_=so_stub_for_libtelux_data
-Wl,--defsym=_ZNSt6threadC1IZN5telux6common13FactoryHelper10getManagerINS1_4data3net11INatManagerEEESt10shared_ptrIT_ENSt7__cxx1112basic_stringIcSt11char_traitsIcESaIcEEERSt8weak_ptrIS9_ERSt6vectorISt8functionIFvNS2_13ServiceStatusEEESaISO_EESO_SL_IFSA_SO_EEEUlvE_JEvEEOS9_DpOT0_=so_stub_for_libtelux_data
-Wl,--defsym=_ZNSt6threadC1IZN5telux6common13FactoryHelper10getManagerINS1_4data3net11IQoSManagerEEESt10shared_ptrIT_ENSt7__cxx1112basic_stringIcSt11char_traitsIcESaIcEEERSt8weak_ptrIS9_ERSt6vectorISt8functionIFvNS2_13ServiceStatusEEESaISO_EESO_SL_IFSA_SO_EEEUlvE_JEvEEOS9_DpOT0_=so_stub_for_libtelux_data
-Wl,--defsym=_ZNSt6threadC2IMN5telux6common14AsyncTaskQueueIvEEFvvEJPS4_EvEEOT_DpOT0_=so_stub_for_libtelux_data
-Wl,--defsym=_ZNSt6threadC2IMNSt13__future_base17_Async_state_implINS_8_InvokerISt5tupleIJMN5telux4data9QcmClientEFvSt10shared_ptrINS6_9IDataCallEEEPS7_S8_INS6_12DataCallImplEEEEEEvEEFvvEJPSI_EvEEOT_DpOT0_=so_stub_for_libtelux_data
-Wl,--defsym=_ZNSt6threadC2IZN5telux6common13FactoryHelper10getManagerINS1_4data16IDataLinkManagerEEESt10shared_ptrIT_ENSt7__cxx1112basic_stringIcSt11char_traitsIcESaIcEEERSt8weak_ptrIS8_ERSt6vectorISt8functionIFvNS2_13ServiceStatusEEESaISN_EESN_SK_IFS9_SN_EEEUlvE_JEvEEOS8_DpOT0_=so_stub_for_libtelux_data
-Wl,--defsym=_ZNSt6threadC2IZN5telux6common13FactoryHelper10getManagerINS1_4data16IDualDataManagerEEESt10shared_ptrIT_ENSt7__cxx1112basic_stringIcSt11char_traitsIcESaIcEEERSt8weak_ptrIS8_ERSt6vectorISt8functionIFvNS2_13ServiceStatusEEESaISN_EESN_SK_IFS9_SN_EEEUlvE_JEvEEOS8_DpOT0_=so_stub_for_libtelux_data
-Wl,--defsym=_ZNSt6threadC2IZN5telux6common13FactoryHelper10getManagerINS1_4data17IKeepAliveManagerEEESt10shared_ptrIT_ENSt7__cxx1112basic_stringIcSt11char_traitsIcESaIcEEERSt8weak_ptrIS8_ERSt6vectorISt8functionIFvNS2_13ServiceStatusEEESaISN_EESN_SK_IFS9_SN_EEEUlvE_JEvEEOS8_DpOT0_=so_stub_for_libtelux_data
-Wl,--defsym=_ZNSt6threadC2IZN5telux6common13FactoryHelper10getManagerINS1_4data19IDataControlManagerEEESt10shared_ptrIT_ENSt7__cxx1112basic_stringIcSt11char_traitsIcESaIcEEERSt8weak_ptrIS8_ERSt6vectorISt8functionIFvNS2_13ServiceStatusEEESaISN_EESN_SK_IFS9_SN_EEEUlvE_JEvEEOS8_DpOT0_=so_stub_for_libtelux_data
-Wl,--defsym=_ZNSt6threadC2IZN5telux6common13FactoryHelper10getManagerINS1_4data22IDataConnectionManagerEEESt10shared_ptrIT_ENSt7__cxx1112basic_stringIcSt11char_traitsIcESaIcEEERSt8weak_ptrIS8_ERSt6vectorISt8functionIFvNS2_13ServiceStatusEEESaISN_EESN_SK_IFS9_SN_EEEUlvE_JEvEEOS8_DpOT0_=so_stub_for_libtelux_data
-Wl,--defsym=_ZNSt6threadC2IZN5telux6common13FactoryHelper10getManagerINS1_4data3net11INatManagerEEESt10shared_ptrIT_ENSt7__cxx1112basic_stringIcSt11char_traitsIcESaIcEEERSt8weak_ptrIS9_ERSt6vectorISt8functionIFvNS2_13ServiceStatusEEESaISO_EESO_SL_IFSA_SO_EEEUlvE_JEvEEOS9_DpOT0_=so_stub_for_libtelux_data
-Wl,--defsym=_ZNSt6threadC2IZN5telux6common13FactoryHelper10getManagerINS1_4data3net11IQoSManagerEEESt10shared_ptrIT_ENSt7__cxx1112basic_stringIcSt11char_traitsIcESaIcEEERSt8weak_ptrIS9_ERSt6vectorISt8functionIFvNS2_13ServiceStatusEEESaISO_EESO_SL_IFSA_SO_EEEUlvE_JEvEEOS9_DpOT0_=so_stub_for_libtelux_data
-Wl,--defsym=_ZNSt6vectorIhSaIhEE12emplace_backIJRKhEEEvDpOT_=so_stub_for_libtelux_data
-Wl,--defsym=_ZNSt6vectorIhSaIhEE17_M_realloc_insertIJRKhEEEvN9__gnu_cxx17__normal_iteratorIPhS1_EEDpOT_=so_stub_for_libtelux_data
-Wl,--defsym=_ZNSt6vectorIhSaIhEE19_M_range_initializeIPKhEEvT_S5_St20forward_iterator_tag=so_stub_for_libtelux_data
-Wl,--defsym=_ZNSt6vectorIhSaIhEEC1ERKS1_=so_stub_for_libtelux_data
-Wl,--defsym=_ZNSt6vectorIhSaIhEEC2ERKS1_=so_stub_for_libtelux_data
-Wl,--defsym=_ZNSt6vectorIiSaIiEE12emplace_backIJiEEEvDpOT_=so_stub_for_libtelux_data
-Wl,--defsym=_ZNSt6vectorIiSaIiEE17_M_realloc_insertIJiEEEvN9__gnu_cxx17__normal_iteratorIPiS1_EEDpOT_=so_stub_for_libtelux_data
-Wl,--defsym=_ZNSt6vectorIiSaIiEEaSERKS1_=so_stub_for_libtelux_data
-Wl,--defsym=_ZNSt6vectorIiSaIiEEC1ERKS1_=so_stub_for_libtelux_data
-Wl,--defsym=_ZNSt6vectorIiSaIiEEC2ERKS1_=so_stub_for_libtelux_data
-Wl,--defsym=_ZNSt6vectorIN5telux4cv2x19DataSessionSettingsESaIS2_EE17_M_realloc_insertIJRKS2_EEEvN9__gnu_cxx17__normal_iteratorIPS2_S4_EEDpOT_=so_stub_for_libtelux_data
-Wl,--defsym=_ZNSt6vectorIN5telux4data10VlanConfigESaIS2_EE17_M_realloc_insertIJRS2_EEEvN9__gnu_cxx17__normal_iteratorIPS2_S4_EEDpOT_=so_stub_for_libtelux_data
-Wl,--defsym=_ZNSt6vectorIN5telux4data12BackhaulTypeESaIS2_EE12emplace_backIJS2_EEEvDpOT_=so_stub_for_libtelux_data
-Wl,--defsym=_ZNSt6vectorIN5telux4data12BackhaulTypeESaIS2_EE17_M_realloc_insertIJS2_EEEvN9__gnu_cxx17__normal_iteratorIPS2_S4_EEDpOT_=so_stub_for_libtelux_data
-Wl,--defsym=_ZNSt6vectorIN5telux4data12BackhaulTypeESaIS2_EEC1ERKS4_=so_stub_for_libtelux_data
-Wl,--defsym=_ZNSt6vectorIN5telux4data12BackhaulTypeESaIS2_EEC2ERKS4_=so_stub_for_libtelux_data
-Wl,--defsym=_ZNSt6vectorIN5telux4data15APNThrottleInfoESaIS2_EE17_M_realloc_insertIJRKS2_EEEvN9__gnu_cxx17__normal_iteratorIPS2_S4_EEDpOT_=so_stub_for_libtelux_data
-Wl,--defsym=_ZNSt6vectorIN5telux4data15APNThrottleInfoESaIS2_EEC1ERKS4_=so_stub_for_libtelux_data
-Wl,--defsym=_ZNSt6vectorIN5telux4data15APNThrottleInfoESaIS2_EEC2ERKS4_=so_stub_for_libtelux_data
-Wl,--defsym=_ZNSt6vectorIN5telux4data15APNThrottleInfoESaIS2_EED1Ev=so_stub_for_libtelux_data
-Wl,--defsym=_ZNSt6vectorIN5telux4data15APNThrottleInfoESaIS2_EED2Ev=so_stub_for_libtelux_data
-Wl,--defsym=_ZNSt6vectorIN5telux4data15DeviceDataUsageESaIS2_EE17_M_realloc_insertIJRKS2_EEEvN9__gnu_cxx17__normal_iteratorIPS2_S4_EEDpOT_=so_stub_for_libtelux_data
-Wl,--defsym=_ZNSt6vectorIN5telux4data15DeviceDataUsageESaIS2_EE17_M_realloc_insertIJRS2_EEEvN9__gnu_cxx17__normal_iteratorIPS2_S4_EEDpOT_=so_stub_for_libtelux_data
-Wl,--defsym=_ZNSt6vectorIN5telux4data15DeviceDataUsageESaIS2_EE20_M_allocate_and_copyIN9__gnu_cxx17__normal_iteratorIPKS2_S4_EEEEPS2_mT_SC_=so_stub_for_libtelux_data
-Wl,--defsym=_ZNSt6vectorIN5telux4data15DeviceDataUsageESaIS2_EEaSERKS4_=so_stub_for_libtelux_data
-Wl,--defsym=_ZNSt6vectorIN5telux4data15DeviceDataUsageESaIS2_EEC1ERKS4_=so_stub_for_libtelux_data
-Wl,--defsym=_ZNSt6vectorIN5telux4data15DeviceDataUsageESaIS2_EEC2ERKS4_=so_stub_for_libtelux_data
-Wl,--defsym=_ZNSt6vectorIN5telux4data15DeviceDataUsageESaIS2_EED1Ev=so_stub_for_libtelux_data
-Wl,--defsym=_ZNSt6vectorIN5telux4data15DeviceDataUsageESaIS2_EED2Ev=so_stub_for_libtelux_data
-Wl,--defsym=_ZNSt6vectorIN5telux4data3net10BridgeInfoESaIS3_EE17_M_realloc_insertIJRS3_EEEvN9__gnu_cxx17__normal_iteratorIPS3_S5_EEDpOT_=so_stub_for_libtelux_data
-Wl,--defsym=_ZNSt6vectorIN5telux4data3net10BridgeInfoESaIS3_EED1Ev=so_stub_for_libtelux_data
-Wl,--defsym=_ZNSt6vectorIN5telux4data3net10BridgeInfoESaIS3_EED2Ev=so_stub_for_libtelux_data
-Wl,--defsym=_ZNSt6vectorIN5telux4data3net14VlanBindConfigESaIS3_EE17_M_realloc_insertIJRKS3_EEEvN9__gnu_cxx17__normal_iteratorIPS3_S5_EEDpOT_=so_stub_for_libtelux_data
-Wl,--defsym=_ZNSt6vectorIN5telux4data3net14VlanBindConfigESaIS3_EEC1ERKS5_=so_stub_for_libtelux_data
-Wl,--defsym=_ZNSt6vectorIN5telux4data3net14VlanBindConfigESaIS3_EEC2ERKS5_=so_stub_for_libtelux_data
-Wl,--defsym=_ZNSt6vectorIN5telux4data3net16L2tpTunnelConfigESaIS3_EE17_M_realloc_insertIJRS3_EEEvN9__gnu_cxx17__normal_iteratorIPS3_S5_EEDpOT_=so_stub_for_libtelux_data
-Wl,--defsym=_ZNSt6vectorIN5telux4data3net17FirewallEntryInfoESaIS3_EE17_M_realloc_insertIJRKS3_EEEvN9__gnu_cxx17__normal_iteratorIPS3_S5_EEDpOT_=so_stub_for_libtelux_data
-Wl,--defsym=_ZNSt6vectorIN5telux4data3net17FirewallEntryInfoESaIS3_EEC1ERKS5_=so_stub_for_libtelux_data
-Wl,--defsym=_ZNSt6vectorIN5telux4data3net17FirewallEntryInfoESaIS3_EEC2ERKS5_=so_stub_for_libtelux_data
-Wl,--defsym=_ZNSt6vectorIN5telux4data3net17FirewallEntryInfoESaIS3_EED1Ev=so_stub_for_libtelux_data
-Wl,--defsym=_ZNSt6vectorIN5telux4data3net17FirewallEntryInfoESaIS3_EED2Ev=so_stub_for_libtelux_data
-Wl,--defsym=_ZNSt6vectorIN5telux4data3net17L2tpSessionConfigESaIS3_EE17_M_realloc_insertIJRS3_EEEvN9__gnu_cxx17__normal_iteratorIPS3_S5_EEDpOT_=so_stub_for_libtelux_data
-Wl,--defsym=_ZNSt6vectorIN5telux4data3net17L2tpSessionConfigESaIS3_EEC1ERKS5_=so_stub_for_libtelux_data
-Wl,--defsym=_ZNSt6vectorIN5telux4data3net17L2tpSessionConfigESaIS3_EEC2ERKS5_=so_stub_for_libtelux_data
-Wl,--defsym=_ZNSt6vectorIN5telux4data3net21L2tpSessionBindConfigESaIS3_EE17_M_realloc_insertIJRKS3_EEEvN9__gnu_cxx17__normal_iteratorIPS3_S5_EEDpOT_=so_stub_for_libtelux_data
-Wl,--defsym=_ZNSt6vectorIN5telux4data3net21L2tpSessionBindConfigESaIS3_EEC1ERKS5_=so_stub_for_libtelux_data
-Wl,--defsym=_ZNSt6vectorIN5telux4data3net21L2tpSessionBindConfigESaIS3_EEC2ERKS5_=so_stub_for_libtelux_data
-Wl,--defsym=_ZNSt6vectorIN5telux4data3net9DmzConfigESaIS3_EE17_M_realloc_insertIJRKS3_EEEvN9__gnu_cxx17__normal_iteratorIPS3_S5_EEDpOT_=so_stub_for_libtelux_data
-Wl,--defsym=_ZNSt6vectorIN5telux4data3net9DmzConfigESaIS3_EEC1ERKS5_=so_stub_for_libtelux_data
-Wl,--defsym=_ZNSt6vectorIN5telux4data3net9DmzConfigESaIS3_EEC2ERKS5_=so_stub_for_libtelux_data
-Wl,--defsym=_ZNSt6vectorIN5telux4data3net9DmzConfigESaIS3_EED1Ev=so_stub_for_libtelux_data
-Wl,--defsym=_ZNSt6vectorIN5telux4data3net9DmzConfigESaIS3_EED2Ev=so_stub_for_libtelux_data
-Wl,--defsym=_ZNSt6vectorIN5telux4data3net9NatConfigESaIS3_EE12emplace_backIJRS3_EEEvDpOT_=so_stub_for_libtelux_data
-Wl,--defsym=_ZNSt6vectorIN5telux4data3net9NatConfigESaIS3_EE17_M_realloc_insertIJRS3_EEEvN9__gnu_cxx17__normal_iteratorIPS3_S5_EEDpOT_=so_stub_for_libtelux_data
-Wl,--defsym=_ZNSt6vectorIN5telux4data3net9NatConfigESaIS3_EED1Ev=so_stub_for_libtelux_data
-Wl,--defsym=_ZNSt6vectorIN5telux4data3net9NatConfigESaIS3_EED2Ev=so_stub_for_libtelux_data
-Wl,--defsym=_ZNSt6vectorINSt7__cxx1112basic_stringIcSt11char_traitsIcESaIcEEESaIS5_EE12emplace_backIJRS5_EEEvDpOT_=so_stub_for_libtelux_data
-Wl,--defsym=_ZNSt6vectorINSt7__cxx1112basic_stringIcSt11char_traitsIcESaIcEEESaIS5_EE17_M_realloc_insertIJRS5_EEEvN9__gnu_cxx17__normal_iteratorIPS5_S7_EEDpOT_=so_stub_for_libtelux_data
-Wl,--defsym=_ZNSt6vectorINSt7__cxx1112basic_stringIcSt11char_traitsIcESaIcEEESaIS5_EEC1ERKS7_=so_stub_for_libtelux_data
-Wl,--defsym=_ZNSt6vectorINSt7__cxx1112basic_stringIcSt11char_traitsIcESaIcEEESaIS5_EEC2ERKS7_=so_stub_for_libtelux_data
-Wl,--defsym=_ZNSt6vectorINSt7__cxx1112basic_stringIcSt11char_traitsIcESaIcEEESaIS5_EED1Ev=so_stub_for_libtelux_data
-Wl,--defsym=_ZNSt6vectorINSt7__cxx1112basic_stringIcSt11char_traitsIcESaIcEEESaIS5_EED2Ev=so_stub_for_libtelux_data
-Wl,--defsym=_ZNSt6vectorISt10shared_ptrIN5telux4data11DataProfileEESaIS4_EE12emplace_backIJRS4_EEEvDpOT_=so_stub_for_libtelux_data
-Wl,--defsym=_ZNSt6vectorISt10shared_ptrIN5telux4data11DataProfileEESaIS4_EE17_M_realloc_insertIJRKS4_EEEvN9__gnu_cxx17__normal_iteratorIPS4_S6_EEDpOT_=so_stub_for_libtelux_data
-Wl,--defsym=_ZNSt6vectorISt10shared_ptrIN5telux4data11DataProfileEESaIS4_EE17_M_realloc_insertIJRS4_EEEvN9__gnu_cxx17__normal_iteratorIPS4_S6_EEDpOT_=so_stub_for_libtelux_data
-Wl,--defsym=_ZNSt6vectorISt10shared_ptrIN5telux4data11DataProfileEESaIS4_EED1Ev=so_stub_for_libtelux_data
-Wl,--defsym=_ZNSt6vectorISt10shared_ptrIN5telux4data11DataProfileEESaIS4_EED2Ev=so_stub_for_libtelux_data
-Wl,--defsym=_ZNSt6vectorISt10shared_ptrIN5telux4data12DataCallImplEESaIS4_EE12emplace_backIJRS4_EEEvDpOT_=so_stub_for_libtelux_data
-Wl,--defsym=_ZNSt6vectorISt10shared_ptrIN5telux4data12DataCallImplEESaIS4_EE17_M_realloc_insertIJRS4_EEEvN9__gnu_cxx17__normal_iteratorIPS4_S6_EEDpOT_=so_stub_for_libtelux_data
-Wl,--defsym=_ZNSt6vectorISt10shared_ptrIN5telux4data12DataCallImplEESaIS4_EE8_M_eraseEN9__gnu_cxx17__normal_iteratorIPS4_S6_EE=so_stub_for_libtelux_data
-Wl,--defsym=_ZNSt6vectorISt10shared_ptrIN5telux4data12DataCallImplEESaIS4_EED1Ev=so_stub_for_libtelux_data
-Wl,--defsym=_ZNSt6vectorISt10shared_ptrIN5telux4data12DataCallImplEESaIS4_EED2Ev=so_stub_for_libtelux_data
-Wl,--defsym=_ZNSt6vectorISt10shared_ptrIN5telux4data13TftChangeInfoEESaIS4_EE12emplace_backIJRS4_EEEvDpOT_=so_stub_for_libtelux_data
-Wl,--defsym=_ZNSt6vectorISt10shared_ptrIN5telux4data13TftChangeInfoEESaIS4_EE17_M_realloc_insertIJRS4_EEEvN9__gnu_cxx17__normal_iteratorIPS4_S6_EEDpOT_=so_stub_for_libtelux_data
-Wl,--defsym=_ZNSt6vectorISt10shared_ptrIN5telux4data13TftChangeInfoEESaIS4_EEC1ERKS6_=so_stub_for_libtelux_data
-Wl,--defsym=_ZNSt6vectorISt10shared_ptrIN5telux4data13TftChangeInfoEESaIS4_EEC2ERKS6_=so_stub_for_libtelux_data
-Wl,--defsym=_ZNSt6vectorISt10shared_ptrIN5telux4data13TftChangeInfoEESaIS4_EED1Ev=so_stub_for_libtelux_data
-Wl,--defsym=_ZNSt6vectorISt10shared_ptrIN5telux4data13TftChangeInfoEESaIS4_EED2Ev=so_stub_for_libtelux_data
-Wl,--defsym=_ZNSt6vectorISt10shared_ptrIN5telux4data19TrafficFlowTemplateEESaIS4_EE12emplace_backIJRS4_EEEvDpOT_=so_stub_for_libtelux_data
-Wl,--defsym=_ZNSt6vectorISt10shared_ptrIN5telux4data19TrafficFlowTemplateEESaIS4_EE17_M_realloc_insertIJRS4_EEEvN9__gnu_cxx17__normal_iteratorIPS4_S6_EEDpOT_=so_stub_for_libtelux_data
-Wl,--defsym=_ZNSt6vectorISt10shared_ptrIN5telux4data19TrafficFlowTemplateEESaIS4_EEC1ERKS6_=so_stub_for_libtelux_data
-Wl,--defsym=_ZNSt6vectorISt10shared_ptrIN5telux4data19TrafficFlowTemplateEESaIS4_EEC2ERKS6_=so_stub_for_libtelux_data
-Wl,--defsym=_ZNSt6vectorISt10shared_ptrIN5telux4data19TrafficFlowTemplateEESaIS4_EED1Ev=so_stub_for_libtelux_data
-Wl,--defsym=_ZNSt6vectorISt10shared_ptrIN5telux4data19TrafficFlowTemplateEESaIS4_EED2Ev=so_stub_for_libtelux_data
-Wl,--defsym=_ZNSt6vectorISt10shared_ptrIN5telux4data3net10IQoSFilterEESaIS5_EE17_M_realloc_insertIJS5_EEEvN9__gnu_cxx17__normal_iteratorIPS5_S7_EEDpOT_=so_stub_for_libtelux_data
-Wl,--defsym=_ZNSt6vectorISt10shared_ptrIN5telux4data3net14IFirewallEntryEESaIS5_EE12emplace_backIJRS5_EEEvDpOT_=so_stub_for_libtelux_data
-Wl,--defsym=_ZNSt6vectorISt10shared_ptrIN5telux4data3net14IFirewallEntryEESaIS5_EE17_M_realloc_insertIJRS5_EEEvN9__gnu_cxx17__normal_iteratorIPS5_S7_EEDpOT_=so_stub_for_libtelux_data
-Wl,--defsym=_ZNSt6vectorISt10shared_ptrIN5telux4data3net14IFirewallEntryEESaIS5_EEC1ERKS7_=so_stub_for_libtelux_data
-Wl,--defsym=_ZNSt6vectorISt10shared_ptrIN5telux4data3net14IFirewallEntryEESaIS5_EEC2ERKS7_=so_stub_for_libtelux_data
-Wl,--defsym=_ZNSt6vectorISt10shared_ptrIN5telux4data3net14IFirewallEntryEESaIS5_EED1Ev=so_stub_for_libtelux_data
-Wl,--defsym=_ZNSt6vectorISt10shared_ptrIN5telux4data3net14IFirewallEntryEESaIS5_EED2Ev=so_stub_for_libtelux_data
-Wl,--defsym=_ZNSt6vectorISt10shared_ptrIN5telux4data3net9ITcConfigEESaIS5_EE17_M_realloc_insertIJS5_EEEvN9__gnu_cxx17__normal_iteratorIPS5_S7_EEDpOT_=so_stub_for_libtelux_data
-Wl,--defsym=_ZNSt6vectorISt10shared_ptrIN5telux4data9IDataCallEESaIS4_EE12emplace_backIJRS0_INS2_12DataCallImplEEEEEvDpOT_=so_stub_for_libtelux_data
-Wl,--defsym=_ZNSt6vectorISt10shared_ptrIN5telux4data9IDataCallEESaIS4_EE17_M_realloc_insertIJRS0_INS2_12DataCallImplEEEEEvN9__gnu_cxx17__normal_iteratorIPS4_S6_EEDpOT_=so_stub_for_libtelux_data
-Wl,--defsym=_ZNSt6vectorISt10shared_ptrIN5telux4data9IDataCallEESaIS4_EED1Ev=so_stub_for_libtelux_data
-Wl,--defsym=_ZNSt6vectorISt10shared_ptrIN5telux4data9IDataCallEESaIS4_EED2Ev=so_stub_for_libtelux_data
-Wl,--defsym=_ZNSt6vectorISt10shared_ptrIN5telux4data9IIpFilterEESaIS4_EE12emplace_backIJRS0_INS2_13TcpFilterImplEEEEEvDpOT_=so_stub_for_libtelux_data
-Wl,--defsym=_ZNSt6vectorISt10shared_ptrIN5telux4data9IIpFilterEESaIS4_EE12emplace_backIJRS0_INS2_13UdpFilterImplEEEEEvDpOT_=so_stub_for_libtelux_data
-Wl,--defsym=_ZNSt6vectorISt10shared_ptrIN5telux4data9IIpFilterEESaIS4_EE17_M_realloc_insertIJRS0_INS2_13TcpFilterImplEEEEEvN9__gnu_cxx17__normal_iteratorIPS4_S6_EEDpOT_=so_stub_for_libtelux_data
-Wl,--defsym=_ZNSt6vectorISt10shared_ptrIN5telux4data9IIpFilterEESaIS4_EE17_M_realloc_insertIJRS0_INS2_13UdpFilterImplEEEEEvN9__gnu_cxx17__normal_iteratorIPS4_S6_EEDpOT_=so_stub_for_libtelux_data
-Wl,--defsym=_ZNSt6vectorISt10shared_ptrIN5telux4data9IIpFilterEESaIS4_EED1Ev=so_stub_for_libtelux_data
-Wl,--defsym=_ZNSt6vectorISt10shared_ptrIN5telux4data9IIpFilterEESaIS4_EED2Ev=so_stub_for_libtelux_data
-Wl,--defsym=_ZNSt6vectorISt10shared_ptrIN5telux6common12ISDKListenerEESaIS4_EE12emplace_backIJRS0_INS1_4data19IDataFilterListenerEEEEEvDpOT_=so_stub_for_libtelux_data
-Wl,--defsym=_ZNSt6vectorISt10shared_ptrIN5telux6common12ISDKListenerEESaIS4_EE12emplace_backIJRS0_INS1_4data20IDataProfileListenerEEEEEvDpOT_=so_stub_for_libtelux_data
-Wl,--defsym=_ZNSt6vectorISt10shared_ptrIN5telux6common12ISDKListenerEESaIS4_EE12emplace_backIJRS0_INS1_4data23IDataConnectionListenerEEEEEvDpOT_=so_stub_for_libtelux_data
-Wl,--defsym=_ZNSt6vectorISt10shared_ptrIN5telux6common12ISDKListenerEESaIS4_EE17_M_realloc_insertIJRS0_INS1_4data19IDataFilterListenerEEEEEvN9__gnu_cxx17__normal_iteratorIPS4_S6_EEDpOT_=so_stub_for_libtelux_data
-Wl,--defsym=_ZNSt6vectorISt10shared_ptrIN5telux6common12ISDKListenerEESaIS4_EE17_M_realloc_insertIJRS0_INS1_4data20IDataProfileListenerEEEEEvN9__gnu_cxx17__normal_iteratorIPS4_S6_EEDpOT_=so_stub_for_libtelux_data
-Wl,--defsym=_ZNSt6vectorISt10shared_ptrIN5telux6common12ISDKListenerEESaIS4_EE17_M_realloc_insertIJRS0_INS1_4data23IDataConnectionListenerEEEEEvN9__gnu_cxx17__normal_iteratorIPS4_S6_EEDpOT_=so_stub_for_libtelux_data
-Wl,--defsym=_ZNSt6vectorISt10shared_ptrIN5telux6common12ISDKListenerEESaIS4_EED1Ev=so_stub_for_libtelux_data
-Wl,--defsym=_ZNSt6vectorISt10shared_ptrIN5telux6common12ISDKListenerEESaIS4_EED2Ev=so_stub_for_libtelux_data
-Wl,--defsym=_ZNSt6vectorISt8functionIFvN5telux4data10NrIconTypeENS1_6common9ErrorCodeEEESaIS7_EE12emplace_backIJRS7_EEEvDpOT_=so_stub_for_libtelux_data
-Wl,--defsym=_ZNSt6vectorISt8functionIFvN5telux4data10NrIconTypeENS1_6common9ErrorCodeEEESaIS7_EE15_M_erase_at_endEPS7_=so_stub_for_libtelux_data
-Wl,--defsym=_ZNSt6vectorISt8functionIFvN5telux4data10NrIconTypeENS1_6common9ErrorCodeEEESaIS7_EE17_M_realloc_insertIJRS7_EEEvN9__gnu_cxx17__normal_iteratorIPS7_S9_EEDpOT_=so_stub_for_libtelux_data
-Wl,--defsym=_ZNSt6vectorISt8functionIFvN5telux4data10NrIconTypeENS1_6common9ErrorCodeEEESaIS7_EE20_M_allocate_and_copyIN9__gnu_cxx17__normal_iteratorIPKS7_S9_EEEEPS7_mT_SH_=so_stub_for_libtelux_data
-Wl,--defsym=_ZNSt6vectorISt8functionIFvN5telux4data10NrIconTypeENS1_6common9ErrorCodeEEESaIS7_EEaSERKS9_=so_stub_for_libtelux_data
-Wl,--defsym=_ZNSt6vectorISt8functionIFvN5telux4data10NrIconTypeENS1_6common9ErrorCodeEEESaIS7_EED1Ev=so_stub_for_libtelux_data
-Wl,--defsym=_ZNSt6vectorISt8functionIFvN5telux4data10NrIconTypeENS1_6common9ErrorCodeEEESaIS7_EED2Ev=so_stub_for_libtelux_data
-Wl,--defsym=_ZNSt6vectorISt8functionIFvN5telux4data13RoamingStatusENS1_6common9ErrorCodeEEESaIS7_EE15_M_erase_at_endEPS7_=so_stub_for_libtelux_data
-Wl,--defsym=_ZNSt6vectorISt8functionIFvN5telux4data13RoamingStatusENS1_6common9ErrorCodeEEESaIS7_EE17_M_realloc_insertIJRKS7_EEEvN9__gnu_cxx17__normal_iteratorIPS7_S9_EEDpOT_=so_stub_for_libtelux_data
-Wl,--defsym=_ZNSt6vectorISt8functionIFvN5telux4data13RoamingStatusENS1_6common9ErrorCodeEEESaIS7_EE20_M_allocate_and_copyIN9__gnu_cxx17__normal_iteratorIPKS7_S9_EEEEPS7_mT_SH_=so_stub_for_libtelux_data
-Wl,--defsym=_ZNSt6vectorISt8functionIFvN5telux4data13RoamingStatusENS1_6common9ErrorCodeEEESaIS7_EE9push_backERKS7_=so_stub_for_libtelux_data
-Wl,--defsym=_ZNSt6vectorISt8functionIFvN5telux4data13RoamingStatusENS1_6common9ErrorCodeEEESaIS7_EEaSERKS9_=so_stub_for_libtelux_data
-Wl,--defsym=_ZNSt6vectorISt8functionIFvN5telux4data13RoamingStatusENS1_6common9ErrorCodeEEESaIS7_EED1Ev=so_stub_for_libtelux_data
-Wl,--defsym=_ZNSt6vectorISt8functionIFvN5telux4data13RoamingStatusENS1_6common9ErrorCodeEEESaIS7_EED2Ev=so_stub_for_libtelux_data
-Wl,--defsym=_ZNSt6vectorISt8functionIFvN5telux4data13ServiceStatusENS1_6common9ErrorCodeEEESaIS7_EE17_M_realloc_insertIJRKS7_EEEvN9__gnu_cxx17__normal_iteratorIPS7_S9_EEDpOT_=so_stub_for_libtelux_data
-Wl,--defsym=_ZNSt6vectorISt8functionIFvN5telux4data13ServiceStatusENS1_6common9ErrorCodeEEESaIS7_EE20_M_allocate_and_copyIN9__gnu_cxx17__normal_iteratorIPKS7_S9_EEEEPS7_mT_SH_=so_stub_for_libtelux_data
-Wl,--defsym=_ZNSt6vectorISt8functionIFvN5telux4data13ServiceStatusENS1_6common9ErrorCodeEEESaIS7_EE9push_backERKS7_=so_stub_for_libtelux_data
-Wl,--defsym=_ZNSt6vectorISt8functionIFvN5telux4data13ServiceStatusENS1_6common9ErrorCodeEEESaIS7_EEaSERKS9_=so_stub_for_libtelux_data
-Wl,--defsym=_ZNSt6vectorISt8functionIFvN5telux4data13ServiceStatusENS1_6common9ErrorCodeEEESaIS7_EED1Ev=so_stub_for_libtelux_data
-Wl,--defsym=_ZNSt6vectorISt8functionIFvN5telux4data13ServiceStatusENS1_6common9ErrorCodeEEESaIS7_EED2Ev=so_stub_for_libtelux_data
-Wl,--defsym=_ZNSt6vectorISt8functionIFvN5telux6common13ServiceStatusEEESaIS5_EE15_M_erase_at_endEPS5_=so_stub_for_libtelux_data
-Wl,--defsym=_ZNSt6vectorISt8functionIFvN5telux6common13ServiceStatusEEESaIS5_EE17_M_realloc_insertIJRKS5_EEEvN9__gnu_cxx17__normal_iteratorIPS5_S7_EEDpOT_=so_stub_for_libtelux_data
-Wl,--defsym=_ZNSt6vectorISt8functionIFvN5telux6common13ServiceStatusEEESaIS5_EE20_M_allocate_and_copyIN9__gnu_cxx17__normal_iteratorIPKS5_S7_EEEEPS5_mT_SF_=so_stub_for_libtelux_data
-Wl,--defsym=_ZNSt6vectorISt8functionIFvN5telux6common13ServiceStatusEEESaIS5_EE9push_backERKS5_=so_stub_for_libtelux_data
-Wl,--defsym=_ZNSt6vectorISt8functionIFvN5telux6common13ServiceStatusEEESaIS5_EEaSERKS7_=so_stub_for_libtelux_data
-Wl,--defsym=_ZNSt6vectorISt8functionIFvN5telux6common13ServiceStatusEEESaIS5_EED1Ev=so_stub_for_libtelux_data
-Wl,--defsym=_ZNSt6vectorISt8functionIFvN5telux6common13ServiceStatusEEESaIS5_EED2Ev=so_stub_for_libtelux_data
-Wl,--defsym=_ZNSt6vectorISt8weak_ptrIN5telux4data19IDataFilterListenerEESaIS4_EE12emplace_backIJRS4_EEEvDpOT_=so_stub_for_libtelux_data
-Wl,--defsym=_ZNSt6vectorISt8weak_ptrIN5telux4data19IDataFilterListenerEESaIS4_EE17_M_realloc_insertIJRS4_EEEvN9__gnu_cxx17__normal_iteratorIPS4_S6_EEDpOT_=so_stub_for_libtelux_data
-Wl,--defsym=_ZNSt6vectorISt8weak_ptrIN5telux4data19IDataFilterListenerEESaIS4_EE8_M_eraseEN9__gnu_cxx17__normal_iteratorIPS4_S6_EE=so_stub_for_libtelux_data
-Wl,--defsym=_ZNSt6vectorISt8weak_ptrIN5telux4data19IDataFilterListenerEESaIS4_EED1Ev=so_stub_for_libtelux_data
-Wl,--defsym=_ZNSt6vectorISt8weak_ptrIN5telux4data19IDataFilterListenerEESaIS4_EED2Ev=so_stub_for_libtelux_data
-Wl,--defsym=_ZNSt6vectorISt8weak_ptrIN5telux4data20IDataProfileListenerEESaIS4_EE12emplace_backIJRS4_EEEvDpOT_=so_stub_for_libtelux_data
-Wl,--defsym=_ZNSt6vectorISt8weak_ptrIN5telux4data20IDataProfileListenerEESaIS4_EE17_M_realloc_insertIJRS4_EEEvN9__gnu_cxx17__normal_iteratorIPS4_S6_EEDpOT_=so_stub_for_libtelux_data
-Wl,--defsym=_ZNSt6vectorISt8weak_ptrIN5telux4data20IDataProfileListenerEESaIS4_EE8_M_eraseEN9__gnu_cxx17__normal_iteratorIPS4_S6_EE=so_stub_for_libtelux_data
-Wl,--defsym=_ZNSt6vectorISt8weak_ptrIN5telux4data20IDataProfileListenerEESaIS4_EED1Ev=so_stub_for_libtelux_data
-Wl,--defsym=_ZNSt6vectorISt8weak_ptrIN5telux4data20IDataProfileListenerEESaIS4_EED2Ev=so_stub_for_libtelux_data
-Wl,--defsym=_ZNSt6vectorISt8weak_ptrIN5telux4data23IDataConnectionListenerEESaIS4_EE12emplace_backIJRS4_EEEvDpOT_=so_stub_for_libtelux_data
-Wl,--defsym=_ZNSt6vectorISt8weak_ptrIN5telux4data23IDataConnectionListenerEESaIS4_EE17_M_realloc_insertIJRS4_EEEvN9__gnu_cxx17__normal_iteratorIPS4_S6_EEDpOT_=so_stub_for_libtelux_data
-Wl,--defsym=_ZNSt6vectorISt8weak_ptrIN5telux4data23IDataConnectionListenerEESaIS4_EE8_M_eraseEN9__gnu_cxx17__normal_iteratorIPS4_S6_EE=so_stub_for_libtelux_data
-Wl,--defsym=_ZNSt6vectorISt8weak_ptrIN5telux4data23IDataConnectionListenerEESaIS4_EED1Ev=so_stub_for_libtelux_data
-Wl,--defsym=_ZNSt6vectorISt8weak_ptrIN5telux4data23IDataConnectionListenerEESaIS4_EED2Ev=so_stub_for_libtelux_data
-Wl,--defsym=_ZNSt6vectorISt8weak_ptrIN5telux6common12ISDKListenerEESaIS4_EE12emplace_backIJRS4_EEEvDpOT_=so_stub_for_libtelux_data
-Wl,--defsym=_ZNSt6vectorISt8weak_ptrIN5telux6common12ISDKListenerEESaIS4_EE12emplace_backIJRSt10shared_ptrIS3_EEEEvDpOT_=so_stub_for_libtelux_data
-Wl,--defsym=_ZNSt6vectorISt8weak_ptrIN5telux6common12ISDKListenerEESaIS4_EE17_M_realloc_insertIJRS4_EEEvN9__gnu_cxx17__normal_iteratorIPS4_S6_EEDpOT_=so_stub_for_libtelux_data
-Wl,--defsym=_ZNSt6vectorISt8weak_ptrIN5telux6common12ISDKListenerEESaIS4_EE17_M_realloc_insertIJRSt10shared_ptrIS3_EEEEvN9__gnu_cxx17__normal_iteratorIPS4_S6_EEDpOT_=so_stub_for_libtelux_data
-Wl,--defsym=_ZNSt6vectorISt8weak_ptrIN5telux6common12ISDKListenerEESaIS4_EE8_M_eraseEN9__gnu_cxx17__normal_iteratorIPS4_S6_EE=so_stub_for_libtelux_data
-Wl,--defsym=_ZNSt6vectorISt8weak_ptrIN5telux6common12ISDKListenerEESaIS4_EED1Ev=so_stub_for_libtelux_data
-Wl,--defsym=_ZNSt6vectorISt8weak_ptrIN5telux6common12ISDKListenerEESaIS4_EED2Ev=so_stub_for_libtelux_data
-Wl,--defsym=_ZNSt7__cxx1110_List_baseIN5telux4data10IpAddrInfoESaIS3_EE8_M_clearEv=so_stub_for_libtelux_data
-Wl,--defsym=_ZNSt7__cxx1110_List_baseISt10shared_ptrIN5telux4data13EventInfoBaseEESaIS5_EE8_M_clearEv=so_stub_for_libtelux_data
-Wl,--defsym=_ZNSt7__cxx1110_List_baseISt10shared_ptrIN5telux4data16ProfileRetrieverEESaIS5_EE8_M_clearEv=so_stub_for_libtelux_data
-Wl,--defsym=_ZNSt7__cxx1110_List_baseISt4pairIiiESaIS2_EE8_M_clearEv=so_stub_for_libtelux_data
-Wl,--defsym=_ZNSt7__cxx1112basic_stringIcSt11char_traitsIcESaIcEE12_M_constructIPcEEvT_S7_St20forward_iterator_tag=so_stub_for_libtelux_data
-Wl,--defsym=_ZNSt7__cxx1112basic_stringIcSt11char_traitsIcESaIcEE12_M_constructIPKcEEvT_S8_St20forward_iterator_tag=so_stub_for_libtelux_data
-Wl,--defsym=_ZNSt7__cxx1115basic_stringbufIcSt11char_traitsIcESaIcEED0Ev=so_stub_for_libtelux_data
-Wl,--defsym=_ZNSt7__cxx1115basic_stringbufIcSt11char_traitsIcESaIcEED1Ev=so_stub_for_libtelux_data
-Wl,--defsym=_ZNSt7__cxx1115basic_stringbufIcSt11char_traitsIcESaIcEED2Ev=so_stub_for_libtelux_data
-Wl,--defsym=_ZNSt7__cxx114listIN5telux4data10IpAddrInfoESaIS3_EE14_M_create_nodeIJRKS3_EEEPSt10_List_nodeIS3_EDpOT_=so_stub_for_libtelux_data
-Wl,--defsym=_ZNSt7__cxx114listIN5telux4data10IpAddrInfoESaIS3_EE14_M_create_nodeIJRS3_EEEPSt10_List_nodeIS3_EDpOT_=so_stub_for_libtelux_data
-Wl,--defsym=_ZNSt7__cxx114listIN5telux4data10IpAddrInfoESaIS3_EE18_M_assign_dispatchISt20_List_const_iteratorIS3_EEEvT_S9_St12__false_type=so_stub_for_libtelux_data
-Wl,--defsym=_ZNSt7__cxx114listIN5telux4data10IpAddrInfoESaIS3_EE6insertISt20_List_const_iteratorIS3_EvEESt14_List_iteratorIS3_ES8_T_SB_=so_stub_for_libtelux_data
-Wl,--defsym=_ZNSt7__cxx114listIN5telux4data10IpAddrInfoESaIS3_EEC1ERKS5_=so_stub_for_libtelux_data
-Wl,--defsym=_ZNSt7__cxx114listIN5telux4data10IpAddrInfoESaIS3_EEC2ERKS5_=so_stub_for_libtelux_data
-Wl,--defsym=_ZNSt7__cxx114listISt10shared_ptrIN5telux4data13EventInfoBaseEESaIS5_EE9_M_insertIJRS5_EEEvSt14_List_iteratorIS5_EDpOT_=so_stub_for_libtelux_data
-Wl,--defsym=_ZNSt7__cxx114listISt10shared_ptrIN5telux4data16ProfileRetrieverEESaIS5_EE9_M_insertIJRS5_EEEvSt14_List_iteratorIS5_EDpOT_=so_stub_for_libtelux_data
-Wl,--defsym=_ZNSt7promiseI18dsi_v2x_ind_info_tE9set_valueERKS0_=so_stub_for_libtelux_data
-Wl,--defsym=_ZNSt7promiseI18dsi_v2x_ind_info_tEC1Ev=so_stub_for_libtelux_data
-Wl,--defsym=_ZNSt7promiseI18dsi_v2x_ind_info_tEC2Ev=so_stub_for_libtelux_data
-Wl,--defsym=_ZNSt7promiseI18dsi_v2x_ind_info_tED1Ev=so_stub_for_libtelux_data
-Wl,--defsym=_ZNSt7promiseI18dsi_v2x_ind_info_tED2Ev=so_stub_for_libtelux_data
-Wl,--defsym=_ZNSt7promiseIjE9set_valueERKj=so_stub_for_libtelux_data
-Wl,--defsym=_ZNSt7promiseIjEC1Ev=so_stub_for_libtelux_data
-Wl,--defsym=_ZNSt7promiseIjEC2Ev=so_stub_for_libtelux_data
-Wl,--defsym=_ZNSt7promiseIjED1Ev=so_stub_for_libtelux_data
-Wl,--defsym=_ZNSt7promiseIjED2Ev=so_stub_for_libtelux_data
-Wl,--defsym=_ZNSt7promiseIN5telux4data23NetLinkModeChangeStatusEE9set_valueERKS2_=so_stub_for_libtelux_data
-Wl,--defsym=_ZNSt7promiseIN5telux4data23NetLinkModeChangeStatusEEC1Ev=so_stub_for_libtelux_data
-Wl,--defsym=_ZNSt7promiseIN5telux4data23NetLinkModeChangeStatusEEC2Ev=so_stub_for_libtelux_data
-Wl,--defsym=_ZNSt7promiseIN5telux4data23NetLinkModeChangeStatusEED1Ev=so_stub_for_libtelux_data
-Wl,--defsym=_ZNSt7promiseIN5telux4data23NetLinkModeChangeStatusEED2Ev=so_stub_for_libtelux_data
-Wl,--defsym=_ZNSt7promiseIN5telux6common9ErrorCodeEE9set_valueEOS2_=so_stub_for_libtelux_data
-Wl,--defsym=_ZNSt7promiseIN5telux6common9ErrorCodeEE9set_valueERKS2_=so_stub_for_libtelux_data
-Wl,--defsym=_ZNSt7promiseIN5telux6common9ErrorCodeEEC1Ev=so_stub_for_libtelux_data
-Wl,--defsym=_ZNSt7promiseIN5telux6common9ErrorCodeEEC2Ev=so_stub_for_libtelux_data
-Wl,--defsym=_ZNSt7promiseIN5telux6common9ErrorCodeEED1Ev=so_stub_for_libtelux_data
-Wl,--defsym=_ZNSt7promiseIN5telux6common9ErrorCodeEED2Ev=so_stub_for_libtelux_data
-Wl,--defsym=_ZNSt8__detail16_Hashtable_allocISaINS_10_Hash_nodeINSt7__cxx1112basic_stringIcSt11char_traitsIcESaIcEEELb1EEEEE18_M_deallocate_nodeEPS8_=so_stub_for_libtelux_data
-Wl,--defsym=_ZNSt8__detail16_Hashtable_allocISaINS_10_Hash_nodeISt4pairIKNSt7__cxx1112basic_stringIcSt11char_traitsIcESaIcEEEN5telux4data15DeviceDataUsageEELb1EEEEE16_M_allocate_nodeIJRKSt21piecewise_construct_tSt5tupleIJRS9_EESL_IJEEEEEPSE_DpOT_=so_stub_for_libtelux_data
-Wl,--defsym=_ZNSt8__detail16_Hashtable_allocISaINS_10_Hash_nodeISt4pairIKNSt7__cxx1112basic_stringIcSt11char_traitsIcESaIcEEEN5telux4data15DeviceDataUsageEELb1EEEEE18_M_deallocate_nodeEPSE_=so_stub_for_libtelux_data
-Wl,--defsym=_ZNSt8__detail16_Hashtable_allocISaINS_10_Hash_nodeISt4pairIKNSt7__cxx1112basic_stringIcSt11char_traitsIcESaIcEEESt10shared_ptrIN5telux4data15APNThrottleInfoEEELb1EEEEE16_M_allocate_nodeIJRKSF_EEEPSG_DpOT_=so_stub_for_libtelux_data
-Wl,--defsym=_ZNSt8__detail16_Hashtable_allocISaINS_10_Hash_nodeISt4pairIKNSt7__cxx1112basic_stringIcSt11char_traitsIcESaIcEEESt10shared_ptrIN5telux4data15APNThrottleInfoEEELb1EEEEE16_M_allocate_nodeIJSF_EEEPSG_DpOT_=so_stub_for_libtelux_data
-Wl,--defsym=_ZNSt8__detail16_Hashtable_allocISaINS_10_Hash_nodeISt4pairIKNSt7__cxx1112basic_stringIcSt11char_traitsIcESaIcEEESt10shared_ptrIN5telux4data15APNThrottleInfoEEELb1EEEEE18_M_deallocate_nodeEPSG_=so_stub_for_libtelux_data
-Wl,--defsym=_ZNSt8__detail9_Map_baseIiSt4pairIKiSt10shared_ptrIN5telux6common16ICommandCallbackEEESaIS8_ENS_10_Select1stESt8equal_toIiESt4hashIiENS_18_Mod_range_hashingENS_20_Default_ranged_hashENS_20_Prime_rehash_policyENS_17_Hashtable_traitsILb0ELb0ELb1EEELb1EEixERS2_=so_stub_for_libtelux_data
-Wl,--defsym=_ZNSt8__detail9_Map_baseINSt7__cxx1112basic_stringIcSt11char_traitsIcESaIcEEESt4pairIKS6_N5telux4data15DeviceDataUsageEESaISC_ENS_10_Select1stESt8equal_toIS6_ESt4hashIS6_ENS_18_Mod_range_hashingENS_20_Default_ranged_hashENS_20_Prime_rehash_policyENS_17_Hashtable_traitsILb1ELb0ELb1EEELb1EEixERS8_=so_stub_for_libtelux_data
-Wl,--defsym=_ZNSt8functionIFvN5telux6common13ServiceStatusEEEaSERKS4_=so_stub_for_libtelux_data
-Wl,--defsym=_ZNSt8functionIFvN5telux6common13ServiceStatusEEEC1IRZNS1_13FactoryHelper10getManagerINS0_4data16IDataLinkManagerEEESt10shared_ptrIT_ENSt7__cxx1112basic_stringIcSt11char_traitsIcESaIcEEERSt8weak_ptrISB_ERSt6vectorIS4_SaIS4_EES4_S_IFSC_S4_EEEUlS2_E0_vEEOSB_=so_stub_for_libtelux_data
-Wl,--defsym=_ZNSt8functionIFvN5telux6common13ServiceStatusEEEC1IRZNS1_13FactoryHelper10getManagerINS0_4data16IDualDataManagerEEESt10shared_ptrIT_ENSt7__cxx1112basic_stringIcSt11char_traitsIcESaIcEEERSt8weak_ptrISB_ERSt6vectorIS4_SaIS4_EES4_S_IFSC_S4_EEEUlS2_E0_vEEOSB_=so_stub_for_libtelux_data
-Wl,--defsym=_ZNSt8functionIFvN5telux6common13ServiceStatusEEEC1IRZNS1_13FactoryHelper10getManagerINS0_4data17IKeepAliveManagerEEESt10shared_ptrIT_ENSt7__cxx1112basic_stringIcSt11char_traitsIcESaIcEEERSt8weak_ptrISB_ERSt6vectorIS4_SaIS4_EES4_S_IFSC_S4_EEEUlS2_E0_vEEOSB_=so_stub_for_libtelux_data
-Wl,--defsym=_ZNSt8functionIFvN5telux6common13ServiceStatusEEEC1IRZNS1_13FactoryHelper10getManagerINS0_4data19IDataControlManagerEEESt10shared_ptrIT_ENSt7__cxx1112basic_stringIcSt11char_traitsIcESaIcEEERSt8weak_ptrISB_ERSt6vectorIS4_SaIS4_EES4_S_IFSC_S4_EEEUlS2_E0_vEEOSB_=so_stub_for_libtelux_data
-Wl,--defsym=_ZNSt8functionIFvN5telux6common13ServiceStatusEEEC1IRZNS1_13FactoryHelper10getManagerINS0_4data22IDataConnectionManagerEEESt10shared_ptrIT_ENSt7__cxx1112basic_stringIcSt11char_traitsIcESaIcEEERSt8weak_ptrISB_ERSt6vectorIS4_SaIS4_EES4_S_IFSC_S4_EEEUlS2_E0_vEEOSB_=so_stub_for_libtelux_data
-Wl,--defsym=_ZNSt8functionIFvN5telux6common13ServiceStatusEEEC1IRZNS1_13FactoryHelper10getManagerINS0_4data3net11INatManagerEEESt10shared_ptrIT_ENSt7__cxx1112basic_stringIcSt11char_traitsIcESaIcEEERSt8weak_ptrISC_ERSt6vectorIS4_SaIS4_EES4_S_IFSD_S4_EEEUlS2_E0_vEEOSC_=so_stub_for_libtelux_data
-Wl,--defsym=_ZNSt8functionIFvN5telux6common13ServiceStatusEEEC1IRZNS1_13FactoryHelper10getManagerINS0_4data3net11IQoSManagerEEESt10shared_ptrIT_ENSt7__cxx1112basic_stringIcSt11char_traitsIcESaIcEEERSt8weak_ptrISC_ERSt6vectorIS4_SaIS4_EES4_S_IFSD_S4_EEEUlS2_E0_vEEOSC_=so_stub_for_libtelux_data
-Wl,--defsym=_ZNSt8functionIFvN5telux6common13ServiceStatusEEEC2IRZNS1_13FactoryHelper10getManagerINS0_4data16IDataLinkManagerEEESt10shared_ptrIT_ENSt7__cxx1112basic_stringIcSt11char_traitsIcESaIcEEERSt8weak_ptrISB_ERSt6vectorIS4_SaIS4_EES4_S_IFSC_S4_EEEUlS2_E0_vEEOSB_=so_stub_for_libtelux_data
-Wl,--defsym=_ZNSt8functionIFvN5telux6common13ServiceStatusEEEC2IRZNS1_13FactoryHelper10getManagerINS0_4data16IDualDataManagerEEESt10shared_ptrIT_ENSt7__cxx1112basic_stringIcSt11char_traitsIcESaIcEEERSt8weak_ptrISB_ERSt6vectorIS4_SaIS4_EES4_S_IFSC_S4_EEEUlS2_E0_vEEOSB_=so_stub_for_libtelux_data
-Wl,--defsym=_ZNSt8functionIFvN5telux6common13ServiceStatusEEEC2IRZNS1_13FactoryHelper10getManagerINS0_4data17IKeepAliveManagerEEESt10shared_ptrIT_ENSt7__cxx1112basic_stringIcSt11char_traitsIcESaIcEEERSt8weak_ptrISB_ERSt6vectorIS4_SaIS4_EES4_S_IFSC_S4_EEEUlS2_E0_vEEOSB_=so_stub_for_libtelux_data
-Wl,--defsym=_ZNSt8functionIFvN5telux6common13ServiceStatusEEEC2IRZNS1_13FactoryHelper10getManagerINS0_4data19IDataControlManagerEEESt10shared_ptrIT_ENSt7__cxx1112basic_stringIcSt11char_traitsIcESaIcEEERSt8weak_ptrISB_ERSt6vectorIS4_SaIS4_EES4_S_IFSC_S4_EEEUlS2_E0_vEEOSB_=so_stub_for_libtelux_data
-Wl,--defsym=_ZNSt8functionIFvN5telux6common13ServiceStatusEEEC2IRZNS1_13FactoryHelper10getManagerINS0_4data22IDataConnectionManagerEEESt10shared_ptrIT_ENSt7__cxx1112basic_stringIcSt11char_traitsIcESaIcEEERSt8weak_ptrISB_ERSt6vectorIS4_SaIS4_EES4_S_IFSC_S4_EEEUlS2_E0_vEEOSB_=so_stub_for_libtelux_data
-Wl,--defsym=_ZNSt8functionIFvN5telux6common13ServiceStatusEEEC2IRZNS1_13FactoryHelper10getManagerINS0_4data3net11INatManagerEEESt10shared_ptrIT_ENSt7__cxx1112basic_stringIcSt11char_traitsIcESaIcEEERSt8weak_ptrISC_ERSt6vectorIS4_SaIS4_EES4_S_IFSD_S4_EEEUlS2_E0_vEEOSC_=so_stub_for_libtelux_data
-Wl,--defsym=_ZNSt8functionIFvN5telux6common13ServiceStatusEEEC2IRZNS1_13FactoryHelper10getManagerINS0_4data3net11IQoSManagerEEESt10shared_ptrIT_ENSt7__cxx1112basic_stringIcSt11char_traitsIcESaIcEEERSt8weak_ptrISC_ERSt6vectorIS4_SaIS4_EES4_S_IFSD_S4_EEEUlS2_E0_vEEOSC_=so_stub_for_libtelux_data
-Wl,--defsym=_ZNSt8functionIFvN5telux6common9ErrorCodeEPvEEaSERKS5_=so_stub_for_libtelux_data
-Wl,--defsym=_ZNSt8functionIFvP31wds_profile_changed_ind_msg_v01EEaSERKS3_=so_stub_for_libtelux_data
-Wl,--defsym=_ZNSt8functionIFvSt6vectorISt10shared_ptrIN5telux4data13TftChangeInfoEESaIS5_EEjEEaSERKS9_=so_stub_for_libtelux_data
-Wl,--defsym=_ZNSt8functionIFvSt6vectorISt10shared_ptrIN5telux4data19TrafficFlowTemplateEESaIS5_EEEEaSERKS9_=so_stub_for_libtelux_data
-Wl,--defsym=_ZNSt8_Rb_treeI13dsi_net_evt_tSt4pairIKS0_NSt7__cxx1112basic_stringIcSt11char_traitsIcESaIcEEEESt10_Select1stIS9_ESt4lessIS0_ESaIS9_EE8_M_eraseEPSt13_Rb_tree_nodeIS9_E=so_stub_for_libtelux_data
-Wl,--defsym=_ZNSt8_Rb_treeI18dsi_v2x_err_type_tSt4pairIKS0_NSt7__cxx1112basic_stringIcSt11char_traitsIcESaIcEEEESt10_Select1stIS9_ESt4lessIS0_ESaIS9_EE14_M_insert_nodeEPSt18_Rb_tree_node_baseSH_PSt13_Rb_tree_nodeIS9_E=so_stub_for_libtelux_data
-Wl,--defsym=_ZNSt8_Rb_treeI18dsi_v2x_err_type_tSt4pairIKS0_NSt7__cxx1112basic_stringIcSt11char_traitsIcESaIcEEEESt10_Select1stIS9_ESt4lessIS0_ESaIS9_EE14_M_lower_boundEPSt13_Rb_tree_nodeIS9_EPSt18_Rb_tree_node_baseRS2_=so_stub_for_libtelux_data
-Wl,--defsym=_ZNSt8_Rb_treeI18dsi_v2x_err_type_tSt4pairIKS0_NSt7__cxx1112basic_stringIcSt11char_traitsIcESaIcEEEESt10_Select1stIS9_ESt4lessIS0_ESaIS9_EE22_M_emplace_hint_uniqueIJRKSt21piecewise_construct_tSt5tupleIJOS0_EESK_IJEEEEESt17_Rb_tree_iteratorIS9_ESt23_Rb_tree_const_iteratorIS9_EDpOT_=so_stub_for_libtelux_data
-Wl,--defsym=_ZNSt8_Rb_treeI18dsi_v2x_err_type_tSt4pairIKS0_NSt7__cxx1112basic_stringIcSt11char_traitsIcESaIcEEEESt10_Select1stIS9_ESt4lessIS0_ESaIS9_EE22_M_emplace_hint_uniqueIJRKSt21piecewise_construct_tSt5tupleIJRS2_EESK_IJEEEEESt17_Rb_tree_iteratorIS9_ESt23_Rb_tree_const_iteratorIS9_EDpOT_=so_stub_for_libtelux_data
-Wl,--defsym=_ZNSt8_Rb_treeI18dsi_v2x_err_type_tSt4pairIKS0_NSt7__cxx1112basic_stringIcSt11char_traitsIcESaIcEEEESt10_Select1stIS9_ESt4lessIS0_ESaIS9_EE24_M_get_insert_unique_posERS2_=so_stub_for_libtelux_data
-Wl,--defsym=_ZNSt8_Rb_treeI18dsi_v2x_err_type_tSt4pairIKS0_NSt7__cxx1112basic_stringIcSt11char_traitsIcESaIcEEEESt10_Select1stIS9_ESt4lessIS0_ESaIS9_EE29_M_get_insert_hint_unique_posESt23_Rb_tree_const_iteratorIS9_ERS2_=so_stub_for_libtelux_data
-Wl,--defsym=_ZNSt8_Rb_treeI18dsi_v2x_err_type_tSt4pairIKS0_NSt7__cxx1112basic_stringIcSt11char_traitsIcESaIcEEEESt10_Select1stIS9_ESt4lessIS0_ESaIS9_EE8_M_eraseEPSt13_Rb_tree_nodeIS9_E=so_stub_for_libtelux_data
-Wl,--defsym=_ZNSt8_Rb_treeI6SlotIdSt4pairIKS0_St6vectorISt8functionIFvN5telux6common13ServiceStatusEEESaIS9_EEESt10_Select1stISC_ESt4lessIS0_ESaISC_EE11equal_rangeERS2_=so_stub_for_libtelux_data
-Wl,--defsym=_ZNSt8_Rb_treeI6SlotIdSt4pairIKS0_St6vectorISt8functionIFvN5telux6common13ServiceStatusEEESaIS9_EEESt10_Select1stISC_ESt4lessIS0_ESaISC_EE12_M_erase_auxESt23_Rb_tree_const_iteratorISC_ESK_=so_stub_for_libtelux_data
-Wl,--defsym=_ZNSt8_Rb_treeI6SlotIdSt4pairIKS0_St6vectorISt8functionIFvN5telux6common13ServiceStatusEEESaIS9_EEESt10_Select1stISC_ESt4lessIS0_ESaISC_EE14_M_lower_boundEPSt13_Rb_tree_nodeISC_EPSt18_Rb_tree_node_baseRS2_=so_stub_for_libtelux_data
-Wl,--defsym=_ZNSt8_Rb_treeI6SlotIdSt4pairIKS0_St6vectorISt8functionIFvN5telux6common13ServiceStatusEEESaIS9_EEESt10_Select1stISC_ESt4lessIS0_ESaISC_EE22_M_emplace_hint_uniqueIJRKSt21piecewise_construct_tSt5tupleIJRS2_EESN_IJEEEEESt17_Rb_tree_iteratorISC_ESt23_Rb_tree_const_iteratorISC_EDpOT_=so_stub_for_libtelux_data
-Wl,--defsym=_ZNSt8_Rb_treeI6SlotIdSt4pairIKS0_St6vectorISt8functionIFvN5telux6common13ServiceStatusEEESaIS9_EEESt10_Select1stISC_ESt4lessIS0_ESaISC_EE24_M_get_insert_unique_posERS2_=so_stub_for_libtelux_data
-Wl,--defsym=_ZNSt8_Rb_treeI6SlotIdSt4pairIKS0_St6vectorISt8functionIFvN5telux6common13ServiceStatusEEESaIS9_EEESt10_Select1stISC_ESt4lessIS0_ESaISC_EE29_M_get_insert_hint_unique_posESt23_Rb_tree_const_iteratorISC_ERS2_=so_stub_for_libtelux_data
-Wl,--defsym=_ZNSt8_Rb_treeI6SlotIdSt4pairIKS0_St6vectorISt8functionIFvN5telux6common13ServiceStatusEEESaIS9_EEESt10_Select1stISC_ESt4lessIS0_ESaISC_EE8_M_eraseEPSt13_Rb_tree_nodeISC_E=so_stub_for_libtelux_data
-Wl,--defsym=_ZNSt8_Rb_treeI6SlotIdSt4pairIKS0_St8weak_ptrIN5telux4data17IKeepAliveManagerEEESt10_Select1stIS8_ESt4lessIS0_ESaIS8_EE22_M_emplace_hint_uniqueIJRKSt21piecewise_construct_tSt5tupleIJRS2_EESJ_IJEEEEESt17_Rb_tree_iteratorIS8_ESt23_Rb_tree_const_iteratorIS8_EDpOT_=so_stub_for_libtelux_data
-Wl,--defsym=_ZNSt8_Rb_treeI6SlotIdSt4pairIKS0_St8weak_ptrIN5telux4data17IKeepAliveManagerEEESt10_Select1stIS8_ESt4lessIS0_ESaIS8_EE24_M_get_insert_unique_posERS2_=so_stub_for_libtelux_data
-Wl,--defsym=_ZNSt8_Rb_treeI6SlotIdSt4pairIKS0_St8weak_ptrIN5telux4data17IKeepAliveManagerEEESt10_Select1stIS8_ESt4lessIS0_ESaIS8_EE29_M_get_insert_hint_unique_posESt23_Rb_tree_const_iteratorIS8_ERS2_=so_stub_for_libtelux_data
-Wl,--defsym=_ZNSt8_Rb_treeI6SlotIdSt4pairIKS0_St8weak_ptrIN5telux4data17IKeepAliveManagerEEESt10_Select1stIS8_ESt4lessIS0_ESaIS8_EE8_M_eraseEPSt13_Rb_tree_nodeIS8_E=so_stub_for_libtelux_data
-Wl,--defsym=_ZNSt8_Rb_treeI6SlotIdSt4pairIKS0_St8weak_ptrIN5telux4data18IDataFilterManagerEEESt10_Select1stIS8_ESt4lessIS0_ESaIS8_EE11equal_rangeERS2_=so_stub_for_libtelux_data
-Wl,--defsym=_ZNSt8_Rb_treeI6SlotIdSt4pairIKS0_St8weak_ptrIN5telux4data18IDataFilterManagerEEESt10_Select1stIS8_ESt4lessIS0_ESaIS8_EE12_M_erase_auxESt23_Rb_tree_const_iteratorIS8_E=so_stub_for_libtelux_data
-Wl,--defsym=_ZNSt8_Rb_treeI6SlotIdSt4pairIKS0_St8weak_ptrIN5telux4data18IDataFilterManagerEEESt10_Select1stIS8_ESt4lessIS0_ESaIS8_EE14_M_lower_boundEPSt13_Rb_tree_nodeIS8_EPSt18_Rb_tree_node_baseRS2_=so_stub_for_libtelux_data
-Wl,--defsym=_ZNSt8_Rb_treeI6SlotIdSt4pairIKS0_St8weak_ptrIN5telux4data18IDataFilterManagerEEESt10_Select1stIS8_ESt4lessIS0_ESaIS8_EE22_M_emplace_hint_uniqueIJRKSt21piecewise_construct_tSt5tupleIJRS2_EESJ_IJEEEEESt17_Rb_tree_iteratorIS8_ESt23_Rb_tree_const_iteratorIS8_EDpOT_=so_stub_for_libtelux_data
-Wl,--defsym=_ZNSt8_Rb_treeI6SlotIdSt4pairIKS0_St8weak_ptrIN5telux4data18IDataFilterManagerEEESt10_Select1stIS8_ESt4lessIS0_ESaIS8_EE24_M_get_insert_unique_posERS2_=so_stub_for_libtelux_data
-Wl,--defsym=_ZNSt8_Rb_treeI6SlotIdSt4pairIKS0_St8weak_ptrIN5telux4data18IDataFilterManagerEEESt10_Select1stIS8_ESt4lessIS0_ESaIS8_EE29_M_get_insert_hint_unique_posESt23_Rb_tree_const_iteratorIS8_ERS2_=so_stub_for_libtelux_data
-Wl,--defsym=_ZNSt8_Rb_treeI6SlotIdSt4pairIKS0_St8weak_ptrIN5telux4data18IDataFilterManagerEEESt10_Select1stIS8_ESt4lessIS0_ESaIS8_EE5eraseERS2_=so_stub_for_libtelux_data
-Wl,--defsym=_ZNSt8_Rb_treeI6SlotIdSt4pairIKS0_St8weak_ptrIN5telux4data18IDataFilterManagerEEESt10_Select1stIS8_ESt4lessIS0_ESaIS8_EE8_M_eraseEPSt13_Rb_tree_nodeIS8_E=so_stub_for_libtelux_data
-Wl,--defsym=_ZNSt8_Rb_treeI6SlotIdSt4pairIKS0_St8weak_ptrIN5telux4data19IDataProfileManagerEEESt10_Select1stIS8_ESt4lessIS0_ESaIS8_EE11equal_rangeERS2_=so_stub_for_libtelux_data
-Wl,--defsym=_ZNSt8_Rb_treeI6SlotIdSt4pairIKS0_St8weak_ptrIN5telux4data19IDataProfileManagerEEESt10_Select1stIS8_ESt4lessIS0_ESaIS8_EE12_M_erase_auxESt23_Rb_tree_const_iteratorIS8_E=so_stub_for_libtelux_data
-Wl,--defsym=_ZNSt8_Rb_treeI6SlotIdSt4pairIKS0_St8weak_ptrIN5telux4data19IDataProfileManagerEEESt10_Select1stIS8_ESt4lessIS0_ESaIS8_EE14_M_lower_boundEPSt13_Rb_tree_nodeIS8_EPSt18_Rb_tree_node_baseRS2_=so_stub_for_libtelux_data
-Wl,--defsym=_ZNSt8_Rb_treeI6SlotIdSt4pairIKS0_St8weak_ptrIN5telux4data19IDataProfileManagerEEESt10_Select1stIS8_ESt4lessIS0_ESaIS8_EE22_M_emplace_hint_uniqueIJRKSt21piecewise_construct_tSt5tupleIJRS2_EESJ_IJEEEEESt17_Rb_tree_iteratorIS8_ESt23_Rb_tree_const_iteratorIS8_EDpOT_=so_stub_for_libtelux_data
-Wl,--defsym=_ZNSt8_Rb_treeI6SlotIdSt4pairIKS0_St8weak_ptrIN5telux4data19IDataProfileManagerEEESt10_Select1stIS8_ESt4lessIS0_ESaIS8_EE24_M_get_insert_unique_posERS2_=so_stub_for_libtelux_data
-Wl,--defsym=_ZNSt8_Rb_treeI6SlotIdSt4pairIKS0_St8weak_ptrIN5telux4data19IDataProfileManagerEEESt10_Select1stIS8_ESt4lessIS0_ESaIS8_EE29_M_get_insert_hint_unique_posESt23_Rb_tree_const_iteratorIS8_ERS2_=so_stub_for_libtelux_data
-Wl,--defsym=_ZNSt8_Rb_treeI6SlotIdSt4pairIKS0_St8weak_ptrIN5telux4data19IDataProfileManagerEEESt10_Select1stIS8_ESt4lessIS0_ESaIS8_EE5eraseERS2_=so_stub_for_libtelux_data
-Wl,--defsym=_ZNSt8_Rb_treeI6SlotIdSt4pairIKS0_St8weak_ptrIN5telux4data19IDataProfileManagerEEESt10_Select1stIS8_ESt4lessIS0_ESaIS8_EE8_M_eraseEPSt13_Rb_tree_nodeIS8_E=so_stub_for_libtelux_data
-Wl,--defsym=_ZNSt8_Rb_treeI6SlotIdSt4pairIKS0_St8weak_ptrIN5telux4data21IServingSystemManagerEEESt10_Select1stIS8_ESt4lessIS0_ESaIS8_EE11equal_rangeERS2_=so_stub_for_libtelux_data
-Wl,--defsym=_ZNSt8_Rb_treeI6SlotIdSt4pairIKS0_St8weak_ptrIN5telux4data21IServingSystemManagerEEESt10_Select1stIS8_ESt4lessIS0_ESaIS8_EE12_M_erase_auxESt23_Rb_tree_const_iteratorIS8_E=so_stub_for_libtelux_data
-Wl,--defsym=_ZNSt8_Rb_treeI6SlotIdSt4pairIKS0_St8weak_ptrIN5telux4data21IServingSystemManagerEEESt10_Select1stIS8_ESt4lessIS0_ESaIS8_EE14_M_lower_boundEPSt13_Rb_tree_nodeIS8_EPSt18_Rb_tree_node_baseRS2_=so_stub_for_libtelux_data
-Wl,--defsym=_ZNSt8_Rb_treeI6SlotIdSt4pairIKS0_St8weak_ptrIN5telux4data21IServingSystemManagerEEESt10_Select1stIS8_ESt4lessIS0_ESaIS8_EE22_M_emplace_hint_uniqueIJRKSt21piecewise_construct_tSt5tupleIJRS2_EESJ_IJEEEEESt17_Rb_tree_iteratorIS8_ESt23_Rb_tree_const_iteratorIS8_EDpOT_=so_stub_for_libtelux_data
-Wl,--defsym=_ZNSt8_Rb_treeI6SlotIdSt4pairIKS0_St8weak_ptrIN5telux4data21IServingSystemManagerEEESt10_Select1stIS8_ESt4lessIS0_ESaIS8_EE24_M_get_insert_unique_posERS2_=so_stub_for_libtelux_data
-Wl,--defsym=_ZNSt8_Rb_treeI6SlotIdSt4pairIKS0_St8weak_ptrIN5telux4data21IServingSystemManagerEEESt10_Select1stIS8_ESt4lessIS0_ESaIS8_EE29_M_get_insert_hint_unique_posESt23_Rb_tree_const_iteratorIS8_ERS2_=so_stub_for_libtelux_data
-Wl,--defsym=_ZNSt8_Rb_treeI6SlotIdSt4pairIKS0_St8weak_ptrIN5telux4data21IServingSystemManagerEEESt10_Select1stIS8_ESt4lessIS0_ESaIS8_EE5eraseERS2_=so_stub_for_libtelux_data
-Wl,--defsym=_ZNSt8_Rb_treeI6SlotIdSt4pairIKS0_St8weak_ptrIN5telux4data21IServingSystemManagerEEESt10_Select1stIS8_ESt4lessIS0_ESaIS8_EE8_M_eraseEPSt13_Rb_tree_nodeIS8_E=so_stub_for_libtelux_data
-Wl,--defsym=_ZNSt8_Rb_treeI6SlotIdSt4pairIKS0_St8weak_ptrIN5telux4data22IDataConnectionManagerEEESt10_Select1stIS8_ESt4lessIS0_ESaIS8_EE22_M_emplace_hint_uniqueIJRKSt21piecewise_construct_tSt5tupleIJRS2_EESJ_IJEEEEESt17_Rb_tree_iteratorIS8_ESt23_Rb_tree_const_iteratorIS8_EDpOT_=so_stub_for_libtelux_data
-Wl,--defsym=_ZNSt8_Rb_treeI6SlotIdSt4pairIKS0_St8weak_ptrIN5telux4data22IDataConnectionManagerEEESt10_Select1stIS8_ESt4lessIS0_ESaIS8_EE24_M_get_insert_unique_posERS2_=so_stub_for_libtelux_data
-Wl,--defsym=_ZNSt8_Rb_treeI6SlotIdSt4pairIKS0_St8weak_ptrIN5telux4data22IDataConnectionManagerEEESt10_Select1stIS8_ESt4lessIS0_ESaIS8_EE29_M_get_insert_hint_unique_posESt23_Rb_tree_const_iteratorIS8_ERS2_=so_stub_for_libtelux_data
-Wl,--defsym=_ZNSt8_Rb_treeI6SlotIdSt4pairIKS0_St8weak_ptrIN5telux4data22IDataConnectionManagerEEESt10_Select1stIS8_ESt4lessIS0_ESaIS8_EE8_M_eraseEPSt13_Rb_tree_nodeIS8_E=so_stub_for_libtelux_data
-Wl,--defsym=_ZNSt8_Rb_treeIjSt4pairIKjSt3setISt8weak_ptrIN5telux6common12ISDKListenerEENS5_15ListenerManager12SetPredicateESaIS7_EEESt10_Select1stISC_ESt4lessIjESaISC_EE8_M_eraseEPSt13_Rb_tree_nodeISC_E=so_stub_for_libtelux_data
-Wl,--defsym=_ZNSt8_Rb_treeIN5telux4data13OperationTypeES2_St9_IdentityIS2_ESt4lessIS2_ESaIS2_EE12_M_erase_auxESt23_Rb_tree_const_iteratorIS2_E=so_stub_for_libtelux_data
-Wl,--defsym=_ZNSt8_Rb_treeIN5telux4data13OperationTypeES2_St9_IdentityIS2_ESt4lessIS2_ESaIS2_EE16_M_insert_uniqueIS2_EESt4pairISt17_Rb_tree_iteratorIS2_EbEOT_=so_stub_for_libtelux_data
-Wl,--defsym=_ZNSt8_Rb_treeIN5telux4data13OperationTypeES2_St9_IdentityIS2_ESt4lessIS2_ESaIS2_EE24_M_get_insert_unique_posERKS2_=so_stub_for_libtelux_data
-Wl,--defsym=_ZNSt8_Rb_treeIN5telux4data13OperationTypeES2_St9_IdentityIS2_ESt4lessIS2_ESaIS2_EE8_M_eraseEPSt13_Rb_tree_nodeIS2_E=so_stub_for_libtelux_data
-Wl,--defsym=_ZNSt8_Rb_treeIN5telux4data13OperationTypeESt4pairIKS2_bESt10_Select1stIS5_ESt4lessIS2_ESaIS5_EE14_M_insert_nodeEPSt18_Rb_tree_node_baseSD_PSt13_Rb_tree_nodeIS5_E=so_stub_for_libtelux_data
-Wl,--defsym=_ZNSt8_Rb_treeIN5telux4data13OperationTypeESt4pairIKS2_bESt10_Select1stIS5_ESt4lessIS2_ESaIS5_EE14_M_lower_boundEPSt13_Rb_tree_nodeIS5_EPSt18_Rb_tree_node_baseRS4_=so_stub_for_libtelux_data
-Wl,--defsym=_ZNSt8_Rb_treeIN5telux4data13OperationTypeESt4pairIKS2_bESt10_Select1stIS5_ESt4lessIS2_ESaIS5_EE17_M_insert_unique_IRKS5_NSB_11_Alloc_nodeEEESt17_Rb_tree_iteratorIS5_ESt23_Rb_tree_const_iteratorIS5_EOT_RT0_=so_stub_for_libtelux_data
-Wl,--defsym=_ZNSt8_Rb_treeIN5telux4data13OperationTypeESt4pairIKS2_bESt10_Select1stIS5_ESt4lessIS2_ESaIS5_EE22_M_emplace_hint_uniqueIJRKSt21piecewise_construct_tSt5tupleIJOS2_EESG_IJEEEEESt17_Rb_tree_iteratorIS5_ESt23_Rb_tree_const_iteratorIS5_EDpOT_=so_stub_for_libtelux_data
-Wl,--defsym=_ZNSt8_Rb_treeIN5telux4data13OperationTypeESt4pairIKS2_bESt10_Select1stIS5_ESt4lessIS2_ESaIS5_EE22_M_emplace_hint_uniqueIJRKSt21piecewise_construct_tSt5tupleIJRS4_EESG_IJEEEEESt17_Rb_tree_iteratorIS5_ESt23_Rb_tree_const_iteratorIS5_EDpOT_=so_stub_for_libtelux_data
-Wl,--defsym=_ZNSt8_Rb_treeIN5telux4data13OperationTypeESt4pairIKS2_bESt10_Select1stIS5_ESt4lessIS2_ESaIS5_EE24_M_get_insert_unique_posERS4_=so_stub_for_libtelux_data
-Wl,--defsym=_ZNSt8_Rb_treeIN5telux4data13OperationTypeESt4pairIKS2_bESt10_Select1stIS5_ESt4lessIS2_ESaIS5_EE29_M_get_insert_hint_unique_posESt23_Rb_tree_const_iteratorIS5_ERS4_=so_stub_for_libtelux_data
-Wl,--defsym=_ZNSt8_Rb_treeIN5telux4data13OperationTypeESt4pairIKS2_bESt10_Select1stIS5_ESt4lessIS2_ESaIS5_EE8_M_eraseEPSt13_Rb_tree_nodeIS5_E=so_stub_for_libtelux_data
-Wl,--defsym=_ZNSt8_Rb_treeIN5telux4data13OperationTypeESt4pairIKS2_St6vectorISt8functionIFvNS0_6common13ServiceStatusEEESaISA_EEESt10_Select1stISD_ESt4lessIS2_ESaISD_EE11equal_rangeERS4_=so_stub_for_libtelux_data
-Wl,--defsym=_ZNSt8_Rb_treeIN5telux4data13OperationTypeESt4pairIKS2_St6vectorISt8functionIFvNS0_6common13ServiceStatusEEESaISA_EEESt10_Select1stISD_ESt4lessIS2_ESaISD_EE12_M_erase_auxESt23_Rb_tree_const_iteratorISD_ESL_=so_stub_for_libtelux_data
-Wl,--defsym=_ZNSt8_Rb_treeIN5telux4data13OperationTypeESt4pairIKS2_St6vectorISt8functionIFvNS0_6common13ServiceStatusEEESaISA_EEESt10_Select1stISD_ESt4lessIS2_ESaISD_EE14_M_lower_boundEPSt13_Rb_tree_nodeISD_EPSt18_Rb_tree_node_baseRS4_=so_stub_for_libtelux_data
-Wl,--defsym=_ZNSt8_Rb_treeIN5telux4data13OperationTypeESt4pairIKS2_St6vectorISt8functionIFvNS0_6common13ServiceStatusEEESaISA_EEESt10_Select1stISD_ESt4lessIS2_ESaISD_EE22_M_emplace_hint_uniqueIJRKSt21piecewise_construct_tSt5tupleIJRS4_EESO_IJEEEEESt17_Rb_tree_iteratorISD_ESt23_Rb_tree_const_iteratorISD_EDpOT_=so_stub_for_libtelux_data
-Wl,--defsym=_ZNSt8_Rb_treeIN5telux4data13OperationTypeESt4pairIKS2_St6vectorISt8functionIFvNS0_6common13ServiceStatusEEESaISA_EEESt10_Select1stISD_ESt4lessIS2_ESaISD_EE24_M_get_insert_unique_posERS4_=so_stub_for_libtelux_data
-Wl,--defsym=_ZNSt8_Rb_treeIN5telux4data13OperationTypeESt4pairIKS2_St6vectorISt8functionIFvNS0_6common13ServiceStatusEEESaISA_EEESt10_Select1stISD_ESt4lessIS2_ESaISD_EE29_M_get_insert_hint_unique_posESt23_Rb_tree_const_iteratorISD_ERS4_=so_stub_for_libtelux_data
-Wl,--defsym=_ZNSt8_Rb_treeIN5telux4data13OperationTypeESt4pairIKS2_St6vectorISt8functionIFvNS0_6common13ServiceStatusEEESaISA_EEESt10_Select1stISD_ESt4lessIS2_ESaISD_EE5eraseERS4_=so_stub_for_libtelux_data
-Wl,--defsym=_ZNSt8_Rb_treeIN5telux4data13OperationTypeESt4pairIKS2_St6vectorISt8functionIFvNS0_6common13ServiceStatusEEESaISA_EEESt10_Select1stISD_ESt4lessIS2_ESaISD_EE8_M_eraseEPSt13_Rb_tree_nodeISD_E=so_stub_for_libtelux_data
-Wl,--defsym=_ZNSt8_Rb_treeIN5telux4data13OperationTypeESt4pairIKS2_St8weak_ptrINS1_20IDataSettingsManagerEEESt10_Select1stIS8_ESt4lessIS2_ESaIS8_EE14_M_lower_boundEPSt13_Rb_tree_nodeIS8_EPSt18_Rb_tree_node_baseRS4_=so_stub_for_libtelux_data
-Wl,--defsym=_ZNSt8_Rb_treeIN5telux4data13OperationTypeESt4pairIKS2_St8weak_ptrINS1_20IDataSettingsManagerEEESt10_Select1stIS8_ESt4lessIS2_ESaIS8_EE22_M_emplace_hint_uniqueIJRKSt21piecewise_construct_tSt5tupleIJRS4_EESJ_IJEEEEESt17_Rb_tree_iteratorIS8_ESt23_Rb_tree_const_iteratorIS8_EDpOT_=so_stub_for_libtelux_data
-Wl,--defsym=_ZNSt8_Rb_treeIN5telux4data13OperationTypeESt4pairIKS2_St8weak_ptrINS1_20IDataSettingsManagerEEESt10_Select1stIS8_ESt4lessIS2_ESaIS8_EE24_M_get_insert_unique_posERS4_=so_stub_for_libtelux_data
-Wl,--defsym=_ZNSt8_Rb_treeIN5telux4data13OperationTypeESt4pairIKS2_St8weak_ptrINS1_20IDataSettingsManagerEEESt10_Select1stIS8_ESt4lessIS2_ESaIS8_EE29_M_get_insert_hint_unique_posESt23_Rb_tree_const_iteratorIS8_ERS4_=so_stub_for_libtelux_data
-Wl,--defsym=_ZNSt8_Rb_treeIN5telux4data13OperationTypeESt4pairIKS2_St8weak_ptrINS1_20IDataSettingsManagerEEESt10_Select1stIS8_ESt4lessIS2_ESaIS8_EE8_M_eraseEPSt13_Rb_tree_nodeIS8_E=so_stub_for_libtelux_data
-Wl,--defsym=_ZNSt8_Rb_treeIN5telux4data13OperationTypeESt4pairIKS2_St8weak_ptrINS1_3net11INatManagerEEESt10_Select1stIS9_ESt4lessIS2_ESaIS9_EE22_M_emplace_hint_uniqueIJRKSt21piecewise_construct_tSt5tupleIJRS4_EESK_IJEEEEESt17_Rb_tree_iteratorIS9_ESt23_Rb_tree_const_iteratorIS9_EDpOT_=so_stub_for_libtelux_data
-Wl,--defsym=_ZNSt8_Rb_treeIN5telux4data13OperationTypeESt4pairIKS2_St8weak_ptrINS1_3net11INatManagerEEESt10_Select1stIS9_ESt4lessIS2_ESaIS9_EE24_M_get_insert_unique_posERS4_=so_stub_for_libtelux_data
-Wl,--defsym=_ZNSt8_Rb_treeIN5telux4data13OperationTypeESt4pairIKS2_St8weak_ptrINS1_3net11INatManagerEEESt10_Select1stIS9_ESt4lessIS2_ESaIS9_EE29_M_get_insert_hint_unique_posESt23_Rb_tree_const_iteratorIS9_ERS4_=so_stub_for_libtelux_data
-Wl,--defsym=_ZNSt8_Rb_treeIN5telux4data13OperationTypeESt4pairIKS2_St8weak_ptrINS1_3net11INatManagerEEESt10_Select1stIS9_ESt4lessIS2_ESaIS9_EE8_M_eraseEPSt13_Rb_tree_nodeIS9_E=so_stub_for_libtelux_data
-Wl,--defsym=_ZNSt8_Rb_treeIN5telux4data13OperationTypeESt4pairIKS2_St8weak_ptrINS1_3net12IVlanManagerEEESt10_Select1stIS9_ESt4lessIS2_ESaIS9_EE11equal_rangeERS4_=so_stub_for_libtelux_data
-Wl,--defsym=_ZNSt8_Rb_treeIN5telux4data13OperationTypeESt4pairIKS2_St8weak_ptrINS1_3net12IVlanManagerEEESt10_Select1stIS9_ESt4lessIS2_ESaIS9_EE12_M_erase_auxESt23_Rb_tree_const_iteratorIS9_E=so_stub_for_libtelux_data
-Wl,--defsym=_ZNSt8_Rb_treeIN5telux4data13OperationTypeESt4pairIKS2_St8weak_ptrINS1_3net12IVlanManagerEEESt10_Select1stIS9_ESt4lessIS2_ESaIS9_EE14_M_lower_boundEPSt13_Rb_tree_nodeIS9_EPSt18_Rb_tree_node_baseRS4_=so_stub_for_libtelux_data
-Wl,--defsym=_ZNSt8_Rb_treeIN5telux4data13OperationTypeESt4pairIKS2_St8weak_ptrINS1_3net12IVlanManagerEEESt10_Select1stIS9_ESt4lessIS2_ESaIS9_EE22_M_emplace_hint_uniqueIJRKSt21piecewise_construct_tSt5tupleIJRS4_EESK_IJEEEEESt17_Rb_tree_iteratorIS9_ESt23_Rb_tree_const_iteratorIS9_EDpOT_=so_stub_for_libtelux_data
-Wl,--defsym=_ZNSt8_Rb_treeIN5telux4data13OperationTypeESt4pairIKS2_St8weak_ptrINS1_3net12IVlanManagerEEESt10_Select1stIS9_ESt4lessIS2_ESaIS9_EE24_M_get_insert_unique_posERS4_=so_stub_for_libtelux_data
-Wl,--defsym=_ZNSt8_Rb_treeIN5telux4data13OperationTypeESt4pairIKS2_St8weak_ptrINS1_3net12IVlanManagerEEESt10_Select1stIS9_ESt4lessIS2_ESaIS9_EE29_M_get_insert_hint_unique_posESt23_Rb_tree_const_iteratorIS9_ERS4_=so_stub_for_libtelux_data
-Wl,--defsym=_ZNSt8_Rb_treeIN5telux4data13OperationTypeESt4pairIKS2_St8weak_ptrINS1_3net12IVlanManagerEEESt10_Select1stIS9_ESt4lessIS2_ESaIS9_EE5eraseERS4_=so_stub_for_libtelux_data
-Wl,--defsym=_ZNSt8_Rb_treeIN5telux4data13OperationTypeESt4pairIKS2_St8weak_ptrINS1_3net12IVlanManagerEEESt10_Select1stIS9_ESt4lessIS2_ESaIS9_EE8_M_eraseEPSt13_Rb_tree_nodeIS9_E=so_stub_for_libtelux_data
-Wl,--defsym=_ZNSt8_Rb_treeIN5telux4data13OperationTypeESt4pairIKS2_St8weak_ptrINS1_3net13ISocksManagerEEESt10_Select1stIS9_ESt4lessIS2_ESaIS9_EE11equal_rangeERS4_=so_stub_for_libtelux_data
-Wl,--defsym=_ZNSt8_Rb_treeIN5telux4data13OperationTypeESt4pairIKS2_St8weak_ptrINS1_3net13ISocksManagerEEESt10_Select1stIS9_ESt4lessIS2_ESaIS9_EE12_M_erase_auxESt23_Rb_tree_const_iteratorIS9_E=so_stub_for_libtelux_data
-Wl,--defsym=_ZNSt8_Rb_treeIN5telux4data13OperationTypeESt4pairIKS2_St8weak_ptrINS1_3net13ISocksManagerEEESt10_Select1stIS9_ESt4lessIS2_ESaIS9_EE14_M_lower_boundEPSt13_Rb_tree_nodeIS9_EPSt18_Rb_tree_node_baseRS4_=so_stub_for_libtelux_data
-Wl,--defsym=_ZNSt8_Rb_treeIN5telux4data13OperationTypeESt4pairIKS2_St8weak_ptrINS1_3net13ISocksManagerEEESt10_Select1stIS9_ESt4lessIS2_ESaIS9_EE22_M_emplace_hint_uniqueIJRKSt21piecewise_construct_tSt5tupleIJRS4_EESK_IJEEEEESt17_Rb_tree_iteratorIS9_ESt23_Rb_tree_const_iteratorIS9_EDpOT_=so_stub_for_libtelux_data
-Wl,--defsym=_ZNSt8_Rb_treeIN5telux4data13OperationTypeESt4pairIKS2_St8weak_ptrINS1_3net13ISocksManagerEEESt10_Select1stIS9_ESt4lessIS2_ESaIS9_EE24_M_get_insert_unique_posERS4_=so_stub_for_libtelux_data
-Wl,--defsym=_ZNSt8_Rb_treeIN5telux4data13OperationTypeESt4pairIKS2_St8weak_ptrINS1_3net13ISocksManagerEEESt10_Select1stIS9_ESt4lessIS2_ESaIS9_EE29_M_get_insert_hint_unique_posESt23_Rb_tree_const_iteratorIS9_ERS4_=so_stub_for_libtelux_data
-Wl,--defsym=_ZNSt8_Rb_treeIN5telux4data13OperationTypeESt4pairIKS2_St8weak_ptrINS1_3net13ISocksManagerEEESt10_Select1stIS9_ESt4lessIS2_ESaIS9_EE5eraseERS4_=so_stub_for_libtelux_data
-Wl,--defsym=_ZNSt8_Rb_treeIN5telux4data13OperationTypeESt4pairIKS2_St8weak_ptrINS1_3net13ISocksManagerEEESt10_Select1stIS9_ESt4lessIS2_ESaIS9_EE8_M_eraseEPSt13_Rb_tree_nodeIS9_E=so_stub_for_libtelux_data
-Wl,--defsym=_ZNSt8_Rb_treeIN5telux4data13OperationTypeESt4pairIKS2_St8weak_ptrINS1_3net16IFirewallManagerEEESt10_Select1stIS9_ESt4lessIS2_ESaIS9_EE11equal_rangeERS4_=so_stub_for_libtelux_data
-Wl,--defsym=_ZNSt8_Rb_treeIN5telux4data13OperationTypeESt4pairIKS2_St8weak_ptrINS1_3net16IFirewallManagerEEESt10_Select1stIS9_ESt4lessIS2_ESaIS9_EE12_M_erase_auxESt23_Rb_tree_const_iteratorIS9_E=so_stub_for_libtelux_data
-Wl,--defsym=_ZNSt8_Rb_treeIN5telux4data13OperationTypeESt4pairIKS2_St8weak_ptrINS1_3net16IFirewallManagerEEESt10_Select1stIS9_ESt4lessIS2_ESaIS9_EE14_M_lower_boundEPSt13_Rb_tree_nodeIS9_EPSt18_Rb_tree_node_baseRS4_=so_stub_for_libtelux_data
-Wl,--defsym=_ZNSt8_Rb_treeIN5telux4data13OperationTypeESt4pairIKS2_St8weak_ptrINS1_3net16IFirewallManagerEEESt10_Select1stIS9_ESt4lessIS2_ESaIS9_EE22_M_emplace_hint_uniqueIJRKSt21piecewise_construct_tSt5tupleIJRS4_EESK_IJEEEEESt17_Rb_tree_iteratorIS9_ESt23_Rb_tree_const_iteratorIS9_EDpOT_=so_stub_for_libtelux_data
-Wl,--defsym=_ZNSt8_Rb_treeIN5telux4data13OperationTypeESt4pairIKS2_St8weak_ptrINS1_3net16IFirewallManagerEEESt10_Select1stIS9_ESt4lessIS2_ESaIS9_EE24_M_get_insert_unique_posERS4_=so_stub_for_libtelux_data
-Wl,--defsym=_ZNSt8_Rb_treeIN5telux4data13OperationTypeESt4pairIKS2_St8weak_ptrINS1_3net16IFirewallManagerEEESt10_Select1stIS9_ESt4lessIS2_ESaIS9_EE29_M_get_insert_hint_unique_posESt23_Rb_tree_const_iteratorIS9_ERS4_=so_stub_for_libtelux_data
-Wl,--defsym=_ZNSt8_Rb_treeIN5telux4data13OperationTypeESt4pairIKS2_St8weak_ptrINS1_3net16IFirewallManagerEEESt10_Select1stIS9_ESt4lessIS2_ESaIS9_EE5eraseERS4_=so_stub_for_libtelux_data
-Wl,--defsym=_ZNSt8_Rb_treeIN5telux4data13OperationTypeESt4pairIKS2_St8weak_ptrINS1_3net16IFirewallManagerEEESt10_Select1stIS9_ESt4lessIS2_ESaIS9_EE8_M_eraseEPSt13_Rb_tree_nodeIS9_E=so_stub_for_libtelux_data
-Wl,--defsym=_ZNSt8_Rb_treeISt8weak_ptrIN5telux6common12ISDKListenerEES4_St9_IdentityIS4_ENS2_15ListenerManager12SetPredicateESaIS4_EE8_M_eraseEPSt13_Rb_tree_nodeIS4_E=so_stub_for_libtelux_data
-Wl,--defsym=_ZSt10__invoke_rIvRSt5_BindIFMN5telux4data22DataProfileManagerImplEFvNS1_6common13ServiceStatusEEPS3_St12_PlaceholderILi1EEEEJS5_EENSt9enable_ifIXsrSt6__and_IJSt7is_voidIT_ESt14__is_invocableIT0_JDpT1_EEEE5valueESH_E4typeEOSK_DpOSL_=so_stub_for_libtelux_data
-Wl,--defsym=_ZSt10__invoke_rIvRSt5_BindIFMN5telux4data22DataProfileManagerImplEFvP31wds_profile_changed_ind_msg_v01EPS3_St12_PlaceholderILi1EEEEJS5_EENSt9enable_ifIXsrSt6__and_IJSt7is_voidIT_ESt14__is_invocableIT0_JDpT1_EEEE5valueESH_E4typeEOSK_DpOSL_=so_stub_for_libtelux_data
-Wl,--defsym=_ZSt10__invoke_rIvRSt5_BindIFMN5telux4data9DsiClientEFvRKSt10shared_ptrINS2_21DsiStatusCallbackDataEEEPS3_St12_PlaceholderILi1EEEEJS8_EENSt9enable_ifIXsrSt6__and_IJSt7is_voidIT_ESt14__is_invocableIT0_JDpT1_EEEE5valueESK_E4typeEOSN_DpOSO_=so_stub_for_libtelux_data
-Wl,--defsym=_ZSt10__invoke_rIvRSt5_BindIFMN5telux4data9QcmClientEFvSt6vectorISt10shared_ptrINS2_13TftChangeInfoEESaIS7_EEjEPS3_St12_PlaceholderILi1EESD_ILi2EEEEJS9_jEENSt9enable_ifIXsrSt6__and_IJSt7is_voidIT_ESt14__is_invocableIT0_JDpT1_EEEE5valueESM_E4typeEOSP_DpOSQ_=so_stub_for_libtelux_data
-Wl,--defsym=_ZSt10__invoke_rIvRSt5_BindIFMN5telux4data9QcmClientEFvSt6vectorISt10shared_ptrINS2_19TrafficFlowTemplateEESaIS7_EEEPS3_St12_PlaceholderILi1EEEEJS9_EENSt9enable_ifIXsrSt6__and_IJSt7is_voidIT_ESt14__is_invocableIT0_JDpT1_EEEE5valueESL_E4typeEOSO_DpOSP_=so_stub_for_libtelux_data
-Wl,--defsym=_ZSt13__copy_move_aILb0EN9__gnu_cxx17__normal_iteratorIPKSt8functionIFvN5telux4data10NrIconTypeENS3_6common9ErrorCodeEEESt6vectorIS9_SaIS9_EEEENS1_IPS9_SE_EEET1_T0_SJ_SI_=so_stub_for_libtelux_data
-Wl,--defsym=_ZSt13__copy_move_aILb0EN9__gnu_cxx17__normal_iteratorIPKSt8functionIFvN5telux4data13RoamingStatusENS3_6common9ErrorCodeEEESt6vectorIS9_SaIS9_EEEENS1_IPS9_SE_EEET1_T0_SJ_SI_=so_stub_for_libtelux_data
-Wl,--defsym=_ZSt13__copy_move_aILb0EN9__gnu_cxx17__normal_iteratorIPKSt8functionIFvN5telux4data13ServiceStatusENS3_6common9ErrorCodeEEESt6vectorIS9_SaIS9_EEEENS1_IPS9_SE_EEET1_T0_SJ_SI_=so_stub_for_libtelux_data
-Wl,--defsym=_ZSt13__copy_move_aILb0EN9__gnu_cxx17__normal_iteratorIPKSt8functionIFvN5telux6common13ServiceStatusEEESt6vectorIS7_SaIS7_EEEENS1_IPS7_SC_EEET1_T0_SH_SG_=so_stub_for_libtelux_data
-Wl,--defsym=_ZSt13__copy_move_aILb1EN9__gnu_cxx17__normal_iteratorIPSt10shared_ptrIN5telux4data12DataCallImplEESt6vectorIS6_SaIS6_EEEESB_ET1_T0_SD_SC_=so_stub_for_libtelux_data
-Wl,--defsym=_ZSt13__copy_move_aILb1EN9__gnu_cxx17__normal_iteratorIPSt8weak_ptrIN5telux4data19IDataFilterListenerEESt6vectorIS6_SaIS6_EEEESB_ET1_T0_SD_SC_=so_stub_for_libtelux_data
-Wl,--defsym=_ZSt13__copy_move_aILb1EN9__gnu_cxx17__normal_iteratorIPSt8weak_ptrIN5telux4data20IDataProfileListenerEESt6vectorIS6_SaIS6_EEEESB_ET1_T0_SD_SC_=so_stub_for_libtelux_data
-Wl,--defsym=_ZSt13__copy_move_aILb1EN9__gnu_cxx17__normal_iteratorIPSt8weak_ptrIN5telux4data23IDataConnectionListenerEESt6vectorIS6_SaIS6_EEEESB_ET1_T0_SD_SC_=so_stub_for_libtelux_data
-Wl,--defsym=_ZSt13__copy_move_aILb1EN9__gnu_cxx17__normal_iteratorIPSt8weak_ptrIN5telux6common12ISDKListenerEESt6vectorIS6_SaIS6_EEEESB_ET1_T0_SD_SC_=so_stub_for_libtelux_data
-Wl,--defsym=_ZSt13move_backwardISt15_Deque_iteratorISt13shared_futureIvERS2_PS2_ES5_ET0_T_S7_S6_=so_stub_for_libtelux_data
-Wl,--defsym=_ZSt14__copy_move_a1ILb0EPSt13shared_futureIvES1_EN9__gnu_cxx11__enable_ifIXsrSt23__is_random_access_iterIT0_NSt15iterator_traitsIS6_E17iterator_categoryEE7__valueESt15_Deque_iteratorIT1_RSC_PSC_EE6__typeES6_S6_SF_=so_stub_for_libtelux_data
-Wl,--defsym=_ZSt14__copy_move_a1ILb0ESt13shared_futureIvERKS1_PS2_S1_ESt15_Deque_iteratorIT3_RS6_PS6_ES5_IT0_T1_T2_ESD_S9_=so_stub_for_libtelux_data
-Wl,--defsym=_ZSt14__copy_move_a1ILb1EPSt13shared_futureIvES1_EN9__gnu_cxx11__enable_ifIXsrSt23__is_random_access_iterIT0_NSt15iterator_traitsIS6_E17iterator_categoryEE7__valueESt15_Deque_iteratorIT1_RSC_PSC_EE6__typeES6_S6_SF_=so_stub_for_libtelux_data
-Wl,--defsym=_ZSt14__copy_move_a1ILb1ESt13shared_futureIvERS1_PS1_S1_ESt15_Deque_iteratorIT3_RS5_PS5_ES4_IT0_T1_T2_ESC_S8_=so_stub_for_libtelux_data
-Wl,--defsym=_ZSt14__relocate_a_1IPN5telux4data15APNThrottleInfoES3_SaIS2_EET0_T_S6_S5_RT1_=so_stub_for_libtelux_data
-Wl,--defsym=_ZSt18__allocate_guardedISaISt23_Sp_counted_ptr_inplaceIN5telux4data29DataSubSystemStateUnavailableESaIS3_ELN9__gnu_cxx12_Lock_policyE2EEEESt15__allocated_ptrIT_ERSA_=so_stub_for_libtelux_data
-Wl,--defsym=_ZSt18__allocate_guardedISaISt23_Sp_counted_ptr_inplaceIN5telux4data3net12TcConfigImplESaIS4_ELN9__gnu_cxx12_Lock_policyE2EEEESt15__allocated_ptrIT_ERSB_=so_stub_for_libtelux_data
-Wl,--defsym=_ZSt18__allocate_guardedISaISt23_Sp_counted_ptr_inplaceINSt13__future_base13_State_baseV2ESaIS2_ELN9__gnu_cxx12_Lock_policyE2EEEESt15__allocated_ptrIT_ERS9_=so_stub_for_libtelux_data
-Wl,--defsym=_ZSt18__allocate_guardedISaISt23_Sp_counted_ptr_inplaceISt6atomicIN5telux4data9DrbStatusEESaIS5_ELN9__gnu_cxx12_Lock_policyE2EEEESt15__allocated_ptrIT_ERSC_=so_stub_for_libtelux_data
-Wl,--defsym=_ZSt18make_exception_ptrISt12future_errorENSt15__exception_ptr13exception_ptrET_=so_stub_for_libtelux_data
-Wl,--defsym=_ZSt18uninitialized_copyISt13move_iteratorISt15_Deque_iteratorISt13shared_futureIvERS3_PS3_EES6_ET0_T_S9_S8_=so_stub_for_libtelux_data
-Wl,--defsym=_ZSt20dynamic_pointer_castIN5telux4data11IIcmpFilterENS1_9IIpFilterEESt10shared_ptrIT_ERKS4_IT0_E=so_stub_for_libtelux_data
-Wl,--defsym=_ZSt20dynamic_pointer_castIN5telux4data12IpFilterImplENS1_9IIpFilterEESt10shared_ptrIT_ERKS4_IT0_E=so_stub_for_libtelux_data
-Wl,--defsym=_ZSt20dynamic_pointer_castIN5telux4data18DataSubSystemEventENS0_6common5EventEESt10shared_ptrIT_ERKS5_IT0_E=so_stub_for_libtelux_data
-Wl,--defsym=_ZSt20dynamic_pointer_castIN5telux4data18IQcmClientListenerENS0_6common12ISDKListenerEESt10shared_ptrIT_ERKS5_IT0_E=so_stub_for_libtelux_data
-Wl,--defsym=_ZSt20dynamic_pointer_castIN5telux4data20IDataNetlinkListenerENS0_6common12ISDKListenerEESt10shared_ptrIT_ERKS5_IT0_E=so_stub_for_libtelux_data
-Wl,--defsym=_ZSt20dynamic_pointer_castIN5telux4data22IServingSystemListenerENS0_6common12ISDKListenerEESt10shared_ptrIT_ERKS5_IT0_E=so_stub_for_libtelux_data
-Wl,--defsym=_ZSt20dynamic_pointer_castIN5telux4data25DataSubSystemStateMachineENS0_6common16BaseStateMachineEESt10shared_ptrIT_ERKS5_IT0_E=so_stub_for_libtelux_data
-Wl,--defsym=_ZSt20dynamic_pointer_castIN5telux4data3net17FirewallEntryImplENS2_14IFirewallEntryEESt10shared_ptrIT_ERKS5_IT0_E=so_stub_for_libtelux_data
-Wl,--defsym=_ZSt22__uninitialized_copy_aISt15_Deque_iteratorISt13shared_futureIvERKS2_PS3_ES0_IS2_RS2_PS2_ES2_ET0_T_SB_SA_RSaIT1_E=so_stub_for_libtelux_data
-Wl,--defsym=_ZSt22__uninitialized_move_aISt15_Deque_iteratorISt13shared_futureIvERS2_PS2_ES5_SaIS2_EET0_T_S8_S7_RT1_=so_stub_for_libtelux_data
-Wl,--defsym=_ZSt23__copy_move_backward_a1ILb1EPSt13shared_futureIvES1_EN9__gnu_cxx11__enable_ifIXsrSt23__is_random_access_iterIT0_NSt15iterator_traitsIS6_E17iterator_categoryEE7__valueESt15_Deque_iteratorIT1_RSC_PSC_EE6__typeES6_S6_SF_=so_stub_for_libtelux_data
-Wl,--defsym=_ZSt23__copy_move_backward_a1ILb1ESt13shared_futureIvERS1_PS1_S1_ESt15_Deque_iteratorIT3_RS5_PS5_ES4_IT0_T1_T2_ESC_S8_=so_stub_for_libtelux_data
-Wl,--defsym=_ZSt4copyISt15_Deque_iteratorISt13shared_futureIvERKS2_PS3_ES0_IS2_RS2_PS2_EET0_T_SB_SA_=so_stub_for_libtelux_data
-Wl,--defsym=_ZSt4moveISt15_Deque_iteratorISt13shared_futureIvERS2_PS2_ES5_ET0_T_S7_S6_=so_stub_for_libtelux_data
-Wl,--defsym=_ZSt5asyncIMN5telux4data9QcmClientEFvSt10shared_ptrINS1_9IDataCallEEEJPS2_RS3_INS1_12DataCallImplEEEESt6futureINSt15__invoke_resultINSt5decayIT_E4typeEJDpNSE_IT0_E4typeEEE4typeEESt6launchOSF_DpOSI_=so_stub_for_libtelux_data
-Wl,--defsym=_ZSt7find_ifIN9__gnu_cxx17__normal_iteratorIPSt8weak_ptrIN5telux6common12ISDKListenerEESt6vectorIS6_SaIS6_EEEEZNS4_15ListenerManager16registerListenerES6_EUlS6_E_ET_SE_SE_T0_=so_stub_for_libtelux_data
-Wl,--defsym=_ZSt9__advanceISt15_Deque_iteratorISt13shared_futureIvERKS2_PS3_ElEvRT_T0_St26random_access_iterator_tag=so_stub_for_libtelux_data
-Wl,--defsym=_ZSt9__find_ifIN9__gnu_cxx17__normal_iteratorIPhSt6vectorIhSaIhEEEENS0_5__ops16_Iter_equals_valIKhEEET_SB_SB_T0_St26random_access_iterator_tag=so_stub_for_libtelux_data
-Wl,--defsym=_ZSt9__find_ifIN9__gnu_cxx17__normal_iteratorIPSt8weak_ptrIN5telux6common12ISDKListenerEESt6vectorIS6_SaIS6_EEEENS0_5__ops10_Iter_predIZNS4_15ListenerManager16registerListenerES6_EUlS6_E_EEET_SH_SH_T0_St26random_access_iterator_tag=so_stub_for_libtelux_data
-Wl,--defsym=_ZSteqRKSt10error_codeRKSt15error_condition=so_stub_for_libtelux_data
-Wl,--defsym=_ZThn16_N5telux4data19DualDataManagerImpl20onSwitchDdsStatusIndERK26dsd_switch_dds_ind_msg_v01=so_stub_for_libtelux_data
-Wl,--defsym=_ZThn16_N5telux4data19DualDataManagerImpl21onCurrentDdsStatusIndERK27dsd_current_dds_ind_msg_v01=so_stub_for_libtelux_data
-Wl,--defsym=_ZThn16_N5telux4data19DualDataManagerImpl24onDsdServiceStatusChangeENS_6common13ServiceStatusE=so_stub_for_libtelux_data
-Wl,--defsym=_ZThn16_N5telux4data19DualDataManagerImpl28onDdsSwitchRecommendationIndERK30dsd_dds_recommendation_ind_v01=so_stub_for_libtelux_data
-Wl,--defsym=_ZThn16_N5telux4data19DualDataManagerImplD0Ev=so_stub_for_libtelux_data
-Wl,--defsym=_ZThn16_N5telux4data19DualDataManagerImplD1Ev=so_stub_for_libtelux_data
-Wl,--defsym=_ZThn16_N5telux4data20KeepAliveManagerImpl21onServiceStatusChangeENS_6common13ServiceStatusE=so_stub_for_libtelux_data
-Wl,--defsym=_ZThn16_N5telux4data20KeepAliveManagerImplD0Ev=so_stub_for_libtelux_data
-Wl,--defsym=_ZThn16_N5telux4data20KeepAliveManagerImplD1Ev=so_stub_for_libtelux_data
-Wl,--defsym=_ZThn16_N5telux4data22DataProfileManagerImpl21createProfileResponseEiiiPv=so_stub_for_libtelux_data
-Wl,--defsym=_ZThn16_N5telux4data22DataProfileManagerImplD0Ev=so_stub_for_libtelux_data
-Wl,--defsym=_ZThn16_N5telux4data22DataProfileManagerImplD1Ev=so_stub_for_libtelux_data
-Wl,--defsym=_ZThn16_N5telux4data23DataSettingsManagerImpl21onServiceStatusChangeENS_6common13ServiceStatusE=so_stub_for_libtelux_data
-Wl,--defsym=_ZThn16_N5telux4data23DataSettingsManagerImpl30onWwanConnectivityConfigChangeE6SlotIdb=so_stub_for_libtelux_data
-Wl,--defsym=_ZThn16_N5telux4data23DataSettingsManagerImplD0Ev=so_stub_for_libtelux_data
-Wl,--defsym=_ZThn16_N5telux4data23DataSettingsManagerImplD1Ev=so_stub_for_libtelux_data
-Wl,--defsym=_ZThn16_N5telux4data24ServingSystemManagerImpl21onNrIconTypeChangeIndERK23dsd_ui_info_ind_msg_v01=so_stub_for_libtelux_data
-Wl,--defsym=_ZThn16_N5telux4data24ServingSystemManagerImpl23onServiceStateChangeIndERKNS_3qmi19dsdSystemStatusInfoE=so_stub_for_libtelux_data
-Wl,--defsym=_ZThn16_N5telux4data24ServingSystemManagerImpl24onRoamingStatusChangeIndERK37dsd_roaming_status_change_ind_msg_v01=so_stub_for_libtelux_data
-Wl,--defsym=_ZThn16_N5telux4data24ServingSystemManagerImpl24onServiceStatusResultIndERK43dsd_get_system_status_v2_result_ind_msg_v01i=so_stub_for_libtelux_data
-Wl,--defsym=_ZThn16_N5telux4data24ServingSystemManagerImplD0Ev=so_stub_for_libtelux_data
-Wl,--defsym=_ZThn16_N5telux4data24ServingSystemManagerImplD1Ev=so_stub_for_libtelux_data
-Wl,--defsym=_ZThn16_N5telux4data25DataConnectionManagerImpl20onPdnThrottleInfoIndERK33wds_pdn_throttle_info_ind_msg_v01=so_stub_for_libtelux_data
-Wl,--defsym=_ZThn16_N5telux4data25DataConnectionManagerImpl24onWdsServiceStatusChangeENS_6common13ServiceStatusE=so_stub_for_libtelux_data
-Wl,--defsym=_ZThn16_N5telux4data25DataConnectionManagerImplD0Ev=so_stub_for_libtelux_data
-Wl,--defsym=_ZThn16_N5telux4data25DataConnectionManagerImplD1Ev=so_stub_for_libtelux_data
-Wl,--defsym=_ZThn24_N5telux4data19DualDataManagerImpl20dsdSwitchDdsResponseEiPv=so_stub_for_libtelux_data
-Wl,--defsym=_ZThn24_N5telux4data19DualDataManagerImpl21dsdCurrentDdsResponseENS0_7DdsInfoEiPv=so_stub_for_libtelux_data
-Wl,--defsym=_ZThn24_N5telux4data19DualDataManagerImplD0Ev=so_stub_for_libtelux_data
-Wl,--defsym=_ZThn24_N5telux4data19DualDataManagerImplD1Ev=so_stub_for_libtelux_data
-Wl,--defsym=_ZThn24_N5telux4data23DataSettingsManagerImpl20onSwitchDdsStatusIndERK26dsd_switch_dds_ind_msg_v01=so_stub_for_libtelux_data
-Wl,--defsym=_ZThn24_N5telux4data23DataSettingsManagerImpl21onCurrentDdsStatusIndERK27dsd_current_dds_ind_msg_v01=so_stub_for_libtelux_data
-Wl,--defsym=_ZThn24_N5telux4data23DataSettingsManagerImplD0Ev=so_stub_for_libtelux_data
-Wl,--defsym=_ZThn24_N5telux4data23DataSettingsManagerImplD1Ev=so_stub_for_libtelux_data
-Wl,--defsym=_ZThn24_N5telux4data24ServingSystemManagerImpl20serviceStateResponseEiNS_3qmi7VersionERK34dsd_get_system_status_resp_msg_v01Pv=so_stub_for_libtelux_data
-Wl,--defsym=_ZThn24_N5telux4data24ServingSystemManagerImplD0Ev=so_stub_for_libtelux_data
-Wl,--defsym=_ZThn24_N5telux4data24ServingSystemManagerImplD1Ev=so_stub_for_libtelux_data
-Wl,--defsym=_ZThn32_N5telux4data23DataSettingsManagerImpl20dsdSwitchDdsResponseEiPv=so_stub_for_libtelux_data
-Wl,--defsym=_ZThn32_N5telux4data23DataSettingsManagerImpl21dsdCurrentDdsResponseENS0_7DdsInfoEiPv=so_stub_for_libtelux_data
-Wl,--defsym=_ZThn32_N5telux4data23DataSettingsManagerImplD0Ev=so_stub_for_libtelux_data
-Wl,--defsym=_ZThn32_N5telux4data23DataSettingsManagerImplD1Ev=so_stub_for_libtelux_data
-Wl,--defsym=_ZThn32_N5telux4data24ServingSystemManagerImpl21roamingStatusResponseEiiRK48dsd_get_current_roaming_status_info_resp_msg_v01Pv=so_stub_for_libtelux_data
-Wl,--defsym=_ZThn32_N5telux4data24ServingSystemManagerImplD0Ev=so_stub_for_libtelux_data
-Wl,--defsym=_ZThn32_N5telux4data24ServingSystemManagerImplD1Ev=so_stub_for_libtelux_data
-Wl,--defsym=_ZThn8_N5telux4data13EspFilterImplD0Ev=so_stub_for_libtelux_data
-Wl,--defsym=_ZThn8_N5telux4data13EspFilterImplD1Ev=so_stub_for_libtelux_data
-Wl,--defsym=_ZThn8_N5telux4data13TcpFilterImplD0Ev=so_stub_for_libtelux_data
-Wl,--defsym=_ZThn8_N5telux4data13TcpFilterImplD1Ev=so_stub_for_libtelux_data
-Wl,--defsym=_ZThn8_N5telux4data13UdpFilterImplD0Ev=so_stub_for_libtelux_data
-Wl,--defsym=_ZThn8_N5telux4data13UdpFilterImplD1Ev=so_stub_for_libtelux_data
-Wl,--defsym=_ZThn8_N5telux4data14IcmpFilterImplD0Ev=so_stub_for_libtelux_data
-Wl,--defsym=_ZThn8_N5telux4data14IcmpFilterImplD1Ev=so_stub_for_libtelux_data
-Wl,--defsym=_ZThn8_N5telux4data14WdsCmdListener15onProfileUpdateEP31wds_profile_changed_ind_msg_v01=so_stub_for_libtelux_data
-Wl,--defsym=_ZThn8_N5telux4data14WdsCmdListener24onWdsServiceStatusChangeENS_6common13ServiceStatusE=so_stub_for_libtelux_data
-Wl,--defsym=_ZThn8_N5telux4data14WdsCmdListenerD0Ev=so_stub_for_libtelux_data
-Wl,--defsym=_ZThn8_N5telux4data14WdsCmdListenerD1Ev=so_stub_for_libtelux_data
-Wl,--defsym=_ZThn8_N5telux4data16ProfileRetriever19profileListResponseEiiRKSt6vectorINS_3qmi15ProfileListInfoESaIS4_EEPv=so_stub_for_libtelux_data
-Wl,--defsym=_ZThn8_N5telux4data16ProfileRetrieverD0Ev=so_stub_for_libtelux_data
-Wl,--defsym=_ZThn8_N5telux4data16ProfileRetrieverD1Ev=so_stub_for_libtelux_data
-Wl,--defsym=_ZThn8_N5telux4data17ClientManagerImpl21onServiceStatusChangeENS_6common13ServiceStatusE=so_stub_for_libtelux_data
-Wl,--defsym=_ZThn8_N5telux4data17ClientManagerImpl30onDeviceDataUsageResetImminentESt6vectorINS0_15DeviceDataUsageESaIS3_EENS0_16UsageResetReasonE=so_stub_for_libtelux_data
-Wl,--defsym=_ZThn8_N5telux4data17ClientManagerImplD0Ev=so_stub_for_libtelux_data
-Wl,--defsym=_ZThn8_N5telux4data17ClientManagerImplD1Ev=so_stub_for_libtelux_data
-Wl,--defsym=_ZThn8_N5telux4data19DataLinkManagerImpl22onEthModeChangeRequestEi=so_stub_for_libtelux_data
-Wl,--defsym=_ZThn8_N5telux4data19DataLinkManagerImpl24onEthDataLinkStateChangeENS0_9LinkStateENSt7__cxx1112basic_stringIcSt11char_traitsIcESaIcEEE=so_stub_for_libtelux_data
-Wl,--defsym=_ZThn8_N5telux4data19DataLinkManagerImpl32onEthModeChangeTransactionStatusEiNS0_23NetLinkModeChangeStatusE=so_stub_for_libtelux_data
-Wl,--defsym=_ZThn8_N5telux4data19DataLinkManagerImplD0Ev=so_stub_for_libtelux_data
-Wl,--defsym=_ZThn8_N5telux4data19DataLinkManagerImplD1Ev=so_stub_for_libtelux_data
-Wl,--defsym=_ZThn8_N5telux4data19DualDataManagerImpl24onQmsServiceStatusChangeENS_6common13ServiceStatusE=so_stub_for_libtelux_data
-Wl,--defsym=_ZThn8_N5telux4data19DualDataManagerImpl26onDualDataCapabilityChangeEb=so_stub_for_libtelux_data
-Wl,--defsym=_ZThn8_N5telux4data19DualDataManagerImpl30onDualDataRecommendationChangeENS_3qms18DataRecommendationE=so_stub_for_libtelux_data
-Wl,--defsym=_ZThn8_N5telux4data19DualDataManagerImplD0Ev=so_stub_for_libtelux_data
-Wl,--defsym=_ZThn8_N5telux4data19DualDataManagerImplD1Ev=so_stub_for_libtelux_data
-Wl,--defsym=_ZThn8_N5telux4data20KeepAliveManagerImpl24onWdsServiceStatusChangeENS_6common13ServiceStatusE=so_stub_for_libtelux_data
-Wl,--defsym=_ZThn8_N5telux4data20KeepAliveManagerImplD0Ev=so_stub_for_libtelux_data
-Wl,--defsym=_ZThn8_N5telux4data20KeepAliveManagerImplD1Ev=so_stub_for_libtelux_data
-Wl,--defsym=_ZThn8_N5telux4data21DataFilterManagerImpl21onServiceStatusChangeENS_6common13ServiceStatusE=so_stub_for_libtelux_data
-Wl,--defsym=_ZThn8_N5telux4data21DataFilterManagerImpl24onDataRestrictModeChangeENS0_16DataRestrictModeE=so_stub_for_libtelux_data
-Wl,--defsym=_ZThn8_N5telux4data21DataFilterManagerImplD0Ev=so_stub_for_libtelux_data
-Wl,--defsym=_ZThn8_N5telux4data21DataFilterManagerImplD1Ev=so_stub_for_libtelux_data
-Wl,--defsym=_ZThn8_N5telux4data22DataControlManagerImpl24onQmsServiceStatusChangeENS_6common13ServiceStatusE=so_stub_for_libtelux_data
-Wl,--defsym=_ZThn8_N5telux4data22DataControlManagerImplD0Ev=so_stub_for_libtelux_data
-Wl,--defsym=_ZThn8_N5telux4data22DataControlManagerImplD1Ev=so_stub_for_libtelux_data
-Wl,--defsym=_ZThn8_N5telux4data22DataProfileManagerImpl18onProfileRetrievedESt10shared_ptrINS0_16ProfileRetrieverEE=so_stub_for_libtelux_data
-Wl,--defsym=_ZThn8_N5telux4data22DataProfileManagerImplD0Ev=so_stub_for_libtelux_data
-Wl,--defsym=_ZThn8_N5telux4data22DataProfileManagerImplD1Ev=so_stub_for_libtelux_data
-Wl,--defsym=_ZThn8_N5telux4data23DataSettingsManagerImpl21onServiceStatusChangeENS_6common13ServiceStatusE=so_stub_for_libtelux_data
-Wl,--defsym=_ZThn8_N5telux4data23DataSettingsManagerImpl30onWwanConnectivityConfigChangeE6SlotIdb=so_stub_for_libtelux_data
-Wl,--defsym=_ZThn8_N5telux4data23DataSettingsManagerImplD0Ev=so_stub_for_libtelux_data
-Wl,--defsym=_ZThn8_N5telux4data23DataSettingsManagerImplD1Ev=so_stub_for_libtelux_data
-Wl,--defsym=_ZThn8_N5telux4data24ServingSystemManagerImpl24onWdsServiceStatusChangeENS_6common13ServiceStatusE=so_stub_for_libtelux_data
-Wl,--defsym=_ZThn8_N5telux4data24ServingSystemManagerImplD0Ev=so_stub_for_libtelux_data
-Wl,--defsym=_ZThn8_N5telux4data24ServingSystemManagerImplD1Ev=so_stub_for_libtelux_data
-Wl,--defsym=_ZThn8_N5telux4data25DataConnectionManagerImpl21onDataCallInfoChangedERKSt10shared_ptrINS0_9IDataCallEE=so_stub_for_libtelux_data
-Wl,--defsym=_ZThn8_N5telux4data25DataConnectionManagerImpl21onServiceStatusChangeENS_6common13ServiceStatusE=so_stub_for_libtelux_data
-Wl,--defsym=_ZThn8_N5telux4data25DataConnectionManagerImpl23onHwAccelerationChangedENS0_12ServiceStateE=so_stub_for_libtelux_data
-Wl,--defsym=_ZThn8_N5telux4data25DataConnectionManagerImpl27onTrafficFlowTemplateChangeERKSt10shared_ptrINS0_9IDataCallEERKSt6vectorIS2_INS0_13TftChangeInfoEESaIS9_EE=so_stub_for_libtelux_data
-Wl,--defsym=_ZThn8_N5telux4data25DataConnectionManagerImpl30onWwanConnectivityConfigChangeE6SlotIdb=so_stub_for_libtelux_data
-Wl,--defsym=_ZThn8_N5telux4data25DataConnectionManagerImpl31onDataCallReadinessStatusChangeEv=so_stub_for_libtelux_data
-Wl,--defsym=_ZThn8_N5telux4data25DataConnectionManagerImplD0Ev=so_stub_for_libtelux_data
-Wl,--defsym=_ZThn8_N5telux4data25DataConnectionManagerImplD1Ev=so_stub_for_libtelux_data
-Wl,--defsym=_ZThn8_N5telux4data37AddProfileIdInApnThrottleInfoCallback21onProfileListResponseERKSt6vectorISt10shared_ptrINS0_11DataProfileEESaIS5_EENS_6common9ErrorCodeE=so_stub_for_libtelux_data
-Wl,--defsym=_ZThn8_N5telux4data37AddProfileIdInApnThrottleInfoCallbackD0Ev=so_stub_for_libtelux_data
-Wl,--defsym=_ZThn8_N5telux4data37AddProfileIdInApnThrottleInfoCallbackD1Ev=so_stub_for_libtelux_data
-Wl,--defsym=_ZThn8_N5telux4data3net14NatManagerImpl21onServiceStatusChangeENS_6common13ServiceStatusE=so_stub_for_libtelux_data
-Wl,--defsym=_ZThn8_N5telux4data3net14NatManagerImplD0Ev=so_stub_for_libtelux_data
-Wl,--defsym=_ZThn8_N5telux4data3net14NatManagerImplD1Ev=so_stub_for_libtelux_data
-Wl,--defsym=_ZThn8_N5telux4data3net14QoSManagerImpl21onServiceStatusChangeENS_6common13ServiceStatusE=so_stub_for_libtelux_data
-Wl,--defsym=_ZThn8_N5telux4data3net14QoSManagerImplD0Ev=so_stub_for_libtelux_data
-Wl,--defsym=_ZThn8_N5telux4data3net14QoSManagerImplD1Ev=so_stub_for_libtelux_data
-Wl,--defsym=_ZThn8_N5telux4data3net15L2tpManagerImpl21onServiceStatusChangeENS_6common13ServiceStatusE=so_stub_for_libtelux_data
-Wl,--defsym=_ZThn8_N5telux4data3net15L2tpManagerImplD0Ev=so_stub_for_libtelux_data
-Wl,--defsym=_ZThn8_N5telux4data3net15L2tpManagerImplD1Ev=so_stub_for_libtelux_data
-Wl,--defsym=_ZThn8_N5telux4data3net15VlanManagerImpl21onServiceStatusChangeENS_6common13ServiceStatusE=so_stub_for_libtelux_data
-Wl,--defsym=_ZThn8_N5telux4data3net15VlanManagerImpl23onHwAccelerationChangedENS0_12ServiceStateE=so_stub_for_libtelux_data
-Wl,--defsym=_ZThn8_N5telux4data3net15VlanManagerImplD0Ev=so_stub_for_libtelux_data
-Wl,--defsym=_ZThn8_N5telux4data3net15VlanManagerImplD1Ev=so_stub_for_libtelux_data
-Wl,--defsym=_ZThn8_N5telux4data3net16SocksManagerImpl21onServiceStatusChangeENS_6common13ServiceStatusE=so_stub_for_libtelux_data
-Wl,--defsym=_ZThn8_N5telux4data3net16SocksManagerImplD0Ev=so_stub_for_libtelux_data
-Wl,--defsym=_ZThn8_N5telux4data3net16SocksManagerImplD1Ev=so_stub_for_libtelux_data
-Wl,--defsym=_ZThn8_N5telux4data3net17BridgeManagerImpl21onServiceStatusChangeENS_6common13ServiceStatusE=so_stub_for_libtelux_data
-Wl,--defsym=_ZThn8_N5telux4data3net17BridgeManagerImplD0Ev=so_stub_for_libtelux_data
-Wl,--defsym=_ZThn8_N5telux4data3net17BridgeManagerImplD1Ev=so_stub_for_libtelux_data
-Wl,--defsym=_ZThn8_N5telux4data3net19FirewallManagerImpl21onServiceStatusChangeENS_6common13ServiceStatusE=so_stub_for_libtelux_data
-Wl,--defsym=_ZThn8_N5telux4data3net19FirewallManagerImplD0Ev=so_stub_for_libtelux_data
-Wl,--defsym=_ZThn8_N5telux4data3net19FirewallManagerImplD1Ev=so_stub_for_libtelux_data
-Wl,--defsym=_ZTIN5telux3qmi12IQmiListenerE=so_stub_for_libtelux_data
-Wl,--defsym=_ZTIN5telux3qmi15IQmiDsdListenerE=so_stub_for_libtelux_data
-Wl,--defsym=_ZTIN5telux3qmi15IQmiWdsListenerE=so_stub_for_libtelux_data
-Wl,--defsym=_ZTIN5telux3qmi17ISysPowerListenerE=so_stub_for_libtelux_data
-Wl,--defsym=_ZTIN5telux3qmi24IQmiDsdSwitchDdsCallbackE=so_stub_for_libtelux_data
-Wl,--defsym=_ZTIN5telux3qmi27IQmiCommandResponseCallbackE=so_stub_for_libtelux_data
-Wl,--defsym=_ZTIN5telux3qmi28IQmiWdsCreateProfileCallbackE=so_stub_for_libtelux_data
-Wl,--defsym=_ZTIN5telux3qmi29IQmiWdsGetProfileListCallbackE=so_stub_for_libtelux_data
-Wl,--defsym=_ZTIN5telux3qmi30IQmiDsdGetServiceStateCallbackE=so_stub_for_libtelux_data
-Wl,--defsym=_ZTIN5telux3qmi31IQmiDsdGetRoamingStatusCallbackE=so_stub_for_libtelux_data
-Wl,--defsym=_ZTIN5telux3qmi31IRequestPdnThrottleInfoCallbackE=so_stub_for_libtelux_data
-Wl,--defsym=_ZTIN5telux3qmi33IQmiWdsGetProfileSettingsCallbackE=so_stub_for_libtelux_data
-Wl,--defsym=_ZTIN5telux3qms18IQmsClientListenerE=so_stub_for_libtelux_data
-Wl,--defsym=_ZTIN5telux4data10IEspFilterE=so_stub_for_libtelux_data
-Wl,--defsym=_ZTIN5telux4data10ITcpFilterE=so_stub_for_libtelux_data
-Wl,--defsym=_ZTIN5telux4data10IUdpFilterE=so_stub_for_libtelux_data
-Wl,--defsym=_ZTIN5telux4data11DataFactoryE=so_stub_for_libtelux_data
-Wl,--defsym=_ZTIN5telux4data11IIcmpFilterE=so_stub_for_libtelux_data
-Wl,--defsym=_ZTIN5telux4data11WdsListenerE=so_stub_for_libtelux_data
-Wl,--defsym=_ZTIN5telux4data12DataCallImplE=so_stub_for_libtelux_data
-Wl,--defsym=_ZTIN5telux4data12IpFilterImplE=so_stub_for_libtelux_data
-Wl,--defsym=_ZTIN5telux4data13EspFilterImplE=so_stub_for_libtelux_data
-Wl,--defsym=_ZTIN5telux4data13EventInfoBaseE=so_stub_for_libtelux_data
-Wl,--defsym=_ZTIN5telux4data13TcpFilterImplE=so_stub_for_libtelux_data
-Wl,--defsym=_ZTIN5telux4data13UdpFilterImplE=so_stub_for_libtelux_data
-Wl,--defsym=_ZTIN5telux4data14IClientManagerE=so_stub_for_libtelux_data
-Wl,--defsym=_ZTIN5telux4data14IcmpFilterImplE=so_stub_for_libtelux_data
-Wl,--defsym=_ZTIN5telux4data14ITrafficFilterE=so_stub_for_libtelux_data
-Wl,--defsym=_ZTIN5telux4data14WdsCmdListenerE=so_stub_for_libtelux_data
-Wl,--defsym=_ZTIN5telux4data15DataFactoryImplE=so_stub_for_libtelux_data
-Wl,--defsym=_ZTIN5telux4data15IClientListenerE=so_stub_for_libtelux_data
-Wl,--defsym=_ZTIN5telux4data16IDataLinkManagerE=so_stub_for_libtelux_data
-Wl,--defsym=_ZTIN5telux4data16IDualDataManagerE=so_stub_for_libtelux_data
-Wl,--defsym=_ZTIN5telux4data16ProfileRetrieverE=so_stub_for_libtelux_data
-Wl,--defsym=_ZTIN5telux4data17ClientManagerImplE=so_stub_for_libtelux_data
-Wl,--defsym=_ZTIN5telux4data17DataPowerListenerE=so_stub_for_libtelux_data
-Wl,--defsym=_ZTIN5telux4data17IDataLinkListenerE=so_stub_for_libtelux_data
-Wl,--defsym=_ZTIN5telux4data17IDualDataListenerE=so_stub_for_libtelux_data
-Wl,--defsym=_ZTIN5telux4data17IKeepAliveManagerE=so_stub_for_libtelux_data
-Wl,--defsym=_ZTIN5telux4data17KeepAliveListenerE=so_stub_for_libtelux_data
-Wl,--defsym=_ZTIN5telux4data17TrafficFilterImplE=so_stub_for_libtelux_data
-Wl,--defsym=_ZTIN5telux4data18DataSubSystemEventE=so_stub_for_libtelux_data
-Wl,--defsym=_ZTIN5telux4data18IDataFilterManagerE=so_stub_for_libtelux_data
-Wl,--defsym=_ZTIN5telux4data18IKeepAliveListenerE=so_stub_for_libtelux_data
-Wl,--defsym=_ZTIN5telux4data18IQcmClientListenerE=so_stub_for_libtelux_data
-Wl,--defsym=_ZTIN5telux4data19DataLinkManagerImplE=so_stub_for_libtelux_data
-Wl,--defsym=_ZTIN5telux4data19DualDataManagerImplE=so_stub_for_libtelux_data
-Wl,--defsym=_ZTIN5telux4data19IDataControlManagerE=so_stub_for_libtelux_data
-Wl,--defsym=_ZTIN5telux4data19IDataFilterListenerE=so_stub_for_libtelux_data
-Wl,--defsym=_ZTIN5telux4data19IDataProfileManagerE=so_stub_for_libtelux_data
-Wl,--defsym=_ZTIN5telux4data20IDataControlListenerE=so_stub_for_libtelux_data
-Wl,--defsym=_ZTIN5telux4data20IDataNetlinkListenerE=so_stub_for_libtelux_data
-Wl,--defsym=_ZTIN5telux4data20IDataProfileListenerE=so_stub_for_libtelux_data
-Wl,--defsym=_ZTIN5telux4data20IDataSettingsManagerE=so_stub_for_libtelux_data
-Wl,--defsym=_ZTIN5telux4data20KeepAliveManagerImplE=so_stub_for_libtelux_data
-Wl,--defsym=_ZTIN5telux4data21DataFilterManagerImplE=so_stub_for_libtelux_data
-Wl,--defsym=_ZTIN5telux4data21IDataSettingsListenerE=so_stub_for_libtelux_data
-Wl,--defsym=_ZTIN5telux4data21IServingSystemManagerE=so_stub_for_libtelux_data
-Wl,--defsym=_ZTIN5telux4data22DataControlManagerImplE=so_stub_for_libtelux_data
-Wl,--defsym=_ZTIN5telux4data22DataProfileManagerImplE=so_stub_for_libtelux_data
-Wl,--defsym=_ZTIN5telux4data22IDataConnectionManagerE=so_stub_for_libtelux_data
-Wl,--defsym=_ZTIN5telux4data22IServingSystemListenerE=so_stub_for_libtelux_data
-Wl,--defsym=_ZTIN5telux4data23DataSettingsManagerImplE=so_stub_for_libtelux_data
-Wl,--defsym=_ZTIN5telux4data23IDataConnectionListenerE=so_stub_for_libtelux_data
-Wl,--defsym=_ZTIN5telux4data23NLEthCapabilityCallbackE=so_stub_for_libtelux_data
-Wl,--defsym=_ZTIN5telux4data24IDataProfileListCallbackE=so_stub_for_libtelux_data
-Wl,--defsym=_ZTIN5telux4data24ServingSystemManagerImplE=so_stub_for_libtelux_data
-Wl,--defsym=_ZTIN5telux4data25DataConnectionManagerImplE=so_stub_for_libtelux_data
-Wl,--defsym=_ZTIN5telux4data25DataSubSystemStateMachineE=so_stub_for_libtelux_data
-Wl,--defsym=_ZTIN5telux4data25IProfileRetrieverCallbackE=so_stub_for_libtelux_data
-Wl,--defsym=_ZTIN5telux4data27DataConnectionPowerListenerE=so_stub_for_libtelux_data
-Wl,--defsym=_ZTIN5telux4data27DataSubSystemStateAvailableE=so_stub_for_libtelux_data
-Wl,--defsym=_ZTIN5telux4data29DataSubSystemStateUnavailableE=so_stub_for_libtelux_data
-Wl,--defsym=_ZTIN5telux4data30RequestPdnThrottleInfoCallbackE=so_stub_for_libtelux_data
-Wl,--defsym=_ZTIN5telux4data34NLSetLocalEthOperatingModeCallbackE=so_stub_for_libtelux_data
-Wl,--defsym=_ZTIN5telux4data37AddProfileIdInApnThrottleInfoCallbackE=so_stub_for_libtelux_data
-Wl,--defsym=_ZTIN5telux4data3net10IQoSFilterE=so_stub_for_libtelux_data
-Wl,--defsym=_ZTIN5telux4data3net11INatManagerE=so_stub_for_libtelux_data
-Wl,--defsym=_ZTIN5telux4data3net11IQoSManagerE=so_stub_for_libtelux_data
-Wl,--defsym=_ZTIN5telux4data3net12IL2tpManagerE=so_stub_for_libtelux_data
-Wl,--defsym=_ZTIN5telux4data3net12INatListenerE=so_stub_for_libtelux_data
-Wl,--defsym=_ZTIN5telux4data3net12IQoSListenerE=so_stub_for_libtelux_data
-Wl,--defsym=_ZTIN5telux4data3net12IVlanManagerE=so_stub_for_libtelux_data
-Wl,--defsym=_ZTIN5telux4data3net12TcConfigImplE=so_stub_for_libtelux_data
-Wl,--defsym=_ZTIN5telux4data3net13IL2tpListenerE=so_stub_for_libtelux_data
-Wl,--defsym=_ZTIN5telux4data3net13ISocksManagerE=so_stub_for_libtelux_data
-Wl,--defsym=_ZTIN5telux4data3net13IVlanListenerE=so_stub_for_libtelux_data
-Wl,--defsym=_ZTIN5telux4data3net13QoSFilterImplE=so_stub_for_libtelux_data
-Wl,--defsym=_ZTIN5telux4data3net14IBridgeManagerE=so_stub_for_libtelux_data
-Wl,--defsym=_ZTIN5telux4data3net14IFirewallEntryE=so_stub_for_libtelux_data
-Wl,--defsym=_ZTIN5telux4data3net14ISocksListenerE=so_stub_for_libtelux_data
-Wl,--defsym=_ZTIN5telux4data3net14NatManagerImplE=so_stub_for_libtelux_data
-Wl,--defsym=_ZTIN5telux4data3net14QoSManagerImplE=so_stub_for_libtelux_data
-Wl,--defsym=_ZTIN5telux4data3net15IBridgeListenerE=so_stub_for_libtelux_data
-Wl,--defsym=_ZTIN5telux4data3net15L2tpManagerImplE=so_stub_for_libtelux_data
-Wl,--defsym=_ZTIN5telux4data3net15VlanManagerImplE=so_stub_for_libtelux_data
-Wl,--defsym=_ZTIN5telux4data3net16IFirewallManagerE=so_stub_for_libtelux_data
-Wl,--defsym=_ZTIN5telux4data3net16SocksManagerImplE=so_stub_for_libtelux_data
-Wl,--defsym=_ZTIN5telux4data3net17BridgeManagerImplE=so_stub_for_libtelux_data
-Wl,--defsym=_ZTIN5telux4data3net17FirewallEntryImplE=so_stub_for_libtelux_data
-Wl,--defsym=_ZTIN5telux4data3net17IFirewallListenerE=so_stub_for_libtelux_data
-Wl,--defsym=_ZTIN5telux4data3net19FirewallManagerImplE=so_stub_for_libtelux_data
-Wl,--defsym=_ZTIN5telux4data3net9ITcConfigE=so_stub_for_libtelux_data
-Wl,--defsym=_ZTIN5telux4data9EventInfoINS0_21DsiStatusCallbackDataEEE=so_stub_for_libtelux_data
-Wl,--defsym=_ZTIN5telux4data9IDataCallE=so_stub_for_libtelux_data
-Wl,--defsym=_ZTIN5telux4data9IIpFilterE=so_stub_for_libtelux_data
-Wl,--defsym=_ZTIN5telux6common12ISDKListenerE=so_stub_for_libtelux_data
-Wl,--defsym=_ZTIN5telux6common13FactoryHelperE=so_stub_for_libtelux_data
-Wl,--defsym=_ZTIN5telux6common16ICommandCallbackE=so_stub_for_libtelux_data
-Wl,--defsym=_ZTIN5telux6common18FunctionalCallbackIJNS0_9ErrorCodeEEEE=so_stub_for_libtelux_data
-Wl,--defsym=_ZTIN5telux6common18FunctionalCallbackIJNS_4data7DdsInfoENS0_9ErrorCodeEEEE=so_stub_for_libtelux_data
-Wl,--defsym=_ZTIN5telux6common22IServiceStatusListenerE=so_stub_for_libtelux_data
-Wl,--defsym=_ZTIN5telux6common5EventE=so_stub_for_libtelux_data
-Wl,--defsym=_ZTINSt13__future_base12_Task_setterISt10unique_ptrINS_7_ResultIvEENS_12_Result_base8_DeleterEENSt6thread8_InvokerISt5tupleIJMN5telux4data9QcmClientEFvSt10shared_ptrINSB_9IDataCallEEEPSC_SD_INSB_12DataCallImplEEEEEEvEE=so_stub_for_libtelux_data
-Wl,--defsym=_ZTINSt13__future_base13_State_baseV27_SetterI18dsi_v2x_ind_info_tRKS2_EE=so_stub_for_libtelux_data
-Wl,--defsym=_ZTINSt13__future_base13_State_baseV27_SetterIjRKjEE=so_stub_for_libtelux_data
-Wl,--defsym=_ZTINSt13__future_base13_State_baseV27_SetterIN5telux4data23NetLinkModeChangeStatusERKS4_EE=so_stub_for_libtelux_data
-Wl,--defsym=_ZTINSt13__future_base13_State_baseV27_SetterIN5telux6common9ErrorCodeEOS4_EE=so_stub_for_libtelux_data
-Wl,--defsym=_ZTINSt13__future_base13_State_baseV27_SetterIN5telux6common9ErrorCodeERKS4_EE=so_stub_for_libtelux_data
-Wl,--defsym=_ZTINSt13__future_base13_State_baseV2E=so_stub_for_libtelux_data
-Wl,--defsym=_ZTINSt13__future_base15_Deferred_stateINSt6thread8_InvokerISt5tupleIJMN5telux4data9QcmClientEFvSt10shared_ptrINS5_9IDataCallEEEPS6_S7_INS5_12DataCallImplEEEEEEvEE=so_stub_for_libtelux_data
-Wl,--defsym=_ZTINSt13__future_base17_Async_state_implINSt6thread8_InvokerISt5tupleIJMN5telux4data9QcmClientEFvSt10shared_ptrINS5_9IDataCallEEEPS6_S7_INS5_12DataCallImplEEEEEEvEE=so_stub_for_libtelux_data
-Wl,--defsym=_ZTINSt13__future_base21_Async_state_commonV2E=so_stub_for_libtelux_data
-Wl,--defsym=_ZTINSt13__future_base7_ResultI18dsi_v2x_ind_info_tEE=so_stub_for_libtelux_data
-Wl,--defsym=_ZTINSt13__future_base7_ResultIbEE=so_stub_for_libtelux_data
-Wl,--defsym=_ZTINSt13__future_base7_ResultIjEE=so_stub_for_libtelux_data
-Wl,--defsym=_ZTINSt13__future_base7_ResultIN5telux4data23NetLinkModeChangeStatusEEE=so_stub_for_libtelux_data
-Wl,--defsym=_ZTINSt13__future_base7_ResultIN5telux6common9ErrorCodeEEE=so_stub_for_libtelux_data
-Wl,--defsym=_ZTINSt13__future_base7_ResultIvEE=so_stub_for_libtelux_data
-Wl,--defsym=_ZTINSt6thread11_State_implINS_8_InvokerISt5tupleIJMN5telux6common14AsyncTaskQueueIvEEFvvEPS6_EEEEEE=so_stub_for_libtelux_data
-Wl,--defsym=_ZTINSt6thread11_State_implINS_8_InvokerISt5tupleIJMNSt13__future_base17_Async_state_implINS1_IS2_IJMN5telux4data9QcmClientEFvSt10shared_ptrINS6_9IDataCallEEEPS7_S8_INS6_12DataCallImplEEEEEEvEEFvvEPSI_EEEEEE=so_stub_for_libtelux_data
-Wl,--defsym=_ZTINSt6thread11_State_implINS_8_InvokerISt5tupleIJZN5telux6common13FactoryHelper10getManagerINS3_4data16IDataLinkManagerEEESt10shared_ptrIT_ENSt7__cxx1112basic_stringIcSt11char_traitsIcESaIcEEERSt8weak_ptrISA_ERSt6vectorISt8functionIFvNS4_13ServiceStatusEEESaISP_EESP_SM_IFSB_SP_EEEUlvE_EEEEEE=so_stub_for_libtelux_data
-Wl,--defsym=_ZTINSt6thread11_State_implINS_8_InvokerISt5tupleIJZN5telux6common13FactoryHelper10getManagerINS3_4data16IDualDataManagerEEESt10shared_ptrIT_ENSt7__cxx1112basic_stringIcSt11char_traitsIcESaIcEEERSt8weak_ptrISA_ERSt6vectorISt8functionIFvNS4_13ServiceStatusEEESaISP_EESP_SM_IFSB_SP_EEEUlvE_EEEEEE=so_stub_for_libtelux_data
-Wl,--defsym=_ZTINSt6thread11_State_implINS_8_InvokerISt5tupleIJZN5telux6common13FactoryHelper10getManagerINS3_4data17IKeepAliveManagerEEESt10shared_ptrIT_ENSt7__cxx1112basic_stringIcSt11char_traitsIcESaIcEEERSt8weak_ptrISA_ERSt6vectorISt8functionIFvNS4_13ServiceStatusEEESaISP_EESP_SM_IFSB_SP_EEEUlvE_EEEEEE=so_stub_for_libtelux_data
-Wl,--defsym=_ZTINSt6thread11_State_implINS_8_InvokerISt5tupleIJZN5telux6common13FactoryHelper10getManagerINS3_4data19IDataControlManagerEEESt10shared_ptrIT_ENSt7__cxx1112basic_stringIcSt11char_traitsIcESaIcEEERSt8weak_ptrISA_ERSt6vectorISt8functionIFvNS4_13ServiceStatusEEESaISP_EESP_SM_IFSB_SP_EEEUlvE_EEEEEE=so_stub_for_libtelux_data
-Wl,--defsym=_ZTINSt6thread11_State_implINS_8_InvokerISt5tupleIJZN5telux6common13FactoryHelper10getManagerINS3_4data22IDataConnectionManagerEEESt10shared_ptrIT_ENSt7__cxx1112basic_stringIcSt11char_traitsIcESaIcEEERSt8weak_ptrISA_ERSt6vectorISt8functionIFvNS4_13ServiceStatusEEESaISP_EESP_SM_IFSB_SP_EEEUlvE_EEEEEE=so_stub_for_libtelux_data
-Wl,--defsym=_ZTINSt6thread11_State_implINS_8_InvokerISt5tupleIJZN5telux6common13FactoryHelper10getManagerINS3_4data3net11INatManagerEEESt10shared_ptrIT_ENSt7__cxx1112basic_stringIcSt11char_traitsIcESaIcEEERSt8weak_ptrISB_ERSt6vectorISt8functionIFvNS4_13ServiceStatusEEESaISQ_EESQ_SN_IFSC_SQ_EEEUlvE_EEEEEE=so_stub_for_libtelux_data
-Wl,--defsym=_ZTINSt6thread11_State_implINS_8_InvokerISt5tupleIJZN5telux6common13FactoryHelper10getManagerINS3_4data3net11IQoSManagerEEESt10shared_ptrIT_ENSt7__cxx1112basic_stringIcSt11char_traitsIcESaIcEEERSt8weak_ptrISB_ERSt6vectorISt8functionIFvNS4_13ServiceStatusEEESaISQ_EESQ_SN_IFSC_SQ_EEEUlvE_EEEEEE=so_stub_for_libtelux_data
-Wl,--defsym=_ZTISt11_Mutex_baseILN9__gnu_cxx12_Lock_policyE2EE=so_stub_for_libtelux_data
-Wl,--defsym=_ZTISt14_Function_base=so_stub_for_libtelux_data
-Wl,--defsym=_ZTISt14unary_functionIRKSt10shared_ptrIN5telux4data21DsiStatusCallbackDataEEvE=so_stub_for_libtelux_data
-Wl,--defsym=_ZTISt15_Sp_counted_ptrIPN5telux4data9DsiClientELN9__gnu_cxx12_Lock_policyE2EE=so_stub_for_libtelux_data
-Wl,--defsym=_ZTISt15_Sp_counted_ptrIPN5telux4data9QcmClientELN9__gnu_cxx12_Lock_policyE2EE=so_stub_for_libtelux_data
-Wl,--defsym=_ZTISt16_Sp_counted_baseILN9__gnu_cxx12_Lock_policyE2EE=so_stub_for_libtelux_data
-Wl,--defsym=_ZTISt17_Weak_result_typeIMN5telux4data22DataProfileManagerImplEFvNS0_6common13ServiceStatusEEE=so_stub_for_libtelux_data
-Wl,--defsym=_ZTISt17_Weak_result_typeIMN5telux4data22DataProfileManagerImplEFvNS0_6common9ErrorCodeEPvEE=so_stub_for_libtelux_data
-Wl,--defsym=_ZTISt17_Weak_result_typeIMN5telux4data22DataProfileManagerImplEFvP31wds_profile_changed_ind_msg_v01EE=so_stub_for_libtelux_data
-Wl,--defsym=_ZTISt17_Weak_result_typeIMN5telux4data9DsiClientEFvRKSt10shared_ptrINS1_21DsiStatusCallbackDataEEEE=so_stub_for_libtelux_data
-Wl,--defsym=_ZTISt17_Weak_result_typeIMN5telux4data9QcmClientEFvSt6vectorISt10shared_ptrINS1_13TftChangeInfoEESaIS6_EEjEE=so_stub_for_libtelux_data
-Wl,--defsym=_ZTISt17_Weak_result_typeIMN5telux4data9QcmClientEFvSt6vectorISt10shared_ptrINS1_19TrafficFlowTemplateEESaIS6_EEEE=so_stub_for_libtelux_data
-Wl,--defsym=_ZTISt23enable_shared_from_thisIN5telux4data16ProfileRetrieverEE=so_stub_for_libtelux_data
-Wl,--defsym=_ZTISt23enable_shared_from_thisIN5telux4data17ClientManagerImplEE=so_stub_for_libtelux_data
-Wl,--defsym=_ZTISt23enable_shared_from_thisIN5telux4data19DataLinkManagerImplEE=so_stub_for_libtelux_data
-Wl,--defsym=_ZTISt23enable_shared_from_thisIN5telux4data19DualDataManagerImplEE=so_stub_for_libtelux_data
-Wl,--defsym=_ZTISt23enable_shared_from_thisIN5telux4data20KeepAliveManagerImplEE=so_stub_for_libtelux_data
-Wl,--defsym=_ZTISt23enable_shared_from_thisIN5telux4data21DataFilterManagerImplEE=so_stub_for_libtelux_data
-Wl,--defsym=_ZTISt23enable_shared_from_thisIN5telux4data22DataControlManagerImplEE=so_stub_for_libtelux_data
-Wl,--defsym=_ZTISt23enable_shared_from_thisIN5telux4data22DataProfileManagerImplEE=so_stub_for_libtelux_data
-Wl,--defsym=_ZTISt23enable_shared_from_thisIN5telux4data23DataSettingsManagerImplEE=so_stub_for_libtelux_data
-Wl,--defsym=_ZTISt23enable_shared_from_thisIN5telux4data24ServingSystemManagerImplEE=so_stub_for_libtelux_data
-Wl,--defsym=_ZTISt23enable_shared_from_thisIN5telux4data25DataConnectionManagerImplEE=so_stub_for_libtelux_data
-Wl,--defsym=_ZTISt23enable_shared_from_thisIN5telux4data25DataSubSystemStateMachineEE=so_stub_for_libtelux_data
-Wl,--defsym=_ZTISt23enable_shared_from_thisIN5telux4data3net14NatManagerImplEE=so_stub_for_libtelux_data
-Wl,--defsym=_ZTISt23enable_shared_from_thisIN5telux4data3net14QoSManagerImplEE=so_stub_for_libtelux_data
-Wl,--defsym=_ZTISt23enable_shared_from_thisIN5telux4data3net15L2tpManagerImplEE=so_stub_for_libtelux_data
-Wl,--defsym=_ZTISt23enable_shared_from_thisIN5telux4data3net15VlanManagerImplEE=so_stub_for_libtelux_data
-Wl,--defsym=_ZTISt23enable_shared_from_thisIN5telux4data3net16SocksManagerImplEE=so_stub_for_libtelux_data
-Wl,--defsym=_ZTISt23enable_shared_from_thisIN5telux4data3net17BridgeManagerImplEE=so_stub_for_libtelux_data
-Wl,--defsym=_ZTISt23enable_shared_from_thisIN5telux4data3net19FirewallManagerImplEE=so_stub_for_libtelux_data
-Wl,--defsym=_ZTISt23_Sp_counted_ptr_inplaceI12QCMAP_ClientSaIS0_ELN9__gnu_cxx12_Lock_policyE2EE=so_stub_for_libtelux_data
-Wl,--defsym=_ZTISt23_Sp_counted_ptr_inplaceIN5telux4data10TftBuilderESaIS2_ELN9__gnu_cxx12_Lock_policyE2EE=so_stub_for_libtelux_data
-Wl,--defsym=_ZTISt23_Sp_counted_ptr_inplaceIN5telux4data11DataProfileESaIS2_ELN9__gnu_cxx12_Lock_policyE2EE=so_stub_for_libtelux_data
-Wl,--defsym=_ZTISt23_Sp_counted_ptr_inplaceIN5telux4data11WdsListenerESaIS2_ELN9__gnu_cxx12_Lock_policyE2EE=so_stub_for_libtelux_data
-Wl,--defsym=_ZTISt23_Sp_counted_ptr_inplaceIN5telux4data12DataCallImplESaIS2_ELN9__gnu_cxx12_Lock_policyE2EE=so_stub_for_libtelux_data
-Wl,--defsym=_ZTISt23_Sp_counted_ptr_inplaceIN5telux4data12EventHandlerESaIS2_ELN9__gnu_cxx12_Lock_policyE2EE=so_stub_for_libtelux_data
-Wl,--defsym=_ZTISt23_Sp_counted_ptr_inplaceIN5telux4data13EspFilterImplESaIS2_ELN9__gnu_cxx12_Lock_policyE2EE=so_stub_for_libtelux_data
-Wl,--defsym=_ZTISt23_Sp_counted_ptr_inplaceIN5telux4data13TcpFilterImplESaIS2_ELN9__gnu_cxx12_Lock_policyE2EE=so_stub_for_libtelux_data
-Wl,--defsym=_ZTISt23_Sp_counted_ptr_inplaceIN5telux4data13TftChangeInfoESaIS2_ELN9__gnu_cxx12_Lock_policyE2EE=so_stub_for_libtelux_data
-Wl,--defsym=_ZTISt23_Sp_counted_ptr_inplaceIN5telux4data13UdpFilterImplESaIS2_ELN9__gnu_cxx12_Lock_policyE2EE=so_stub_for_libtelux_data
-Wl,--defsym=_ZTISt23_Sp_counted_ptr_inplaceIN5telux4data14IcmpFilterImplESaIS2_ELN9__gnu_cxx12_Lock_policyE2EE=so_stub_for_libtelux_data
-Wl,--defsym=_ZTISt23_Sp_counted_ptr_inplaceIN5telux4data14WdsCmdListenerESaIS2_ELN9__gnu_cxx12_Lock_policyE2EE=so_stub_for_libtelux_data
-Wl,--defsym=_ZTISt23_Sp_counted_ptr_inplaceIN5telux4data15APNThrottleInfoESaIS2_ELN9__gnu_cxx12_Lock_policyE2EE=so_stub_for_libtelux_data
-Wl,--defsym=_ZTISt23_Sp_counted_ptr_inplaceIN5telux4data16ProfileRetrieverESaIS2_ELN9__gnu_cxx12_Lock_policyE2EE=so_stub_for_libtelux_data
-Wl,--defsym=_ZTISt23_Sp_counted_ptr_inplaceIN5telux4data17ClientManagerImplESaIS2_ELN9__gnu_cxx12_Lock_policyE2EE=so_stub_for_libtelux_data
-Wl,--defsym=_ZTISt23_Sp_counted_ptr_inplaceIN5telux4data17DataNetlinkClientESaIS2_ELN9__gnu_cxx12_Lock_policyE2EE=so_stub_for_libtelux_data
-Wl,--defsym=_ZTISt23_Sp_counted_ptr_inplaceIN5telux4data17DataPowerListenerESaIS2_ELN9__gnu_cxx12_Lock_policyE2EE=so_stub_for_libtelux_data
-Wl,--defsym=_ZTISt23_Sp_counted_ptr_inplaceIN5telux4data17DualDataDdsSwitchESaIS2_ELN9__gnu_cxx12_Lock_policyE2EE=so_stub_for_libtelux_data
-Wl,--defsym=_ZTISt23_Sp_counted_ptr_inplaceIN5telux4data17KeepAliveListenerESaIS2_ELN9__gnu_cxx12_Lock_policyE2EE=so_stub_for_libtelux_data
-Wl,--defsym=_ZTISt23_Sp_counted_ptr_inplaceIN5telux4data17TrafficFilterImplESaIS2_ELN9__gnu_cxx12_Lock_policyE2EE=so_stub_for_libtelux_data
-Wl,--defsym=_ZTISt23_Sp_counted_ptr_inplaceIN5telux4data18DataSubSystemEventESaIS2_ELN9__gnu_cxx12_Lock_policyE2EE=so_stub_for_libtelux_data
-Wl,--defsym=_ZTISt23_Sp_counted_ptr_inplaceIN5telux4data18DsiEventDispatcherESaIS2_ELN9__gnu_cxx12_Lock_policyE2EE=so_stub_for_libtelux_data
-Wl,--defsym=_ZTISt23_Sp_counted_ptr_inplaceIN5telux4data19DataLinkManagerImplESaIS2_ELN9__gnu_cxx12_Lock_policyE2EE=so_stub_for_libtelux_data
-Wl,--defsym=_ZTISt23_Sp_counted_ptr_inplaceIN5telux4data19DualDataManagerImplESaIS2_ELN9__gnu_cxx12_Lock_policyE2EE=so_stub_for_libtelux_data
-Wl,--defsym=_ZTISt23_Sp_counted_ptr_inplaceIN5telux4data19TrafficFlowTemplateESaIS2_ELN9__gnu_cxx12_Lock_policyE2EE=so_stub_for_libtelux_data
-Wl,--defsym=_ZTISt23_Sp_counted_ptr_inplaceIN5telux4data20KeepAliveManagerImplESaIS2_ELN9__gnu_cxx12_Lock_policyE2EE=so_stub_for_libtelux_data
-Wl,--defsym=_ZTISt23_Sp_counted_ptr_inplaceIN5telux4data21DataFilterManagerImplESaIS2_ELN9__gnu_cxx12_Lock_policyE2EE=so_stub_for_libtelux_data
-Wl,--defsym=_ZTISt23_Sp_counted_ptr_inplaceIN5telux4data21DsiStatusCallbackDataESaIS2_ELN9__gnu_cxx12_Lock_policyE2EE=so_stub_for_libtelux_data
-Wl,--defsym=_ZTISt23_Sp_counted_ptr_inplaceIN5telux4data22BandInterferenceConfigESaIS2_ELN9__gnu_cxx12_Lock_policyE2EE=so_stub_for_libtelux_data
-Wl,--defsym=_ZTISt23_Sp_counted_ptr_inplaceIN5telux4data22DataControlManagerImplESaIS2_ELN9__gnu_cxx12_Lock_policyE2EE=so_stub_for_libtelux_data
-Wl,--defsym=_ZTISt23_Sp_counted_ptr_inplaceIN5telux4data22DataProfileManagerImplESaIS2_ELN9__gnu_cxx12_Lock_policyE2EE=so_stub_for_libtelux_data
-Wl,--defsym=_ZTISt23_Sp_counted_ptr_inplaceIN5telux4data23DataSettingsManagerImplESaIS2_ELN9__gnu_cxx12_Lock_policyE2EE=so_stub_for_libtelux_data
-Wl,--defsym=_ZTISt23_Sp_counted_ptr_inplaceIN5telux4data23NLEthCapabilityCallbackESaIS2_ELN9__gnu_cxx12_Lock_policyE2EE=so_stub_for_libtelux_data
-Wl,--defsym=_ZTISt23_Sp_counted_ptr_inplaceIN5telux4data24ServingSystemManagerImplESaIS2_ELN9__gnu_cxx12_Lock_policyE2EE=so_stub_for_libtelux_data
-Wl,--defsym=_ZTISt23_Sp_counted_ptr_inplaceIN5telux4data25DataConnectionManagerImplESaIS2_ELN9__gnu_cxx12_Lock_policyE2EE=so_stub_for_libtelux_data
-Wl,--defsym=_ZTISt23_Sp_counted_ptr_inplaceIN5telux4data25DataSubSystemStateMachineESaIS2_ELN9__gnu_cxx12_Lock_policyE2EE=so_stub_for_libtelux_data
-Wl,--defsym=_ZTISt23_Sp_counted_ptr_inplaceIN5telux4data27DataConnectionPowerListenerESaIS2_ELN9__gnu_cxx12_Lock_policyE2EE=so_stub_for_libtelux_data
-Wl,--defsym=_ZTISt23_Sp_counted_ptr_inplaceIN5telux4data27DataSubSystemStateAvailableESaIS2_ELN9__gnu_cxx12_Lock_policyE2EE=so_stub_for_libtelux_data
-Wl,--defsym=_ZTISt23_Sp_counted_ptr_inplaceIN5telux4data29DataSubSystemStateUnavailableESaIS2_ELN9__gnu_cxx12_Lock_policyE2EE=so_stub_for_libtelux_data
-Wl,--defsym=_ZTISt23_Sp_counted_ptr_inplaceIN5telux4data30RequestPdnThrottleInfoCallbackESaIS2_ELN9__gnu_cxx12_Lock_policyE2EE=so_stub_for_libtelux_data
-Wl,--defsym=_ZTISt23_Sp_counted_ptr_inplaceIN5telux4data34NLSetLocalEthOperatingModeCallbackESaIS2_ELN9__gnu_cxx12_Lock_policyE2EE=so_stub_for_libtelux_data
-Wl,--defsym=_ZTISt23_Sp_counted_ptr_inplaceIN5telux4data37AddProfileIdInApnThrottleInfoCallbackESaIS2_ELN9__gnu_cxx12_Lock_policyE2EE=so_stub_for_libtelux_data
-Wl,--defsym=_ZTISt23_Sp_counted_ptr_inplaceIN5telux4data3net12TcConfigImplESaIS3_ELN9__gnu_cxx12_Lock_policyE2EE=so_stub_for_libtelux_data
-Wl,--defsym=_ZTISt23_Sp_counted_ptr_inplaceIN5telux4data3net13QoSFilterImplESaIS3_ELN9__gnu_cxx12_Lock_policyE2EE=so_stub_for_libtelux_data
-Wl,--defsym=_ZTISt23_Sp_counted_ptr_inplaceIN5telux4data3net14NatManagerImplESaIS3_ELN9__gnu_cxx12_Lock_policyE2EE=so_stub_for_libtelux_data
-Wl,--defsym=_ZTISt23_Sp_counted_ptr_inplaceIN5telux4data3net14QoSManagerImplESaIS3_ELN9__gnu_cxx12_Lock_policyE2EE=so_stub_for_libtelux_data
-Wl,--defsym=_ZTISt23_Sp_counted_ptr_inplaceIN5telux4data3net15L2tpManagerImplESaIS3_ELN9__gnu_cxx12_Lock_policyE2EE=so_stub_for_libtelux_data
-Wl,--defsym=_ZTISt23_Sp_counted_ptr_inplaceIN5telux4data3net15VlanManagerImplESaIS3_ELN9__gnu_cxx12_Lock_policyE2EE=so_stub_for_libtelux_data
-Wl,--defsym=_ZTISt23_Sp_counted_ptr_inplaceIN5telux4data3net16SocksManagerImplESaIS3_ELN9__gnu_cxx12_Lock_policyE2EE=so_stub_for_libtelux_data
-Wl,--defsym=_ZTISt23_Sp_counted_ptr_inplaceIN5telux4data3net17BridgeManagerImplESaIS3_ELN9__gnu_cxx12_Lock_policyE2EE=so_stub_for_libtelux_data
-Wl,--defsym=_ZTISt23_Sp_counted_ptr_inplaceIN5telux4data3net17FirewallEntryImplESaIS3_ELN9__gnu_cxx12_Lock_policyE2EE=so_stub_for_libtelux_data
-Wl,--defsym=_ZTISt23_Sp_counted_ptr_inplaceIN5telux4data3net19FirewallManagerImplESaIS3_ELN9__gnu_cxx12_Lock_policyE2EE=so_stub_for_libtelux_data
-Wl,--defsym=_ZTISt23_Sp_counted_ptr_inplaceIN5telux4data9DdsSwitchESaIS2_ELN9__gnu_cxx12_Lock_policyE2EE=so_stub_for_libtelux_data
-Wl,--defsym=_ZTISt23_Sp_counted_ptr_inplaceIN5telux4data9EventInfoINS1_21DsiStatusCallbackDataEEESaIS4_ELN9__gnu_cxx12_Lock_policyE2EE=so_stub_for_libtelux_data
-Wl,--defsym=_ZTISt23_Sp_counted_ptr_inplaceIN5telux6common14AsyncTaskQueueIvEESaIS3_ELN9__gnu_cxx12_Lock_policyE2EE=so_stub_for_libtelux_data
-Wl,--defsym=_ZTISt23_Sp_counted_ptr_inplaceIN5telux6common15ListenerManagerESaIS2_ELN9__gnu_cxx12_Lock_policyE2EE=so_stub_for_libtelux_data
-Wl,--defsym=_ZTISt23_Sp_counted_ptr_inplaceIN5telux6common18FunctionalCallbackIJNS0_4data7DdsInfoENS1_9ErrorCodeEEEESaIS6_ELN9__gnu_cxx12_Lock_policyE2EE=so_stub_for_libtelux_data
-Wl,--defsym=_ZTISt23_Sp_counted_ptr_inplaceIN5telux6common18FunctionalCallbackIJNS1_9ErrorCodeEEEESaIS4_ELN9__gnu_cxx12_Lock_policyE2EE=so_stub_for_libtelux_data
-Wl,--defsym=_ZTISt23_Sp_counted_ptr_inplaceINSt13__future_base13_State_baseV2ESaIS1_ELN9__gnu_cxx12_Lock_policyE2EE=so_stub_for_libtelux_data
-Wl,--defsym=_ZTISt23_Sp_counted_ptr_inplaceINSt13__future_base15_Deferred_stateINSt6thread8_InvokerISt5tupleIJMN5telux4data9QcmClientEFvSt10shared_ptrINS6_9IDataCallEEEPS7_S8_INS6_12DataCallImplEEEEEEvEESaISI_ELN9__gnu_cxx12_Lock_policyE2EE=so_stub_for_libtelux_data
-Wl,--defsym=_ZTISt23_Sp_counted_ptr_inplaceINSt13__future_base17_Async_state_implINSt6thread8_InvokerISt5tupleIJMN5telux4data9QcmClientEFvSt10shared_ptrINS6_9IDataCallEEEPS7_S8_INS6_12DataCallImplEEEEEEvEESaISI_ELN9__gnu_cxx12_Lock_policyE2EE=so_stub_for_libtelux_data
-Wl,--defsym=_ZTISt23_Sp_counted_ptr_inplaceISt6atomicIN5telux4data9DrbStatusEESaIS4_ELN9__gnu_cxx12_Lock_policyE2EE=so_stub_for_libtelux_data
-Wl,--defsym=_ZTISt23_Sp_counted_ptr_inplaceISt6threadSaIS0_ELN9__gnu_cxx12_Lock_policyE2EE=so_stub_for_libtelux_data
-Wl,--defsym=_ZTISt24_Weak_result_type_memfunIMN5telux4data22DataProfileManagerImplEFvNS0_6common13ServiceStatusEELb1EE=so_stub_for_libtelux_data
-Wl,--defsym=_ZTISt24_Weak_result_type_memfunIMN5telux4data22DataProfileManagerImplEFvNS0_6common9ErrorCodeEPvELb1EE=so_stub_for_libtelux_data
-Wl,--defsym=_ZTISt24_Weak_result_type_memfunIMN5telux4data22DataProfileManagerImplEFvP31wds_profile_changed_ind_msg_v01ELb1EE=so_stub_for_libtelux_data
-Wl,--defsym=_ZTISt24_Weak_result_type_memfunIMN5telux4data9DsiClientEFvRKSt10shared_ptrINS1_21DsiStatusCallbackDataEEELb1EE=so_stub_for_libtelux_data
-Wl,--defsym=_ZTISt24_Weak_result_type_memfunIMN5telux4data9QcmClientEFvSt6vectorISt10shared_ptrINS1_13TftChangeInfoEESaIS6_EEjELb1EE=so_stub_for_libtelux_data
-Wl,--defsym=_ZTISt24_Weak_result_type_memfunIMN5telux4data9QcmClientEFvSt6vectorISt10shared_ptrINS1_19TrafficFlowTemplateEESaIS6_EEELb1EE=so_stub_for_libtelux_data
-Wl,--defsym=_ZTISt31_Maybe_unary_or_binary_functionIvJRKSt10shared_ptrIN5telux4data21DsiStatusCallbackDataEEEE=so_stub_for_libtelux_data
-Wl,--defsym=_ZTISt5_BindIFMN5telux4data22DataProfileManagerImplEFvNS0_6common13ServiceStatusEEPS2_St12_PlaceholderILi1EEEE=so_stub_for_libtelux_data
-Wl,--defsym=_ZTISt5_BindIFMN5telux4data22DataProfileManagerImplEFvNS0_6common9ErrorCodeEPvEPS2_St12_PlaceholderILi1EES9_ILi2EEEE=so_stub_for_libtelux_data
-Wl,--defsym=_ZTISt5_BindIFMN5telux4data22DataProfileManagerImplEFvP31wds_profile_changed_ind_msg_v01EPS2_St12_PlaceholderILi1EEEE=so_stub_for_libtelux_data
-Wl,--defsym=_ZTISt5_BindIFMN5telux4data9DsiClientEFvRKSt10shared_ptrINS1_21DsiStatusCallbackDataEEEPS2_St12_PlaceholderILi1EEEE=so_stub_for_libtelux_data
-Wl,--defsym=_ZTISt5_BindIFMN5telux4data9QcmClientEFvSt6vectorISt10shared_ptrINS1_13TftChangeInfoEESaIS6_EEjEPS2_St12_PlaceholderILi1EESC_ILi2EEEE=so_stub_for_libtelux_data
-Wl,--defsym=_ZTISt5_BindIFMN5telux4data9QcmClientEFvSt6vectorISt10shared_ptrINS1_19TrafficFlowTemplateEESaIS6_EEEPS2_St12_PlaceholderILi1EEEE=so_stub_for_libtelux_data
-Wl,--defsym=_ZTISt8functionIFvRKSt10shared_ptrIN5telux4data21DsiStatusCallbackDataEEEE=so_stub_for_libtelux_data
-Wl,--defsym=_ZTIZN5telux6common13FactoryHelper10getManagerINS_4data16IDataLinkManagerEEESt10shared_ptrIT_ENSt7__cxx1112basic_stringIcSt11char_traitsIcESaIcEEERSt8weak_ptrIS6_ERSt6vectorISt8functionIFvNS0_13ServiceStatusEEESaISL_EESL_SI_IFS7_SL_EEEUlSJ_E0_=so_stub_for_libtelux_data
-Wl,--defsym=_ZTIZN5telux6common13FactoryHelper10getManagerINS_4data16IDualDataManagerEEESt10shared_ptrIT_ENSt7__cxx1112basic_stringIcSt11char_traitsIcESaIcEEERSt8weak_ptrIS6_ERSt6vectorISt8functionIFvNS0_13ServiceStatusEEESaISL_EESL_SI_IFS7_SL_EEEUlSJ_E0_=so_stub_for_libtelux_data
-Wl,--defsym=_ZTIZN5telux6common13FactoryHelper10getManagerINS_4data17IKeepAliveManagerEEESt10shared_ptrIT_ENSt7__cxx1112basic_stringIcSt11char_traitsIcESaIcEEERSt8weak_ptrIS6_ERSt6vectorISt8functionIFvNS0_13ServiceStatusEEESaISL_EESL_SI_IFS7_SL_EEEUlSJ_E0_=so_stub_for_libtelux_data
-Wl,--defsym=_ZTIZN5telux6common13FactoryHelper10getManagerINS_4data19IDataControlManagerEEESt10shared_ptrIT_ENSt7__cxx1112basic_stringIcSt11char_traitsIcESaIcEEERSt8weak_ptrIS6_ERSt6vectorISt8functionIFvNS0_13ServiceStatusEEESaISL_EESL_SI_IFS7_SL_EEEUlSJ_E0_=so_stub_for_libtelux_data
-Wl,--defsym=_ZTIZN5telux6common13FactoryHelper10getManagerINS_4data22IDataConnectionManagerEEESt10shared_ptrIT_ENSt7__cxx1112basic_stringIcSt11char_traitsIcESaIcEEERSt8weak_ptrIS6_ERSt6vectorISt8functionIFvNS0_13ServiceStatusEEESaISL_EESL_SI_IFS7_SL_EEEUlSJ_E0_=so_stub_for_libtelux_data
-Wl,--defsym=_ZTIZN5telux6common13FactoryHelper10getManagerINS_4data3net11INatManagerEEESt10shared_ptrIT_ENSt7__cxx1112basic_stringIcSt11char_traitsIcESaIcEEERSt8weak_ptrIS7_ERSt6vectorISt8functionIFvNS0_13ServiceStatusEEESaISM_EESM_SJ_IFS8_SM_EEEUlSK_E0_=so_stub_for_libtelux_data
-Wl,--defsym=_ZTIZN5telux6common13FactoryHelper10getManagerINS_4data3net11IQoSManagerEEESt10shared_ptrIT_ENSt7__cxx1112basic_stringIcSt11char_traitsIcESaIcEEERSt8weak_ptrIS7_ERSt6vectorISt8functionIFvNS0_13ServiceStatusEEESaISM_EESM_SJ_IFS8_SM_EEEUlSK_E0_=so_stub_for_libtelux_data
-Wl,--defsym=_ZTSN5telux3qmi12IQmiListenerE=so_stub_for_libtelux_data
-Wl,--defsym=_ZTSN5telux3qmi15IQmiDsdListenerE=so_stub_for_libtelux_data
-Wl,--defsym=_ZTSN5telux3qmi15IQmiWdsListenerE=so_stub_for_libtelux_data
-Wl,--defsym=_ZTSN5telux3qmi17ISysPowerListenerE=so_stub_for_libtelux_data
-Wl,--defsym=_ZTSN5telux3qmi24IQmiDsdSwitchDdsCallbackE=so_stub_for_libtelux_data
-Wl,--defsym=_ZTSN5telux3qmi27IQmiCommandResponseCallbackE=so_stub_for_libtelux_data
-Wl,--defsym=_ZTSN5telux3qmi28IQmiWdsCreateProfileCallbackE=so_stub_for_libtelux_data
-Wl,--defsym=_ZTSN5telux3qmi29IQmiWdsGetProfileListCallbackE=so_stub_for_libtelux_data
-Wl,--defsym=_ZTSN5telux3qmi30IQmiDsdGetServiceStateCallbackE=so_stub_for_libtelux_data
-Wl,--defsym=_ZTSN5telux3qmi31IQmiDsdGetRoamingStatusCallbackE=so_stub_for_libtelux_data
-Wl,--defsym=_ZTSN5telux3qmi31IRequestPdnThrottleInfoCallbackE=so_stub_for_libtelux_data
-Wl,--defsym=_ZTSN5telux3qmi33IQmiWdsGetProfileSettingsCallbackE=so_stub_for_libtelux_data
-Wl,--defsym=_ZTSN5telux3qms18IQmsClientListenerE=so_stub_for_libtelux_data
-Wl,--defsym=_ZTSN5telux4data10IEspFilterE=so_stub_for_libtelux_data
-Wl,--defsym=_ZTSN5telux4data10ITcpFilterE=so_stub_for_libtelux_data
-Wl,--defsym=_ZTSN5telux4data10IUdpFilterE=so_stub_for_libtelux_data
-Wl,--defsym=_ZTSN5telux4data11DataFactoryE=so_stub_for_libtelux_data
-Wl,--defsym=_ZTSN5telux4data11IIcmpFilterE=so_stub_for_libtelux_data
-Wl,--defsym=_ZTSN5telux4data11WdsListenerE=so_stub_for_libtelux_data
-Wl,--defsym=_ZTSN5telux4data12DataCallImplE=so_stub_for_libtelux_data
-Wl,--defsym=_ZTSN5telux4data12IpFilterImplE=so_stub_for_libtelux_data
-Wl,--defsym=_ZTSN5telux4data13EspFilterImplE=so_stub_for_libtelux_data
-Wl,--defsym=_ZTSN5telux4data13EventInfoBaseE=so_stub_for_libtelux_data
-Wl,--defsym=_ZTSN5telux4data13TcpFilterImplE=so_stub_for_libtelux_data
-Wl,--defsym=_ZTSN5telux4data13UdpFilterImplE=so_stub_for_libtelux_data
-Wl,--defsym=_ZTSN5telux4data14IClientManagerE=so_stub_for_libtelux_data
-Wl,--defsym=_ZTSN5telux4data14IcmpFilterImplE=so_stub_for_libtelux_data
-Wl,--defsym=_ZTSN5telux4data14ITrafficFilterE=so_stub_for_libtelux_data
-Wl,--defsym=_ZTSN5telux4data14WdsCmdListenerE=so_stub_for_libtelux_data
-Wl,--defsym=_ZTSN5telux4data15DataFactoryImplE=so_stub_for_libtelux_data
-Wl,--defsym=_ZTSN5telux4data15IClientListenerE=so_stub_for_libtelux_data
-Wl,--defsym=_ZTSN5telux4data16IDataLinkManagerE=so_stub_for_libtelux_data
-Wl,--defsym=_ZTSN5telux4data16IDualDataManagerE=so_stub_for_libtelux_data
-Wl,--defsym=_ZTSN5telux4data16ProfileRetrieverE=so_stub_for_libtelux_data
-Wl,--defsym=_ZTSN5telux4data17ClientManagerImplE=so_stub_for_libtelux_data
-Wl,--defsym=_ZTSN5telux4data17DataPowerListenerE=so_stub_for_libtelux_data
-Wl,--defsym=_ZTSN5telux4data17IDataLinkListenerE=so_stub_for_libtelux_data
-Wl,--defsym=_ZTSN5telux4data17IDualDataListenerE=so_stub_for_libtelux_data
-Wl,--defsym=_ZTSN5telux4data17IKeepAliveManagerE=so_stub_for_libtelux_data
-Wl,--defsym=_ZTSN5telux4data17KeepAliveListenerE=so_stub_for_libtelux_data
-Wl,--defsym=_ZTSN5telux4data17TrafficFilterImplE=so_stub_for_libtelux_data
-Wl,--defsym=_ZTSN5telux4data18DataSubSystemEventE=so_stub_for_libtelux_data
-Wl,--defsym=_ZTSN5telux4data18IDataFilterManagerE=so_stub_for_libtelux_data
-Wl,--defsym=_ZTSN5telux4data18IKeepAliveListenerE=so_stub_for_libtelux_data
-Wl,--defsym=_ZTSN5telux4data18IQcmClientListenerE=so_stub_for_libtelux_data
-Wl,--defsym=_ZTSN5telux4data19DataLinkManagerImplE=so_stub_for_libtelux_data
-Wl,--defsym=_ZTSN5telux4data19DualDataManagerImplE=so_stub_for_libtelux_data
-Wl,--defsym=_ZTSN5telux4data19IDataControlManagerE=so_stub_for_libtelux_data
-Wl,--defsym=_ZTSN5telux4data19IDataFilterListenerE=so_stub_for_libtelux_data
-Wl,--defsym=_ZTSN5telux4data19IDataProfileManagerE=so_stub_for_libtelux_data
-Wl,--defsym=_ZTSN5telux4data20IDataControlListenerE=so_stub_for_libtelux_data
-Wl,--defsym=_ZTSN5telux4data20IDataNetlinkListenerE=so_stub_for_libtelux_data
-Wl,--defsym=_ZTSN5telux4data20IDataProfileListenerE=so_stub_for_libtelux_data
-Wl,--defsym=_ZTSN5telux4data20IDataSettingsManagerE=so_stub_for_libtelux_data
-Wl,--defsym=_ZTSN5telux4data20KeepAliveManagerImplE=so_stub_for_libtelux_data
-Wl,--defsym=_ZTSN5telux4data21DataFilterManagerImplE=so_stub_for_libtelux_data
-Wl,--defsym=_ZTSN5telux4data21IDataSettingsListenerE=so_stub_for_libtelux_data
-Wl,--defsym=_ZTSN5telux4data21IServingSystemManagerE=so_stub_for_libtelux_data
-Wl,--defsym=_ZTSN5telux4data22DataControlManagerImplE=so_stub_for_libtelux_data
-Wl,--defsym=_ZTSN5telux4data22DataProfileManagerImplE=so_stub_for_libtelux_data
-Wl,--defsym=_ZTSN5telux4data22IDataConnectionManagerE=so_stub_for_libtelux_data
-Wl,--defsym=_ZTSN5telux4data22IServingSystemListenerE=so_stub_for_libtelux_data
-Wl,--defsym=_ZTSN5telux4data23DataSettingsManagerImplE=so_stub_for_libtelux_data
-Wl,--defsym=_ZTSN5telux4data23IDataConnectionListenerE=so_stub_for_libtelux_data
-Wl,--defsym=_ZTSN5telux4data23NLEthCapabilityCallbackE=so_stub_for_libtelux_data
-Wl,--defsym=_ZTSN5telux4data24IDataProfileListCallbackE=so_stub_for_libtelux_data
-Wl,--defsym=_ZTSN5telux4data24ServingSystemManagerImplE=so_stub_for_libtelux_data
-Wl,--defsym=_ZTSN5telux4data25DataConnectionManagerImplE=so_stub_for_libtelux_data
-Wl,--defsym=_ZTSN5telux4data25DataSubSystemStateMachineE=so_stub_for_libtelux_data
-Wl,--defsym=_ZTSN5telux4data25IProfileRetrieverCallbackE=so_stub_for_libtelux_data
-Wl,--defsym=_ZTSN5telux4data27DataConnectionPowerListenerE=so_stub_for_libtelux_data
-Wl,--defsym=_ZTSN5telux4data27DataSubSystemStateAvailableE=so_stub_for_libtelux_data
-Wl,--defsym=_ZTSN5telux4data29DataSubSystemStateUnavailableE=so_stub_for_libtelux_data
-Wl,--defsym=_ZTSN5telux4data30RequestPdnThrottleInfoCallbackE=so_stub_for_libtelux_data
-Wl,--defsym=_ZTSN5telux4data34NLSetLocalEthOperatingModeCallbackE=so_stub_for_libtelux_data
-Wl,--defsym=_ZTSN5telux4data37AddProfileIdInApnThrottleInfoCallbackE=so_stub_for_libtelux_data
-Wl,--defsym=_ZTSN5telux4data3net10IQoSFilterE=so_stub_for_libtelux_data
-Wl,--defsym=_ZTSN5telux4data3net11INatManagerE=so_stub_for_libtelux_data
-Wl,--defsym=_ZTSN5telux4data3net11IQoSManagerE=so_stub_for_libtelux_data
-Wl,--defsym=_ZTSN5telux4data3net12IL2tpManagerE=so_stub_for_libtelux_data
-Wl,--defsym=_ZTSN5telux4data3net12INatListenerE=so_stub_for_libtelux_data
-Wl,--defsym=_ZTSN5telux4data3net12IQoSListenerE=so_stub_for_libtelux_data
-Wl,--defsym=_ZTSN5telux4data3net12IVlanManagerE=so_stub_for_libtelux_data
-Wl,--defsym=_ZTSN5telux4data3net12TcConfigImplE=so_stub_for_libtelux_data
-Wl,--defsym=_ZTSN5telux4data3net13IL2tpListenerE=so_stub_for_libtelux_data
-Wl,--defsym=_ZTSN5telux4data3net13ISocksManagerE=so_stub_for_libtelux_data
-Wl,--defsym=_ZTSN5telux4data3net13IVlanListenerE=so_stub_for_libtelux_data
-Wl,--defsym=_ZTSN5telux4data3net13QoSFilterImplE=so_stub_for_libtelux_data
-Wl,--defsym=_ZTSN5telux4data3net14IBridgeManagerE=so_stub_for_libtelux_data
-Wl,--defsym=_ZTSN5telux4data3net14IFirewallEntryE=so_stub_for_libtelux_data
-Wl,--defsym=_ZTSN5telux4data3net14ISocksListenerE=so_stub_for_libtelux_data
-Wl,--defsym=_ZTSN5telux4data3net14NatManagerImplE=so_stub_for_libtelux_data
-Wl,--defsym=_ZTSN5telux4data3net14QoSManagerImplE=so_stub_for_libtelux_data
-Wl,--defsym=_ZTSN5telux4data3net15IBridgeListenerE=so_stub_for_libtelux_data
-Wl,--defsym=_ZTSN5telux4data3net15L2tpManagerImplE=so_stub_for_libtelux_data
-Wl,--defsym=_ZTSN5telux4data3net15VlanManagerImplE=so_stub_for_libtelux_data
-Wl,--defsym=_ZTSN5telux4data3net16IFirewallManagerE=so_stub_for_libtelux_data
-Wl,--defsym=_ZTSN5telux4data3net16SocksManagerImplE=so_stub_for_libtelux_data
-Wl,--defsym=_ZTSN5telux4data3net17BridgeManagerImplE=so_stub_for_libtelux_data
-Wl,--defsym=_ZTSN5telux4data3net17FirewallEntryImplE=so_stub_for_libtelux_data
-Wl,--defsym=_ZTSN5telux4data3net17IFirewallListenerE=so_stub_for_libtelux_data
-Wl,--defsym=_ZTSN5telux4data3net19FirewallManagerImplE=so_stub_for_libtelux_data
-Wl,--defsym=_ZTSN5telux4data3net9ITcConfigE=so_stub_for_libtelux_data
-Wl,--defsym=_ZTSN5telux4data9EventInfoINS0_21DsiStatusCallbackDataEEE=so_stub_for_libtelux_data
-Wl,--defsym=_ZTSN5telux4data9IDataCallE=so_stub_for_libtelux_data
-Wl,--defsym=_ZTSN5telux4data9IIpFilterE=so_stub_for_libtelux_data
-Wl,--defsym=_ZTSN5telux6common12ISDKListenerE=so_stub_for_libtelux_data
-Wl,--defsym=_ZTSN5telux6common13FactoryHelperE=so_stub_for_libtelux_data
-Wl,--defsym=_ZTSN5telux6common16ICommandCallbackE=so_stub_for_libtelux_data
-Wl,--defsym=_ZTSN5telux6common18FunctionalCallbackIJNS0_9ErrorCodeEEEE=so_stub_for_libtelux_data
-Wl,--defsym=_ZTSN5telux6common18FunctionalCallbackIJNS_4data7DdsInfoENS0_9ErrorCodeEEEE=so_stub_for_libtelux_data
-Wl,--defsym=_ZTSN5telux6common22IServiceStatusListenerE=so_stub_for_libtelux_data
-Wl,--defsym=_ZTSN5telux6common5EventE=so_stub_for_libtelux_data
-Wl,--defsym=_ZTSNSt13__future_base12_Task_setterISt10unique_ptrINS_7_ResultIvEENS_12_Result_base8_DeleterEENSt6thread8_InvokerISt5tupleIJMN5telux4data9QcmClientEFvSt10shared_ptrINSB_9IDataCallEEEPSC_SD_INSB_12DataCallImplEEEEEEvEE=so_stub_for_libtelux_data
-Wl,--defsym=_ZTSNSt13__future_base13_State_baseV27_SetterI18dsi_v2x_ind_info_tRKS2_EE=so_stub_for_libtelux_data
-Wl,--defsym=_ZTSNSt13__future_base13_State_baseV27_SetterIjRKjEE=so_stub_for_libtelux_data
-Wl,--defsym=_ZTSNSt13__future_base13_State_baseV27_SetterIN5telux4data23NetLinkModeChangeStatusERKS4_EE=so_stub_for_libtelux_data
-Wl,--defsym=_ZTSNSt13__future_base13_State_baseV27_SetterIN5telux6common9ErrorCodeEOS4_EE=so_stub_for_libtelux_data
-Wl,--defsym=_ZTSNSt13__future_base13_State_baseV27_SetterIN5telux6common9ErrorCodeERKS4_EE=so_stub_for_libtelux_data
-Wl,--defsym=_ZTSNSt13__future_base13_State_baseV2E=so_stub_for_libtelux_data
-Wl,--defsym=_ZTSNSt13__future_base15_Deferred_stateINSt6thread8_InvokerISt5tupleIJMN5telux4data9QcmClientEFvSt10shared_ptrINS5_9IDataCallEEEPS6_S7_INS5_12DataCallImplEEEEEEvEE=so_stub_for_libtelux_data
-Wl,--defsym=_ZTSNSt13__future_base17_Async_state_implINSt6thread8_InvokerISt5tupleIJMN5telux4data9QcmClientEFvSt10shared_ptrINS5_9IDataCallEEEPS6_S7_INS5_12DataCallImplEEEEEEvEE=so_stub_for_libtelux_data
-Wl,--defsym=_ZTSNSt13__future_base21_Async_state_commonV2E=so_stub_for_libtelux_data
-Wl,--defsym=_ZTSNSt13__future_base7_ResultI18dsi_v2x_ind_info_tEE=so_stub_for_libtelux_data
-Wl,--defsym=_ZTSNSt13__future_base7_ResultIbEE=so_stub_for_libtelux_data
-Wl,--defsym=_ZTSNSt13__future_base7_ResultIjEE=so_stub_for_libtelux_data
-Wl,--defsym=_ZTSNSt13__future_base7_ResultIN5telux4data23NetLinkModeChangeStatusEEE=so_stub_for_libtelux_data
-Wl,--defsym=_ZTSNSt13__future_base7_ResultIN5telux6common9ErrorCodeEEE=so_stub_for_libtelux_data
-Wl,--defsym=_ZTSNSt13__future_base7_ResultIvEE=so_stub_for_libtelux_data
-Wl,--defsym=_ZTSNSt6thread11_State_implINS_8_InvokerISt5tupleIJMN5telux6common14AsyncTaskQueueIvEEFvvEPS6_EEEEEE=so_stub_for_libtelux_data
-Wl,--defsym=_ZTSNSt6thread11_State_implINS_8_InvokerISt5tupleIJMNSt13__future_base17_Async_state_implINS1_IS2_IJMN5telux4data9QcmClientEFvSt10shared_ptrINS6_9IDataCallEEEPS7_S8_INS6_12DataCallImplEEEEEEvEEFvvEPSI_EEEEEE=so_stub_for_libtelux_data
-Wl,--defsym=_ZTSNSt6thread11_State_implINS_8_InvokerISt5tupleIJZN5telux6common13FactoryHelper10getManagerINS3_4data16IDataLinkManagerEEESt10shared_ptrIT_ENSt7__cxx1112basic_stringIcSt11char_traitsIcESaIcEEERSt8weak_ptrISA_ERSt6vectorISt8functionIFvNS4_13ServiceStatusEEESaISP_EESP_SM_IFSB_SP_EEEUlvE_EEEEEE=so_stub_for_libtelux_data
-Wl,--defsym=_ZTSNSt6thread11_State_implINS_8_InvokerISt5tupleIJZN5telux6common13FactoryHelper10getManagerINS3_4data16IDualDataManagerEEESt10shared_ptrIT_ENSt7__cxx1112basic_stringIcSt11char_traitsIcESaIcEEERSt8weak_ptrISA_ERSt6vectorISt8functionIFvNS4_13ServiceStatusEEESaISP_EESP_SM_IFSB_SP_EEEUlvE_EEEEEE=so_stub_for_libtelux_data
-Wl,--defsym=_ZTSNSt6thread11_State_implINS_8_InvokerISt5tupleIJZN5telux6common13FactoryHelper10getManagerINS3_4data17IKeepAliveManagerEEESt10shared_ptrIT_ENSt7__cxx1112basic_stringIcSt11char_traitsIcESaIcEEERSt8weak_ptrISA_ERSt6vectorISt8functionIFvNS4_13ServiceStatusEEESaISP_EESP_SM_IFSB_SP_EEEUlvE_EEEEEE=so_stub_for_libtelux_data
-Wl,--defsym=_ZTSNSt6thread11_State_implINS_8_InvokerISt5tupleIJZN5telux6common13FactoryHelper10getManagerINS3_4data19IDataControlManagerEEESt10shared_ptrIT_ENSt7__cxx1112basic_stringIcSt11char_traitsIcESaIcEEERSt8weak_ptrISA_ERSt6vectorISt8functionIFvNS4_13ServiceStatusEEESaISP_EESP_SM_IFSB_SP_EEEUlvE_EEEEEE=so_stub_for_libtelux_data
-Wl,--defsym=_ZTSNSt6thread11_State_implINS_8_InvokerISt5tupleIJZN5telux6common13FactoryHelper10getManagerINS3_4data22IDataConnectionManagerEEESt10shared_ptrIT_ENSt7__cxx1112basic_stringIcSt11char_traitsIcESaIcEEERSt8weak_ptrISA_ERSt6vectorISt8functionIFvNS4_13ServiceStatusEEESaISP_EESP_SM_IFSB_SP_EEEUlvE_EEEEEE=so_stub_for_libtelux_data
-Wl,--defsym=_ZTSNSt6thread11_State_implINS_8_InvokerISt5tupleIJZN5telux6common13FactoryHelper10getManagerINS3_4data3net11INatManagerEEESt10shared_ptrIT_ENSt7__cxx1112basic_stringIcSt11char_traitsIcESaIcEEERSt8weak_ptrISB_ERSt6vectorISt8functionIFvNS4_13ServiceStatusEEESaISQ_EESQ_SN_IFSC_SQ_EEEUlvE_EEEEEE=so_stub_for_libtelux_data
-Wl,--defsym=_ZTSNSt6thread11_State_implINS_8_InvokerISt5tupleIJZN5telux6common13FactoryHelper10getManagerINS3_4data3net11IQoSManagerEEESt10shared_ptrIT_ENSt7__cxx1112basic_stringIcSt11char_traitsIcESaIcEEERSt8weak_ptrISB_ERSt6vectorISt8functionIFvNS4_13ServiceStatusEEESaISQ_EESQ_SN_IFSC_SQ_EEEUlvE_EEEEEE=so_stub_for_libtelux_data
-Wl,--defsym=_ZTSSt11_Mutex_baseILN9__gnu_cxx12_Lock_policyE2EE=so_stub_for_libtelux_data
-Wl,--defsym=_ZTSSt14_Function_base=so_stub_for_libtelux_data
-Wl,--defsym=_ZTSSt14unary_functionIRKSt10shared_ptrIN5telux4data21DsiStatusCallbackDataEEvE=so_stub_for_libtelux_data
-Wl,--defsym=_ZTSSt15_Sp_counted_ptrIPN5telux4data9DsiClientELN9__gnu_cxx12_Lock_policyE2EE=so_stub_for_libtelux_data
-Wl,--defsym=_ZTSSt15_Sp_counted_ptrIPN5telux4data9QcmClientELN9__gnu_cxx12_Lock_policyE2EE=so_stub_for_libtelux_data
-Wl,--defsym=_ZTSSt16_Sp_counted_baseILN9__gnu_cxx12_Lock_policyE2EE=so_stub_for_libtelux_data
-Wl,--defsym=_ZTSSt17_Weak_result_typeIMN5telux4data22DataProfileManagerImplEFvNS0_6common13ServiceStatusEEE=so_stub_for_libtelux_data
-Wl,--defsym=_ZTSSt17_Weak_result_typeIMN5telux4data22DataProfileManagerImplEFvNS0_6common9ErrorCodeEPvEE=so_stub_for_libtelux_data
-Wl,--defsym=_ZTSSt17_Weak_result_typeIMN5telux4data22DataProfileManagerImplEFvP31wds_profile_changed_ind_msg_v01EE=so_stub_for_libtelux_data
