-Wl,--defsym=configManagerInit=so_stub_for_libtelux_config
-Wl,--defsym=__gcov_error_file=so_stub_for_libtelux_config
-Wl,--defsym=__gcov_kvp_dynamic_pool=so_stub_for_libtelux_config
-Wl,--defsym=__gcov_kvp_dynamic_pool_index=so_stub_for_libtelux_config
-Wl,--defsym=__gcov_kvp_dynamic_pool_size=so_stub_for_libtelux_config
-Wl,--defsym=__gcov_master=so_stub_for_libtelux_config
-Wl,--defsym=__gcov_var=so_stub_for_libtelux_config
-Wl,--defsym=mangle_path=so_stub_for_libtelux_config
-Wl,--defsym=_ZN5telux3qmi18IQmiConfigListener21onConfigurationUpdateEP25config_update_ind_msg_v01=so_stub_for_libtelux_config
-Wl,--defsym=_ZN5telux3qmi18IQmiConfigListener27onConfigServiceStatusChangeENS_6common13ServiceStatusE=so_stub_for_libtelux_config
-Wl,--defsym=_ZN5telux3qmi23IQmiModemConfigListener14onLoadConfiIndERK27pdc_load_config_ind_msg_v01=so_stub_for_libtelux_config
-Wl,--defsym=_ZN5telux3qmi23IQmiModemConfigListener15onGetFeatureIndERK27pdc_get_feature_ind_msg_v01=so_stub_for_libtelux_config
-Wl,--defsym=_ZN5telux3qmi23IQmiModemConfigListener15onSetFeatureIndERK27pdc_set_feature_ind_msg_v01=so_stub_for_libtelux_config
-Wl,--defsym=_ZN5telux3qmi23IQmiModemConfigListener17onDeleteConfigIndERK29pdc_delete_config_ind_msg_v01=so_stub_for_libtelux_config
-Wl,--defsym=_ZN5telux3qmi23IQmiModemConfigListener18onConfigRefreshIndERK23pdc_refresh_ind_msg_v01=so_stub_for_libtelux_config
-Wl,--defsym=_ZN5telux3qmi23IQmiModemConfigListener18onGetConfigInfoIndERK31pdc_get_config_info_ind_msg_v01=so_stub_for_libtelux_config
-Wl,--defsym=_ZN5telux3qmi23IQmiModemConfigListener18onGetConfigListIndERK28pdc_list_configs_ind_msg_v01=so_stub_for_libtelux_config
-Wl,--defsym=_ZN5telux3qmi23IQmiModemConfigListener19onActivateConfigIndERK31pdc_activate_config_ind_msg_v01=so_stub_for_libtelux_config
-Wl,--defsym=_ZN5telux3qmi23IQmiModemConfigListener20onGetSelectConfigIndERK35pdc_get_selected_config_ind_msg_v01=so_stub_for_libtelux_config
-Wl,--defsym=_ZN5telux3qmi23IQmiModemConfigListener20onSetSelectConfigIndERK35pdc_set_selected_config_ind_msg_v01=so_stub_for_libtelux_config
-Wl,--defsym=_ZN5telux3qmi23IQmiModemConfigListener21onDeactivateConfigIndERK33pdc_deactivate_config_ind_msg_v01=so_stub_for_libtelux_config
-Wl,--defsym=_ZN5telux3qmi23IQmiModemConfigListener25onGetDefaultConfigInfoIndERK39pdc_get_default_config_info_ind_msg_v01=so_stub_for_libtelux_config
-Wl,--defsym=_ZN5telux3qmi23IQmiModemConfigListener32onModemConfigServiceStatusChangeENS_6common13ServiceStatusE=so_stub_for_libtelux_config
-Wl,--defsym=_ZN5telux6common13FactoryHelper10getManagerINS_6config14IConfigManagerEEESt10shared_ptrIT_ENSt7__cxx1112basic_stringIcSt11char_traitsIcESaIcEEERSt8weak_ptrIS6_ERSt6vectorISt8functionIFvNS0_13ServiceStatusEEESaISL_EESL_SI_IFS7_SL_S5_INS0_14AsyncTaskQueueIvEEEEESR_=so_stub_for_libtelux_config
-Wl,--defsym=_ZN5telux6common13FactoryHelper10getManagerINS_6config19IModemConfigManagerEEESt10shared_ptrIT_ENSt7__cxx1112basic_stringIcSt11char_traitsIcESaIcEEERSt8weak_ptrIS6_ERSt6vectorISt8functionIFvNS0_13ServiceStatusEEESaISL_EESL_SI_IFS7_SL_EE=so_stub_for_libtelux_config
-Wl,--defsym=_ZN5telux6common13FactoryHelper20initCompleteNotifierENSt7__cxx1112basic_stringIcSt11char_traitsIcESaIcEEERSt6vectorISt8functionIFvNS0_13ServiceStatusEEESaISC_EESA_=so_stub_for_libtelux_config
-Wl,--defsym=_ZN5telux6common14AsyncTaskQueueIvE11executeTaskEv=so_stub_for_libtelux_config
-Wl,--defsym=_ZN5telux6common14AsyncTaskQueueIvE14purgeCompletedEv=so_stub_for_libtelux_config
-Wl,--defsym=_ZN5telux6common14AsyncTaskQueueIvE3addERSt13shared_futureIvE=so_stub_for_libtelux_config
-Wl,--defsym=_ZN5telux6common14AsyncTaskQueueIvE8shutdownEb=so_stub_for_libtelux_config
-Wl,--defsym=_ZN5telux6common14AsyncTaskQueueIvEC1Ev=so_stub_for_libtelux_config
-Wl,--defsym=_ZN5telux6common14AsyncTaskQueueIvEC2Ev=so_stub_for_libtelux_config
-Wl,--defsym=_ZN5telux6common14AsyncTaskQueueIvED1Ev=so_stub_for_libtelux_config
-Wl,--defsym=_ZN5telux6common14AsyncTaskQueueIvED2Ev=so_stub_for_libtelux_config
-Wl,--defsym=_ZN5telux6common15ListenerManager16registerListenerESt8weak_ptrINS0_12ISDKListenerEE=so_stub_for_libtelux_config
-Wl,--defsym=_ZN5telux6common15ListenerManager18deRegisterListenerESt8weak_ptrINS0_12ISDKListenerEE=so_stub_for_libtelux_config
-Wl,--defsym=_ZN5telux6common15ListenerManager21getAvailableListenersERSt6vectorISt8weak_ptrINS0_12ISDKListenerEESaIS5_EE=so_stub_for_libtelux_config
-Wl,--defsym=_ZN5telux6common15ListenerManager5purgeEv=so_stub_for_libtelux_config
-Wl,--defsym=_ZN5telux6common15ListenerManager7cleanupEv=so_stub_for_libtelux_config
-Wl,--defsym=_ZN5telux6common15ListenerManagerC1Ev=so_stub_for_libtelux_config
-Wl,--defsym=_ZN5telux6common15ListenerManagerC2Ev=so_stub_for_libtelux_config
-Wl,--defsym=_ZN5telux6common15ListenerManagerD1Ev=so_stub_for_libtelux_config
-Wl,--defsym=_ZN5telux6common15ListenerManagerD2Ev=so_stub_for_libtelux_config
-Wl,--defsym=_ZN5telux6common18FunctionalCallbackIJNS0_9ErrorCodeEEED0Ev=so_stub_for_libtelux_config
-Wl,--defsym=_ZN5telux6common18FunctionalCallbackIJNS0_9ErrorCodeEEED1Ev=so_stub_for_libtelux_config
-Wl,--defsym=_ZN5telux6common18FunctionalCallbackIJNS0_9ErrorCodeEEED2Ev=so_stub_for_libtelux_config
-Wl,--defsym=_ZN5telux6common18FunctionalCallbackIJNS_6config10ConfigInfoENS0_9ErrorCodeEEED0Ev=so_stub_for_libtelux_config
-Wl,--defsym=_ZN5telux6common18FunctionalCallbackIJNS_6config10ConfigInfoENS0_9ErrorCodeEEED1Ev=so_stub_for_libtelux_config
-Wl,--defsym=_ZN5telux6common18FunctionalCallbackIJNS_6config10ConfigInfoENS0_9ErrorCodeEEED2Ev=so_stub_for_libtelux_config
-Wl,--defsym=_ZN5telux6common18FunctionalCallbackIJNS_6config17AutoSelectionModeENS0_9ErrorCodeEEED0Ev=so_stub_for_libtelux_config
-Wl,--defsym=_ZN5telux6common18FunctionalCallbackIJNS_6config17AutoSelectionModeENS0_9ErrorCodeEEED1Ev=so_stub_for_libtelux_config
-Wl,--defsym=_ZN5telux6common18FunctionalCallbackIJNS_6config17AutoSelectionModeENS0_9ErrorCodeEEED2Ev=so_stub_for_libtelux_config
-Wl,--defsym=_ZN5telux6common18FunctionalCallbackIJSt6vectorINS_6config10ConfigInfoESaIS4_EENS0_9ErrorCodeEEED0Ev=so_stub_for_libtelux_config
-Wl,--defsym=_ZN5telux6common18FunctionalCallbackIJSt6vectorINS_6config10ConfigInfoESaIS4_EENS0_9ErrorCodeEEED1Ev=so_stub_for_libtelux_config
-Wl,--defsym=_ZN5telux6common18FunctionalCallbackIJSt6vectorINS_6config10ConfigInfoESaIS4_EENS0_9ErrorCodeEEED2Ev=so_stub_for_libtelux_config
-Wl,--defsym=_ZN5telux6common22CommandCallbackManager11addCallbackIJNS0_9ErrorCodeEEEEiSt8functionIFvDpT_EE=so_stub_for_libtelux_config
-Wl,--defsym=_ZN5telux6common22CommandCallbackManager11addCallbackIJNS_6config10ConfigInfoENS0_9ErrorCodeEEEEiSt8functionIFvDpT_EE=so_stub_for_libtelux_config
-Wl,--defsym=_ZN5telux6common22CommandCallbackManager11addCallbackIJNS_6config17AutoSelectionModeENS0_9ErrorCodeEEEEiSt8functionIFvDpT_EE=so_stub_for_libtelux_config
-Wl,--defsym=_ZN5telux6common22CommandCallbackManager11addCallbackIJSt6vectorINS_6config10ConfigInfoESaIS5_EENS0_9ErrorCodeEEEEiSt8functionIFvDpT_EE=so_stub_for_libtelux_config
-Wl,--defsym=_ZN5telux6common22CommandCallbackManager15executeCallbackIJRNS0_9ErrorCodeEEEEvSt10shared_ptrINS0_16ICommandCallbackEEDpOT_=so_stub_for_libtelux_config
-Wl,--defsym=_ZN5telux6common22CommandCallbackManager15executeCallbackIJRNS_6config10ConfigInfoERNS0_9ErrorCodeEEEEvSt10shared_ptrINS0_16ICommandCallbackEEDpOT_=so_stub_for_libtelux_config
-Wl,--defsym=_ZN5telux6common22CommandCallbackManager15executeCallbackIJRNS_6config17AutoSelectionModeERNS0_9ErrorCodeEEEEvSt10shared_ptrINS0_16ICommandCallbackEEDpOT_=so_stub_for_libtelux_config
-Wl,--defsym=_ZN5telux6common22CommandCallbackManager15executeCallbackIJRSt6vectorINS_6config10ConfigInfoESaIS5_EERNS0_9ErrorCodeEEEEvSt10shared_ptrINS0_16ICommandCallbackEEDpOT_=so_stub_for_libtelux_config
-Wl,--defsym=_ZN5telux6common3Log10logMessageIJNSt7__cxx1112basic_stringIcSt11char_traitsIcESaIcEEEPKcmSA_PNS_6config14IConfigManagerESA_iEEEvNS0_8LogLevelERKS8_SG_RKiDpT_=so_stub_for_libtelux_config
-Wl,--defsym=_ZN5telux6common3Log10logMessageIJNSt7__cxx1112basic_stringIcSt11char_traitsIcESaIcEEEPKcmSA_PNS_6config19IModemConfigManagerESA_iEEEvNS0_8LogLevelERKS8_SG_RKiDpT_=so_stub_for_libtelux_config
-Wl,--defsym=_ZN5telux6common3Log10logMessageIJNSt7__cxx1112basic_stringIcSt11char_traitsIcESaIcEEEPKcPNS_6config14IConfigManagerEEEEvNS0_8LogLevelERKS8_SG_RKiDpT_=so_stub_for_libtelux_config
-Wl,--defsym=_ZN5telux6common3Log10logMessageIJNSt7__cxx1112basic_stringIcSt11char_traitsIcESaIcEEEPKcPNS_6config14IConfigManagerESA_EEEvNS0_8LogLevelERKS8_SG_RKiDpT_=so_stub_for_libtelux_config
-Wl,--defsym=_ZN5telux6common3Log10logMessageIJNSt7__cxx1112basic_stringIcSt11char_traitsIcESaIcEEEPKcPNS_6config14IConfigManagerESA_iEEEvNS0_8LogLevelERKS8_SG_RKiDpT_=so_stub_for_libtelux_config
-Wl,--defsym=_ZN5telux6common3Log10logMessageIJNSt7__cxx1112basic_stringIcSt11char_traitsIcESaIcEEEPKcPNS_6config19IModemConfigManagerEEEEvNS0_8LogLevelERKS8_SG_RKiDpT_=so_stub_for_libtelux_config
-Wl,--defsym=_ZN5telux6common3Log10logMessageIJNSt7__cxx1112basic_stringIcSt11char_traitsIcESaIcEEEPKcPNS_6config19IModemConfigManagerESA_EEEvNS0_8LogLevelERKS8_SG_RKiDpT_=so_stub_for_libtelux_config
-Wl,--defsym=_ZN5telux6common3Log10logMessageIJNSt7__cxx1112basic_stringIcSt11char_traitsIcESaIcEEEPKcPNS_6config19IModemConfigManagerESA_iEEEvNS0_8LogLevelERKS8_SG_RKiDpT_=so_stub_for_libtelux_config
-Wl,--defsym=_ZN5telux6common3Log10logMessageIJPKc18qmi_error_type_v01EEEvNS0_8LogLevelERKNSt7__cxx1112basic_stringIcSt11char_traitsIcESaIcEEESE_RKiDpT_=so_stub_for_libtelux_config
-Wl,--defsym=_ZN5telux6common3Log10logMessageIJPKcEEEvNS0_8LogLevelERKNSt7__cxx1112basic_stringIcSt11char_traitsIcESaIcEEESD_RKiDpT_=so_stub_for_libtelux_config
-Wl,--defsym=_ZN5telux6common3Log10logMessageIJPKcjEEEvNS0_8LogLevelERKNSt7__cxx1112basic_stringIcSt11char_traitsIcESaIcEEESD_RKiDpT_=so_stub_for_libtelux_config
-Wl,--defsym=_ZN5telux6common3Log10logMessageIJPKcmEEEvNS0_8LogLevelERKNSt7__cxx1112basic_stringIcSt11char_traitsIcESaIcEEESD_RKiDpT_=so_stub_for_libtelux_config
-Wl,--defsym=_ZN5telux6common3Log10logMessageIJPKcNSt7__cxx1112basic_stringIcSt11char_traitsIcESaIcEEES4_PNS_6config14IConfigManagerEEEEvNS0_8LogLevelERKSA_SG_RKiDpT_=so_stub_for_libtelux_config
-Wl,--defsym=_ZN5telux6common3Log10logMessageIJPKcNSt7__cxx1112basic_stringIcSt11char_traitsIcESaIcEEES4_PNS_6config19IModemConfigManagerEEEEvNS0_8LogLevelERKSA_SG_RKiDpT_=so_stub_for_libtelux_config
-Wl,--defsym=_ZN5telux6common3Log10logMessageIJPKcS4_bEEEvNS0_8LogLevelERKNSt7__cxx1112basic_stringIcSt11char_traitsIcESaIcEEESD_RKiDpT_=so_stub_for_libtelux_config
-Wl,--defsym=_ZN5telux6common3Log10logMessageIJPKcS4_EEEvNS0_8LogLevelERKNSt7__cxx1112basic_stringIcSt11char_traitsIcESaIcEEESD_RKiDpT_=so_stub_for_libtelux_config
-Wl,--defsym=_ZN5telux6common3Log10logMessageIJPKcS4_iEEEvNS0_8LogLevelERKNSt7__cxx1112basic_stringIcSt11char_traitsIcESaIcEEESD_RKiDpT_=so_stub_for_libtelux_config
-Wl,--defsym=_ZN5telux6common3Log10logMessageIJPKcS4_iS4_mEEEvNS0_8LogLevelERKNSt7__cxx1112basic_stringIcSt11char_traitsIcESaIcEEESD_RKiDpT_=so_stub_for_libtelux_config
-Wl,--defsym=_ZN5telux6common3Log10logMessageIJPKcS4_mEEEvNS0_8LogLevelERKNSt7__cxx1112basic_stringIcSt11char_traitsIcESaIcEEESD_RKiDpT_=so_stub_for_libtelux_config
-Wl,--defsym=_ZN5telux6common3Log10logMessageIJPKcS4_NSt7__cxx1112basic_stringIcSt11char_traitsIcESaIcEEEEEEvNS0_8LogLevelERKSA_SD_RKiDpT_=so_stub_for_libtelux_config
-Wl,--defsym=_ZN5telux6common3Log10logMessageIJPKcS4_NSt7__cxx1112basic_stringIcSt11char_traitsIcESaIcEEES4_iS4_PSt6vectorISt8functionIFvNS0_13ServiceStatusEEESaISF_EEEEEvNS0_8LogLevelERKSA_SL_RKiDpT_=so_stub_for_libtelux_config
-Wl,--defsym=_ZN5telux6common3Log10logMessageIJPKcS4_NSt7__cxx1112basic_stringIcSt11char_traitsIcESaIcEEES4_PNS_6config14IConfigManagerEEEEvNS0_8LogLevelERKSA_SG_RKiDpT_=so_stub_for_libtelux_config
-Wl,--defsym=_ZN5telux6common3Log10logMessageIJPKcS4_NSt7__cxx1112basic_stringIcSt11char_traitsIcESaIcEEES4_PNS_6config19IModemConfigManagerEEEEvNS0_8LogLevelERKSA_SG_RKiDpT_=so_stub_for_libtelux_config
-Wl,--defsym=_ZN5telux6common3Log10logMessageIJPKcS4_NSt7__cxx1112basic_stringIcSt11char_traitsIcESaIcEEES4_S4_EEEvNS0_8LogLevelERKSA_SD_RKiDpT_=so_stub_for_libtelux_config
-Wl,--defsym=_ZN5telux6common3Log10logMessageIJPKcS4_NSt7__cxx1112basic_stringIcSt11char_traitsIcESaIcEEES4_SA_S4_SA_EEEvNS0_8LogLevelERKSA_SD_RKiDpT_=so_stub_for_libtelux_config
-Wl,--defsym=_ZN5telux6common3Log10logMessageIJPKcS4_PcS4_iEEEvNS0_8LogLevelERKNSt7__cxx1112basic_stringIcSt11char_traitsIcESaIcEEESE_RKiDpT_=so_stub_for_libtelux_config
-Wl,--defsym=_ZN5telux6common3Log10logMessageIJPKcS4_PSt8functionIFvNS0_13ServiceStatusEEEEEEvNS0_8LogLevelERKNSt7__cxx1112basic_stringIcSt11char_traitsIcESaIcEEESI_RKiDpT_=so_stub_for_libtelux_config
-Wl,--defsym=_ZN5telux6common3Log10logMessageIJPKcS4_S4_EEEvNS0_8LogLevelERKNSt7__cxx1112basic_stringIcSt11char_traitsIcESaIcEEESD_RKiDpT_=so_stub_for_libtelux_config
-Wl,--defsym=_ZN5telux6common3Log10logMessageIJPKcS4_S4_iEEEvNS0_8LogLevelERKNSt7__cxx1112basic_stringIcSt11char_traitsIcESaIcEEESD_RKiDpT_=so_stub_for_libtelux_config
-Wl,--defsym=_ZN5telux6common3Log10logMessageIJPKcS4_S4_S4_PSt6vectorISt8functionIFvNS0_13ServiceStatusEEESaIS9_EEEEEvNS0_8LogLevelERKNSt7__cxx1112basic_stringIcSt11char_traitsIcESaIcEEESL_RKiDpT_=so_stub_for_libtelux_config
-Wl,--defsym=_ZN5telux6common3Log16constructMessageINSt7__cxx1119basic_ostringstreamIcSt11char_traitsIcESaIcEEENS3_12basic_stringIcS6_S7_EEJPKciSC_PSt6vectorISt8functionIFvNS0_13ServiceStatusEEESaISH_EEEEEvRT_T0_DpT1_=so_stub_for_libtelux_config
-Wl,--defsym=_ZN5telux6common3Log16constructMessageINSt7__cxx1119basic_ostringstreamIcSt11char_traitsIcESaIcEEENS3_12basic_stringIcS6_S7_EEJPKcmSC_PNS_6config14IConfigManagerESC_iEEEvRT_T0_DpT1_=so_stub_for_libtelux_config
-Wl,--defsym=_ZN5telux6common3Log16constructMessageINSt7__cxx1119basic_ostringstreamIcSt11char_traitsIcESaIcEEENS3_12basic_stringIcS6_S7_EEJPKcmSC_PNS_6config19IModemConfigManagerESC_iEEEvRT_T0_DpT1_=so_stub_for_libtelux_config
-Wl,--defsym=_ZN5telux6common3Log16constructMessageINSt7__cxx1119basic_ostringstreamIcSt11char_traitsIcESaIcEEENS3_12basic_stringIcS6_S7_EEJPKcSA_EEEvRT_T0_DpT1_=so_stub_for_libtelux_config
-Wl,--defsym=_ZN5telux6common3Log16constructMessageINSt7__cxx1119basic_ostringstreamIcSt11char_traitsIcESaIcEEENS3_12basic_stringIcS6_S7_EEJPKcSA_SC_SA_EEEvRT_T0_DpT1_=so_stub_for_libtelux_config
-Wl,--defsym=_ZN5telux6common3Log16constructMessageINSt7__cxx1119basic_ostringstreamIcSt11char_traitsIcESaIcEEEPKcJNS3_12basic_stringIcS6_S7_EEEEEvRT_T0_DpT1_=so_stub_for_libtelux_config
-Wl,--defsym=_ZN5telux6common3Log16constructMessageINSt7__cxx1119basic_ostringstreamIcSt11char_traitsIcESaIcEEEPKcJNS3_12basic_stringIcS6_S7_EESA_iSA_PSt6vectorISt8functionIFvNS0_13ServiceStatusEEESaISH_EEEEEvRT_T0_DpT1_=so_stub_for_libtelux_config
-Wl,--defsym=_ZN5telux6common3Log16constructMessageINSt7__cxx1119basic_ostringstreamIcSt11char_traitsIcESaIcEEEPKcJNS3_12basic_stringIcS6_S7_EESA_PNS_6config14IConfigManagerEEEEvRT_T0_DpT1_=so_stub_for_libtelux_config
-Wl,--defsym=_ZN5telux6common3Log16constructMessageINSt7__cxx1119basic_ostringstreamIcSt11char_traitsIcESaIcEEEPKcJNS3_12basic_stringIcS6_S7_EESA_PNS_6config19IModemConfigManagerEEEEvRT_T0_DpT1_=so_stub_for_libtelux_config
-Wl,--defsym=_ZN5telux6common3Log16constructMessageINSt7__cxx1119basic_ostringstreamIcSt11char_traitsIcESaIcEEEPKcJNS3_12basic_stringIcS6_S7_EESA_SA_EEEvRT_T0_DpT1_=so_stub_for_libtelux_config
-Wl,--defsym=_ZN5telux6common3Log16constructMessageINSt7__cxx1119basic_ostringstreamIcSt11char_traitsIcESaIcEEEPKcJNS3_12basic_stringIcS6_S7_EESA_SC_EEEvRT_T0_DpT1_=so_stub_for_libtelux_config
-Wl,--defsym=_ZN5telux6common3Log16constructMessageINSt7__cxx1119basic_ostringstreamIcSt11char_traitsIcESaIcEEEPKcJNS3_12basic_stringIcS6_S7_EESA_SC_SA_SC_EEEvRT_T0_DpT1_=so_stub_for_libtelux_config
-Wl,--defsym=_ZN5telux6common3Log16constructMessageINSt7__cxx1119basic_ostringstreamIcSt11char_traitsIcESaIcEEEPKcJSA_iSA_mEEEvRT_T0_DpT1_=so_stub_for_libtelux_config
-Wl,--defsym=_ZN5telux6common3Log16constructMessageINSt7__cxx1119basic_ostringstreamIcSt11char_traitsIcESaIcEEEPKcJSA_NS3_12basic_stringIcS6_S7_EEEEEvRT_T0_DpT1_=so_stub_for_libtelux_config
-Wl,--defsym=_ZN5telux6common3Log16constructMessageINSt7__cxx1119basic_ostringstreamIcSt11char_traitsIcESaIcEEEPKcJSA_NS3_12basic_stringIcS6_S7_EESA_iSA_PSt6vectorISt8functionIFvNS0_13ServiceStatusEEESaISH_EEEEEvRT_T0_DpT1_=so_stub_for_libtelux_config
-Wl,--defsym=_ZN5telux6common3Log16constructMessageINSt7__cxx1119basic_ostringstreamIcSt11char_traitsIcESaIcEEEPKcJSA_NS3_12basic_stringIcS6_S7_EESA_PNS_6config14IConfigManagerEEEEvRT_T0_DpT1_=so_stub_for_libtelux_config
-Wl,--defsym=_ZN5telux6common3Log16constructMessageINSt7__cxx1119basic_ostringstreamIcSt11char_traitsIcESaIcEEEPKcJSA_NS3_12basic_stringIcS6_S7_EESA_PNS_6config19IModemConfigManagerEEEEvRT_T0_DpT1_=so_stub_for_libtelux_config
-Wl,--defsym=_ZN5telux6common3Log16constructMessageINSt7__cxx1119basic_ostringstreamIcSt11char_traitsIcESaIcEEEPKcJSA_NS3_12basic_stringIcS6_S7_EESA_SA_EEEvRT_T0_DpT1_=so_stub_for_libtelux_config
-Wl,--defsym=_ZN5telux6common3Log16constructMessageINSt7__cxx1119basic_ostringstreamIcSt11char_traitsIcESaIcEEEPKcJSA_NS3_12basic_stringIcS6_S7_EESA_SC_SA_SC_EEEvRT_T0_DpT1_=so_stub_for_libtelux_config
-Wl,--defsym=_ZN5telux6common3Log16constructMessageINSt7__cxx1119basic_ostringstreamIcSt11char_traitsIcESaIcEEEPKcJSA_PcSA_iEEEvRT_T0_DpT1_=so_stub_for_libtelux_config
-Wl,--defsym=_ZN5telux6common3Log16constructMessageINSt7__cxx1119basic_ostringstreamIcSt11char_traitsIcESaIcEEEPKcJSA_SA_SA_PSt6vectorISt8functionIFvNS0_13ServiceStatusEEESaISF_EEEEEvRT_T0_DpT1_=so_stub_for_libtelux_config
-Wl,--defsym=_ZN5telux6config10ConfigInfoC1ERKS1_=so_stub_for_libtelux_config
-Wl,--defsym=_ZN5telux6config10ConfigInfoC2ERKS1_=so_stub_for_libtelux_config
-Wl,--defsym=_ZN5telux6config10ConfigInfoD1Ev=so_stub_for_libtelux_config
-Wl,--defsym=_ZN5telux6config10ConfigInfoD2Ev=so_stub_for_libtelux_config
-Wl,--defsym=_ZN5telux6config13ConfigFactory11getInstanceEv=so_stub_for_libtelux_config
-Wl,--defsym=_ZN5telux6config13ConfigFactoryC1Ev=so_stub_for_libtelux_config
-Wl,--defsym=_ZN5telux6config13ConfigFactoryC2Ev=so_stub_for_libtelux_config
-Wl,--defsym=_ZN5telux6config13ConfigFactoryD0Ev=so_stub_for_libtelux_config
-Wl,--defsym=_ZN5telux6config13ConfigFactoryD1Ev=so_stub_for_libtelux_config
-Wl,--defsym=_ZN5telux6config13ConfigFactoryD2Ev=so_stub_for_libtelux_config
-Wl,--defsym=_ZN5telux6config17ConfigFactoryImpl11getInstanceEv=so_stub_for_libtelux_config
-Wl,--defsym=_ZN5telux6config17ConfigFactoryImpl13initProgress_E=so_stub_for_libtelux_config
-Wl,--defsym=_ZN5telux6config17ConfigFactoryImpl16getConfigManagerESt8functionIFvNS_6common13ServiceStatusEEE=so_stub_for_libtelux_config
-Wl,--defsym=_ZN5telux6config17ConfigFactoryImpl18globalConfigMutex_E=so_stub_for_libtelux_config
-Wl,--defsym=_ZN5telux6config17ConfigFactoryImpl20initCompleteNotifierERSt6vectorISt8functionIFvNS_6common13ServiceStatusEEESaIS7_EES5_=so_stub_for_libtelux_config
-Wl,--defsym=_ZN5telux6config17ConfigFactoryImpl21getModemConfigManagerESt8functionIFvNS_6common13ServiceStatusEEE=so_stub_for_libtelux_config
-Wl,--defsym=_ZN5telux6config17ConfigFactoryImpl29initializeGlobalConfigManagerEv=so_stub_for_libtelux_config
-Wl,--defsym=_ZN5telux6config17ConfigFactoryImpl6taskQ_E=so_stub_for_libtelux_config
-Wl,--defsym=_ZN5telux6config17ConfigFactoryImpl7exited_E=so_stub_for_libtelux_config
-Wl,--defsym=_ZN5telux6config17ConfigFactoryImplC1Ev=so_stub_for_libtelux_config
-Wl,--defsym=_ZN5telux6config17ConfigFactoryImplC2Ev=so_stub_for_libtelux_config
-Wl,--defsym=_ZN5telux6config17ConfigFactoryImplD0Ev=so_stub_for_libtelux_config
-Wl,--defsym=_ZN5telux6config17ConfigFactoryImplD1Ev=so_stub_for_libtelux_config
-Wl,--defsym=_ZN5telux6config17ConfigFactoryImplD2Ev=so_stub_for_libtelux_config
-Wl,--defsym=_ZN5telux6config17ConfigManagerImpl11acquireLockERi=so_stub_for_libtelux_config
-Wl,--defsym=_ZN5telux6config17ConfigManagerImpl13getAllConfigsB5cxx11Ev=so_stub_for_libtelux_config
-Wl,--defsym=_ZN5telux6config17ConfigManagerImpl16getServiceStatusEv=so_stub_for_libtelux_config
-Wl,--defsym=_ZN5telux6config17ConfigManagerImpl16performFileWriteENSt7__cxx1112basic_stringIcSt11char_traitsIcESaIcEEES7_=so_stub_for_libtelux_config
-Wl,--defsym=_ZN5telux6config17ConfigManagerImpl16registerFilePathEv=so_stub_for_libtelux_config
-Wl,--defsym=_ZN5telux6config17ConfigManagerImpl16registerListenerESt8weak_ptrINS0_15IConfigListenerEE=so_stub_for_libtelux_config
-Wl,--defsym=_ZN5telux6config17ConfigManagerImpl16setServiceStatusENS_6common13ServiceStatusE=so_stub_for_libtelux_config
-Wl,--defsym=_ZN5telux6config17ConfigManagerImpl18deregisterListenerESt8weak_ptrINS0_15IConfigListenerEE=so_stub_for_libtelux_config
-Wl,--defsym=_ZN5telux6config17ConfigManagerImpl20convertServiceStatusEv=so_stub_for_libtelux_config
-Wl,--defsym=_ZN5telux6config17ConfigManagerImpl21onConfigurationUpdateEP25config_update_ind_msg_v01=so_stub_for_libtelux_config
-Wl,--defsym=_ZN5telux6config17ConfigManagerImpl22deregisterFromFilePathEv=so_stub_for_libtelux_config
-Wl,--defsym=_ZN5telux6config17ConfigManagerImpl27onConfigServiceStatusChangeENS_6common13ServiceStatusE=so_stub_for_libtelux_config
-Wl,--defsym=_ZN5telux6config17ConfigManagerImpl4initESt8functionIFvNS_6common13ServiceStatusEEESt8weak_ptrINS3_14AsyncTaskQueueIvEEE=so_stub_for_libtelux_config
-Wl,--defsym=_ZN5telux6config17ConfigManagerImpl7cleanupEv=so_stub_for_libtelux_config
-Wl,--defsym=_ZN5telux6config17ConfigManagerImpl8initSyncEv=so_stub_for_libtelux_config
-Wl,--defsym=_ZN5telux6config17ConfigManagerImpl9getConfigENSt7__cxx1112basic_stringIcSt11char_traitsIcESaIcEEE=so_stub_for_libtelux_config
-Wl,--defsym=_ZN5telux6config17ConfigManagerImpl9setConfigENSt7__cxx1112basic_stringIcSt11char_traitsIcESaIcEEES7_=so_stub_for_libtelux_config
-Wl,--defsym=_ZN5telux6config17ConfigManagerImplC1Ev=so_stub_for_libtelux_config
-Wl,--defsym=_ZN5telux6config17ConfigManagerImplC2Ev=so_stub_for_libtelux_config
-Wl,--defsym=_ZN5telux6config17ConfigManagerImplD0Ev=so_stub_for_libtelux_config
-Wl,--defsym=_ZN5telux6config17ConfigManagerImplD1Ev=so_stub_for_libtelux_config
-Wl,--defsym=_ZN5telux6config17ConfigManagerImplD2Ev=so_stub_for_libtelux_config
-Wl,--defsym=_ZN5telux6config17ModemConfigHelper13modeToQmiModeERNS0_17AutoSelectionModeER27pdc_selection_mode_enum_v01=so_stub_for_libtelux_config
-Wl,--defsym=_ZN5telux6config17ModemConfigHelper13qmiModeToModeER27pdc_selection_mode_enum_v01RNS0_17AutoSelectionModeE=so_stub_for_libtelux_config
-Wl,--defsym=_ZN5telux6config17ModemConfigHelper13slotIdToSubIdEiRj=so_stub_for_libtelux_config
-Wl,--defsym=_ZN5telux6config17ModemConfigHelper13subIdToSlotIdEj=so_stub_for_libtelux_config
-Wl,--defsym=_ZN5telux6config17ModemConfigHelper22refEventToUpdateStatusER26pdc_refresh_event_enum_v01RNS0_18ConfigUpdateStatusE=so_stub_for_libtelux_config
-Wl,--defsym=_ZN5telux6config17ModemConfigHelper25configTypeToQmiConfigTypeERNS0_10ConfigTypeER24pdc_config_type_enum_v01=so_stub_for_libtelux_config
-Wl,--defsym=_ZN5telux6config17ModemConfigHelper25qmiConfigTypeToConfigTypeER24pdc_config_type_enum_v01RNS0_10ConfigTypeE=so_stub_for_libtelux_config
-Wl,--defsym=_ZN5telux6config20ConfigManagerWrapper13getAllConfigsB5cxx11Ev=so_stub_for_libtelux_config
-Wl,--defsym=_ZN5telux6config20ConfigManagerWrapper16getServiceStatusEv=so_stub_for_libtelux_config
-Wl,--defsym=_ZN5telux6config20ConfigManagerWrapper16registerListenerESt8weak_ptrINS0_15IConfigListenerEE=so_stub_for_libtelux_config
-Wl,--defsym=_ZN5telux6config20ConfigManagerWrapper18deregisterListenerESt8weak_ptrINS0_15IConfigListenerEE=so_stub_for_libtelux_config
-Wl,--defsym=_ZN5telux6config20ConfigManagerWrapper4initEv=so_stub_for_libtelux_config
-Wl,--defsym=_ZN5telux6config20ConfigManagerWrapper7cleanupEv=so_stub_for_libtelux_config
-Wl,--defsym=_ZN5telux6config20ConfigManagerWrapper9getConfigENSt7__cxx1112basic_stringIcSt11char_traitsIcESaIcEEE=so_stub_for_libtelux_config
-Wl,--defsym=_ZN5telux6config20ConfigManagerWrapper9setConfigENSt7__cxx1112basic_stringIcSt11char_traitsIcESaIcEEES7_=so_stub_for_libtelux_config
-Wl,--defsym=_ZN5telux6config20ConfigManagerWrapperC1Ev=so_stub_for_libtelux_config
-Wl,--defsym=_ZN5telux6config20ConfigManagerWrapperC2Ev=so_stub_for_libtelux_config
-Wl,--defsym=_ZN5telux6config20ConfigManagerWrapperD0Ev=so_stub_for_libtelux_config
-Wl,--defsym=_ZN5telux6config20ConfigManagerWrapperD1Ev=so_stub_for_libtelux_config
-Wl,--defsym=_ZN5telux6config20ConfigManagerWrapperD2Ev=so_stub_for_libtelux_config
-Wl,--defsym=_ZN5telux6config21QmiLoadConfigCallback14onLoadConfiIndERK27pdc_load_config_ind_msg_v01=so_stub_for_libtelux_config
-Wl,--defsym=_ZN5telux6config21QmiLoadConfigCallback17onCommandResponseEiPv=so_stub_for_libtelux_config
-Wl,--defsym=_ZN5telux6config21QmiLoadConfigCallbackD0Ev=so_stub_for_libtelux_config
-Wl,--defsym=_ZN5telux6config21QmiLoadConfigCallbackD1Ev=so_stub_for_libtelux_config
-Wl,--defsym=_ZN5telux6config22ModemConfigManagerImpl12deleteConfigENS0_10ConfigTypeENSt7__cxx1112basic_stringIcSt11char_traitsIcESaIcEEESt8functionIFvNS_6common9ErrorCodeEEE=so_stub_for_libtelux_config
-Wl,--defsym=_ZN5telux6config22ModemConfigManagerImpl12selectConfigENS0_10ConfigTypeENSt7__cxx1112basic_stringIcSt11char_traitsIcESaIcEEEjP19ModemConfigUserData=so_stub_for_libtelux_config
-Wl,--defsym=_ZN5telux6config22ModemConfigManagerImpl14activateConfigENS0_10ConfigTypeENSt7__cxx1112basic_stringIcSt11char_traitsIcESaIcEEEiSt8functionIFvNS_6common9ErrorCodeEEE=so_stub_for_libtelux_config
-Wl,--defsym=_ZN5telux6config22ModemConfigManagerImpl14fillConfigInfoERNS0_10ConfigInfoEP19ModemConfigUserData=so_stub_for_libtelux_config
-Wl,--defsym=_ZN5telux6config22ModemConfigManagerImpl14loadConfigFileENSt7__cxx1112basic_stringIcSt11char_traitsIcESaIcEEENS0_10ConfigTypeESt8functionIFvNS_6common9ErrorCodeEEE=so_stub_for_libtelux_config
-Wl,--defsym=_ZN5telux6config22ModemConfigManagerImpl15getActiveConfigENS0_10ConfigTypeESt8functionIFvNS0_10ConfigInfoENS_6common9ErrorCodeEEEi=so_stub_for_libtelux_config
-Wl,--defsym=_ZN5telux6config22ModemConfigManagerImpl15getConfigIdListE24pdc_config_type_enum_v01RSt6vectorINS0_10ConfigInfoESaIS4_EEP19ModemConfigUserDataRb=so_stub_for_libtelux_config
-Wl,--defsym=_ZN5telux6config22ModemConfigManagerImpl16deactivateConfigENS0_10ConfigTypeEiSt8functionIFvNS_6common9ErrorCodeEEE=so_stub_for_libtelux_config
-Wl,--defsym=_ZN5telux6config22ModemConfigManagerImpl16deleteConfigSyncENS0_10ConfigTypeENSt7__cxx1112basic_stringIcSt11char_traitsIcESaIcEEESt8functionIFvNS_6common9ErrorCodeEEE=so_stub_for_libtelux_config
-Wl,--defsym=_ZN5telux6config22ModemConfigManagerImpl16generateConfigIdENSt7__cxx1112basic_stringIcSt11char_traitsIcESaIcEEE=so_stub_for_libtelux_config
-Wl,--defsym=_ZN5telux6config22ModemConfigManagerImpl16getServiceStatusEv=so_stub_for_libtelux_config
-Wl,--defsym=_ZN5telux6config22ModemConfigManagerImpl16isSubsystemReadyEv=so_stub_for_libtelux_config
-Wl,--defsym=_ZN5telux6config22ModemConfigManagerImpl16onSubsystemReadyEv=so_stub_for_libtelux_config
-Wl,--defsym=_ZN5telux6config22ModemConfigManagerImpl16registerListenerESt8weak_ptrINS0_20IModemConfigListenerEE=so_stub_for_libtelux_config
-Wl,--defsym=_ZN5telux6config22ModemConfigManagerImpl17loadConfigSegmentE24pdc_config_type_enum_v01NSt7__cxx1112basic_stringIcSt11char_traitsIcESaIcEEEjjPhP19ModemConfigUserData=so_stub_for_libtelux_config
-Wl,--defsym=_ZN5telux6config22ModemConfigManagerImpl17requestConfigListESt8functionIFvSt6vectorINS0_10ConfigInfoESaIS4_EENS_6common9ErrorCodeEEE=so_stub_for_libtelux_config
-Wl,--defsym=_ZN5telux6config22ModemConfigManagerImpl17setSubsystemReadyEb=so_stub_for_libtelux_config
-Wl,--defsym=_ZN5telux6config22ModemConfigManagerImpl18activateConfigSyncENS0_10ConfigTypeENSt7__cxx1112basic_stringIcSt11char_traitsIcESaIcEEEiSt8functionIFvNS_6common9ErrorCodeEEE=so_stub_for_libtelux_config
-Wl,--defsym=_ZN5telux6config22ModemConfigManagerImpl18deregisterListenerESt8weak_ptrINS0_20IModemConfigListenerEE=so_stub_for_libtelux_config
-Wl,--defsym=_ZN5telux6config22ModemConfigManagerImpl18invokeInitCallbackENS_6common13ServiceStatusE=so_stub_for_libtelux_config
-Wl,--defsym=_ZN5telux6config22ModemConfigManagerImpl18loadConfigFileSyncENSt7__cxx1112basic_stringIcSt11char_traitsIcESaIcEEENS0_10ConfigTypeESt8functionIFvNS_6common9ErrorCodeEEE=so_stub_for_libtelux_config
-Wl,--defsym=_ZN5telux6config22ModemConfigManagerImpl18onConfigRefreshIndERK23pdc_refresh_ind_msg_v01=so_stub_for_libtelux_config
-Wl,--defsym=_ZN5telux6config22ModemConfigManagerImpl18setSubsystemStatusENS_6common13ServiceStatusE=so_stub_for_libtelux_config
-Wl,--defsym=_ZN5telux6config22ModemConfigManagerImpl19getActiveConfigSyncENS0_10ConfigTypeESt8functionIFvNS0_10ConfigInfoENS_6common9ErrorCodeEEEi=so_stub_for_libtelux_config
-Wl,--defsym=_ZN5telux6config22ModemConfigManagerImpl20deactivateConfigSyncENS0_10ConfigTypeEiSt8functionIFvNS_6common9ErrorCodeEEE=so_stub_for_libtelux_config
-Wl,--defsym=_ZN5telux6config22ModemConfigManagerImpl20getAutoSelectionModeESt8functionIFvNS0_17AutoSelectionModeENS_6common9ErrorCodeEEEi=so_stub_for_libtelux_config
-Wl,--defsym=_ZN5telux6config22ModemConfigManagerImpl20getDefaultConfigInfoENS0_10ConfigTypeERNS0_10ConfigInfoEP19ModemConfigUserData=so_stub_for_libtelux_config
-Wl,--defsym=_ZN5telux6config22ModemConfigManagerImpl20setAutoSelectionModeENS0_17AutoSelectionModeEiSt8functionIFvNS_6common9ErrorCodeEEE=so_stub_for_libtelux_config
-Wl,--defsym=_ZN5telux6config22ModemConfigManagerImpl21requestConfigListSyncESt8functionIFvSt6vectorINS0_10ConfigInfoESaIS4_EENS_6common9ErrorCodeEEE=so_stub_for_libtelux_config
-Wl,--defsym=_ZN5telux6config22ModemConfigManagerImpl21waitForInitializationEv=so_stub_for_libtelux_config
-Wl,--defsym=_ZN5telux6config22ModemConfigManagerImpl24getAutoSelectionModeSyncESt8functionIFvNS0_17AutoSelectionModeENS_6common9ErrorCodeEEEi=so_stub_for_libtelux_config
-Wl,--defsym=_ZN5telux6config22ModemConfigManagerImpl24setAutoSelectionModeSyncENS0_17AutoSelectionModeEiSt8functionIFvNS_6common9ErrorCodeEEE=so_stub_for_libtelux_config
-Wl,--defsym=_ZN5telux6config22ModemConfigManagerImpl26onRegisterListenerResponseEiPv=so_stub_for_libtelux_config
-Wl,--defsym=_ZN5telux6config22ModemConfigManagerImpl32onModemConfigServiceStatusChangeENS_6common13ServiceStatusE=so_stub_for_libtelux_config
-Wl,--defsym=_ZN5telux6config22ModemConfigManagerImpl4initESt8functionIFvNS_6common13ServiceStatusEEE=so_stub_for_libtelux_config
-Wl,--defsym=_ZN5telux6config22ModemConfigManagerImpl7cleanupEv=so_stub_for_libtelux_config
-Wl,--defsym=_ZN5telux6config22ModemConfigManagerImpl8initSyncEv=so_stub_for_libtelux_config
-Wl,--defsym=_ZN5telux6config22ModemConfigManagerImplC1Ev=so_stub_for_libtelux_config
-Wl,--defsym=_ZN5telux6config22ModemConfigManagerImplC2Ev=so_stub_for_libtelux_config
-Wl,--defsym=_ZN5telux6config22ModemConfigManagerImplD0Ev=so_stub_for_libtelux_config
-Wl,--defsym=_ZN5telux6config22ModemConfigManagerImplD1Ev=so_stub_for_libtelux_config
-Wl,--defsym=_ZN5telux6config22ModemConfigManagerImplD2Ev=so_stub_for_libtelux_config
-Wl,--defsym=_ZN5telux6config23QmiDeleteConfigCallback17onCommandResponseEiPv=so_stub_for_libtelux_config
-Wl,--defsym=_ZN5telux6config23QmiDeleteConfigCallback17onDeleteConfigIndERK29pdc_delete_config_ind_msg_v01=so_stub_for_libtelux_config
-Wl,--defsym=_ZN5telux6config23QmiDeleteConfigCallbackD0Ev=so_stub_for_libtelux_config
-Wl,--defsym=_ZN5telux6config23QmiDeleteConfigCallbackD1Ev=so_stub_for_libtelux_config
-Wl,--defsym=_ZN5telux6config25ModemConfigManagerWrapper12deleteConfigENS0_10ConfigTypeENSt7__cxx1112basic_stringIcSt11char_traitsIcESaIcEEESt8functionIFvNS_6common9ErrorCodeEEE=so_stub_for_libtelux_config
-Wl,--defsym=_ZN5telux6config25ModemConfigManagerWrapper14activateConfigENS0_10ConfigTypeENSt7__cxx1112basic_stringIcSt11char_traitsIcESaIcEEEiSt8functionIFvNS_6common9ErrorCodeEEE=so_stub_for_libtelux_config
-Wl,--defsym=_ZN5telux6config25ModemConfigManagerWrapper14loadConfigFileENSt7__cxx1112basic_stringIcSt11char_traitsIcESaIcEEENS0_10ConfigTypeESt8functionIFvNS_6common9ErrorCodeEEE=so_stub_for_libtelux_config
-Wl,--defsym=_ZN5telux6config25ModemConfigManagerWrapper15getActiveConfigENS0_10ConfigTypeESt8functionIFvNS0_10ConfigInfoENS_6common9ErrorCodeEEEi=so_stub_for_libtelux_config
-Wl,--defsym=_ZN5telux6config25ModemConfigManagerWrapper16deactivateConfigENS0_10ConfigTypeEiSt8functionIFvNS_6common9ErrorCodeEEE=so_stub_for_libtelux_config
-Wl,--defsym=_ZN5telux6config25ModemConfigManagerWrapper16getServiceStatusEv=so_stub_for_libtelux_config
-Wl,--defsym=_ZN5telux6config25ModemConfigManagerWrapper16isSubsystemReadyEv=so_stub_for_libtelux_config
-Wl,--defsym=_ZN5telux6config25ModemConfigManagerWrapper16onSubsystemReadyEv=so_stub_for_libtelux_config
-Wl,--defsym=_ZN5telux6config25ModemConfigManagerWrapper16registerListenerESt8weak_ptrINS0_20IModemConfigListenerEE=so_stub_for_libtelux_config
-Wl,--defsym=_ZN5telux6config25ModemConfigManagerWrapper17requestConfigListESt8functionIFvSt6vectorINS0_10ConfigInfoESaIS4_EENS_6common9ErrorCodeEEE=so_stub_for_libtelux_config
-Wl,--defsym=_ZN5telux6config25ModemConfigManagerWrapper18deregisterListenerESt8weak_ptrINS0_20IModemConfigListenerEE=so_stub_for_libtelux_config
-Wl,--defsym=_ZN5telux6config25ModemConfigManagerWrapper20getAutoSelectionModeESt8functionIFvNS0_17AutoSelectionModeENS_6common9ErrorCodeEEEi=so_stub_for_libtelux_config
-Wl,--defsym=_ZN5telux6config25ModemConfigManagerWrapper20setAutoSelectionModeENS0_17AutoSelectionModeEiSt8functionIFvNS_6common9ErrorCodeEEE=so_stub_for_libtelux_config
-Wl,--defsym=_ZN5telux6config25ModemConfigManagerWrapper4initEv=so_stub_for_libtelux_config
-Wl,--defsym=_ZN5telux6config25ModemConfigManagerWrapper7cleanupEv=so_stub_for_libtelux_config
-Wl,--defsym=_ZN5telux6config25ModemConfigManagerWrapperC1Ev=so_stub_for_libtelux_config
-Wl,--defsym=_ZN5telux6config25ModemConfigManagerWrapperC2Ev=so_stub_for_libtelux_config
-Wl,--defsym=_ZN5telux6config25ModemConfigManagerWrapperD0Ev=so_stub_for_libtelux_config
-Wl,--defsym=_ZN5telux6config25ModemConfigManagerWrapperD1Ev=so_stub_for_libtelux_config
-Wl,--defsym=_ZN5telux6config25ModemConfigManagerWrapperD2Ev=so_stub_for_libtelux_config
-Wl,--defsym=_ZN5telux6config25QmiActivateConfigCallback17onCommandResponseEiPv=so_stub_for_libtelux_config
-Wl,--defsym=_ZN5telux6config25QmiActivateConfigCallback19onActivateConfigIndERK31pdc_activate_config_ind_msg_v01=so_stub_for_libtelux_config
-Wl,--defsym=_ZN5telux6config25QmiActivateConfigCallbackD0Ev=so_stub_for_libtelux_config
-Wl,--defsym=_ZN5telux6config25QmiActivateConfigCallbackD1Ev=so_stub_for_libtelux_config
-Wl,--defsym=_ZN5telux6config26QmiGetActiveConfigCallback17onCommandResponseEiPv=so_stub_for_libtelux_config
-Wl,--defsym=_ZN5telux6config26QmiGetActiveConfigCallback20onGetSelectConfigIndERK35pdc_get_selected_config_ind_msg_v01=so_stub_for_libtelux_config
-Wl,--defsym=_ZN5telux6config26QmiGetActiveConfigCallbackD0Ev=so_stub_for_libtelux_config
-Wl,--defsym=_ZN5telux6config26QmiGetActiveConfigCallbackD1Ev=so_stub_for_libtelux_config
-Wl,--defsym=_ZN5telux6config26QmiSetSelectConfigCallback17onCommandResponseEiPv=so_stub_for_libtelux_config
-Wl,--defsym=_ZN5telux6config26QmiSetSelectConfigCallback20onSetSelectConfigIndERK35pdc_set_selected_config_ind_msg_v01=so_stub_for_libtelux_config
-Wl,--defsym=_ZN5telux6config26QmiSetSelectConfigCallbackD0Ev=so_stub_for_libtelux_config
-Wl,--defsym=_ZN5telux6config26QmiSetSelectConfigCallbackD1Ev=so_stub_for_libtelux_config
-Wl,--defsym=_ZN5telux6config27QmiDeactivateConfigCallback17onCommandResponseEiPv=so_stub_for_libtelux_config
-Wl,--defsym=_ZN5telux6config27QmiDeactivateConfigCallback21onDeactivateConfigIndERK33pdc_deactivate_config_ind_msg_v01=so_stub_for_libtelux_config
-Wl,--defsym=_ZN5telux6config27QmiDeactivateConfigCallbackD0Ev=so_stub_for_libtelux_config
-Wl,--defsym=_ZN5telux6config27QmiDeactivateConfigCallbackD1Ev=so_stub_for_libtelux_config
-Wl,--defsym=_ZN5telux6config27QmiGetConfigFeatureCallback15onGetFeatureIndERK27pdc_get_feature_ind_msg_v01=so_stub_for_libtelux_config
-Wl,--defsym=_ZN5telux6config27QmiGetConfigFeatureCallback17onCommandResponseEiPv=so_stub_for_libtelux_config
-Wl,--defsym=_ZN5telux6config27QmiGetConfigFeatureCallbackD0Ev=so_stub_for_libtelux_config
-Wl,--defsym=_ZN5telux6config27QmiGetConfigFeatureCallbackD1Ev=so_stub_for_libtelux_config
-Wl,--defsym=_ZN5telux6config27QmiSetConfigFeatureCallback15onSetFeatureIndERK27pdc_set_feature_ind_msg_v01=so_stub_for_libtelux_config
-Wl,--defsym=_ZN5telux6config27QmiSetConfigFeatureCallback17onCommandResponseEiPv=so_stub_for_libtelux_config
-Wl,--defsym=_ZN5telux6config27QmiSetConfigFeatureCallbackD0Ev=so_stub_for_libtelux_config
-Wl,--defsym=_ZN5telux6config27QmiSetConfigFeatureCallbackD1Ev=so_stub_for_libtelux_config
-Wl,--defsym=_ZN5telux6config28QmiModemConfigFutureCallbackIiE17onCommandResponseEiPv=so_stub_for_libtelux_config
-Wl,--defsym=_ZN5telux6config28QmiModemConfigFutureCallbackIiED0Ev=so_stub_for_libtelux_config
-Wl,--defsym=_ZN5telux6config28QmiModemConfigFutureCallbackIiED1Ev=so_stub_for_libtelux_config
-Wl,--defsym=_ZN5telux6config28QmiModemConfigFutureCallbackIiED2Ev=so_stub_for_libtelux_config
-Wl,--defsym=_ZN5telux6config28QmiRequestConfigInfoCallback17onCommandResponseEiPv=so_stub_for_libtelux_config
-Wl,--defsym=_ZN5telux6config28QmiRequestConfigInfoCallback18onGetConfigInfoIndERK31pdc_get_config_info_ind_msg_v01=so_stub_for_libtelux_config
-Wl,--defsym=_ZN5telux6config28QmiRequestConfigInfoCallbackD0Ev=so_stub_for_libtelux_config
-Wl,--defsym=_ZN5telux6config28QmiRequestConfigInfoCallbackD1Ev=so_stub_for_libtelux_config
-Wl,--defsym=_ZN5telux6config28QmiRequestConfigListCallback17onCommandResponseEiPv=so_stub_for_libtelux_config
-Wl,--defsym=_ZN5telux6config28QmiRequestConfigListCallback18onGetConfigListIndERK28pdc_list_configs_ind_msg_v01=so_stub_for_libtelux_config
-Wl,--defsym=_ZN5telux6config28QmiRequestConfigListCallbackD0Ev=so_stub_for_libtelux_config
-Wl,--defsym=_ZN5telux6config28QmiRequestConfigListCallbackD1Ev=so_stub_for_libtelux_config
-Wl,--defsym=_ZN5telux6config35QmiRequestDefaultConfigInfoCallback17onCommandResponseEiPv=so_stub_for_libtelux_config
-Wl,--defsym=_ZN5telux6config35QmiRequestDefaultConfigInfoCallback25onGetDefaultConfigInfoIndERK39pdc_get_default_config_info_ind_msg_v01=so_stub_for_libtelux_config
-Wl,--defsym=_ZN5telux6config35QmiRequestDefaultConfigInfoCallbackD0Ev=so_stub_for_libtelux_config
-Wl,--defsym=_ZN5telux6config35QmiRequestDefaultConfigInfoCallbackD1Ev=so_stub_for_libtelux_config
-Wl,--defsym=_ZN9__gnu_cxx5__ops10_Iter_predIZN5telux6common15ListenerManager16registerListenerESt8weak_ptrINS3_12ISDKListenerEEEUlS7_E_EclINS_17__normal_iteratorIPS7_St6vectorIS7_SaIS7_EEEEEEbT_=so_stub_for_libtelux_config
-Wl,--defsym=_ZNKSt13__future_base13_State_baseV221_M_is_deferred_futureEv=so_stub_for_libtelux_config
-Wl,--defsym=_ZNKSt14__basic_futureIbE13_M_get_resultEv=so_stub_for_libtelux_config
-Wl,--defsym=_ZNKSt14__basic_futureIiE13_M_get_resultEv=so_stub_for_libtelux_config
-Wl,--defsym=_ZNKSt14__basic_futureIvE13_M_get_resultEv=so_stub_for_libtelux_config
-Wl,--defsym=_ZNSt10_HashtableIiSt4pairIKiSt10shared_ptrIN5telux6common16ICommandCallbackEEESaIS7_ENSt8__detail10_Select1stESt8equal_toIiESt4hashIiENS9_18_Mod_range_hashingENS9_20_Default_ranged_hashENS9_20_Prime_rehash_policyENS9_17_Hashtable_traitsILb0ELb0ELb1EEEE13_M_rehash_auxEmSt17integral_constantIbLb1EE=so_stub_for_libtelux_config
-Wl,--defsym=_ZNSt10_HashtableIiSt4pairIKiSt10shared_ptrIN5telux6common16ICommandCallbackEEESaIS7_ENSt8__detail10_Select1stESt8equal_toIiESt4hashIiENS9_18_Mod_range_hashingENS9_20_Default_ranged_hashENS9_20_Prime_rehash_policyENS9_17_Hashtable_traitsILb0ELb0ELb1EEEE21_M_insert_unique_nodeEmmPNS9_10_Hash_nodeIS7_Lb0EEEm=so_stub_for_libtelux_config
-Wl,--defsym=_ZNSt10_HashtableIiSt4pairIKiSt10shared_ptrIN5telux6common16ICommandCallbackEEESaIS7_ENSt8__detail10_Select1stESt8equal_toIiESt4hashIiENS9_18_Mod_range_hashingENS9_20_Default_ranged_hashENS9_20_Prime_rehash_policyENS9_17_Hashtable_traitsILb0ELb0ELb1EEEE9_M_rehashEmRKm=so_stub_for_libtelux_config
-Wl,--defsym=_ZNSt10shared_ptrIN5telux6common14AsyncTaskQueueIvEEED1Ev=so_stub_for_libtelux_config
-Wl,--defsym=_ZNSt10shared_ptrIN5telux6common14AsyncTaskQueueIvEEED2Ev=so_stub_for_libtelux_config
-Wl,--defsym=_ZNSt10shared_ptrIN5telux6common15ListenerManagerEEC1ISaIS2_EJEEESt20_Sp_alloc_shared_tagIT_EDpOT0_=so_stub_for_libtelux_config
-Wl,--defsym=_ZNSt10shared_ptrIN5telux6common15ListenerManagerEEC2ISaIS2_EJEEESt20_Sp_alloc_shared_tagIT_EDpOT0_=so_stub_for_libtelux_config
-Wl,--defsym=_ZNSt10shared_ptrISt6threadEC1ISaIS0_EJMN5telux6common14AsyncTaskQueueIvEEFvvEPS7_EEESt20_Sp_alloc_shared_tagIT_EDpOT0_=so_stub_for_libtelux_config
-Wl,--defsym=_ZNSt10shared_ptrISt6threadEC2ISaIS0_EJMN5telux6common14AsyncTaskQueueIvEEFvvEPS7_EEESt20_Sp_alloc_shared_tagIT_EDpOT0_=so_stub_for_libtelux_config
-Wl,--defsym=_ZNSt10unique_ptrINSt13__future_base12_Result_baseENS1_8_DeleterEED1Ev=so_stub_for_libtelux_config
-Wl,--defsym=_ZNSt10unique_ptrINSt13__future_base12_Result_baseENS1_8_DeleterEED2Ev=so_stub_for_libtelux_config
-Wl,--defsym=_ZNSt10unique_ptrINSt13__future_base7_ResultIvEENS0_12_Result_base8_DeleterEED1Ev=so_stub_for_libtelux_config
-Wl,--defsym=_ZNSt10unique_ptrINSt13__future_base7_ResultIvEENS0_12_Result_base8_DeleterEED2Ev=so_stub_for_libtelux_config
-Wl,--defsym=_ZNSt10unique_ptrINSt6thread6_StateESt14default_deleteIS1_EED1Ev=so_stub_for_libtelux_config
-Wl,--defsym=_ZNSt10unique_ptrINSt6thread6_StateESt14default_deleteIS1_EED2Ev=so_stub_for_libtelux_config
-Wl,--defsym=_ZNSt10__weak_ptrIN5telux3qmi12IQmiListenerELN9__gnu_cxx12_Lock_policyE2EEC1INS0_6config25QmiActivateConfigCallbackEvEERKSt12__shared_ptrIT_LS4_2EE=so_stub_for_libtelux_config
-Wl,--defsym=_ZNSt10__weak_ptrIN5telux3qmi12IQmiListenerELN9__gnu_cxx12_Lock_policyE2EEC2INS0_6config25QmiActivateConfigCallbackEvEERKSt12__shared_ptrIT_LS4_2EE=so_stub_for_libtelux_config
-Wl,--defsym=_ZNSt10__weak_ptrIN5telux6common12ISDKListenerELN9__gnu_cxx12_Lock_policyE2EEC1INS0_6config15IConfigListenerEvEERKS_IT_LS4_2EE=so_stub_for_libtelux_config
-Wl,--defsym=_ZNSt10__weak_ptrIN5telux6common12ISDKListenerELN9__gnu_cxx12_Lock_policyE2EEC1INS0_6config20IModemConfigListenerEvEERKS_IT_LS4_2EE=so_stub_for_libtelux_config
-Wl,--defsym=_ZNSt10__weak_ptrIN5telux6common12ISDKListenerELN9__gnu_cxx12_Lock_policyE2EEC2INS0_6config15IConfigListenerEvEERKS_IT_LS4_2EE=so_stub_for_libtelux_config
-Wl,--defsym=_ZNSt10__weak_ptrIN5telux6common12ISDKListenerELN9__gnu_cxx12_Lock_policyE2EEC2INS0_6config20IModemConfigListenerEvEERKS_IT_LS4_2EE=so_stub_for_libtelux_config
-Wl,--defsym=_ZNSt10__weak_ptrIN5telux6config17ConfigManagerImplELN9__gnu_cxx12_Lock_policyE2EE9_M_assignEPS2_RKSt14__shared_countILS4_2EE=so_stub_for_libtelux_config
-Wl,--defsym=_ZNSt10__weak_ptrIN5telux6config22ModemConfigManagerImplELN9__gnu_cxx12_Lock_policyE2EE9_M_assignEPS2_RKSt14__shared_countILS4_2EE=so_stub_for_libtelux_config
-Wl,--defsym=_ZNSt11_Deque_baseISt13shared_futureIvESaIS1_EE15_M_create_nodesEPPS1_S5_=so_stub_for_libtelux_config
-Wl,--defsym=_ZNSt11_Deque_baseISt13shared_futureIvESaIS1_EE16_M_destroy_nodesEPPS1_S5_=so_stub_for_libtelux_config
-Wl,--defsym=_ZNSt11_Deque_baseISt13shared_futureIvESaIS1_EE17_M_initialize_mapEm=so_stub_for_libtelux_config
-Wl,--defsym=_ZNSt12future_errorC1ESt10error_code=so_stub_for_libtelux_config
-Wl,--defsym=_ZNSt12future_errorC2ESt10error_code=so_stub_for_libtelux_config
-Wl,--defsym=_ZNSt12__shared_ptrIN5telux6common12ISDKListenerELN9__gnu_cxx12_Lock_policyE2EEC1ERKSt10__weak_ptrIS2_LS4_2EESt9nothrow_t=so_stub_for_libtelux_config
-Wl,--defsym=_ZNSt12__shared_ptrIN5telux6common12ISDKListenerELN9__gnu_cxx12_Lock_policyE2EEC2ERKSt10__weak_ptrIS2_LS4_2EESt9nothrow_t=so_stub_for_libtelux_config
-Wl,--defsym=_ZNSt12__shared_ptrIN5telux6config17ConfigManagerImplELN9__gnu_cxx12_Lock_policyE2EEC1ISaIS2_EJEEESt20_Sp_alloc_shared_tagIT_EDpOT0_=so_stub_for_libtelux_config
-Wl,--defsym=_ZNSt12__shared_ptrIN5telux6config17ConfigManagerImplELN9__gnu_cxx12_Lock_policyE2EEC2ISaIS2_EJEEESt20_Sp_alloc_shared_tagIT_EDpOT0_=so_stub_for_libtelux_config
-Wl,--defsym=_ZNSt12__shared_ptrIN5telux6config22ModemConfigManagerImplELN9__gnu_cxx12_Lock_policyE2EEC1ISaIS2_EJEEESt20_Sp_alloc_shared_tagIT_EDpOT0_=so_stub_for_libtelux_config
-Wl,--defsym=_ZNSt12__shared_ptrIN5telux6config22ModemConfigManagerImplELN9__gnu_cxx12_Lock_policyE2EEC2ISaIS2_EJEEESt20_Sp_alloc_shared_tagIT_EDpOT0_=so_stub_for_libtelux_config
-Wl,--defsym=_ZNSt12__shared_ptrINSt13__future_base13_State_baseV2ELN9__gnu_cxx12_Lock_policyE2EE5resetEv=so_stub_for_libtelux_config
-Wl,--defsym=_ZNSt12__weak_countILN9__gnu_cxx12_Lock_policyE2EEaSERKSt14__shared_countILS1_2EE=so_stub_for_libtelux_config
-Wl,--defsym=_ZNSt13__future_base13_State_baseV210wait_untilINSt6chrono3_V212system_clockENS2_8durationIlSt5ratioILl1ELl1000000000EEEEEESt13future_statusRKNS2_10time_pointIT_T0_EE=so_stub_for_libtelux_config
-Wl,--defsym=_ZNSt13__future_base13_State_baseV213_M_set_resultESt8functionIFSt10unique_ptrINS_12_Result_baseENS3_8_DeleterEEvEEb=so_stub_for_libtelux_config
-Wl,--defsym=_ZNSt13__future_base13_State_baseV216_M_break_promiseESt10unique_ptrINS_12_Result_baseENS2_8_DeleterEE=so_stub_for_libtelux_config
-Wl,--defsym=_ZNSt13__future_base13_State_baseV217_M_complete_asyncEv=so_stub_for_libtelux_config
-Wl,--defsym=_ZNSt13__future_base13_State_baseV24waitEv=so_stub_for_libtelux_config
-Wl,--defsym=_ZNSt13__future_base13_State_baseV29_M_do_setEPSt8functionIFSt10unique_ptrINS_12_Result_baseENS3_8_DeleterEEvEEPb=so_stub_for_libtelux_config
-Wl,--defsym=_ZNSt13__future_base13_State_baseV2D0Ev=so_stub_for_libtelux_config
-Wl,--defsym=_ZNSt13__future_base13_State_baseV2D1Ev=so_stub_for_libtelux_config
-Wl,--defsym=_ZNSt13__future_base13_State_baseV2D2Ev=so_stub_for_libtelux_config
-Wl,--defsym=_ZNSt13__future_base21_Async_state_commonV217_M_complete_asyncEv=so_stub_for_libtelux_config
-Wl,--defsym=_ZNSt13__future_base21_Async_state_commonV2D0Ev=so_stub_for_libtelux_config
-Wl,--defsym=_ZNSt13__future_base21_Async_state_commonV2D1Ev=so_stub_for_libtelux_config
-Wl,--defsym=_ZNSt13__future_base21_Async_state_commonV2D2Ev=so_stub_for_libtelux_config
-Wl,--defsym=_ZNSt13__future_base7_ResultIbE10_M_destroyEv=so_stub_for_libtelux_config
-Wl,--defsym=_ZNSt13__future_base7_ResultIbED0Ev=so_stub_for_libtelux_config
-Wl,--defsym=_ZNSt13__future_base7_ResultIbED1Ev=so_stub_for_libtelux_config
-Wl,--defsym=_ZNSt13__future_base7_ResultIbED2Ev=so_stub_for_libtelux_config
-Wl,--defsym=_ZNSt13__future_base7_ResultIiE10_M_destroyEv=so_stub_for_libtelux_config
-Wl,--defsym=_ZNSt13__future_base7_ResultIiED0Ev=so_stub_for_libtelux_config
-Wl,--defsym=_ZNSt13__future_base7_ResultIiED1Ev=so_stub_for_libtelux_config
-Wl,--defsym=_ZNSt13__future_base7_ResultIiED2Ev=so_stub_for_libtelux_config
-Wl,--defsym=_ZNSt13__future_base7_ResultIvE10_M_destroyEv=so_stub_for_libtelux_config
-Wl,--defsym=_ZNSt13__future_base7_ResultIvED0Ev=so_stub_for_libtelux_config
-Wl,--defsym=_ZNSt13__future_base7_ResultIvED1Ev=so_stub_for_libtelux_config
-Wl,--defsym=_ZNSt13__future_base7_ResultIvED2Ev=so_stub_for_libtelux_config
-Wl,--defsym=_ZNSt14__basic_futureIbEC1ERKSt10shared_ptrINSt13__future_base13_State_baseV2EE=so_stub_for_libtelux_config
-Wl,--defsym=_ZNSt14__basic_futureIbEC2ERKSt10shared_ptrINSt13__future_base13_State_baseV2EE=so_stub_for_libtelux_config
-Wl,--defsym=_ZNSt14__basic_futureIiEC1ERKSt10shared_ptrINSt13__future_base13_State_baseV2EE=so_stub_for_libtelux_config
-Wl,--defsym=_ZNSt14__basic_futureIiEC2ERKSt10shared_ptrINSt13__future_base13_State_baseV2EE=so_stub_for_libtelux_config
-Wl,--defsym=_ZNSt14__basic_futureIvEC1ERKSt10shared_ptrINSt13__future_base13_State_baseV2EE=so_stub_for_libtelux_config
-Wl,--defsym=_ZNSt14__basic_futureIvEC2ERKSt10shared_ptrINSt13__future_base13_State_baseV2EE=so_stub_for_libtelux_config
-Wl,--defsym=_ZNSt14_Function_base13_Base_managerIZN5telux6common13FactoryHelper10getManagerINS1_6config14IConfigManagerEEESt10shared_ptrIT_ENSt7__cxx1112basic_stringIcSt11char_traitsIcESaIcEEERSt8weak_ptrIS8_ERSt6vectorISt8functionIFvNS2_13ServiceStatusEEESaISN_EESN_SK_IFS9_SN_S7_INS2_14AsyncTaskQueueIvEEEEEST_EUlSL_E0_E10_M_managerERSt9_Any_dataRKSY_St18_Manager_operation=so_stub_for_libtelux_config
-Wl,--defsym=_ZNSt14_Function_base13_Base_managerIZN5telux6common13FactoryHelper10getManagerINS1_6config19IModemConfigManagerEEESt10shared_ptrIT_ENSt7__cxx1112basic_stringIcSt11char_traitsIcESaIcEEERSt8weak_ptrIS8_ERSt6vectorISt8functionIFvNS2_13ServiceStatusEEESaISN_EESN_SK_IFS9_SN_EEEUlSL_E0_E10_M_managerERSt9_Any_dataRKSV_St18_Manager_operation=so_stub_for_libtelux_config
-Wl,--defsym=_ZNSt14_Function_baseD1Ev=so_stub_for_libtelux_config
-Wl,--defsym=_ZNSt14_Function_baseD2Ev=so_stub_for_libtelux_config
-Wl,--defsym=_ZNSt14__shared_countILN9__gnu_cxx12_Lock_policyE2EEC1ERKSt12__weak_countILS1_2EE=so_stub_for_libtelux_config
-Wl,--defsym=_ZNSt14__shared_countILN9__gnu_cxx12_Lock_policyE2EEC1ERKSt12__weak_countILS1_2EESt9nothrow_t=so_stub_for_libtelux_config
-Wl,--defsym=_ZNSt14__shared_countILN9__gnu_cxx12_Lock_policyE2EEC1IN5telux6common18FunctionalCallbackIJNS4_6config10ConfigInfoENS5_9ErrorCodeEEEESaISA_EJRSt8functionIFvS8_S9_EEEEERPT_St20_Sp_alloc_shared_tagIT0_EDpOT1_=so_stub_for_libtelux_config
-Wl,--defsym=_ZNSt14__shared_countILN9__gnu_cxx12_Lock_policyE2EEC1IN5telux6common18FunctionalCallbackIJNS4_6config17AutoSelectionModeENS5_9ErrorCodeEEEESaISA_EJRSt8functionIFvS8_S9_EEEEERPT_St20_Sp_alloc_shared_tagIT0_EDpOT1_=so_stub_for_libtelux_config
-Wl,--defsym=_ZNSt14__shared_countILN9__gnu_cxx12_Lock_policyE2EEC1IN5telux6common18FunctionalCallbackIJNS5_9ErrorCodeEEEESaIS8_EJRSt8functionIFvS7_EEEEERPT_St20_Sp_alloc_shared_tagIT0_EDpOT1_=so_stub_for_libtelux_config
-Wl,--defsym=_ZNSt14__shared_countILN9__gnu_cxx12_Lock_policyE2EEC1IN5telux6common18FunctionalCallbackIJSt6vectorINS4_6config10ConfigInfoESaIS9_EENS5_9ErrorCodeEEEESaISD_EJRSt8functionIFvSB_SC_EEEEERPT_St20_Sp_alloc_shared_tagIT0_EDpOT1_=so_stub_for_libtelux_config
-Wl,--defsym=_ZNSt14__shared_countILN9__gnu_cxx12_Lock_policyE2EEC1IN5telux6config21QmiLoadConfigCallbackESaIS6_EJRiEEERPT_St20_Sp_alloc_shared_tagIT0_EDpOT1_=so_stub_for_libtelux_config
-Wl,--defsym=_ZNSt14__shared_countILN9__gnu_cxx12_Lock_policyE2EEC1IN5telux6config23QmiDeleteConfigCallbackESaIS6_EJRiEEERPT_St20_Sp_alloc_shared_tagIT0_EDpOT1_=so_stub_for_libtelux_config
-Wl,--defsym=_ZNSt14__shared_countILN9__gnu_cxx12_Lock_policyE2EEC1IN5telux6config25QmiActivateConfigCallbackESaIS6_EJRiEEERPT_St20_Sp_alloc_shared_tagIT0_EDpOT1_=so_stub_for_libtelux_config
-Wl,--defsym=_ZNSt14__shared_countILN9__gnu_cxx12_Lock_policyE2EEC1IN5telux6config26QmiGetActiveConfigCallbackESaIS6_EJRiEEERPT_St20_Sp_alloc_shared_tagIT0_EDpOT1_=so_stub_for_libtelux_config
-Wl,--defsym=_ZNSt14__shared_countILN9__gnu_cxx12_Lock_policyE2EEC1IN5telux6config26QmiSetSelectConfigCallbackESaIS6_EJRiEEERPT_St20_Sp_alloc_shared_tagIT0_EDpOT1_=so_stub_for_libtelux_config
-Wl,--defsym=_ZNSt14__shared_countILN9__gnu_cxx12_Lock_policyE2EEC1IN5telux6config27QmiDeactivateConfigCallbackESaIS6_EJRiEEERPT_St20_Sp_alloc_shared_tagIT0_EDpOT1_=so_stub_for_libtelux_config
-Wl,--defsym=_ZNSt14__shared_countILN9__gnu_cxx12_Lock_policyE2EEC1IN5telux6config27QmiGetConfigFeatureCallbackESaIS6_EJRiEEERPT_St20_Sp_alloc_shared_tagIT0_EDpOT1_=so_stub_for_libtelux_config
-Wl,--defsym=_ZNSt14__shared_countILN9__gnu_cxx12_Lock_policyE2EEC1IN5telux6config27QmiSetConfigFeatureCallbackESaIS6_EJRiEEERPT_St20_Sp_alloc_shared_tagIT0_EDpOT1_=so_stub_for_libtelux_config
-Wl,--defsym=_ZNSt14__shared_countILN9__gnu_cxx12_Lock_policyE2EEC1IN5telux6config28QmiRequestConfigInfoCallbackESaIS6_EJRiEEERPT_St20_Sp_alloc_shared_tagIT0_EDpOT1_=so_stub_for_libtelux_config
-Wl,--defsym=_ZNSt14__shared_countILN9__gnu_cxx12_Lock_policyE2EEC1IN5telux6config28QmiRequestConfigListCallbackESaIS6_EJRiEEERPT_St20_Sp_alloc_shared_tagIT0_EDpOT1_=so_stub_for_libtelux_config
-Wl,--defsym=_ZNSt14__shared_countILN9__gnu_cxx12_Lock_policyE2EEC1IN5telux6config35QmiRequestDefaultConfigInfoCallbackESaIS6_EJRiEEERPT_St20_Sp_alloc_shared_tagIT0_EDpOT1_=so_stub_for_libtelux_config
-Wl,--defsym=_ZNSt14__shared_countILN9__gnu_cxx12_Lock_policyE2EEC2ERKSt12__weak_countILS1_2EE=so_stub_for_libtelux_config
-Wl,--defsym=_ZNSt14__shared_countILN9__gnu_cxx12_Lock_policyE2EEC2ERKSt12__weak_countILS1_2EESt9nothrow_t=so_stub_for_libtelux_config
-Wl,--defsym=_ZNSt14__shared_countILN9__gnu_cxx12_Lock_policyE2EEC2IN5telux6common18FunctionalCallbackIJNS4_6config10ConfigInfoENS5_9ErrorCodeEEEESaISA_EJRSt8functionIFvS8_S9_EEEEERPT_St20_Sp_alloc_shared_tagIT0_EDpOT1_=so_stub_for_libtelux_config
-Wl,--defsym=_ZNSt14__shared_countILN9__gnu_cxx12_Lock_policyE2EEC2IN5telux6common18FunctionalCallbackIJNS4_6config17AutoSelectionModeENS5_9ErrorCodeEEEESaISA_EJRSt8functionIFvS8_S9_EEEEERPT_St20_Sp_alloc_shared_tagIT0_EDpOT1_=so_stub_for_libtelux_config
-Wl,--defsym=_ZNSt14__shared_countILN9__gnu_cxx12_Lock_policyE2EEC2IN5telux6common18FunctionalCallbackIJNS5_9ErrorCodeEEEESaIS8_EJRSt8functionIFvS7_EEEEERPT_St20_Sp_alloc_shared_tagIT0_EDpOT1_=so_stub_for_libtelux_config
-Wl,--defsym=_ZNSt14__shared_countILN9__gnu_cxx12_Lock_policyE2EEC2IN5telux6common18FunctionalCallbackIJSt6vectorINS4_6config10ConfigInfoESaIS9_EENS5_9ErrorCodeEEEESaISD_EJRSt8functionIFvSB_SC_EEEEERPT_St20_Sp_alloc_shared_tagIT0_EDpOT1_=so_stub_for_libtelux_config
-Wl,--defsym=_ZNSt14__shared_countILN9__gnu_cxx12_Lock_policyE2EEC2IN5telux6config21QmiLoadConfigCallbackESaIS6_EJRiEEERPT_St20_Sp_alloc_shared_tagIT0_EDpOT1_=so_stub_for_libtelux_config
-Wl,--defsym=_ZNSt14__shared_countILN9__gnu_cxx12_Lock_policyE2EEC2IN5telux6config23QmiDeleteConfigCallbackESaIS6_EJRiEEERPT_St20_Sp_alloc_shared_tagIT0_EDpOT1_=so_stub_for_libtelux_config
-Wl,--defsym=_ZNSt14__shared_countILN9__gnu_cxx12_Lock_policyE2EEC2IN5telux6config25QmiActivateConfigCallbackESaIS6_EJRiEEERPT_St20_Sp_alloc_shared_tagIT0_EDpOT1_=so_stub_for_libtelux_config
-Wl,--defsym=_ZNSt14__shared_countILN9__gnu_cxx12_Lock_policyE2EEC2IN5telux6config26QmiGetActiveConfigCallbackESaIS6_EJRiEEERPT_St20_Sp_alloc_shared_tagIT0_EDpOT1_=so_stub_for_libtelux_config
-Wl,--defsym=_ZNSt14__shared_countILN9__gnu_cxx12_Lock_policyE2EEC2IN5telux6config26QmiSetSelectConfigCallbackESaIS6_EJRiEEERPT_St20_Sp_alloc_shared_tagIT0_EDpOT1_=so_stub_for_libtelux_config
-Wl,--defsym=_ZNSt14__shared_countILN9__gnu_cxx12_Lock_policyE2EEC2IN5telux6config27QmiDeactivateConfigCallbackESaIS6_EJRiEEERPT_St20_Sp_alloc_shared_tagIT0_EDpOT1_=so_stub_for_libtelux_config
-Wl,--defsym=_ZNSt14__shared_countILN9__gnu_cxx12_Lock_policyE2EEC2IN5telux6config27QmiGetConfigFeatureCallbackESaIS6_EJRiEEERPT_St20_Sp_alloc_shared_tagIT0_EDpOT1_=so_stub_for_libtelux_config
-Wl,--defsym=_ZNSt14__shared_countILN9__gnu_cxx12_Lock_policyE2EEC2IN5telux6config27QmiSetConfigFeatureCallbackESaIS6_EJRiEEERPT_St20_Sp_alloc_shared_tagIT0_EDpOT1_=so_stub_for_libtelux_config
-Wl,--defsym=_ZNSt14__shared_countILN9__gnu_cxx12_Lock_policyE2EEC2IN5telux6config28QmiRequestConfigInfoCallbackESaIS6_EJRiEEERPT_St20_Sp_alloc_shared_tagIT0_EDpOT1_=so_stub_for_libtelux_config
-Wl,--defsym=_ZNSt14__shared_countILN9__gnu_cxx12_Lock_policyE2EEC2IN5telux6config28QmiRequestConfigListCallbackESaIS6_EJRiEEERPT_St20_Sp_alloc_shared_tagIT0_EDpOT1_=so_stub_for_libtelux_config
-Wl,--defsym=_ZNSt14__shared_countILN9__gnu_cxx12_Lock_policyE2EEC2IN5telux6config35QmiRequestDefaultConfigInfoCallbackESaIS6_EJRiEEERPT_St20_Sp_alloc_shared_tagIT0_EDpOT1_=so_stub_for_libtelux_config
-Wl,--defsym=_ZNSt15_Deque_iteratorISt13shared_futureIvERKS1_PS2_EpLEl=so_stub_for_libtelux_config
-Wl,--defsym=_ZNSt15_Deque_iteratorISt13shared_futureIvERS1_PS1_EpLEl=so_stub_for_libtelux_config
-Wl,--defsym=_ZNSt15__exception_ptr12__dest_thunkISt12future_errorEEvPv=so_stub_for_libtelux_config
-Wl,--defsym=_ZNSt15__exception_ptr13exception_ptraSEOS0_=so_stub_for_libtelux_config
-Wl,--defsym=_ZNSt16_Sp_counted_baseILN9__gnu_cxx12_Lock_policyE2EE10_M_releaseEv=so_stub_for_libtelux_config
-Wl,--defsym=_ZNSt16_Sp_counted_baseILN9__gnu_cxx12_Lock_policyE2EE15_M_weak_releaseEv=so_stub_for_libtelux_config
-Wl,--defsym=_ZNSt17_Function_handlerIFSt10unique_ptrINSt13__future_base12_Result_baseENS2_8_DeleterEEvENS1_13_State_baseV27_SetterIiOiEEE10_M_managerERSt9_Any_dataRKSB_St18_Manager_operation=so_stub_for_libtelux_config
-Wl,--defsym=_ZNSt17_Function_handlerIFSt10unique_ptrINSt13__future_base12_Result_baseENS2_8_DeleterEEvENS1_13_State_baseV27_SetterIiOiEEE9_M_invokeERKSt9_Any_data=so_stub_for_libtelux_config
-Wl,--defsym=_ZNSt17_Function_handlerIFSt10unique_ptrINSt13__future_base12_Result_baseENS2_8_DeleterEEvENS1_13_State_baseV27_SetterIiRKiEEE10_M_managerERSt9_Any_dataRKSC_St18_Manager_operation=so_stub_for_libtelux_config
-Wl,--defsym=_ZNSt17_Function_handlerIFSt10unique_ptrINSt13__future_base12_Result_baseENS2_8_DeleterEEvENS1_13_State_baseV27_SetterIiRKiEEE9_M_invokeERKSt9_Any_data=so_stub_for_libtelux_config
-Wl,--defsym=_ZNSt17_Function_handlerIFvN5telux6common13ServiceStatusEEZNS1_13FactoryHelper10getManagerINS0_6config14IConfigManagerEEESt10shared_ptrIT_ENSt7__cxx1112basic_stringIcSt11char_traitsIcESaIcEEERSt8weak_ptrIS9_ERSt6vectorISt8functionIS3_ESaISM_EESM_SL_IFSA_SM_S8_INS1_14AsyncTaskQueueIvEEEEESS_EUlS2_E0_E10_M_managerERSt9_Any_dataRKSX_St18_Manager_operation=so_stub_for_libtelux_config
-Wl,--defsym=_ZNSt17_Function_handlerIFvN5telux6common13ServiceStatusEEZNS1_13FactoryHelper10getManagerINS0_6config14IConfigManagerEEESt10shared_ptrIT_ENSt7__cxx1112basic_stringIcSt11char_traitsIcESaIcEEERSt8weak_ptrIS9_ERSt6vectorISt8functionIS3_ESaISM_EESM_SL_IFSA_SM_S8_INS1_14AsyncTaskQueueIvEEEEESS_EUlS2_E0_E9_M_invokeERKSt9_Any_dataOS2_=so_stub_for_libtelux_config
-Wl,--defsym=_ZNSt17_Function_handlerIFvN5telux6common13ServiceStatusEEZNS1_13FactoryHelper10getManagerINS0_6config19IModemConfigManagerEEESt10shared_ptrIT_ENSt7__cxx1112basic_stringIcSt11char_traitsIcESaIcEEERSt8weak_ptrIS9_ERSt6vectorISt8functionIS3_ESaISM_EESM_SL_IFSA_SM_EEEUlS2_E0_E10_M_managerERSt9_Any_dataRKSU_St18_Manager_operation=so_stub_for_libtelux_config
-Wl,--defsym=_ZNSt17_Function_handlerIFvN5telux6common13ServiceStatusEEZNS1_13FactoryHelper10getManagerINS0_6config19IModemConfigManagerEEESt10shared_ptrIT_ENSt7__cxx1112basic_stringIcSt11char_traitsIcESaIcEEERSt8weak_ptrIS9_ERSt6vectorISt8functionIS3_ESaISM_EESM_SL_IFSA_SM_EEEUlS2_E0_E9_M_invokeERKSt9_Any_dataOS2_=so_stub_for_libtelux_config
-Wl,--defsym=_ZNSt18condition_variable4waitIZN5telux6common14AsyncTaskQueueIvE11executeTaskEvEUlvE_EEvRSt11unique_lockISt5mutexET_=so_stub_for_libtelux_config
-Wl,--defsym=_ZNSt20__uninitialized_copyILb0EE13__uninit_copyIN9__gnu_cxx17__normal_iteratorIPKSt8functionIFvN5telux6common13ServiceStatusEEESt6vectorIS9_SaIS9_EEEEPS9_EET0_T_SI_SH_=so_stub_for_libtelux_config
-Wl,--defsym=_ZNSt20__uninitialized_copyILb0EE13__uninit_copyIPKN5telux6config10ConfigInfoEPS4_EET0_T_S9_S8_=so_stub_for_libtelux_config
-Wl,--defsym=_ZNSt20__uninitialized_copyILb0EE13__uninit_copyIPSt8functionIFvN5telux6common13ServiceStatusEEES8_EET0_T_SA_S9_=so_stub_for_libtelux_config
-Wl,--defsym=_ZNSt20__uninitialized_copyILb0EE13__uninit_copyISt15_Deque_iteratorISt13shared_futureIvERKS4_PS5_ES2_IS4_RS4_PS4_EEET0_T_SD_SC_=so_stub_for_libtelux_config
-Wl,--defsym=_ZNSt23_Sp_counted_ptr_inplaceIN5telux6common15ListenerManagerESaIS2_ELN9__gnu_cxx12_Lock_policyE2EE10_M_destroyEv=so_stub_for_libtelux_config
-Wl,--defsym=_ZNSt23_Sp_counted_ptr_inplaceIN5telux6common15ListenerManagerESaIS2_ELN9__gnu_cxx12_Lock_policyE2EE10_M_disposeEv=so_stub_for_libtelux_config
-Wl,--defsym=_ZNSt23_Sp_counted_ptr_inplaceIN5telux6common15ListenerManagerESaIS2_ELN9__gnu_cxx12_Lock_policyE2EE14_M_get_deleterERKSt9type_info=so_stub_for_libtelux_config
-Wl,--defsym=_ZNSt23_Sp_counted_ptr_inplaceIN5telux6common15ListenerManagerESaIS2_ELN9__gnu_cxx12_Lock_policyE2EED0Ev=so_stub_for_libtelux_config
-Wl,--defsym=_ZNSt23_Sp_counted_ptr_inplaceIN5telux6common15ListenerManagerESaIS2_ELN9__gnu_cxx12_Lock_policyE2EED1Ev=so_stub_for_libtelux_config
-Wl,--defsym=_ZNSt23_Sp_counted_ptr_inplaceIN5telux6common15ListenerManagerESaIS2_ELN9__gnu_cxx12_Lock_policyE2EED2Ev=so_stub_for_libtelux_config
-Wl,--defsym=_ZNSt23_Sp_counted_ptr_inplaceIN5telux6common18FunctionalCallbackIJNS0_6config10ConfigInfoENS1_9ErrorCodeEEEESaIS6_ELN9__gnu_cxx12_Lock_policyE2EE10_M_destroyEv=so_stub_for_libtelux_config
-Wl,--defsym=_ZNSt23_Sp_counted_ptr_inplaceIN5telux6common18FunctionalCallbackIJNS0_6config10ConfigInfoENS1_9ErrorCodeEEEESaIS6_ELN9__gnu_cxx12_Lock_policyE2EE10_M_disposeEv=so_stub_for_libtelux_config
-Wl,--defsym=_ZNSt23_Sp_counted_ptr_inplaceIN5telux6common18FunctionalCallbackIJNS0_6config10ConfigInfoENS1_9ErrorCodeEEEESaIS6_ELN9__gnu_cxx12_Lock_policyE2EE14_M_get_deleterERKSt9type_info=so_stub_for_libtelux_config
-Wl,--defsym=_ZNSt23_Sp_counted_ptr_inplaceIN5telux6common18FunctionalCallbackIJNS0_6config10ConfigInfoENS1_9ErrorCodeEEEESaIS6_ELN9__gnu_cxx12_Lock_policyE2EED0Ev=so_stub_for_libtelux_config
-Wl,--defsym=_ZNSt23_Sp_counted_ptr_inplaceIN5telux6common18FunctionalCallbackIJNS0_6config10ConfigInfoENS1_9ErrorCodeEEEESaIS6_ELN9__gnu_cxx12_Lock_policyE2EED1Ev=so_stub_for_libtelux_config
-Wl,--defsym=_ZNSt23_Sp_counted_ptr_inplaceIN5telux6common18FunctionalCallbackIJNS0_6config10ConfigInfoENS1_9ErrorCodeEEEESaIS6_ELN9__gnu_cxx12_Lock_policyE2EED2Ev=so_stub_for_libtelux_config
-Wl,--defsym=_ZNSt23_Sp_counted_ptr_inplaceIN5telux6common18FunctionalCallbackIJNS0_6config17AutoSelectionModeENS1_9ErrorCodeEEEESaIS6_ELN9__gnu_cxx12_Lock_policyE2EE10_M_destroyEv=so_stub_for_libtelux_config
-Wl,--defsym=_ZNSt23_Sp_counted_ptr_inplaceIN5telux6common18FunctionalCallbackIJNS0_6config17AutoSelectionModeENS1_9ErrorCodeEEEESaIS6_ELN9__gnu_cxx12_Lock_policyE2EE10_M_disposeEv=so_stub_for_libtelux_config
-Wl,--defsym=_ZNSt23_Sp_counted_ptr_inplaceIN5telux6common18FunctionalCallbackIJNS0_6config17AutoSelectionModeENS1_9ErrorCodeEEEESaIS6_ELN9__gnu_cxx12_Lock_policyE2EE14_M_get_deleterERKSt9type_info=so_stub_for_libtelux_config
-Wl,--defsym=_ZNSt23_Sp_counted_ptr_inplaceIN5telux6common18FunctionalCallbackIJNS0_6config17AutoSelectionModeENS1_9ErrorCodeEEEESaIS6_ELN9__gnu_cxx12_Lock_policyE2EED0Ev=so_stub_for_libtelux_config
-Wl,--defsym=_ZNSt23_Sp_counted_ptr_inplaceIN5telux6common18FunctionalCallbackIJNS0_6config17AutoSelectionModeENS1_9ErrorCodeEEEESaIS6_ELN9__gnu_cxx12_Lock_policyE2EED1Ev=so_stub_for_libtelux_config
-Wl,--defsym=_ZNSt23_Sp_counted_ptr_inplaceIN5telux6common18FunctionalCallbackIJNS0_6config17AutoSelectionModeENS1_9ErrorCodeEEEESaIS6_ELN9__gnu_cxx12_Lock_policyE2EED2Ev=so_stub_for_libtelux_config
-Wl,--defsym=_ZNSt23_Sp_counted_ptr_inplaceIN5telux6common18FunctionalCallbackIJNS1_9ErrorCodeEEEESaIS4_ELN9__gnu_cxx12_Lock_policyE2EE10_M_destroyEv=so_stub_for_libtelux_config
-Wl,--defsym=_ZNSt23_Sp_counted_ptr_inplaceIN5telux6common18FunctionalCallbackIJNS1_9ErrorCodeEEEESaIS4_ELN9__gnu_cxx12_Lock_policyE2EE10_M_disposeEv=so_stub_for_libtelux_config
-Wl,--defsym=_ZNSt23_Sp_counted_ptr_inplaceIN5telux6common18FunctionalCallbackIJNS1_9ErrorCodeEEEESaIS4_ELN9__gnu_cxx12_Lock_policyE2EE14_M_get_deleterERKSt9type_info=so_stub_for_libtelux_config
-Wl,--defsym=_ZNSt23_Sp_counted_ptr_inplaceIN5telux6common18FunctionalCallbackIJNS1_9ErrorCodeEEEESaIS4_ELN9__gnu_cxx12_Lock_policyE2EED0Ev=so_stub_for_libtelux_config
-Wl,--defsym=_ZNSt23_Sp_counted_ptr_inplaceIN5telux6common18FunctionalCallbackIJNS1_9ErrorCodeEEEESaIS4_ELN9__gnu_cxx12_Lock_policyE2EED1Ev=so_stub_for_libtelux_config
-Wl,--defsym=_ZNSt23_Sp_counted_ptr_inplaceIN5telux6common18FunctionalCallbackIJNS1_9ErrorCodeEEEESaIS4_ELN9__gnu_cxx12_Lock_policyE2EED2Ev=so_stub_for_libtelux_config
-Wl,--defsym=_ZNSt23_Sp_counted_ptr_inplaceIN5telux6common18FunctionalCallbackIJSt6vectorINS0_6config10ConfigInfoESaIS5_EENS1_9ErrorCodeEEEESaIS9_ELN9__gnu_cxx12_Lock_policyE2EE10_M_destroyEv=so_stub_for_libtelux_config
-Wl,--defsym=_ZNSt23_Sp_counted_ptr_inplaceIN5telux6common18FunctionalCallbackIJSt6vectorINS0_6config10ConfigInfoESaIS5_EENS1_9ErrorCodeEEEESaIS9_ELN9__gnu_cxx12_Lock_policyE2EE10_M_disposeEv=so_stub_for_libtelux_config
-Wl,--defsym=_ZNSt23_Sp_counted_ptr_inplaceIN5telux6common18FunctionalCallbackIJSt6vectorINS0_6config10ConfigInfoESaIS5_EENS1_9ErrorCodeEEEESaIS9_ELN9__gnu_cxx12_Lock_policyE2EE14_M_get_deleterERKSt9type_info=so_stub_for_libtelux_config
-Wl,--defsym=_ZNSt23_Sp_counted_ptr_inplaceIN5telux6common18FunctionalCallbackIJSt6vectorINS0_6config10ConfigInfoESaIS5_EENS1_9ErrorCodeEEEESaIS9_ELN9__gnu_cxx12_Lock_policyE2EED0Ev=so_stub_for_libtelux_config
-Wl,--defsym=_ZNSt23_Sp_counted_ptr_inplaceIN5telux6common18FunctionalCallbackIJSt6vectorINS0_6config10ConfigInfoESaIS5_EENS1_9ErrorCodeEEEESaIS9_ELN9__gnu_cxx12_Lock_policyE2EED1Ev=so_stub_for_libtelux_config
-Wl,--defsym=_ZNSt23_Sp_counted_ptr_inplaceIN5telux6common18FunctionalCallbackIJSt6vectorINS0_6config10ConfigInfoESaIS5_EENS1_9ErrorCodeEEEESaIS9_ELN9__gnu_cxx12_Lock_policyE2EED2Ev=so_stub_for_libtelux_config
-Wl,--defsym=_ZNSt23_Sp_counted_ptr_inplaceIN5telux6config17ConfigManagerImplESaIS2_ELN9__gnu_cxx12_Lock_policyE2EE10_M_destroyEv=so_stub_for_libtelux_config
-Wl,--defsym=_ZNSt23_Sp_counted_ptr_inplaceIN5telux6config17ConfigManagerImplESaIS2_ELN9__gnu_cxx12_Lock_policyE2EE10_M_disposeEv=so_stub_for_libtelux_config
-Wl,--defsym=_ZNSt23_Sp_counted_ptr_inplaceIN5telux6config17ConfigManagerImplESaIS2_ELN9__gnu_cxx12_Lock_policyE2EE14_M_get_deleterERKSt9type_info=so_stub_for_libtelux_config
-Wl,--defsym=_ZNSt23_Sp_counted_ptr_inplaceIN5telux6config17ConfigManagerImplESaIS2_ELN9__gnu_cxx12_Lock_policyE2EED0Ev=so_stub_for_libtelux_config
-Wl,--defsym=_ZNSt23_Sp_counted_ptr_inplaceIN5telux6config17ConfigManagerImplESaIS2_ELN9__gnu_cxx12_Lock_policyE2EED1Ev=so_stub_for_libtelux_config
-Wl,--defsym=_ZNSt23_Sp_counted_ptr_inplaceIN5telux6config17ConfigManagerImplESaIS2_ELN9__gnu_cxx12_Lock_policyE2EED2Ev=so_stub_for_libtelux_config
-Wl,--defsym=_ZNSt23_Sp_counted_ptr_inplaceIN5telux6config21QmiLoadConfigCallbackESaIS2_ELN9__gnu_cxx12_Lock_policyE2EE10_M_destroyEv=so_stub_for_libtelux_config
-Wl,--defsym=_ZNSt23_Sp_counted_ptr_inplaceIN5telux6config21QmiLoadConfigCallbackESaIS2_ELN9__gnu_cxx12_Lock_policyE2EE10_M_disposeEv=so_stub_for_libtelux_config
-Wl,--defsym=_ZNSt23_Sp_counted_ptr_inplaceIN5telux6config21QmiLoadConfigCallbackESaIS2_ELN9__gnu_cxx12_Lock_policyE2EE14_M_get_deleterERKSt9type_info=so_stub_for_libtelux_config
-Wl,--defsym=_ZNSt23_Sp_counted_ptr_inplaceIN5telux6config21QmiLoadConfigCallbackESaIS2_ELN9__gnu_cxx12_Lock_policyE2EED0Ev=so_stub_for_libtelux_config
-Wl,--defsym=_ZNSt23_Sp_counted_ptr_inplaceIN5telux6config21QmiLoadConfigCallbackESaIS2_ELN9__gnu_cxx12_Lock_policyE2EED1Ev=so_stub_for_libtelux_config
-Wl,--defsym=_ZNSt23_Sp_counted_ptr_inplaceIN5telux6config21QmiLoadConfigCallbackESaIS2_ELN9__gnu_cxx12_Lock_policyE2EED2Ev=so_stub_for_libtelux_config
-Wl,--defsym=_ZNSt23_Sp_counted_ptr_inplaceIN5telux6config22ModemConfigManagerImplESaIS2_ELN9__gnu_cxx12_Lock_policyE2EE10_M_destroyEv=so_stub_for_libtelux_config
-Wl,--defsym=_ZNSt23_Sp_counted_ptr_inplaceIN5telux6config22ModemConfigManagerImplESaIS2_ELN9__gnu_cxx12_Lock_policyE2EE10_M_disposeEv=so_stub_for_libtelux_config
-Wl,--defsym=_ZNSt23_Sp_counted_ptr_inplaceIN5telux6config22ModemConfigManagerImplESaIS2_ELN9__gnu_cxx12_Lock_policyE2EE14_M_get_deleterERKSt9type_info=so_stub_for_libtelux_config
-Wl,--defsym=_ZNSt23_Sp_counted_ptr_inplaceIN5telux6config22ModemConfigManagerImplESaIS2_ELN9__gnu_cxx12_Lock_policyE2EED0Ev=so_stub_for_libtelux_config
-Wl,--defsym=_ZNSt23_Sp_counted_ptr_inplaceIN5telux6config22ModemConfigManagerImplESaIS2_ELN9__gnu_cxx12_Lock_policyE2EED1Ev=so_stub_for_libtelux_config
-Wl,--defsym=_ZNSt23_Sp_counted_ptr_inplaceIN5telux6config22ModemConfigManagerImplESaIS2_ELN9__gnu_cxx12_Lock_policyE2EED2Ev=so_stub_for_libtelux_config
-Wl,--defsym=_ZNSt23_Sp_counted_ptr_inplaceIN5telux6config23QmiDeleteConfigCallbackESaIS2_ELN9__gnu_cxx12_Lock_policyE2EE10_M_destroyEv=so_stub_for_libtelux_config
-Wl,--defsym=_ZNSt23_Sp_counted_ptr_inplaceIN5telux6config23QmiDeleteConfigCallbackESaIS2_ELN9__gnu_cxx12_Lock_policyE2EE10_M_disposeEv=so_stub_for_libtelux_config
-Wl,--defsym=_ZNSt23_Sp_counted_ptr_inplaceIN5telux6config23QmiDeleteConfigCallbackESaIS2_ELN9__gnu_cxx12_Lock_policyE2EE14_M_get_deleterERKSt9type_info=so_stub_for_libtelux_config
-Wl,--defsym=_ZNSt23_Sp_counted_ptr_inplaceIN5telux6config23QmiDeleteConfigCallbackESaIS2_ELN9__gnu_cxx12_Lock_policyE2EED0Ev=so_stub_for_libtelux_config
-Wl,--defsym=_ZNSt23_Sp_counted_ptr_inplaceIN5telux6config23QmiDeleteConfigCallbackESaIS2_ELN9__gnu_cxx12_Lock_policyE2EED1Ev=so_stub_for_libtelux_config
-Wl,--defsym=_ZNSt23_Sp_counted_ptr_inplaceIN5telux6config23QmiDeleteConfigCallbackESaIS2_ELN9__gnu_cxx12_Lock_policyE2EED2Ev=so_stub_for_libtelux_config
-Wl,--defsym=_ZNSt23_Sp_counted_ptr_inplaceIN5telux6config25QmiActivateConfigCallbackESaIS2_ELN9__gnu_cxx12_Lock_policyE2EE10_M_destroyEv=so_stub_for_libtelux_config
-Wl,--defsym=_ZNSt23_Sp_counted_ptr_inplaceIN5telux6config25QmiActivateConfigCallbackESaIS2_ELN9__gnu_cxx12_Lock_policyE2EE10_M_disposeEv=so_stub_for_libtelux_config
-Wl,--defsym=_ZNSt23_Sp_counted_ptr_inplaceIN5telux6config25QmiActivateConfigCallbackESaIS2_ELN9__gnu_cxx12_Lock_policyE2EE14_M_get_deleterERKSt9type_info=so_stub_for_libtelux_config
-Wl,--defsym=_ZNSt23_Sp_counted_ptr_inplaceIN5telux6config25QmiActivateConfigCallbackESaIS2_ELN9__gnu_cxx12_Lock_policyE2EED0Ev=so_stub_for_libtelux_config
-Wl,--defsym=_ZNSt23_Sp_counted_ptr_inplaceIN5telux6config25QmiActivateConfigCallbackESaIS2_ELN9__gnu_cxx12_Lock_policyE2EED1Ev=so_stub_for_libtelux_config
-Wl,--defsym=_ZNSt23_Sp_counted_ptr_inplaceIN5telux6config25QmiActivateConfigCallbackESaIS2_ELN9__gnu_cxx12_Lock_policyE2EED2Ev=so_stub_for_libtelux_config
-Wl,--defsym=_ZNSt23_Sp_counted_ptr_inplaceIN5telux6config26QmiGetActiveConfigCallbackESaIS2_ELN9__gnu_cxx12_Lock_policyE2EE10_M_destroyEv=so_stub_for_libtelux_config
-Wl,--defsym=_ZNSt23_Sp_counted_ptr_inplaceIN5telux6config26QmiGetActiveConfigCallbackESaIS2_ELN9__gnu_cxx12_Lock_policyE2EE10_M_disposeEv=so_stub_for_libtelux_config
-Wl,--defsym=_ZNSt23_Sp_counted_ptr_inplaceIN5telux6config26QmiGetActiveConfigCallbackESaIS2_ELN9__gnu_cxx12_Lock_policyE2EE14_M_get_deleterERKSt9type_info=so_stub_for_libtelux_config
-Wl,--defsym=_ZNSt23_Sp_counted_ptr_inplaceIN5telux6config26QmiGetActiveConfigCallbackESaIS2_ELN9__gnu_cxx12_Lock_policyE2EED0Ev=so_stub_for_libtelux_config
-Wl,--defsym=_ZNSt23_Sp_counted_ptr_inplaceIN5telux6config26QmiGetActiveConfigCallbackESaIS2_ELN9__gnu_cxx12_Lock_policyE2EED1Ev=so_stub_for_libtelux_config
-Wl,--defsym=_ZNSt23_Sp_counted_ptr_inplaceIN5telux6config26QmiGetActiveConfigCallbackESaIS2_ELN9__gnu_cxx12_Lock_policyE2EED2Ev=so_stub_for_libtelux_config
-Wl,--defsym=_ZNSt23_Sp_counted_ptr_inplaceIN5telux6config26QmiSetSelectConfigCallbackESaIS2_ELN9__gnu_cxx12_Lock_policyE2EE10_M_destroyEv=so_stub_for_libtelux_config
-Wl,--defsym=_ZNSt23_Sp_counted_ptr_inplaceIN5telux6config26QmiSetSelectConfigCallbackESaIS2_ELN9__gnu_cxx12_Lock_policyE2EE10_M_disposeEv=so_stub_for_libtelux_config
-Wl,--defsym=_ZNSt23_Sp_counted_ptr_inplaceIN5telux6config26QmiSetSelectConfigCallbackESaIS2_ELN9__gnu_cxx12_Lock_policyE2EE14_M_get_deleterERKSt9type_info=so_stub_for_libtelux_config
-Wl,--defsym=_ZNSt23_Sp_counted_ptr_inplaceIN5telux6config26QmiSetSelectConfigCallbackESaIS2_ELN9__gnu_cxx12_Lock_policyE2EED0Ev=so_stub_for_libtelux_config
-Wl,--defsym=_ZNSt23_Sp_counted_ptr_inplaceIN5telux6config26QmiSetSelectConfigCallbackESaIS2_ELN9__gnu_cxx12_Lock_policyE2EED1Ev=so_stub_for_libtelux_config
-Wl,--defsym=_ZNSt23_Sp_counted_ptr_inplaceIN5telux6config26QmiSetSelectConfigCallbackESaIS2_ELN9__gnu_cxx12_Lock_policyE2EED2Ev=so_stub_for_libtelux_config
-Wl,--defsym=_ZNSt23_Sp_counted_ptr_inplaceIN5telux6config27QmiDeactivateConfigCallbackESaIS2_ELN9__gnu_cxx12_Lock_policyE2EE10_M_destroyEv=so_stub_for_libtelux_config
-Wl,--defsym=_ZNSt23_Sp_counted_ptr_inplaceIN5telux6config27QmiDeactivateConfigCallbackESaIS2_ELN9__gnu_cxx12_Lock_policyE2EE10_M_disposeEv=so_stub_for_libtelux_config
-Wl,--defsym=_ZNSt23_Sp_counted_ptr_inplaceIN5telux6config27QmiDeactivateConfigCallbackESaIS2_ELN9__gnu_cxx12_Lock_policyE2EE14_M_get_deleterERKSt9type_info=so_stub_for_libtelux_config
-Wl,--defsym=_ZNSt23_Sp_counted_ptr_inplaceIN5telux6config27QmiDeactivateConfigCallbackESaIS2_ELN9__gnu_cxx12_Lock_policyE2EED0Ev=so_stub_for_libtelux_config
-Wl,--defsym=_ZNSt23_Sp_counted_ptr_inplaceIN5telux6config27QmiDeactivateConfigCallbackESaIS2_ELN9__gnu_cxx12_Lock_policyE2EED1Ev=so_stub_for_libtelux_config
-Wl,--defsym=_ZNSt23_Sp_counted_ptr_inplaceIN5telux6config27QmiDeactivateConfigCallbackESaIS2_ELN9__gnu_cxx12_Lock_policyE2EED2Ev=so_stub_for_libtelux_config
-Wl,--defsym=_ZNSt23_Sp_counted_ptr_inplaceIN5telux6config27QmiGetConfigFeatureCallbackESaIS2_ELN9__gnu_cxx12_Lock_policyE2EE10_M_destroyEv=so_stub_for_libtelux_config
-Wl,--defsym=_ZNSt23_Sp_counted_ptr_inplaceIN5telux6config27QmiGetConfigFeatureCallbackESaIS2_ELN9__gnu_cxx12_Lock_policyE2EE10_M_disposeEv=so_stub_for_libtelux_config
-Wl,--defsym=_ZNSt23_Sp_counted_ptr_inplaceIN5telux6config27QmiGetConfigFeatureCallbackESaIS2_ELN9__gnu_cxx12_Lock_policyE2EE14_M_get_deleterERKSt9type_info=so_stub_for_libtelux_config
-Wl,--defsym=_ZNSt23_Sp_counted_ptr_inplaceIN5telux6config27QmiGetConfigFeatureCallbackESaIS2_ELN9__gnu_cxx12_Lock_policyE2EED0Ev=so_stub_for_libtelux_config
-Wl,--defsym=_ZNSt23_Sp_counted_ptr_inplaceIN5telux6config27QmiGetConfigFeatureCallbackESaIS2_ELN9__gnu_cxx12_Lock_policyE2EED1Ev=so_stub_for_libtelux_config
-Wl,--defsym=_ZNSt23_Sp_counted_ptr_inplaceIN5telux6config27QmiGetConfigFeatureCallbackESaIS2_ELN9__gnu_cxx12_Lock_policyE2EED2Ev=so_stub_for_libtelux_config
-Wl,--defsym=_ZNSt23_Sp_counted_ptr_inplaceIN5telux6config27QmiSetConfigFeatureCallbackESaIS2_ELN9__gnu_cxx12_Lock_policyE2EE10_M_destroyEv=so_stub_for_libtelux_config
-Wl,--defsym=_ZNSt23_Sp_counted_ptr_inplaceIN5telux6config27QmiSetConfigFeatureCallbackESaIS2_ELN9__gnu_cxx12_Lock_policyE2EE10_M_disposeEv=so_stub_for_libtelux_config
-Wl,--defsym=_ZNSt23_Sp_counted_ptr_inplaceIN5telux6config27QmiSetConfigFeatureCallbackESaIS2_ELN9__gnu_cxx12_Lock_policyE2EE14_M_get_deleterERKSt9type_info=so_stub_for_libtelux_config
-Wl,--defsym=_ZNSt23_Sp_counted_ptr_inplaceIN5telux6config27QmiSetConfigFeatureCallbackESaIS2_ELN9__gnu_cxx12_Lock_policyE2EED0Ev=so_stub_for_libtelux_config
-Wl,--defsym=_ZNSt23_Sp_counted_ptr_inplaceIN5telux6config27QmiSetConfigFeatureCallbackESaIS2_ELN9__gnu_cxx12_Lock_policyE2EED1Ev=so_stub_for_libtelux_config
-Wl,--defsym=_ZNSt23_Sp_counted_ptr_inplaceIN5telux6config27QmiSetConfigFeatureCallbackESaIS2_ELN9__gnu_cxx12_Lock_policyE2EED2Ev=so_stub_for_libtelux_config
-Wl,--defsym=_ZNSt23_Sp_counted_ptr_inplaceIN5telux6config28QmiRequestConfigInfoCallbackESaIS2_ELN9__gnu_cxx12_Lock_policyE2EE10_M_destroyEv=so_stub_for_libtelux_config
-Wl,--defsym=_ZNSt23_Sp_counted_ptr_inplaceIN5telux6config28QmiRequestConfigInfoCallbackESaIS2_ELN9__gnu_cxx12_Lock_policyE2EE10_M_disposeEv=so_stub_for_libtelux_config
-Wl,--defsym=_ZNSt23_Sp_counted_ptr_inplaceIN5telux6config28QmiRequestConfigInfoCallbackESaIS2_ELN9__gnu_cxx12_Lock_policyE2EE14_M_get_deleterERKSt9type_info=so_stub_for_libtelux_config
-Wl,--defsym=_ZNSt23_Sp_counted_ptr_inplaceIN5telux6config28QmiRequestConfigInfoCallbackESaIS2_ELN9__gnu_cxx12_Lock_policyE2EED0Ev=so_stub_for_libtelux_config
-Wl,--defsym=_ZNSt23_Sp_counted_ptr_inplaceIN5telux6config28QmiRequestConfigInfoCallbackESaIS2_ELN9__gnu_cxx12_Lock_policyE2EED1Ev=so_stub_for_libtelux_config
-Wl,--defsym=_ZNSt23_Sp_counted_ptr_inplaceIN5telux6config28QmiRequestConfigInfoCallbackESaIS2_ELN9__gnu_cxx12_Lock_policyE2EED2Ev=so_stub_for_libtelux_config
-Wl,--defsym=_ZNSt23_Sp_counted_ptr_inplaceIN5telux6config28QmiRequestConfigListCallbackESaIS2_ELN9__gnu_cxx12_Lock_policyE2EE10_M_destroyEv=so_stub_for_libtelux_config
-Wl,--defsym=_ZNSt23_Sp_counted_ptr_inplaceIN5telux6config28QmiRequestConfigListCallbackESaIS2_ELN9__gnu_cxx12_Lock_policyE2EE10_M_disposeEv=so_stub_for_libtelux_config
-Wl,--defsym=_ZNSt23_Sp_counted_ptr_inplaceIN5telux6config28QmiRequestConfigListCallbackESaIS2_ELN9__gnu_cxx12_Lock_policyE2EE14_M_get_deleterERKSt9type_info=so_stub_for_libtelux_config
-Wl,--defsym=_ZNSt23_Sp_counted_ptr_inplaceIN5telux6config28QmiRequestConfigListCallbackESaIS2_ELN9__gnu_cxx12_Lock_policyE2EED0Ev=so_stub_for_libtelux_config
-Wl,--defsym=_ZNSt23_Sp_counted_ptr_inplaceIN5telux6config28QmiRequestConfigListCallbackESaIS2_ELN9__gnu_cxx12_Lock_policyE2EED1Ev=so_stub_for_libtelux_config
-Wl,--defsym=_ZNSt23_Sp_counted_ptr_inplaceIN5telux6config28QmiRequestConfigListCallbackESaIS2_ELN9__gnu_cxx12_Lock_policyE2EED2Ev=so_stub_for_libtelux_config
-Wl,--defsym=_ZNSt23_Sp_counted_ptr_inplaceIN5telux6config35QmiRequestDefaultConfigInfoCallbackESaIS2_ELN9__gnu_cxx12_Lock_policyE2EE10_M_destroyEv=so_stub_for_libtelux_config
-Wl,--defsym=_ZNSt23_Sp_counted_ptr_inplaceIN5telux6config35QmiRequestDefaultConfigInfoCallbackESaIS2_ELN9__gnu_cxx12_Lock_policyE2EE10_M_disposeEv=so_stub_for_libtelux_config
-Wl,--defsym=_ZNSt23_Sp_counted_ptr_inplaceIN5telux6config35QmiRequestDefaultConfigInfoCallbackESaIS2_ELN9__gnu_cxx12_Lock_policyE2EE14_M_get_deleterERKSt9type_info=so_stub_for_libtelux_config
-Wl,--defsym=_ZNSt23_Sp_counted_ptr_inplaceIN5telux6config35QmiRequestDefaultConfigInfoCallbackESaIS2_ELN9__gnu_cxx12_Lock_policyE2EED0Ev=so_stub_for_libtelux_config
-Wl,--defsym=_ZNSt23_Sp_counted_ptr_inplaceIN5telux6config35QmiRequestDefaultConfigInfoCallbackESaIS2_ELN9__gnu_cxx12_Lock_policyE2EED1Ev=so_stub_for_libtelux_config
-Wl,--defsym=_ZNSt23_Sp_counted_ptr_inplaceIN5telux6config35QmiRequestDefaultConfigInfoCallbackESaIS2_ELN9__gnu_cxx12_Lock_policyE2EED2Ev=so_stub_for_libtelux_config
-Wl,--defsym=_ZNSt23_Sp_counted_ptr_inplaceINSt13__future_base13_State_baseV2ESaIS1_ELN9__gnu_cxx12_Lock_policyE2EE10_M_destroyEv=so_stub_for_libtelux_config
-Wl,--defsym=_ZNSt23_Sp_counted_ptr_inplaceINSt13__future_base13_State_baseV2ESaIS1_ELN9__gnu_cxx12_Lock_policyE2EE10_M_disposeEv=so_stub_for_libtelux_config
-Wl,--defsym=_ZNSt23_Sp_counted_ptr_inplaceINSt13__future_base13_State_baseV2ESaIS1_ELN9__gnu_cxx12_Lock_policyE2EE14_M_get_deleterERKSt9type_info=so_stub_for_libtelux_config
-Wl,--defsym=_ZNSt23_Sp_counted_ptr_inplaceINSt13__future_base13_State_baseV2ESaIS1_ELN9__gnu_cxx12_Lock_policyE2EED0Ev=so_stub_for_libtelux_config
-Wl,--defsym=_ZNSt23_Sp_counted_ptr_inplaceINSt13__future_base13_State_baseV2ESaIS1_ELN9__gnu_cxx12_Lock_policyE2EED1Ev=so_stub_for_libtelux_config
-Wl,--defsym=_ZNSt23_Sp_counted_ptr_inplaceINSt13__future_base13_State_baseV2ESaIS1_ELN9__gnu_cxx12_Lock_policyE2EED2Ev=so_stub_for_libtelux_config
-Wl,--defsym=_ZNSt23_Sp_counted_ptr_inplaceISt6threadSaIS0_ELN9__gnu_cxx12_Lock_policyE2EE10_M_destroyEv=so_stub_for_libtelux_config
-Wl,--defsym=_ZNSt23_Sp_counted_ptr_inplaceISt6threadSaIS0_ELN9__gnu_cxx12_Lock_policyE2EE10_M_disposeEv=so_stub_for_libtelux_config
-Wl,--defsym=_ZNSt23_Sp_counted_ptr_inplaceISt6threadSaIS0_ELN9__gnu_cxx12_Lock_policyE2EE14_M_get_deleterERKSt9type_info=so_stub_for_libtelux_config
-Wl,--defsym=_ZNSt23_Sp_counted_ptr_inplaceISt6threadSaIS0_ELN9__gnu_cxx12_Lock_policyE2EED0Ev=so_stub_for_libtelux_config
-Wl,--defsym=_ZNSt23_Sp_counted_ptr_inplaceISt6threadSaIS0_ELN9__gnu_cxx12_Lock_policyE2EED1Ev=so_stub_for_libtelux_config
-Wl,--defsym=_ZNSt23_Sp_counted_ptr_inplaceISt6threadSaIS0_ELN9__gnu_cxx12_Lock_policyE2EED2Ev=so_stub_for_libtelux_config
-Wl,--defsym=_ZNSt3mapINSt7__cxx1112basic_stringIcSt11char_traitsIcESaIcEEES5_St4lessIS5_ESaISt4pairIKS5_S5_EEEixERS9_=so_stub_for_libtelux_config
-Wl,--defsym=_ZNSt5dequeISt13shared_futureIvESaIS1_EE13_M_insert_auxISt15_Deque_iteratorIS1_RKS1_PS6_EEEvS5_IS1_RS1_PS1_ET_SD_m=so_stub_for_libtelux_config
-Wl,--defsym=_ZNSt5dequeISt13shared_futureIvESaIS1_EE15_M_erase_at_endESt15_Deque_iteratorIS1_RS1_PS1_E=so_stub_for_libtelux_config
-Wl,--defsym=_ZNSt5dequeISt13shared_futureIvESaIS1_EE16_M_pop_front_auxEv=so_stub_for_libtelux_config
-Wl,--defsym=_ZNSt5dequeISt13shared_futureIvESaIS1_EE16_M_push_back_auxIJRKS1_EEEvDpOT_=so_stub_for_libtelux_config
-Wl,--defsym=_ZNSt5dequeISt13shared_futureIvESaIS1_EE17_M_reallocate_mapEmb=so_stub_for_libtelux_config
-Wl,--defsym=_ZNSt5dequeISt13shared_futureIvESaIS1_EE19_M_destroy_data_auxESt15_Deque_iteratorIS1_RS1_PS1_ES7_=so_stub_for_libtelux_config
-Wl,--defsym=_ZNSt5dequeISt13shared_futureIvESaIS1_EE19_M_range_insert_auxISt15_Deque_iteratorIS1_RKS1_PS6_EEEvS5_IS1_RS1_PS1_ET_SD_St20forward_iterator_tag=so_stub_for_libtelux_config
-Wl,--defsym=_ZNSt5dequeISt13shared_futureIvESaIS1_EE23_M_new_elements_at_backEm=so_stub_for_libtelux_config
-Wl,--defsym=_ZNSt5dequeISt13shared_futureIvESaIS1_EE24_M_new_elements_at_frontEm=so_stub_for_libtelux_config
-Wl,--defsym=_ZNSt5dequeISt13shared_futureIvESaIS1_EE8_M_eraseESt15_Deque_iteratorIS1_RS1_PS1_E=so_stub_for_libtelux_config
-Wl,--defsym=_ZNSt5dequeISt13shared_futureIvESaIS1_EE9push_backERKS1_=so_stub_for_libtelux_config
-Wl,--defsym=_ZNSt5dequeISt13shared_futureIvESaIS1_EEaSERKS3_=so_stub_for_libtelux_config
-Wl,--defsym=_ZNSt5dequeISt13shared_futureIvESaIS1_EED1Ev=so_stub_for_libtelux_config
-Wl,--defsym=_ZNSt5dequeISt13shared_futureIvESaIS1_EED2Ev=so_stub_for_libtelux_config
-Wl,--defsym=_ZNSt6futureIiE3getEv=so_stub_for_libtelux_config
-Wl,--defsym=_ZNSt6thread11_State_implINS_8_InvokerISt5tupleIJMN5telux6common14AsyncTaskQueueIvEEFvvEPS6_EEEEE6_M_runEv=so_stub_for_libtelux_config
-Wl,--defsym=_ZNSt6thread11_State_implINS_8_InvokerISt5tupleIJMN5telux6common14AsyncTaskQueueIvEEFvvEPS6_EEEEED0Ev=so_stub_for_libtelux_config
-Wl,--defsym=_ZNSt6thread11_State_implINS_8_InvokerISt5tupleIJMN5telux6common14AsyncTaskQueueIvEEFvvEPS6_EEEEED1Ev=so_stub_for_libtelux_config
-Wl,--defsym=_ZNSt6thread11_State_implINS_8_InvokerISt5tupleIJMN5telux6common14AsyncTaskQueueIvEEFvvEPS6_EEEEED2Ev=so_stub_for_libtelux_config
-Wl,--defsym=_ZNSt6thread11_State_implINS_8_InvokerISt5tupleIJZN5telux6common13FactoryHelper10getManagerINS3_6config14IConfigManagerEEESt10shared_ptrIT_ENSt7__cxx1112basic_stringIcSt11char_traitsIcESaIcEEERSt8weak_ptrISA_ERSt6vectorISt8functionIFvNS4_13ServiceStatusEEESaISP_EESP_SM_IFSB_SP_S9_INS4_14AsyncTaskQueueIvEEEEESV_EUlvE_EEEEE6_M_runEv=so_stub_for_libtelux_config
-Wl,--defsym=_ZNSt6thread11_State_implINS_8_InvokerISt5tupleIJZN5telux6common13FactoryHelper10getManagerINS3_6config14IConfigManagerEEESt10shared_ptrIT_ENSt7__cxx1112basic_stringIcSt11char_traitsIcESaIcEEERSt8weak_ptrISA_ERSt6vectorISt8functionIFvNS4_13ServiceStatusEEESaISP_EESP_SM_IFSB_SP_S9_INS4_14AsyncTaskQueueIvEEEEESV_EUlvE_EEEEED0Ev=so_stub_for_libtelux_config
-Wl,--defsym=_ZNSt6thread11_State_implINS_8_InvokerISt5tupleIJZN5telux6common13FactoryHelper10getManagerINS3_6config14IConfigManagerEEESt10shared_ptrIT_ENSt7__cxx1112basic_stringIcSt11char_traitsIcESaIcEEERSt8weak_ptrISA_ERSt6vectorISt8functionIFvNS4_13ServiceStatusEEESaISP_EESP_SM_IFSB_SP_S9_INS4_14AsyncTaskQueueIvEEEEESV_EUlvE_EEEEED1Ev=so_stub_for_libtelux_config
-Wl,--defsym=_ZNSt6thread11_State_implINS_8_InvokerISt5tupleIJZN5telux6common13FactoryHelper10getManagerINS3_6config14IConfigManagerEEESt10shared_ptrIT_ENSt7__cxx1112basic_stringIcSt11char_traitsIcESaIcEEERSt8weak_ptrISA_ERSt6vectorISt8functionIFvNS4_13ServiceStatusEEESaISP_EESP_SM_IFSB_SP_S9_INS4_14AsyncTaskQueueIvEEEEESV_EUlvE_EEEEED2Ev=so_stub_for_libtelux_config
-Wl,--defsym=_ZNSt6thread11_State_implINS_8_InvokerISt5tupleIJZN5telux6common13FactoryHelper10getManagerINS3_6config19IModemConfigManagerEEESt10shared_ptrIT_ENSt7__cxx1112basic_stringIcSt11char_traitsIcESaIcEEERSt8weak_ptrISA_ERSt6vectorISt8functionIFvNS4_13ServiceStatusEEESaISP_EESP_SM_IFSB_SP_EEEUlvE_EEEEE6_M_runEv=so_stub_for_libtelux_config
-Wl,--defsym=_ZNSt6thread11_State_implINS_8_InvokerISt5tupleIJZN5telux6common13FactoryHelper10getManagerINS3_6config19IModemConfigManagerEEESt10shared_ptrIT_ENSt7__cxx1112basic_stringIcSt11char_traitsIcESaIcEEERSt8weak_ptrISA_ERSt6vectorISt8functionIFvNS4_13ServiceStatusEEESaISP_EESP_SM_IFSB_SP_EEEUlvE_EEEEED0Ev=so_stub_for_libtelux_config
-Wl,--defsym=_ZNSt6thread11_State_implINS_8_InvokerISt5tupleIJZN5telux6common13FactoryHelper10getManagerINS3_6config19IModemConfigManagerEEESt10shared_ptrIT_ENSt7__cxx1112basic_stringIcSt11char_traitsIcESaIcEEERSt8weak_ptrISA_ERSt6vectorISt8functionIFvNS4_13ServiceStatusEEESaISP_EESP_SM_IFSB_SP_EEEUlvE_EEEEED1Ev=so_stub_for_libtelux_config
-Wl,--defsym=_ZNSt6thread11_State_implINS_8_InvokerISt5tupleIJZN5telux6common13FactoryHelper10getManagerINS3_6config19IModemConfigManagerEEESt10shared_ptrIT_ENSt7__cxx1112basic_stringIcSt11char_traitsIcESaIcEEERSt8weak_ptrISA_ERSt6vectorISt8functionIFvNS4_13ServiceStatusEEESaISP_EESP_SM_IFSB_SP_EEEUlvE_EEEEED2Ev=so_stub_for_libtelux_config
-Wl,--defsym=_ZNSt6threadC1IMN5telux6common14AsyncTaskQueueIvEEFvvEJPS4_EvEEOT_DpOT0_=so_stub_for_libtelux_config
-Wl,--defsym=_ZNSt6threadC1IZN5telux6common13FactoryHelper10getManagerINS1_6config14IConfigManagerEEESt10shared_ptrIT_ENSt7__cxx1112basic_stringIcSt11char_traitsIcESaIcEEERSt8weak_ptrIS8_ERSt6vectorISt8functionIFvNS2_13ServiceStatusEEESaISN_EESN_SK_IFS9_SN_S7_INS2_14AsyncTaskQueueIvEEEEEST_EUlvE_JEvEEOS8_DpOT0_=so_stub_for_libtelux_config
-Wl,--defsym=_ZNSt6threadC1IZN5telux6common13FactoryHelper10getManagerINS1_6config19IModemConfigManagerEEESt10shared_ptrIT_ENSt7__cxx1112basic_stringIcSt11char_traitsIcESaIcEEERSt8weak_ptrIS8_ERSt6vectorISt8functionIFvNS2_13ServiceStatusEEESaISN_EESN_SK_IFS9_SN_EEEUlvE_JEvEEOS8_DpOT0_=so_stub_for_libtelux_config
-Wl,--defsym=_ZNSt6threadC2IMN5telux6common14AsyncTaskQueueIvEEFvvEJPS4_EvEEOT_DpOT0_=so_stub_for_libtelux_config
-Wl,--defsym=_ZNSt6threadC2IZN5telux6common13FactoryHelper10getManagerINS1_6config14IConfigManagerEEESt10shared_ptrIT_ENSt7__cxx1112basic_stringIcSt11char_traitsIcESaIcEEERSt8weak_ptrIS8_ERSt6vectorISt8functionIFvNS2_13ServiceStatusEEESaISN_EESN_SK_IFS9_SN_S7_INS2_14AsyncTaskQueueIvEEEEEST_EUlvE_JEvEEOS8_DpOT0_=so_stub_for_libtelux_config
-Wl,--defsym=_ZNSt6threadC2IZN5telux6common13FactoryHelper10getManagerINS1_6config19IModemConfigManagerEEESt10shared_ptrIT_ENSt7__cxx1112basic_stringIcSt11char_traitsIcESaIcEEERSt8weak_ptrIS8_ERSt6vectorISt8functionIFvNS2_13ServiceStatusEEESaISN_EESN_SK_IFS9_SN_EEEUlvE_JEvEEOS8_DpOT0_=so_stub_for_libtelux_config
-Wl,--defsym=_ZNSt6vectorIN5telux6config10ConfigInfoESaIS2_EE12emplace_backIJRS2_EEEvDpOT_=so_stub_for_libtelux_config
-Wl,--defsym=_ZNSt6vectorIN5telux6config10ConfigInfoESaIS2_EE13_M_assign_auxIPKS2_EEvT_S8_St20forward_iterator_tag=so_stub_for_libtelux_config
-Wl,--defsym=_ZNSt6vectorIN5telux6config10ConfigInfoESaIS2_EE17_M_realloc_insertIJRS2_EEEvN9__gnu_cxx17__normal_iteratorIPS2_S4_EEDpOT_=so_stub_for_libtelux_config
-Wl,--defsym=_ZNSt6vectorIN5telux6config10ConfigInfoESaIS2_EE20_M_allocate_and_copyIPKS2_EEPS2_mT_S9_=so_stub_for_libtelux_config
-Wl,--defsym=_ZNSt6vectorIN5telux6config10ConfigInfoESaIS2_EED1Ev=so_stub_for_libtelux_config
-Wl,--defsym=_ZNSt6vectorIN5telux6config10ConfigInfoESaIS2_EED2Ev=so_stub_for_libtelux_config
-Wl,--defsym=_ZNSt6vectorINSt7__cxx1112basic_stringIcSt11char_traitsIcESaIcEEESaIS5_EE17_M_realloc_insertIJRKS5_EEEvN9__gnu_cxx17__normal_iteratorIPS5_S7_EEDpOT_=so_stub_for_libtelux_config
-Wl,--defsym=_ZNSt6vectorINSt7__cxx1112basic_stringIcSt11char_traitsIcESaIcEEESaIS5_EED1Ev=so_stub_for_libtelux_config
-Wl,--defsym=_ZNSt6vectorINSt7__cxx1112basic_stringIcSt11char_traitsIcESaIcEEESaIS5_EED2Ev=so_stub_for_libtelux_config
-Wl,--defsym=_ZNSt6vectorISt8functionIFvN5telux6common13ServiceStatusEEESaIS5_EE15_M_erase_at_endEPS5_=so_stub_for_libtelux_config
-Wl,--defsym=_ZNSt6vectorISt8functionIFvN5telux6common13ServiceStatusEEESaIS5_EE17_M_realloc_insertIJRKS5_EEEvN9__gnu_cxx17__normal_iteratorIPS5_S7_EEDpOT_=so_stub_for_libtelux_config
-Wl,--defsym=_ZNSt6vectorISt8functionIFvN5telux6common13ServiceStatusEEESaIS5_EE20_M_allocate_and_copyIN9__gnu_cxx17__normal_iteratorIPKS5_S7_EEEEPS5_mT_SF_=so_stub_for_libtelux_config
-Wl,--defsym=_ZNSt6vectorISt8functionIFvN5telux6common13ServiceStatusEEESaIS5_EE9push_backERKS5_=so_stub_for_libtelux_config
-Wl,--defsym=_ZNSt6vectorISt8functionIFvN5telux6common13ServiceStatusEEESaIS5_EEaSERKS7_=so_stub_for_libtelux_config
-Wl,--defsym=_ZNSt6vectorISt8functionIFvN5telux6common13ServiceStatusEEESaIS5_EED1Ev=so_stub_for_libtelux_config
-Wl,--defsym=_ZNSt6vectorISt8functionIFvN5telux6common13ServiceStatusEEESaIS5_EED2Ev=so_stub_for_libtelux_config
-Wl,--defsym=_ZNSt6vectorISt8weak_ptrIN5telux6common12ISDKListenerEESaIS4_EE12emplace_backIJRS4_EEEvDpOT_=so_stub_for_libtelux_config
-Wl,--defsym=_ZNSt6vectorISt8weak_ptrIN5telux6common12ISDKListenerEESaIS4_EE12emplace_backIJRSt10shared_ptrIS3_EEEEvDpOT_=so_stub_for_libtelux_config
-Wl,--defsym=_ZNSt6vectorISt8weak_ptrIN5telux6common12ISDKListenerEESaIS4_EE17_M_realloc_insertIJRS4_EEEvN9__gnu_cxx17__normal_iteratorIPS4_S6_EEDpOT_=so_stub_for_libtelux_config
-Wl,--defsym=_ZNSt6vectorISt8weak_ptrIN5telux6common12ISDKListenerEESaIS4_EE17_M_realloc_insertIJRSt10shared_ptrIS3_EEEEvN9__gnu_cxx17__normal_iteratorIPS4_S6_EEDpOT_=so_stub_for_libtelux_config
-Wl,--defsym=_ZNSt6vectorISt8weak_ptrIN5telux6common12ISDKListenerEESaIS4_EE8_M_eraseEN9__gnu_cxx17__normal_iteratorIPS4_S6_EE=so_stub_for_libtelux_config
-Wl,--defsym=_ZNSt6vectorISt8weak_ptrIN5telux6common12ISDKListenerEESaIS4_EED1Ev=so_stub_for_libtelux_config
-Wl,--defsym=_ZNSt6vectorISt8weak_ptrIN5telux6common12ISDKListenerEESaIS4_EED2Ev=so_stub_for_libtelux_config
-Wl,--defsym=_ZNSt7__cxx1112basic_stringIcSt11char_traitsIcESaIcEE12_M_constructIPcEEvT_S7_St20forward_iterator_tag=so_stub_for_libtelux_config
-Wl,--defsym=_ZNSt7__cxx1112basic_stringIcSt11char_traitsIcESaIcEE12_M_constructIPKcEEvT_S8_St20forward_iterator_tag=so_stub_for_libtelux_config
-Wl,--defsym=_ZNSt7__cxx1115basic_stringbufIcSt11char_traitsIcESaIcEED0Ev=so_stub_for_libtelux_config
-Wl,--defsym=_ZNSt7__cxx1115basic_stringbufIcSt11char_traitsIcESaIcEED1Ev=so_stub_for_libtelux_config
-Wl,--defsym=_ZNSt7__cxx1115basic_stringbufIcSt11char_traitsIcESaIcEED2Ev=so_stub_for_libtelux_config
-Wl,--defsym=_ZNSt7promiseIiE9set_valueEOi=so_stub_for_libtelux_config
-Wl,--defsym=_ZNSt7promiseIiE9set_valueERKi=so_stub_for_libtelux_config
-Wl,--defsym=_ZNSt7promiseIiEC1Ev=so_stub_for_libtelux_config
-Wl,--defsym=_ZNSt7promiseIiEC2Ev=so_stub_for_libtelux_config
-Wl,--defsym=_ZNSt7promiseIiED1Ev=so_stub_for_libtelux_config
-Wl,--defsym=_ZNSt7promiseIiED2Ev=so_stub_for_libtelux_config
-Wl,--defsym=_ZNSt8__detail9_Map_baseIiSt4pairIKiSt10shared_ptrIN5telux6common16ICommandCallbackEEESaIS8_ENS_10_Select1stESt8equal_toIiESt4hashIiENS_18_Mod_range_hashingENS_20_Default_ranged_hashENS_20_Prime_rehash_policyENS_17_Hashtable_traitsILb0ELb0ELb1EEELb1EEixERS2_=so_stub_for_libtelux_config
-Wl,--defsym=_ZNSt8functionIFvN5telux6common13ServiceStatusEEEaSERKS4_=so_stub_for_libtelux_config
-Wl,--defsym=_ZNSt8functionIFvN5telux6common13ServiceStatusEEEC1IRZNS1_13FactoryHelper10getManagerINS0_6config14IConfigManagerEEESt10shared_ptrIT_ENSt7__cxx1112basic_stringIcSt11char_traitsIcESaIcEEERSt8weak_ptrISB_ERSt6vectorIS4_SaIS4_EES4_S_IFSC_S4_SA_INS1_14AsyncTaskQueueIvEEEEESS_EUlS2_E0_vEEOSB_=so_stub_for_libtelux_config
-Wl,--defsym=_ZNSt8functionIFvN5telux6common13ServiceStatusEEEC1IRZNS1_13FactoryHelper10getManagerINS0_6config19IModemConfigManagerEEESt10shared_ptrIT_ENSt7__cxx1112basic_stringIcSt11char_traitsIcESaIcEEERSt8weak_ptrISB_ERSt6vectorIS4_SaIS4_EES4_S_IFSC_S4_EEEUlS2_E0_vEEOSB_=so_stub_for_libtelux_config
-Wl,--defsym=_ZNSt8functionIFvN5telux6common13ServiceStatusEEEC2IRZNS1_13FactoryHelper10getManagerINS0_6config14IConfigManagerEEESt10shared_ptrIT_ENSt7__cxx1112basic_stringIcSt11char_traitsIcESaIcEEERSt8weak_ptrISB_ERSt6vectorIS4_SaIS4_EES4_S_IFSC_S4_SA_INS1_14AsyncTaskQueueIvEEEEESS_EUlS2_E0_vEEOSB_=so_stub_for_libtelux_config
-Wl,--defsym=_ZNSt8functionIFvN5telux6common13ServiceStatusEEEC2IRZNS1_13FactoryHelper10getManagerINS0_6config19IModemConfigManagerEEESt10shared_ptrIT_ENSt7__cxx1112basic_stringIcSt11char_traitsIcESaIcEEERSt8weak_ptrISB_ERSt6vectorIS4_SaIS4_EES4_S_IFSC_S4_EEEUlS2_E0_vEEOSB_=so_stub_for_libtelux_config
-Wl,--defsym=_ZNSt8_Rb_treeIjSt4pairIKjSt3setISt8weak_ptrIN5telux6common12ISDKListenerEENS5_15ListenerManager12SetPredicateESaIS7_EEESt10_Select1stISC_ESt4lessIjESaISC_EE8_M_eraseEPSt13_Rb_tree_nodeISC_E=so_stub_for_libtelux_config
-Wl,--defsym=_ZNSt8_Rb_treeINSt7__cxx1112basic_stringIcSt11char_traitsIcESaIcEEESt4pairIKS5_S5_ESt10_Select1stIS8_ESt4lessIS5_ESaIS8_EE14_M_insert_nodeEPSt18_Rb_tree_node_baseSG_PSt13_Rb_tree_nodeIS8_E=so_stub_for_libtelux_config
-Wl,--defsym=_ZNSt8_Rb_treeINSt7__cxx1112basic_stringIcSt11char_traitsIcESaIcEEESt4pairIKS5_S5_ESt10_Select1stIS8_ESt4lessIS5_ESaIS8_EE14_M_lower_boundEPSt13_Rb_tree_nodeIS8_EPSt18_Rb_tree_node_baseRS7_=so_stub_for_libtelux_config
-Wl,--defsym=_ZNSt8_Rb_treeINSt7__cxx1112basic_stringIcSt11char_traitsIcESaIcEEESt4pairIKS5_S5_ESt10_Select1stIS8_ESt4lessIS5_ESaIS8_EE17_M_construct_nodeIJRKS8_EEEvPSt13_Rb_tree_nodeIS8_EDpOT_=so_stub_for_libtelux_config
-Wl,--defsym=_ZNSt8_Rb_treeINSt7__cxx1112basic_stringIcSt11char_traitsIcESaIcEEESt4pairIKS5_S5_ESt10_Select1stIS8_ESt4lessIS5_ESaIS8_EE22_M_emplace_hint_uniqueIJRKSt21piecewise_construct_tSt5tupleIJRS7_EESJ_IJEEEEESt17_Rb_tree_iteratorIS8_ESt23_Rb_tree_const_iteratorIS8_EDpOT_=so_stub_for_libtelux_config
-Wl,--defsym=_ZNSt8_Rb_treeINSt7__cxx1112basic_stringIcSt11char_traitsIcESaIcEEESt4pairIKS5_S5_ESt10_Select1stIS8_ESt4lessIS5_ESaIS8_EE24_M_get_insert_unique_posERS7_=so_stub_for_libtelux_config
-Wl,--defsym=_ZNSt8_Rb_treeINSt7__cxx1112basic_stringIcSt11char_traitsIcESaIcEEESt4pairIKS5_S5_ESt10_Select1stIS8_ESt4lessIS5_ESaIS8_EE29_M_get_insert_hint_unique_posESt23_Rb_tree_const_iteratorIS8_ERS7_=so_stub_for_libtelux_config
-Wl,--defsym=_ZNSt8_Rb_treeINSt7__cxx1112basic_stringIcSt11char_traitsIcESaIcEEESt4pairIKS5_S5_ESt10_Select1stIS8_ESt4lessIS5_ESaIS8_EE4findERS7_=so_stub_for_libtelux_config
-Wl,--defsym=_ZNSt8_Rb_treeINSt7__cxx1112basic_stringIcSt11char_traitsIcESaIcEEESt4pairIKS5_S5_ESt10_Select1stIS8_ESt4lessIS5_ESaIS8_EE7_M_copyILb0ENSE_11_Alloc_nodeEEEPSt13_Rb_tree_nodeIS8_ESJ_PSt18_Rb_tree_node_baseRT0_=so_stub_for_libtelux_config
-Wl,--defsym=_ZNSt8_Rb_treeINSt7__cxx1112basic_stringIcSt11char_traitsIcESaIcEEESt4pairIKS5_S5_ESt10_Select1stIS8_ESt4lessIS5_ESaIS8_EE8_M_eraseEPSt13_Rb_tree_nodeIS8_E=so_stub_for_libtelux_config
-Wl,--defsym=_ZNSt8_Rb_treeISt8weak_ptrIN5telux6common12ISDKListenerEES4_St9_IdentityIS4_ENS2_15ListenerManager12SetPredicateESaIS4_EE8_M_eraseEPSt13_Rb_tree_nodeIS4_E=so_stub_for_libtelux_config
-Wl,--defsym=_ZSt13__copy_move_aILb0EN9__gnu_cxx17__normal_iteratorIPKSt8functionIFvN5telux6common13ServiceStatusEEESt6vectorIS7_SaIS7_EEEENS1_IPS7_SC_EEET1_T0_SH_SG_=so_stub_for_libtelux_config
-Wl,--defsym=_ZSt13__copy_move_aILb1EN9__gnu_cxx17__normal_iteratorIPSt8weak_ptrIN5telux6common12ISDKListenerEESt6vectorIS6_SaIS6_EEEESB_ET1_T0_SD_SC_=so_stub_for_libtelux_config
-Wl,--defsym=_ZSt13move_backwardISt15_Deque_iteratorISt13shared_futureIvERS2_PS2_ES5_ET0_T_S7_S6_=so_stub_for_libtelux_config
-Wl,--defsym=_ZSt14__copy_move_a1ILb0EPSt13shared_futureIvES1_EN9__gnu_cxx11__enable_ifIXsrSt23__is_random_access_iterIT0_NSt15iterator_traitsIS6_E17iterator_categoryEE7__valueESt15_Deque_iteratorIT1_RSC_PSC_EE6__typeES6_S6_SF_=so_stub_for_libtelux_config
-Wl,--defsym=_ZSt14__copy_move_a1ILb0ESt13shared_futureIvERKS1_PS2_S1_ESt15_Deque_iteratorIT3_RS6_PS6_ES5_IT0_T1_T2_ESD_S9_=so_stub_for_libtelux_config
-Wl,--defsym=_ZSt14__copy_move_a1ILb1EPSt13shared_futureIvES1_EN9__gnu_cxx11__enable_ifIXsrSt23__is_random_access_iterIT0_NSt15iterator_traitsIS6_E17iterator_categoryEE7__valueESt15_Deque_iteratorIT1_RSC_PSC_EE6__typeES6_S6_SF_=so_stub_for_libtelux_config
-Wl,--defsym=_ZSt14__copy_move_a1ILb1ESt13shared_futureIvERS1_PS1_S1_ESt15_Deque_iteratorIT3_RS5_PS5_ES4_IT0_T1_T2_ESC_S8_=so_stub_for_libtelux_config
-Wl,--defsym=_ZSt14__relocate_a_1IPN5telux6config10ConfigInfoES3_SaIS2_EET0_T_S6_S5_RT1_=so_stub_for_libtelux_config
-Wl,--defsym=_ZSt18make_exception_ptrISt12future_errorENSt15__exception_ptr13exception_ptrET_=so_stub_for_libtelux_config
-Wl,--defsym=_ZSt18uninitialized_copyISt13move_iteratorISt15_Deque_iteratorISt13shared_futureIvERS3_PS3_EES6_ET0_T_S9_S8_=so_stub_for_libtelux_config
-Wl,--defsym=_ZSt20dynamic_pointer_castIN5telux3qmi12IQmiListenerENS0_6config17ConfigManagerImplEESt10shared_ptrIT_ERKS5_IT0_E=so_stub_for_libtelux_config
-Wl,--defsym=_ZSt22__uninitialized_copy_aISt15_Deque_iteratorISt13shared_futureIvERKS2_PS3_ES0_IS2_RS2_PS2_ES2_ET0_T_SB_SA_RSaIT1_E=so_stub_for_libtelux_config
-Wl,--defsym=_ZSt22__uninitialized_move_aISt15_Deque_iteratorISt13shared_futureIvERS2_PS2_ES5_SaIS2_EET0_T_S8_S7_RT1_=so_stub_for_libtelux_config
-Wl,--defsym=_ZSt23__copy_move_backward_a1ILb1EPSt13shared_futureIvES1_EN9__gnu_cxx11__enable_ifIXsrSt23__is_random_access_iterIT0_NSt15iterator_traitsIS6_E17iterator_categoryEE7__valueESt15_Deque_iteratorIT1_RSC_PSC_EE6__typeES6_S6_SF_=so_stub_for_libtelux_config
-Wl,--defsym=_ZSt23__copy_move_backward_a1ILb1ESt13shared_futureIvERS1_PS1_S1_ESt15_Deque_iteratorIT3_RS5_PS5_ES4_IT0_T1_T2_ESC_S8_=so_stub_for_libtelux_config
-Wl,--defsym=_ZSt4copyISt15_Deque_iteratorISt13shared_futureIvERKS2_PS3_ES0_IS2_RS2_PS2_EET0_T_SB_SA_=so_stub_for_libtelux_config
-Wl,--defsym=_ZSt4moveISt15_Deque_iteratorISt13shared_futureIvERS2_PS2_ES5_ET0_T_S7_S6_=so_stub_for_libtelux_config
-Wl,--defsym=_ZSt7find_ifIN9__gnu_cxx17__normal_iteratorIPSt8weak_ptrIN5telux6common12ISDKListenerEESt6vectorIS6_SaIS6_EEEEZNS4_15ListenerManager16registerListenerES6_EUlS6_E_ET_SE_SE_T0_=so_stub_for_libtelux_config
-Wl,--defsym=_ZSt9__advanceISt15_Deque_iteratorISt13shared_futureIvERKS2_PS3_ElEvRT_T0_St26random_access_iterator_tag=so_stub_for_libtelux_config
-Wl,--defsym=_ZSt9__find_ifIN9__gnu_cxx17__normal_iteratorIPSt8weak_ptrIN5telux6common12ISDKListenerEESt6vectorIS6_SaIS6_EEEENS0_5__ops10_Iter_predIZNS4_15ListenerManager16registerListenerES6_EUlS6_E_EEET_SH_SH_T0_St26random_access_iterator_tag=so_stub_for_libtelux_config
-Wl,--defsym=_ZSteqRKSt10error_codeRKSt15error_condition=so_stub_for_libtelux_config
-Wl,--defsym=_ZThn16_N5telux6config22ModemConfigManagerImpl26onRegisterListenerResponseEiPv=so_stub_for_libtelux_config
-Wl,--defsym=_ZThn16_N5telux6config22ModemConfigManagerImplD0Ev=so_stub_for_libtelux_config
-Wl,--defsym=_ZThn16_N5telux6config22ModemConfigManagerImplD1Ev=so_stub_for_libtelux_config
-Wl,--defsym=_ZThn32_N5telux6config21QmiLoadConfigCallback14onLoadConfiIndERK27pdc_load_config_ind_msg_v01=so_stub_for_libtelux_config
-Wl,--defsym=_ZThn32_N5telux6config21QmiLoadConfigCallbackD0Ev=so_stub_for_libtelux_config
-Wl,--defsym=_ZThn32_N5telux6config21QmiLoadConfigCallbackD1Ev=so_stub_for_libtelux_config
-Wl,--defsym=_ZThn32_N5telux6config23QmiDeleteConfigCallback17onDeleteConfigIndERK29pdc_delete_config_ind_msg_v01=so_stub_for_libtelux_config
-Wl,--defsym=_ZThn32_N5telux6config23QmiDeleteConfigCallbackD0Ev=so_stub_for_libtelux_config
-Wl,--defsym=_ZThn32_N5telux6config23QmiDeleteConfigCallbackD1Ev=so_stub_for_libtelux_config
-Wl,--defsym=_ZThn32_N5telux6config25QmiActivateConfigCallback19onActivateConfigIndERK31pdc_activate_config_ind_msg_v01=so_stub_for_libtelux_config
-Wl,--defsym=_ZThn32_N5telux6config25QmiActivateConfigCallbackD0Ev=so_stub_for_libtelux_config
-Wl,--defsym=_ZThn32_N5telux6config25QmiActivateConfigCallbackD1Ev=so_stub_for_libtelux_config
-Wl,--defsym=_ZThn32_N5telux6config26QmiGetActiveConfigCallback20onGetSelectConfigIndERK35pdc_get_selected_config_ind_msg_v01=so_stub_for_libtelux_config
-Wl,--defsym=_ZThn32_N5telux6config26QmiGetActiveConfigCallbackD0Ev=so_stub_for_libtelux_config
-Wl,--defsym=_ZThn32_N5telux6config26QmiGetActiveConfigCallbackD1Ev=so_stub_for_libtelux_config
-Wl,--defsym=_ZThn32_N5telux6config26QmiSetSelectConfigCallback20onSetSelectConfigIndERK35pdc_set_selected_config_ind_msg_v01=so_stub_for_libtelux_config
-Wl,--defsym=_ZThn32_N5telux6config26QmiSetSelectConfigCallbackD0Ev=so_stub_for_libtelux_config
-Wl,--defsym=_ZThn32_N5telux6config26QmiSetSelectConfigCallbackD1Ev=so_stub_for_libtelux_config
-Wl,--defsym=_ZThn32_N5telux6config27QmiDeactivateConfigCallback21onDeactivateConfigIndERK33pdc_deactivate_config_ind_msg_v01=so_stub_for_libtelux_config
-Wl,--defsym=_ZThn32_N5telux6config27QmiDeactivateConfigCallbackD0Ev=so_stub_for_libtelux_config
-Wl,--defsym=_ZThn32_N5telux6config27QmiDeactivateConfigCallbackD1Ev=so_stub_for_libtelux_config
-Wl,--defsym=_ZThn32_N5telux6config27QmiGetConfigFeatureCallback15onGetFeatureIndERK27pdc_get_feature_ind_msg_v01=so_stub_for_libtelux_config
-Wl,--defsym=_ZThn32_N5telux6config27QmiGetConfigFeatureCallbackD0Ev=so_stub_for_libtelux_config
-Wl,--defsym=_ZThn32_N5telux6config27QmiGetConfigFeatureCallbackD1Ev=so_stub_for_libtelux_config
-Wl,--defsym=_ZThn32_N5telux6config27QmiSetConfigFeatureCallback15onSetFeatureIndERK27pdc_set_feature_ind_msg_v01=so_stub_for_libtelux_config
-Wl,--defsym=_ZThn32_N5telux6config27QmiSetConfigFeatureCallbackD0Ev=so_stub_for_libtelux_config
-Wl,--defsym=_ZThn32_N5telux6config27QmiSetConfigFeatureCallbackD1Ev=so_stub_for_libtelux_config
-Wl,--defsym=_ZThn32_N5telux6config28QmiRequestConfigInfoCallback18onGetConfigInfoIndERK31pdc_get_config_info_ind_msg_v01=so_stub_for_libtelux_config
-Wl,--defsym=_ZThn32_N5telux6config28QmiRequestConfigInfoCallbackD0Ev=so_stub_for_libtelux_config
-Wl,--defsym=_ZThn32_N5telux6config28QmiRequestConfigInfoCallbackD1Ev=so_stub_for_libtelux_config
-Wl,--defsym=_ZThn32_N5telux6config28QmiRequestConfigListCallback18onGetConfigListIndERK28pdc_list_configs_ind_msg_v01=so_stub_for_libtelux_config
-Wl,--defsym=_ZThn32_N5telux6config28QmiRequestConfigListCallbackD0Ev=so_stub_for_libtelux_config
-Wl,--defsym=_ZThn32_N5telux6config28QmiRequestConfigListCallbackD1Ev=so_stub_for_libtelux_config
-Wl,--defsym=_ZThn32_N5telux6config35QmiRequestDefaultConfigInfoCallback25onGetDefaultConfigInfoIndERK39pdc_get_default_config_info_ind_msg_v01=so_stub_for_libtelux_config
-Wl,--defsym=_ZThn32_N5telux6config35QmiRequestDefaultConfigInfoCallbackD0Ev=so_stub_for_libtelux_config
-Wl,--defsym=_ZThn32_N5telux6config35QmiRequestDefaultConfigInfoCallbackD1Ev=so_stub_for_libtelux_config
-Wl,--defsym=_ZThn8_N5telux6config17ConfigManagerImpl21onConfigurationUpdateEP25config_update_ind_msg_v01=so_stub_for_libtelux_config
-Wl,--defsym=_ZThn8_N5telux6config17ConfigManagerImpl27onConfigServiceStatusChangeENS_6common13ServiceStatusE=so_stub_for_libtelux_config
-Wl,--defsym=_ZThn8_N5telux6config17ConfigManagerImplD0Ev=so_stub_for_libtelux_config
-Wl,--defsym=_ZThn8_N5telux6config17ConfigManagerImplD1Ev=so_stub_for_libtelux_config
-Wl,--defsym=_ZThn8_N5telux6config22ModemConfigManagerImpl18onConfigRefreshIndERK23pdc_refresh_ind_msg_v01=so_stub_for_libtelux_config
-Wl,--defsym=_ZThn8_N5telux6config22ModemConfigManagerImpl32onModemConfigServiceStatusChangeENS_6common13ServiceStatusE=so_stub_for_libtelux_config
-Wl,--defsym=_ZThn8_N5telux6config22ModemConfigManagerImplD0Ev=so_stub_for_libtelux_config
-Wl,--defsym=_ZThn8_N5telux6config22ModemConfigManagerImplD1Ev=so_stub_for_libtelux_config
-Wl,--defsym=_ZTIN5telux3qmi12IQmiListenerE=so_stub_for_libtelux_config
-Wl,--defsym=_ZTIN5telux3qmi18IQmiConfigListenerE=so_stub_for_libtelux_config
-Wl,--defsym=_ZTIN5telux3qmi20IQmiResponseCallbackE=so_stub_for_libtelux_config
-Wl,--defsym=_ZTIN5telux3qmi23IQmiModemConfigListenerE=so_stub_for_libtelux_config
-Wl,--defsym=_ZTIN5telux3qmi28IQmiRegisterListenerCallbackE=so_stub_for_libtelux_config
-Wl,--defsym=_ZTIN5telux6common12ISDKListenerE=so_stub_for_libtelux_config
-Wl,--defsym=_ZTIN5telux6common13FactoryHelperE=so_stub_for_libtelux_config
-Wl,--defsym=_ZTIN5telux6common16ICommandCallbackE=so_stub_for_libtelux_config
-Wl,--defsym=_ZTIN5telux6common18FunctionalCallbackIJNS0_9ErrorCodeEEEE=so_stub_for_libtelux_config
-Wl,--defsym=_ZTIN5telux6common18FunctionalCallbackIJNS_6config10ConfigInfoENS0_9ErrorCodeEEEE=so_stub_for_libtelux_config
-Wl,--defsym=_ZTIN5telux6common18FunctionalCallbackIJNS_6config17AutoSelectionModeENS0_9ErrorCodeEEEE=so_stub_for_libtelux_config
-Wl,--defsym=_ZTIN5telux6common18FunctionalCallbackIJSt6vectorINS_6config10ConfigInfoESaIS4_EENS0_9ErrorCodeEEEE=so_stub_for_libtelux_config
-Wl,--defsym=_ZTIN5telux6common22IServiceStatusListenerE=so_stub_for_libtelux_config
-Wl,--defsym=_ZTIN5telux6config13ConfigFactoryE=so_stub_for_libtelux_config
-Wl,--defsym=_ZTIN5telux6config14IConfigManagerE=so_stub_for_libtelux_config
-Wl,--defsym=_ZTIN5telux6config15IConfigListenerE=so_stub_for_libtelux_config
-Wl,--defsym=_ZTIN5telux6config17ConfigFactoryImplE=so_stub_for_libtelux_config
-Wl,--defsym=_ZTIN5telux6config17ConfigManagerImplE=so_stub_for_libtelux_config
-Wl,--defsym=_ZTIN5telux6config19IModemConfigManagerE=so_stub_for_libtelux_config
-Wl,--defsym=_ZTIN5telux6config20ConfigManagerWrapperE=so_stub_for_libtelux_config
-Wl,--defsym=_ZTIN5telux6config20IModemConfigListenerE=so_stub_for_libtelux_config
-Wl,--defsym=_ZTIN5telux6config21QmiLoadConfigCallbackE=so_stub_for_libtelux_config
-Wl,--defsym=_ZTIN5telux6config22ModemConfigManagerImplE=so_stub_for_libtelux_config
-Wl,--defsym=_ZTIN5telux6config23QmiDeleteConfigCallbackE=so_stub_for_libtelux_config
-Wl,--defsym=_ZTIN5telux6config25ModemConfigManagerWrapperE=so_stub_for_libtelux_config
-Wl,--defsym=_ZTIN5telux6config25QmiActivateConfigCallbackE=so_stub_for_libtelux_config
-Wl,--defsym=_ZTIN5telux6config26QmiGetActiveConfigCallbackE=so_stub_for_libtelux_config
-Wl,--defsym=_ZTIN5telux6config26QmiSetSelectConfigCallbackE=so_stub_for_libtelux_config
-Wl,--defsym=_ZTIN5telux6config27QmiDeactivateConfigCallbackE=so_stub_for_libtelux_config
-Wl,--defsym=_ZTIN5telux6config27QmiGetConfigFeatureCallbackE=so_stub_for_libtelux_config
-Wl,--defsym=_ZTIN5telux6config27QmiSetConfigFeatureCallbackE=so_stub_for_libtelux_config
-Wl,--defsym=_ZTIN5telux6config28QmiModemConfigFutureCallbackIiEE=so_stub_for_libtelux_config
-Wl,--defsym=_ZTIN5telux6config28QmiRequestConfigInfoCallbackE=so_stub_for_libtelux_config
-Wl,--defsym=_ZTIN5telux6config28QmiRequestConfigListCallbackE=so_stub_for_libtelux_config
-Wl,--defsym=_ZTIN5telux6config35QmiRequestDefaultConfigInfoCallbackE=so_stub_for_libtelux_config
-Wl,--defsym=_ZTINSt13__future_base13_State_baseV27_SetterIiOiEE=so_stub_for_libtelux_config
-Wl,--defsym=_ZTINSt13__future_base13_State_baseV27_SetterIiRKiEE=so_stub_for_libtelux_config
-Wl,--defsym=_ZTINSt13__future_base13_State_baseV2E=so_stub_for_libtelux_config
-Wl,--defsym=_ZTINSt13__future_base21_Async_state_commonV2E=so_stub_for_libtelux_config
-Wl,--defsym=_ZTINSt13__future_base7_ResultIbEE=so_stub_for_libtelux_config
-Wl,--defsym=_ZTINSt13__future_base7_ResultIiEE=so_stub_for_libtelux_config
-Wl,--defsym=_ZTINSt13__future_base7_ResultIvEE=so_stub_for_libtelux_config
-Wl,--defsym=_ZTINSt6thread11_State_implINS_8_InvokerISt5tupleIJMN5telux6common14AsyncTaskQueueIvEEFvvEPS6_EEEEEE=so_stub_for_libtelux_config
-Wl,--defsym=_ZTINSt6thread11_State_implINS_8_InvokerISt5tupleIJZN5telux6common13FactoryHelper10getManagerINS3_6config14IConfigManagerEEESt10shared_ptrIT_ENSt7__cxx1112basic_stringIcSt11char_traitsIcESaIcEEERSt8weak_ptrISA_ERSt6vectorISt8functionIFvNS4_13ServiceStatusEEESaISP_EESP_SM_IFSB_SP_S9_INS4_14AsyncTaskQueueIvEEEEESV_EUlvE_EEEEEE=so_stub_for_libtelux_config
-Wl,--defsym=_ZTINSt6thread11_State_implINS_8_InvokerISt5tupleIJZN5telux6common13FactoryHelper10getManagerINS3_6config19IModemConfigManagerEEESt10shared_ptrIT_ENSt7__cxx1112basic_stringIcSt11char_traitsIcESaIcEEERSt8weak_ptrISA_ERSt6vectorISt8functionIFvNS4_13ServiceStatusEEESaISP_EESP_SM_IFSB_SP_EEEUlvE_EEEEEE=so_stub_for_libtelux_config
-Wl,--defsym=_ZTISt11_Mutex_baseILN9__gnu_cxx12_Lock_policyE2EE=so_stub_for_libtelux_config
-Wl,--defsym=_ZTISt16_Sp_counted_baseILN9__gnu_cxx12_Lock_policyE2EE=so_stub_for_libtelux_config
-Wl,--defsym=_ZTISt23enable_shared_from_thisIN5telux6config17ConfigManagerImplEE=so_stub_for_libtelux_config
-Wl,--defsym=_ZTISt23enable_shared_from_thisIN5telux6config22ModemConfigManagerImplEE=so_stub_for_libtelux_config
-Wl,--defsym=_ZTISt23_Sp_counted_ptr_inplaceIN5telux6common15ListenerManagerESaIS2_ELN9__gnu_cxx12_Lock_policyE2EE=so_stub_for_libtelux_config
-Wl,--defsym=_ZTISt23_Sp_counted_ptr_inplaceIN5telux6common18FunctionalCallbackIJNS0_6config10ConfigInfoENS1_9ErrorCodeEEEESaIS6_ELN9__gnu_cxx12_Lock_policyE2EE=so_stub_for_libtelux_config
-Wl,--defsym=_ZTISt23_Sp_counted_ptr_inplaceIN5telux6common18FunctionalCallbackIJNS0_6config17AutoSelectionModeENS1_9ErrorCodeEEEESaIS6_ELN9__gnu_cxx12_Lock_policyE2EE=so_stub_for_libtelux_config
-Wl,--defsym=_ZTISt23_Sp_counted_ptr_inplaceIN5telux6common18FunctionalCallbackIJNS1_9ErrorCodeEEEESaIS4_ELN9__gnu_cxx12_Lock_policyE2EE=so_stub_for_libtelux_config
-Wl,--defsym=_ZTISt23_Sp_counted_ptr_inplaceIN5telux6common18FunctionalCallbackIJSt6vectorINS0_6config10ConfigInfoESaIS5_EENS1_9ErrorCodeEEEESaIS9_ELN9__gnu_cxx12_Lock_policyE2EE=so_stub_for_libtelux_config
-Wl,--defsym=_ZTISt23_Sp_counted_ptr_inplaceIN5telux6config17ConfigManagerImplESaIS2_ELN9__gnu_cxx12_Lock_policyE2EE=so_stub_for_libtelux_config
-Wl,--defsym=_ZTISt23_Sp_counted_ptr_inplaceIN5telux6config21QmiLoadConfigCallbackESaIS2_ELN9__gnu_cxx12_Lock_policyE2EE=so_stub_for_libtelux_config
-Wl,--defsym=_ZTISt23_Sp_counted_ptr_inplaceIN5telux6config22ModemConfigManagerImplESaIS2_ELN9__gnu_cxx12_Lock_policyE2EE=so_stub_for_libtelux_config
-Wl,--defsym=_ZTISt23_Sp_counted_ptr_inplaceIN5telux6config23QmiDeleteConfigCallbackESaIS2_ELN9__gnu_cxx12_Lock_policyE2EE=so_stub_for_libtelux_config
-Wl,--defsym=_ZTISt23_Sp_counted_ptr_inplaceIN5telux6config25QmiActivateConfigCallbackESaIS2_ELN9__gnu_cxx12_Lock_policyE2EE=so_stub_for_libtelux_config
-Wl,--defsym=_ZTISt23_Sp_counted_ptr_inplaceIN5telux6config26QmiGetActiveConfigCallbackESaIS2_ELN9__gnu_cxx12_Lock_policyE2EE=so_stub_for_libtelux_config
-Wl,--defsym=_ZTISt23_Sp_counted_ptr_inplaceIN5telux6config26QmiSetSelectConfigCallbackESaIS2_ELN9__gnu_cxx12_Lock_policyE2EE=so_stub_for_libtelux_config
-Wl,--defsym=_ZTISt23_Sp_counted_ptr_inplaceIN5telux6config27QmiDeactivateConfigCallbackESaIS2_ELN9__gnu_cxx12_Lock_policyE2EE=so_stub_for_libtelux_config
-Wl,--defsym=_ZTISt23_Sp_counted_ptr_inplaceIN5telux6config27QmiGetConfigFeatureCallbackESaIS2_ELN9__gnu_cxx12_Lock_policyE2EE=so_stub_for_libtelux_config
-Wl,--defsym=_ZTISt23_Sp_counted_ptr_inplaceIN5telux6config27QmiSetConfigFeatureCallbackESaIS2_ELN9__gnu_cxx12_Lock_policyE2EE=so_stub_for_libtelux_config
-Wl,--defsym=_ZTISt23_Sp_counted_ptr_inplaceIN5telux6config28QmiRequestConfigInfoCallbackESaIS2_ELN9__gnu_cxx12_Lock_policyE2EE=so_stub_for_libtelux_config
-Wl,--defsym=_ZTISt23_Sp_counted_ptr_inplaceIN5telux6config28QmiRequestConfigListCallbackESaIS2_ELN9__gnu_cxx12_Lock_policyE2EE=so_stub_for_libtelux_config
-Wl,--defsym=_ZTISt23_Sp_counted_ptr_inplaceIN5telux6config35QmiRequestDefaultConfigInfoCallbackESaIS2_ELN9__gnu_cxx12_Lock_policyE2EE=so_stub_for_libtelux_config
-Wl,--defsym=_ZTISt23_Sp_counted_ptr_inplaceINSt13__future_base13_State_baseV2ESaIS1_ELN9__gnu_cxx12_Lock_policyE2EE=so_stub_for_libtelux_config
-Wl,--defsym=_ZTISt23_Sp_counted_ptr_inplaceISt6threadSaIS0_ELN9__gnu_cxx12_Lock_policyE2EE=so_stub_for_libtelux_config
-Wl,--defsym=_ZTIZN5telux6common13FactoryHelper10getManagerINS_6config14IConfigManagerEEESt10shared_ptrIT_ENSt7__cxx1112basic_stringIcSt11char_traitsIcESaIcEEERSt8weak_ptrIS6_ERSt6vectorISt8functionIFvNS0_13ServiceStatusEEESaISL_EESL_SI_IFS7_SL_S5_INS0_14AsyncTaskQueueIvEEEEESR_EUlSJ_E0_=so_stub_for_libtelux_config
-Wl,--defsym=_ZTIZN5telux6common13FactoryHelper10getManagerINS_6config19IModemConfigManagerEEESt10shared_ptrIT_ENSt7__cxx1112basic_stringIcSt11char_traitsIcESaIcEEERSt8weak_ptrIS6_ERSt6vectorISt8functionIFvNS0_13ServiceStatusEEESaISL_EESL_SI_IFS7_SL_EEEUlSJ_E0_=so_stub_for_libtelux_config
-Wl,--defsym=_ZTSN5telux3qmi12IQmiListenerE=so_stub_for_libtelux_config
-Wl,--defsym=_ZTSN5telux3qmi18IQmiConfigListenerE=so_stub_for_libtelux_config
-Wl,--defsym=_ZTSN5telux3qmi20IQmiResponseCallbackE=so_stub_for_libtelux_config
-Wl,--defsym=_ZTSN5telux3qmi23IQmiModemConfigListenerE=so_stub_for_libtelux_config
-Wl,--defsym=_ZTSN5telux3qmi28IQmiRegisterListenerCallbackE=so_stub_for_libtelux_config
-Wl,--defsym=_ZTSN5telux6common12ISDKListenerE=so_stub_for_libtelux_config
-Wl,--defsym=_ZTSN5telux6common13FactoryHelperE=so_stub_for_libtelux_config
-Wl,--defsym=_ZTSN5telux6common16ICommandCallbackE=so_stub_for_libtelux_config
-Wl,--defsym=_ZTSN5telux6common18FunctionalCallbackIJNS0_9ErrorCodeEEEE=so_stub_for_libtelux_config
-Wl,--defsym=_ZTSN5telux6common18FunctionalCallbackIJNS_6config10ConfigInfoENS0_9ErrorCodeEEEE=so_stub_for_libtelux_config
-Wl,--defsym=_ZTSN5telux6common18FunctionalCallbackIJNS_6config17AutoSelectionModeENS0_9ErrorCodeEEEE=so_stub_for_libtelux_config
-Wl,--defsym=_ZTSN5telux6common18FunctionalCallbackIJSt6vectorINS_6config10ConfigInfoESaIS4_EENS0_9ErrorCodeEEEE=so_stub_for_libtelux_config
-Wl,--defsym=_ZTSN5telux6common22IServiceStatusListenerE=so_stub_for_libtelux_config
-Wl,--defsym=_ZTSN5telux6config13ConfigFactoryE=so_stub_for_libtelux_config
-Wl,--defsym=_ZTSN5telux6config14IConfigManagerE=so_stub_for_libtelux_config
-Wl,--defsym=_ZTSN5telux6config15IConfigListenerE=so_stub_for_libtelux_config
-Wl,--defsym=_ZTSN5telux6config17ConfigFactoryImplE=so_stub_for_libtelux_config
-Wl,--defsym=_ZTSN5telux6config17ConfigManagerImplE=so_stub_for_libtelux_config
-Wl,--defsym=_ZTSN5telux6config19IModemConfigManagerE=so_stub_for_libtelux_config
-Wl,--defsym=_ZTSN5telux6config20ConfigManagerWrapperE=so_stub_for_libtelux_config
-Wl,--defsym=_ZTSN5telux6config20IModemConfigListenerE=so_stub_for_libtelux_config
-Wl,--defsym=_ZTSN5telux6config21QmiLoadConfigCallbackE=so_stub_for_libtelux_config
-Wl,--defsym=_ZTSN5telux6config22ModemConfigManagerImplE=so_stub_for_libtelux_config
-Wl,--defsym=_ZTSN5telux6config23QmiDeleteConfigCallbackE=so_stub_for_libtelux_config
-Wl,--defsym=_ZTSN5telux6config25ModemConfigManagerWrapperE=so_stub_for_libtelux_config
-Wl,--defsym=_ZTSN5telux6config25QmiActivateConfigCallbackE=so_stub_for_libtelux_config
-Wl,--defsym=_ZTSN5telux6config26QmiGetActiveConfigCallbackE=so_stub_for_libtelux_config
-Wl,--defsym=_ZTSN5telux6config26QmiSetSelectConfigCallbackE=so_stub_for_libtelux_config
-Wl,--defsym=_ZTSN5telux6config27QmiDeactivateConfigCallbackE=so_stub_for_libtelux_config
-Wl,--defsym=_ZTSN5telux6config27QmiGetConfigFeatureCallbackE=so_stub_for_libtelux_config
-Wl,--defsym=_ZTSN5telux6config27QmiSetConfigFeatureCallbackE=so_stub_for_libtelux_config
-Wl,--defsym=_ZTSN5telux6config28QmiModemConfigFutureCallbackIiEE=so_stub_for_libtelux_config
-Wl,--defsym=_ZTSN5telux6config28QmiRequestConfigInfoCallbackE=so_stub_for_libtelux_config
-Wl,--defsym=_ZTSN5telux6config28QmiRequestConfigListCallbackE=so_stub_for_libtelux_config
-Wl,--defsym=_ZTSN5telux6config35QmiRequestDefaultConfigInfoCallbackE=so_stub_for_libtelux_config
-Wl,--defsym=_ZTSNSt13__future_base13_State_baseV27_SetterIiOiEE=so_stub_for_libtelux_config
-Wl,--defsym=_ZTSNSt13__future_base13_State_baseV27_SetterIiRKiEE=so_stub_for_libtelux_config
-Wl,--defsym=_ZTSNSt13__future_base13_State_baseV2E=so_stub_for_libtelux_config
-Wl,--defsym=_ZTSNSt13__future_base21_Async_state_commonV2E=so_stub_for_libtelux_config
-Wl,--defsym=_ZTSNSt13__future_base7_ResultIbEE=so_stub_for_libtelux_config
-Wl,--defsym=_ZTSNSt13__future_base7_ResultIiEE=so_stub_for_libtelux_config
-Wl,--defsym=_ZTSNSt13__future_base7_ResultIvEE=so_stub_for_libtelux_config
-Wl,--defsym=_ZTSNSt6thread11_State_implINS_8_InvokerISt5tupleIJMN5telux6common14AsyncTaskQueueIvEEFvvEPS6_EEEEEE=so_stub_for_libtelux_config
-Wl,--defsym=_ZTSNSt6thread11_State_implINS_8_InvokerISt5tupleIJZN5telux6common13FactoryHelper10getManagerINS3_6config14IConfigManagerEEESt10shared_ptrIT_ENSt7__cxx1112basic_stringIcSt11char_traitsIcESaIcEEERSt8weak_ptrISA_ERSt6vectorISt8functionIFvNS4_13ServiceStatusEEESaISP_EESP_SM_IFSB_SP_S9_INS4_14AsyncTaskQueueIvEEEEESV_EUlvE_EEEEEE=so_stub_for_libtelux_config
-Wl,--defsym=_ZTSNSt6thread11_State_implINS_8_InvokerISt5tupleIJZN5telux6common13FactoryHelper10getManagerINS3_6config19IModemConfigManagerEEESt10shared_ptrIT_ENSt7__cxx1112basic_stringIcSt11char_traitsIcESaIcEEERSt8weak_ptrISA_ERSt6vectorISt8functionIFvNS4_13ServiceStatusEEESaISP_EESP_SM_IFSB_SP_EEEUlvE_EEEEEE=so_stub_for_libtelux_config
-Wl,--defsym=_ZTSSt11_Mutex_baseILN9__gnu_cxx12_Lock_policyE2EE=so_stub_for_libtelux_config
-Wl,--defsym=_ZTSSt16_Sp_counted_baseILN9__gnu_cxx12_Lock_policyE2EE=so_stub_for_libtelux_config
-Wl,--defsym=_ZTSSt19_Sp_make_shared_tag=so_stub_for_libtelux_config
-Wl,--defsym=_ZTSSt23enable_shared_from_thisIN5telux6config17ConfigManagerImplEE=so_stub_for_libtelux_config
-Wl,--defsym=_ZTSSt23enable_shared_from_thisIN5telux6config22ModemConfigManagerImplEE=so_stub_for_libtelux_config
-Wl,--defsym=_ZTSSt23_Sp_counted_ptr_inplaceIN5telux6common15ListenerManagerESaIS2_ELN9__gnu_cxx12_Lock_policyE2EE=so_stub_for_libtelux_config
-Wl,--defsym=_ZTSSt23_Sp_counted_ptr_inplaceIN5telux6common18FunctionalCallbackIJNS0_6config10ConfigInfoENS1_9ErrorCodeEEEESaIS6_ELN9__gnu_cxx12_Lock_policyE2EE=so_stub_for_libtelux_config
-Wl,--defsym=_ZTSSt23_Sp_counted_ptr_inplaceIN5telux6common18FunctionalCallbackIJNS0_6config17AutoSelectionModeENS1_9ErrorCodeEEEESaIS6_ELN9__gnu_cxx12_Lock_policyE2EE=so_stub_for_libtelux_config
-Wl,--defsym=_ZTSSt23_Sp_counted_ptr_inplaceIN5telux6common18FunctionalCallbackIJNS1_9ErrorCodeEEEESaIS4_ELN9__gnu_cxx12_Lock_policyE2EE=so_stub_for_libtelux_config
-Wl,--defsym=_ZTSSt23_Sp_counted_ptr_inplaceIN5telux6common18FunctionalCallbackIJSt6vectorINS0_6config10ConfigInfoESaIS5_EENS1_9ErrorCodeEEEESaIS9_ELN9__gnu_cxx12_Lock_policyE2EE=so_stub_for_libtelux_config
-Wl,--defsym=_ZTSSt23_Sp_counted_ptr_inplaceIN5telux6config17ConfigManagerImplESaIS2_ELN9__gnu_cxx12_Lock_policyE2EE=so_stub_for_libtelux_config
-Wl,--defsym=_ZTSSt23_Sp_counted_ptr_inplaceIN5telux6config21QmiLoadConfigCallbackESaIS2_ELN9__gnu_cxx12_Lock_policyE2EE=so_stub_for_libtelux_config
-Wl,--defsym=_ZTSSt23_Sp_counted_ptr_inplaceIN5telux6config22ModemConfigManagerImplESaIS2_ELN9__gnu_cxx12_Lock_policyE2EE=so_stub_for_libtelux_config
-Wl,--defsym=_ZTSSt23_Sp_counted_ptr_inplaceIN5telux6config23QmiDeleteConfigCallbackESaIS2_ELN9__gnu_cxx12_Lock_policyE2EE=so_stub_for_libtelux_config
-Wl,--defsym=_ZTSSt23_Sp_counted_ptr_inplaceIN5telux6config25QmiActivateConfigCallbackESaIS2_ELN9__gnu_cxx12_Lock_policyE2EE=so_stub_for_libtelux_config
-Wl,--defsym=_ZTSSt23_Sp_counted_ptr_inplaceIN5telux6config26QmiGetActiveConfigCallbackESaIS2_ELN9__gnu_cxx12_Lock_policyE2EE=so_stub_for_libtelux_config
-Wl,--defsym=_ZTSSt23_Sp_counted_ptr_inplaceIN5telux6config26QmiSetSelectConfigCallbackESaIS2_ELN9__gnu_cxx12_Lock_policyE2EE=so_stub_for_libtelux_config
-Wl,--defsym=_ZTSSt23_Sp_counted_ptr_inplaceIN5telux6config27QmiDeactivateConfigCallbackESaIS2_ELN9__gnu_cxx12_Lock_policyE2EE=so_stub_for_libtelux_config
-Wl,--defsym=_ZTSSt23_Sp_counted_ptr_inplaceIN5telux6config27QmiGetConfigFeatureCallbackESaIS2_ELN9__gnu_cxx12_Lock_policyE2EE=so_stub_for_libtelux_config
-Wl,--defsym=_ZTSSt23_Sp_counted_ptr_inplaceIN5telux6config27QmiSetConfigFeatureCallbackESaIS2_ELN9__gnu_cxx12_Lock_policyE2EE=so_stub_for_libtelux_config
-Wl,--defsym=_ZTSSt23_Sp_counted_ptr_inplaceIN5telux6config28QmiRequestConfigInfoCallbackESaIS2_ELN9__gnu_cxx12_Lock_policyE2EE=so_stub_for_libtelux_config
-Wl,--defsym=_ZTSSt23_Sp_counted_ptr_inplaceIN5telux6config28QmiRequestConfigListCallbackESaIS2_ELN9__gnu_cxx12_Lock_policyE2EE=so_stub_for_libtelux_config
-Wl,--defsym=_ZTSSt23_Sp_counted_ptr_inplaceIN5telux6config35QmiRequestDefaultConfigInfoCallbackESaIS2_ELN9__gnu_cxx12_Lock_policyE2EE=so_stub_for_libtelux_config
-Wl,--defsym=_ZTSSt23_Sp_counted_ptr_inplaceINSt13__future_base13_State_baseV2ESaIS1_ELN9__gnu_cxx12_Lock_policyE2EE=so_stub_for_libtelux_config
-Wl,--defsym=_ZTSSt23_Sp_counted_ptr_inplaceISt6threadSaIS0_ELN9__gnu_cxx12_Lock_policyE2EE=so_stub_for_libtelux_config
-Wl,--defsym=_ZTSZN5telux6common13FactoryHelper10getManagerINS_6config14IConfigManagerEEESt10shared_ptrIT_ENSt7__cxx1112basic_stringIcSt11char_traitsIcESaIcEEERSt8weak_ptrIS6_ERSt6vectorISt8functionIFvNS0_13ServiceStatusEEESaISL_EESL_SI_IFS7_SL_S5_INS0_14AsyncTaskQueueIvEEEEESR_EUlSJ_E0_=so_stub_for_libtelux_config
-Wl,--defsym=_ZTSZN5telux6common13FactoryHelper10getManagerINS_6config19IModemConfigManagerEEESt10shared_ptrIT_ENSt7__cxx1112basic_stringIcSt11char_traitsIcESaIcEEERSt8weak_ptrIS6_ERSt6vectorISt8functionIFvNS0_13ServiceStatusEEESaISL_EESL_SI_IFS7_SL_EEEUlSJ_E0_=so_stub_for_libtelux_config
-Wl,--defsym=_ZTTN5telux6config17ConfigManagerImplE=so_stub_for_libtelux_config
-Wl,--defsym=_ZTTN5telux6config21QmiLoadConfigCallbackE=so_stub_for_libtelux_config
-Wl,--defsym=_ZTTN5telux6config22ModemConfigManagerImplE=so_stub_for_libtelux_config
-Wl,--defsym=_ZTTN5telux6config23QmiDeleteConfigCallbackE=so_stub_for_libtelux_config
-Wl,--defsym=_ZTTN5telux6config25QmiActivateConfigCallbackE=so_stub_for_libtelux_config
-Wl,--defsym=_ZTTN5telux6config26QmiGetActiveConfigCallbackE=so_stub_for_libtelux_config
-Wl,--defsym=_ZTTN5telux6config26QmiSetSelectConfigCallbackE=so_stub_for_libtelux_config
-Wl,--defsym=_ZTTN5telux6config27QmiDeactivateConfigCallbackE=so_stub_for_libtelux_config
-Wl,--defsym=_ZTTN5telux6config27QmiGetConfigFeatureCallbackE=so_stub_for_libtelux_config
-Wl,--defsym=_ZTTN5telux6config27QmiSetConfigFeatureCallbackE=so_stub_for_libtelux_config
-Wl,--defsym=_ZTTN5telux6config28QmiRequestConfigInfoCallbackE=so_stub_for_libtelux_config
-Wl,--defsym=_ZTTN5telux6config28QmiRequestConfigListCallbackE=so_stub_for_libtelux_config
-Wl,--defsym=_ZTTN5telux6config35QmiRequestDefaultConfigInfoCallbackE=so_stub_for_libtelux_config
-Wl,--defsym=_ZTv0_n24_N5telux6config17ConfigManagerImplD0Ev=so_stub_for_libtelux_config
-Wl,--defsym=_ZTv0_n24_N5telux6config17ConfigManagerImplD1Ev=so_stub_for_libtelux_config
-Wl,--defsym=_ZTv0_n24_N5telux6config21QmiLoadConfigCallbackD0Ev=so_stub_for_libtelux_config
-Wl,--defsym=_ZTv0_n24_N5telux6config21QmiLoadConfigCallbackD1Ev=so_stub_for_libtelux_config
-Wl,--defsym=_ZTv0_n24_N5telux6config22ModemConfigManagerImplD0Ev=so_stub_for_libtelux_config
-Wl,--defsym=_ZTv0_n24_N5telux6config22ModemConfigManagerImplD1Ev=so_stub_for_libtelux_config
-Wl,--defsym=_ZTv0_n24_N5telux6config23QmiDeleteConfigCallbackD0Ev=so_stub_for_libtelux_config
-Wl,--defsym=_ZTv0_n24_N5telux6config23QmiDeleteConfigCallbackD1Ev=so_stub_for_libtelux_config
-Wl,--defsym=_ZTv0_n24_N5telux6config25QmiActivateConfigCallbackD0Ev=so_stub_for_libtelux_config
-Wl,--defsym=_ZTv0_n24_N5telux6config25QmiActivateConfigCallbackD1Ev=so_stub_for_libtelux_config
-Wl,--defsym=_ZTv0_n24_N5telux6config26QmiGetActiveConfigCallbackD0Ev=so_stub_for_libtelux_config
-Wl,--defsym=_ZTv0_n24_N5telux6config26QmiGetActiveConfigCallbackD1Ev=so_stub_for_libtelux_config
-Wl,--defsym=_ZTv0_n24_N5telux6config26QmiSetSelectConfigCallbackD0Ev=so_stub_for_libtelux_config
-Wl,--defsym=_ZTv0_n24_N5telux6config26QmiSetSelectConfigCallbackD1Ev=so_stub_for_libtelux_config
-Wl,--defsym=_ZTv0_n24_N5telux6config27QmiDeactivateConfigCallbackD0Ev=so_stub_for_libtelux_config
-Wl,--defsym=_ZTv0_n24_N5telux6config27QmiDeactivateConfigCallbackD1Ev=so_stub_for_libtelux_config
-Wl,--defsym=_ZTv0_n24_N5telux6config27QmiGetConfigFeatureCallbackD0Ev=so_stub_for_libtelux_config
-Wl,--defsym=_ZTv0_n24_N5telux6config27QmiGetConfigFeatureCallbackD1Ev=so_stub_for_libtelux_config
-Wl,--defsym=_ZTv0_n24_N5telux6config27QmiSetConfigFeatureCallbackD0Ev=so_stub_for_libtelux_config
-Wl,--defsym=_ZTv0_n24_N5telux6config27QmiSetConfigFeatureCallbackD1Ev=so_stub_for_libtelux_config
-Wl,--defsym=_ZTv0_n24_N5telux6config28QmiRequestConfigInfoCallbackD0Ev=so_stub_for_libtelux_config
-Wl,--defsym=_ZTv0_n24_N5telux6config28QmiRequestConfigInfoCallbackD1Ev=so_stub_for_libtelux_config
-Wl,--defsym=_ZTv0_n24_N5telux6config28QmiRequestConfigListCallbackD0Ev=so_stub_for_libtelux_config
-Wl,--defsym=_ZTv0_n24_N5telux6config28QmiRequestConfigListCallbackD1Ev=so_stub_for_libtelux_config
-Wl,--defsym=_ZTv0_n24_N5telux6config35QmiRequestDefaultConfigInfoCallbackD0Ev=so_stub_for_libtelux_config
-Wl,--defsym=_ZTv0_n24_N5telux6config35QmiRequestDefaultConfigInfoCallbackD1Ev=so_stub_for_libtelux_config
-Wl,--defsym=_ZTVN5telux3qmi28IQmiRegisterListenerCallbackE=so_stub_for_libtelux_config
-Wl,--defsym=_ZTVN5telux6common18FunctionalCallbackIJNS0_9ErrorCodeEEEE=so_stub_for_libtelux_config
-Wl,--defsym=_ZTVN5telux6common18FunctionalCallbackIJNS_6config10ConfigInfoENS0_9ErrorCodeEEEE=so_stub_for_libtelux_config
-Wl,--defsym=_ZTVN5telux6common18FunctionalCallbackIJNS_6config17AutoSelectionModeENS0_9ErrorCodeEEEE=so_stub_for_libtelux_config
-Wl,--defsym=_ZTVN5telux6common18FunctionalCallbackIJSt6vectorINS_6config10ConfigInfoESaIS4_EENS0_9ErrorCodeEEEE=so_stub_for_libtelux_config
-Wl,--defsym=_ZTVN5telux6config13ConfigFactoryE=so_stub_for_libtelux_config
-Wl,--defsym=_ZTVN5telux6config14IConfigManagerE=so_stub_for_libtelux_config
-Wl,--defsym=_ZTVN5telux6config17ConfigFactoryImplE=so_stub_for_libtelux_config
-Wl,--defsym=_ZTVN5telux6config17ConfigManagerImplE=so_stub_for_libtelux_config
-Wl,--defsym=_ZTVN5telux6config19IModemConfigManagerE=so_stub_for_libtelux_config
-Wl,--defsym=_ZTVN5telux6config20ConfigManagerWrapperE=so_stub_for_libtelux_config
-Wl,--defsym=_ZTVN5telux6config21QmiLoadConfigCallbackE=so_stub_for_libtelux_config
-Wl,--defsym=_ZTVN5telux6config22ModemConfigManagerImplE=so_stub_for_libtelux_config
-Wl,--defsym=_ZTVN5telux6config23QmiDeleteConfigCallbackE=so_stub_for_libtelux_config
-Wl,--defsym=_ZTVN5telux6config25ModemConfigManagerWrapperE=so_stub_for_libtelux_config
-Wl,--defsym=_ZTVN5telux6config25QmiActivateConfigCallbackE=so_stub_for_libtelux_config
-Wl,--defsym=_ZTVN5telux6config26QmiGetActiveConfigCallbackE=so_stub_for_libtelux_config
-Wl,--defsym=_ZTVN5telux6config26QmiSetSelectConfigCallbackE=so_stub_for_libtelux_config
-Wl,--defsym=_ZTVN5telux6config27QmiDeactivateConfigCallbackE=so_stub_for_libtelux_config
-Wl,--defsym=_ZTVN5telux6config27QmiGetConfigFeatureCallbackE=so_stub_for_libtelux_config
-Wl,--defsym=_ZTVN5telux6config27QmiSetConfigFeatureCallbackE=so_stub_for_libtelux_config
-Wl,--defsym=_ZTVN5telux6config28QmiModemConfigFutureCallbackIiEE=so_stub_for_libtelux_config
-Wl,--defsym=_ZTVN5telux6config28QmiRequestConfigInfoCallbackE=so_stub_for_libtelux_config
-Wl,--defsym=_ZTVN5telux6config28QmiRequestConfigListCallbackE=so_stub_for_libtelux_config
-Wl,--defsym=_ZTVN5telux6config35QmiRequestDefaultConfigInfoCallbackE=so_stub_for_libtelux_config
-Wl,--defsym=_ZTVNSt13__future_base13_State_baseV2E=so_stub_for_libtelux_config
-Wl,--defsym=_ZTVNSt13__future_base21_Async_state_commonV2E=so_stub_for_libtelux_config
-Wl,--defsym=_ZTVNSt13__future_base7_ResultIbEE=so_stub_for_libtelux_config
-Wl,--defsym=_ZTVNSt13__future_base7_ResultIiEE=so_stub_for_libtelux_config
-Wl,--defsym=_ZTVNSt13__future_base7_ResultIvEE=so_stub_for_libtelux_config
-Wl,--defsym=_ZTVNSt6thread11_State_implINS_8_InvokerISt5tupleIJMN5telux6common14AsyncTaskQueueIvEEFvvEPS6_EEEEEE=so_stub_for_libtelux_config
-Wl,--defsym=_ZTVNSt6thread11_State_implINS_8_InvokerISt5tupleIJZN5telux6common13FactoryHelper10getManagerINS3_6config14IConfigManagerEEESt10shared_ptrIT_ENSt7__cxx1112basic_stringIcSt11char_traitsIcESaIcEEERSt8weak_ptrISA_ERSt6vectorISt8functionIFvNS4_13ServiceStatusEEESaISP_EESP_SM_IFSB_SP_S9_INS4_14AsyncTaskQueueIvEEEEESV_EUlvE_EEEEEE=so_stub_for_libtelux_config
-Wl,--defsym=_ZTVNSt6thread11_State_implINS_8_InvokerISt5tupleIJZN5telux6common13FactoryHelper10getManagerINS3_6config19IModemConfigManagerEEESt10shared_ptrIT_ENSt7__cxx1112basic_stringIcSt11char_traitsIcESaIcEEERSt8weak_ptrISA_ERSt6vectorISt8functionIFvNS4_13ServiceStatusEEESaISP_EESP_SM_IFSB_SP_EEEUlvE_EEEEEE=so_stub_for_libtelux_config
-Wl,--defsym=_ZTVSt23_Sp_counted_ptr_inplaceIN5telux6common15ListenerManagerESaIS2_ELN9__gnu_cxx12_Lock_policyE2EE=so_stub_for_libtelux_config
-Wl,--defsym=_ZTVSt23_Sp_counted_ptr_inplaceIN5telux6common18FunctionalCallbackIJNS0_6config10ConfigInfoENS1_9ErrorCodeEEEESaIS6_ELN9__gnu_cxx12_Lock_policyE2EE=so_stub_for_libtelux_config
-Wl,--defsym=_ZTVSt23_Sp_counted_ptr_inplaceIN5telux6common18FunctionalCallbackIJNS0_6config17AutoSelectionModeENS1_9ErrorCodeEEEESaIS6_ELN9__gnu_cxx12_Lock_policyE2EE=so_stub_for_libtelux_config
-Wl,--defsym=_ZTVSt23_Sp_counted_ptr_inplaceIN5telux6common18FunctionalCallbackIJNS1_9ErrorCodeEEEESaIS4_ELN9__gnu_cxx12_Lock_policyE2EE=so_stub_for_libtelux_config
-Wl,--defsym=_ZTVSt23_Sp_counted_ptr_inplaceIN5telux6common18FunctionalCallbackIJSt6vectorINS0_6config10ConfigInfoESaIS5_EENS1_9ErrorCodeEEEESaIS9_ELN9__gnu_cxx12_Lock_policyE2EE=so_stub_for_libtelux_config
-Wl,--defsym=_ZTVSt23_Sp_counted_ptr_inplaceIN5telux6config17ConfigManagerImplESaIS2_ELN9__gnu_cxx12_Lock_policyE2EE=so_stub_for_libtelux_config
-Wl,--defsym=_ZTVSt23_Sp_counted_ptr_inplaceIN5telux6config21QmiLoadConfigCallbackESaIS2_ELN9__gnu_cxx12_Lock_policyE2EE=so_stub_for_libtelux_config
-Wl,--defsym=_ZTVSt23_Sp_counted_ptr_inplaceIN5telux6config22ModemConfigManagerImplESaIS2_ELN9__gnu_cxx12_Lock_policyE2EE=so_stub_for_libtelux_config
-Wl,--defsym=_ZTVSt23_Sp_counted_ptr_inplaceIN5telux6config23QmiDeleteConfigCallbackESaIS2_ELN9__gnu_cxx12_Lock_policyE2EE=so_stub_for_libtelux_config
-Wl,--defsym=_ZTVSt23_Sp_counted_ptr_inplaceIN5telux6config25QmiActivateConfigCallbackESaIS2_ELN9__gnu_cxx12_Lock_policyE2EE=so_stub_for_libtelux_config
-Wl,--defsym=_ZTVSt23_Sp_counted_ptr_inplaceIN5telux6config26QmiGetActiveConfigCallbackESaIS2_ELN9__gnu_cxx12_Lock_policyE2EE=so_stub_for_libtelux_config
-Wl,--defsym=_ZTVSt23_Sp_counted_ptr_inplaceIN5telux6config26QmiSetSelectConfigCallbackESaIS2_ELN9__gnu_cxx12_Lock_policyE2EE=so_stub_for_libtelux_config
-Wl,--defsym=_ZTVSt23_Sp_counted_ptr_inplaceIN5telux6config27QmiDeactivateConfigCallbackESaIS2_ELN9__gnu_cxx12_Lock_policyE2EE=so_stub_for_libtelux_config
-Wl,--defsym=_ZTVSt23_Sp_counted_ptr_inplaceIN5telux6config27QmiGetConfigFeatureCallbackESaIS2_ELN9__gnu_cxx12_Lock_policyE2EE=so_stub_for_libtelux_config
-Wl,--defsym=_ZTVSt23_Sp_counted_ptr_inplaceIN5telux6config27QmiSetConfigFeatureCallbackESaIS2_ELN9__gnu_cxx12_Lock_policyE2EE=so_stub_for_libtelux_config
-Wl,--defsym=_ZTVSt23_Sp_counted_ptr_inplaceIN5telux6config28QmiRequestConfigInfoCallbackESaIS2_ELN9__gnu_cxx12_Lock_policyE2EE=so_stub_for_libtelux_config
-Wl,--defsym=_ZTVSt23_Sp_counted_ptr_inplaceIN5telux6config28QmiRequestConfigListCallbackESaIS2_ELN9__gnu_cxx12_Lock_policyE2EE=so_stub_for_libtelux_config
-Wl,--defsym=_ZTVSt23_Sp_counted_ptr_inplaceIN5telux6config35QmiRequestDefaultConfigInfoCallbackESaIS2_ELN9__gnu_cxx12_Lock_policyE2EE=so_stub_for_libtelux_config
-Wl,--defsym=_ZTVSt23_Sp_counted_ptr_inplaceINSt13__future_base13_State_baseV2ESaIS1_ELN9__gnu_cxx12_Lock_policyE2EE=so_stub_for_libtelux_config
-Wl,--defsym=_ZTVSt23_Sp_counted_ptr_inplaceISt6threadSaIS0_ELN9__gnu_cxx12_Lock_policyE2EE=so_stub_for_libtelux_config
-Wl,--defsym=_ZZN5telux6common13FactoryHelper10getManagerINS_6config14IConfigManagerEEESt10shared_ptrIT_ENSt7__cxx1112basic_stringIcSt11char_traitsIcESaIcEEERSt8weak_ptrIS6_ERSt6vectorISt8functionIFvNS0_13ServiceStatusEEESaISL_EESL_SI_IFS7_SL_S5_INS0_14AsyncTaskQueueIvEEEEESR_ENKUlSJ_E0_clESJ_=so_stub_for_libtelux_config
-Wl,--defsym=_ZZN5telux6common13FactoryHelper10getManagerINS_6config19IModemConfigManagerEEESt10shared_ptrIT_ENSt7__cxx1112basic_stringIcSt11char_traitsIcESaIcEEERSt8weak_ptrIS6_ERSt6vectorISt8functionIFvNS0_13ServiceStatusEEESaISL_EESL_SI_IFS7_SL_EEENKUlSJ_E0_clESJ_=so_stub_for_libtelux_config
-Wl,--defsym=_ZZNSt19_Sp_make_shared_tag5_S_tiEvE5__tag=so_stub_for_libtelux_config
-Wl,--defsym=_ZZNSt9once_flag18_Prepare_executionC4IZSt9call_onceIMNSt13__future_base13_State_baseV2EFvPSt8functionIFSt10unique_ptrINS3_12_Result_baseENS7_8_DeleterEEvEEPbEJPS4_SC_SD_EEvRS_OT_DpOT0_EUlvE_EERSI_ENUlvE_4_FUNEv=so_stub_for_libtelux_config
-Wl,--defsym=_ZZNSt9once_flag18_Prepare_executionC4IZSt9call_onceIMSt6threadFvvEJPS3_EEvRS_OT_DpOT0_EUlvE_EERS8_ENUlvE_4_FUNEv=so_stub_for_libtelux_config
