-Wl,--defsym=__gcov_error_file=so_stub_for_libtelux_power
-Wl,--defsym=__gcov_kvp_dynamic_pool=so_stub_for_libtelux_power
-Wl,--defsym=__gcov_kvp_dynamic_pool_index=so_stub_for_libtelux_power
-Wl,--defsym=__gcov_kvp_dynamic_pool_size=so_stub_for_libtelux_power
-Wl,--defsym=__gcov_master=so_stub_for_libtelux_power
-Wl,--defsym=__gcov_var=so_stub_for_libtelux_power
-Wl,--defsym=mangle_path=so_stub_for_libtelux_power
-Wl,--defsym=_ZN5telux3qmi15IQmiDmsListener21onOperatingModeChangeEi=so_stub_for_libtelux_power
-Wl,--defsym=_ZN5telux3qmi15IQmiDmsListener21onRFBandCapabilityIndEPK34dms_band_capability_ex_ind_msg_v01=so_stub_for_libtelux_power
-Wl,--defsym=_ZN5telux3qmi15IQmiDmsListener24onDmsServiceStatusChangeENS_6common13ServiceStatusEi=so_stub_for_libtelux_power
-Wl,--defsym=_ZN5telux3qmi15IQmiDmsListener26onModemActivityClientReadyEb=so_stub_for_libtelux_power
-Wl,--defsym=_ZN5telux3qmi23IQmiTcuActivityListener15onMachineUpdateE33pwr_mgr_machine_event_ind_msg_v01=so_stub_for_libtelux_power
-Wl,--defsym=_ZN5telux3qmi23IQmiTcuActivityListener16onTcuStateUpdateEP40pwr_mgr_broadcast_indication_msg_ext_v01=so_stub_for_libtelux_power
-Wl,--defsym=_ZN5telux3qmi23IQmiTcuActivityListener22onSlaveAckStatusUpdateE28pwr_mgr_state_change_ext_v01=so_stub_for_libtelux_power
-Wl,--defsym=_ZN5telux3qmi23IQmiTcuActivityListener32onTcuActivityServiceStatusChangeENS_6common13ServiceStatusE=so_stub_for_libtelux_power
-Wl,--defsym=_ZN5telux5power12PowerFactory11getInstanceEv=so_stub_for_libtelux_power
-Wl,--defsym=_ZN5telux5power12PowerFactoryC1Ev=so_stub_for_libtelux_power
-Wl,--defsym=_ZN5telux5power12PowerFactoryC2Ev=so_stub_for_libtelux_power
-Wl,--defsym=_ZN5telux5power12PowerFactoryD0Ev=so_stub_for_libtelux_power
-Wl,--defsym=_ZN5telux5power12PowerFactoryD1Ev=so_stub_for_libtelux_power
-Wl,--defsym=_ZN5telux5power12PowerFactoryD2Ev=so_stub_for_libtelux_power
-Wl,--defsym=_ZN5telux5power16PowerFactoryImpl11getInstanceEv=so_stub_for_libtelux_power
-Wl,--defsym=_ZN5telux5power16PowerFactoryImpl21getTcuActivityManagerENS0_10ClientTypeENS_6common8ProcTypeESt8functionIFvNS3_13ServiceStatusEEE=so_stub_for_libtelux_power
-Wl,--defsym=_ZN5telux5power16PowerFactoryImpl21getTcuActivityManagerENS0_20ClientInstanceConfigESt8functionIFvNS_6common13ServiceStatusEEE=so_stub_for_libtelux_power
-Wl,--defsym=_ZN5telux5power16PowerFactoryImplC1Ev=so_stub_for_libtelux_power
-Wl,--defsym=_ZN5telux5power16PowerFactoryImplC2Ev=so_stub_for_libtelux_power
-Wl,--defsym=_ZN5telux5power16PowerFactoryImplD0Ev=so_stub_for_libtelux_power
-Wl,--defsym=_ZN5telux5power16PowerFactoryImplD1Ev=so_stub_for_libtelux_power
-Wl,--defsym=_ZN5telux5power16PowerFactoryImplD2Ev=so_stub_for_libtelux_power
-Wl,--defsym=_ZN5telux5power17ModemStateUpdater16getServiceStatusEv=so_stub_for_libtelux_power
-Wl,--defsym=_ZN5telux5power17ModemStateUpdater16setServiceStatusENS_6common13ServiceStatusE=so_stub_for_libtelux_power
-Wl,--defsym=_ZN5telux5power17ModemStateUpdater19sendTcuStateToModemENS0_16TcuActivityStateE=so_stub_for_libtelux_power
-Wl,--defsym=_ZN5telux5power17ModemStateUpdater24onDmsServiceStatusChangeENS_6common13ServiceStatusEi=so_stub_for_libtelux_power
-Wl,--defsym=_ZN5telux5power17ModemStateUpdater26onModemActivityClientReadyEb=so_stub_for_libtelux_power
-Wl,--defsym=_ZN5telux5power17ModemStateUpdater4initEv=so_stub_for_libtelux_power
-Wl,--defsym=_ZN5telux5power17ModemStateUpdater7cleanupEv=so_stub_for_libtelux_power
-Wl,--defsym=_ZN5telux5power17ModemStateUpdater7isReadyEv=so_stub_for_libtelux_power
-Wl,--defsym=_ZN5telux5power17ModemStateUpdater8initSyncEv=so_stub_for_libtelux_power
-Wl,--defsym=_ZN5telux5power17ModemStateUpdaterC1Ev=so_stub_for_libtelux_power
-Wl,--defsym=_ZN5telux5power17ModemStateUpdaterC2Ev=so_stub_for_libtelux_power
-Wl,--defsym=_ZN5telux5power17ModemStateUpdaterD0Ev=so_stub_for_libtelux_power
-Wl,--defsym=_ZN5telux5power17ModemStateUpdaterD1Ev=so_stub_for_libtelux_power
-Wl,--defsym=_ZN5telux5power17ModemStateUpdaterD2Ev=so_stub_for_libtelux_power
-Wl,--defsym=_ZN5telux5power17TcuActivityHelper14getMachineNameERNSt7__cxx1112basic_stringIcSt11char_traitsIcESaIcEEE=so_stub_for_libtelux_power
-Wl,--defsym=_ZN5telux5power17TcuActivityHelper17getAckForTcuStateENS0_16TcuActivityStateEPNS0_19TcuActivityStateAckE=so_stub_for_libtelux_power
-Wl,--defsym=_ZN5telux5power17TcuActivityHelper20convertTcuStateToQmiENS0_16TcuActivityStateE=so_stub_for_libtelux_power
-Wl,--defsym=_ZN5telux5power17TcuActivityHelper21getTcuStateFromQmiIndEPv=so_stub_for_libtelux_power
-Wl,--defsym=_ZN5telux5power17TcuActivityHelper22convertTcuStateFromQmiE13pwr_state_v01=so_stub_for_libtelux_power
-Wl,--defsym=_ZN5telux5power17TcuActivityHelper23convertTcuStateAckToQmiENS0_19StateChangeResponseENS0_16TcuActivityStateEP17pwr_state_ack_v01=so_stub_for_libtelux_power
-Wl,--defsym=_ZN5telux5power17TcuActivityHelper23convertTcuStateAckToQmiENS0_19TcuActivityStateAckEP17pwr_state_ack_v01=so_stub_for_libtelux_power
-Wl,--defsym=_ZN5telux5power17TcuActivityHelper23convertTcuStateToDmsQmiENS0_16TcuActivityStateE=so_stub_for_libtelux_power
-Wl,--defsym=_ZN5telux5power17TcuActivityHelper25getTcuStateFromQmiRegRespEPv=so_stub_for_libtelux_power
-Wl,--defsym=_ZN5telux5power17TcuActivityHelper26convertMachineEventFromQmiE17machine_event_v01RNS0_12MachineEventE=so_stub_for_libtelux_power
-Wl,--defsym=_ZN5telux5power17TcuActivityHelper26convertQmiMachineNameToTcuENSt7__cxx1112basic_stringIcSt11char_traitsIcESaIcEEERS7_=so_stub_for_libtelux_power
-Wl,--defsym=_ZN5telux5power17TcuActivityHelper26convertTcuMachineNameToQmiENSt7__cxx1112basic_stringIcSt11char_traitsIcESaIcEEERS7_=so_stub_for_libtelux_power
-Wl,--defsym=_ZN5telux5power20ClientInstanceConfigC1ERKS1_=so_stub_for_libtelux_power
-Wl,--defsym=_ZN5telux5power20ClientInstanceConfigC2ERKS1_=so_stub_for_libtelux_power
-Wl,--defsym=_ZN5telux5power20ClientInstanceConfigD1Ev=so_stub_for_libtelux_power
-Wl,--defsym=_ZN5telux5power20ClientInstanceConfigD2Ev=so_stub_for_libtelux_power
-Wl,--defsym=_ZN5telux5power22TcuActivityManagerImpl14getMachineNameERNSt7__cxx1112basic_stringIcSt11char_traitsIcESaIcEEE=so_stub_for_libtelux_power
-Wl,--defsym=_ZN5telux5power22TcuActivityManagerImpl14handleResponseEiPv=so_stub_for_libtelux_power
-Wl,--defsym=_ZN5telux5power22TcuActivityManagerImpl15isReadyInternalEv=so_stub_for_libtelux_power
-Wl,--defsym=_ZN5telux5power22TcuActivityManagerImpl15onMachineUpdateE33pwr_mgr_machine_event_ind_msg_v01=so_stub_for_libtelux_power
-Wl,--defsym=_ZN5telux5power22TcuActivityManagerImpl16getActivityStateEv=so_stub_for_libtelux_power
-Wl,--defsym=_ZN5telux5power22TcuActivityManagerImpl16getServiceStatusEv=so_stub_for_libtelux_power
-Wl,--defsym=_ZN5telux5power22TcuActivityManagerImpl16onTcuStateUpdateEP40pwr_mgr_broadcast_indication_msg_ext_v01=so_stub_for_libtelux_power
-Wl,--defsym=_ZN5telux5power22TcuActivityManagerImpl16registerListenerESt8weak_ptrINS0_20ITcuActivityListenerEE=so_stub_for_libtelux_power
-Wl,--defsym=_ZN5telux5power22TcuActivityManagerImpl16setActivityStateENS0_16TcuActivityStateENSt7__cxx1112basic_stringIcSt11char_traitsIcESaIcEEESt8functionIFvNS_6common9ErrorCodeEEE=so_stub_for_libtelux_power
-Wl,--defsym=_ZN5telux5power22TcuActivityManagerImpl16setActivityStateENS0_16TcuActivityStateESt8functionIFvNS_6common9ErrorCodeEEE=so_stub_for_libtelux_power
-Wl,--defsym=_ZN5telux5power22TcuActivityManagerImpl17setCachedTcuStateENS0_16TcuActivityStateE=so_stub_for_libtelux_power
-Wl,--defsym=_ZN5telux5power22TcuActivityManagerImpl18deregisterListenerESt8weak_ptrINS0_20ITcuActivityListenerEE=so_stub_for_libtelux_power
-Wl,--defsym=_ZN5telux5power22TcuActivityManagerImpl18getAllMachineNamesERSt6vectorINSt7__cxx1112basic_stringIcSt11char_traitsIcESaIcEEESaIS8_EE=so_stub_for_libtelux_power
-Wl,--defsym=_ZN5telux5power22TcuActivityManagerImpl20sendActivityStateAckENS0_19StateChangeResponseENS0_16TcuActivityStateE=so_stub_for_libtelux_power
-Wl,--defsym=_ZN5telux5power22TcuActivityManagerImpl20sendActivityStateAckENS0_19TcuActivityStateAckE=so_stub_for_libtelux_power
-Wl,--defsym=_ZN5telux5power22TcuActivityManagerImpl21onTcuStateAckResponseEiPv=so_stub_for_libtelux_power
-Wl,--defsym=_ZN5telux5power22TcuActivityManagerImpl21setModemActivityStateENS0_16TcuActivityStateE=so_stub_for_libtelux_power
-Wl,--defsym=_ZN5telux5power22TcuActivityManagerImpl21waitForInitializationEv=so_stub_for_libtelux_power
-Wl,--defsym=_ZN5telux5power22TcuActivityManagerImpl22onSlaveAckStatusUpdateE28pwr_mgr_state_change_ext_v01=so_stub_for_libtelux_power
-Wl,--defsym=_ZN5telux5power22TcuActivityManagerImpl24handleServiceStateChangeENS_6common13ServiceStatusE=so_stub_for_libtelux_power
-Wl,--defsym=_ZN5telux5power22TcuActivityManagerImpl25onTcuStateCommandResponseEiPv=so_stub_for_libtelux_power
-Wl,--defsym=_ZN5telux5power22TcuActivityManagerImpl25setServiceStatusAndNotifyENS_6common13ServiceStatusE=so_stub_for_libtelux_power
-Wl,--defsym=_ZN5telux5power22TcuActivityManagerImpl28registerServiceStateListenerESt8weak_ptrINS_6common22IServiceStatusListenerEE=so_stub_for_libtelux_power
-Wl,--defsym=_ZN5telux5power22TcuActivityManagerImpl30deregisterServiceStateListenerESt8weak_ptrINS_6common22IServiceStatusListenerEE=so_stub_for_libtelux_power
-Wl,--defsym=_ZN5telux5power22TcuActivityManagerImpl32onTcuActivityServiceStatusChangeENS_6common13ServiceStatusE=so_stub_for_libtelux_power
-Wl,--defsym=_ZN5telux5power22TcuActivityManagerImpl4initESt8functionIFvNS_6common13ServiceStatusEEE=so_stub_for_libtelux_power
-Wl,--defsym=_ZN5telux5power22TcuActivityManagerImpl7cleanupEb=so_stub_for_libtelux_power
-Wl,--defsym=_ZN5telux5power22TcuActivityManagerImpl7isReadyEv=so_stub_for_libtelux_power
-Wl,--defsym=_ZN5telux5power22TcuActivityManagerImpl7onReadyEv=so_stub_for_libtelux_power
-Wl,--defsym=_ZN5telux5power22TcuActivityManagerImpl8initSyncEv=so_stub_for_libtelux_power
-Wl,--defsym=_ZN5telux5power22TcuActivityManagerImplC1ENS0_20ClientInstanceConfigE=so_stub_for_libtelux_power
-Wl,--defsym=_ZN5telux5power22TcuActivityManagerImplC2ENS0_20ClientInstanceConfigE=so_stub_for_libtelux_power
-Wl,--defsym=_ZN5telux5power22TcuActivityManagerImplD0Ev=so_stub_for_libtelux_power
-Wl,--defsym=_ZN5telux5power22TcuActivityManagerImplD1Ev=so_stub_for_libtelux_power
-Wl,--defsym=_ZN5telux5power22TcuActivityManagerImplD2Ev=so_stub_for_libtelux_power
-Wl,--defsym=_ZN5telux5power25TcuActivityManagerWrapper14getMachineNameERNSt7__cxx1112basic_stringIcSt11char_traitsIcESaIcEEE=so_stub_for_libtelux_power
-Wl,--defsym=_ZN5telux5power25TcuActivityManagerWrapper16getActivityStateEv=so_stub_for_libtelux_power
-Wl,--defsym=_ZN5telux5power25TcuActivityManagerWrapper16getServiceStatusEv=so_stub_for_libtelux_power
-Wl,--defsym=_ZN5telux5power25TcuActivityManagerWrapper16registerListenerESt8weak_ptrINS0_20ITcuActivityListenerEE=so_stub_for_libtelux_power
-Wl,--defsym=_ZN5telux5power25TcuActivityManagerWrapper16setActivityStateENS0_16TcuActivityStateENSt7__cxx1112basic_stringIcSt11char_traitsIcESaIcEEESt8functionIFvNS_6common9ErrorCodeEEE=so_stub_for_libtelux_power
-Wl,--defsym=_ZN5telux5power25TcuActivityManagerWrapper16setActivityStateENS0_16TcuActivityStateESt8functionIFvNS_6common9ErrorCodeEEE=so_stub_for_libtelux_power
-Wl,--defsym=_ZN5telux5power25TcuActivityManagerWrapper18deregisterListenerESt8weak_ptrINS0_20ITcuActivityListenerEE=so_stub_for_libtelux_power
-Wl,--defsym=_ZN5telux5power25TcuActivityManagerWrapper18getAllMachineNamesERSt6vectorINSt7__cxx1112basic_stringIcSt11char_traitsIcESaIcEEESaIS8_EE=so_stub_for_libtelux_power
-Wl,--defsym=_ZN5telux5power25TcuActivityManagerWrapper20sendActivityStateAckENS0_19StateChangeResponseENS0_16TcuActivityStateE=so_stub_for_libtelux_power
-Wl,--defsym=_ZN5telux5power25TcuActivityManagerWrapper20sendActivityStateAckENS0_19TcuActivityStateAckE=so_stub_for_libtelux_power
-Wl,--defsym=_ZN5telux5power25TcuActivityManagerWrapper21setModemActivityStateENS0_16TcuActivityStateE=so_stub_for_libtelux_power
-Wl,--defsym=_ZN5telux5power25TcuActivityManagerWrapper28registerServiceStateListenerESt8weak_ptrINS_6common22IServiceStatusListenerEE=so_stub_for_libtelux_power
-Wl,--defsym=_ZN5telux5power25TcuActivityManagerWrapper30deregisterServiceStateListenerESt8weak_ptrINS_6common22IServiceStatusListenerEE=so_stub_for_libtelux_power
-Wl,--defsym=_ZN5telux5power25TcuActivityManagerWrapper4initENS0_20ClientInstanceConfigE=so_stub_for_libtelux_power
-Wl,--defsym=_ZN5telux5power25TcuActivityManagerWrapper7cleanupEv=so_stub_for_libtelux_power
-Wl,--defsym=_ZN5telux5power25TcuActivityManagerWrapper7isReadyEv=so_stub_for_libtelux_power
-Wl,--defsym=_ZN5telux5power25TcuActivityManagerWrapper7onReadyEv=so_stub_for_libtelux_power
-Wl,--defsym=_ZN5telux5power25TcuActivityManagerWrapperC1Ev=so_stub_for_libtelux_power
-Wl,--defsym=_ZN5telux5power25TcuActivityManagerWrapperC2Ev=so_stub_for_libtelux_power
-Wl,--defsym=_ZN5telux5power25TcuActivityManagerWrapperD0Ev=so_stub_for_libtelux_power
-Wl,--defsym=_ZN5telux5power25TcuActivityManagerWrapperD1Ev=so_stub_for_libtelux_power
-Wl,--defsym=_ZN5telux5power25TcuActivityManagerWrapperD2Ev=so_stub_for_libtelux_power
-Wl,--defsym=_ZN5telux5powerltERKNS0_20ClientInstanceConfigES3_=so_stub_for_libtelux_power
-Wl,--defsym=_ZN5telux6common13FactoryHelper10getManagerINS_5power19ITcuActivityManagerEEESt10shared_ptrIT_ENSt7__cxx1112basic_stringIcSt11char_traitsIcESaIcEEERSt8weak_ptrIS6_ERSt6vectorISt8functionIFvNS0_13ServiceStatusEEESaISL_EESL_SI_IFS7_SL_EE=so_stub_for_libtelux_power
-Wl,--defsym=_ZN5telux6common13FactoryHelper20initCompleteNotifierENSt7__cxx1112basic_stringIcSt11char_traitsIcESaIcEEERSt6vectorISt8functionIFvNS0_13ServiceStatusEEESaISC_EESA_=so_stub_for_libtelux_power
-Wl,--defsym=_ZN5telux6common14AsyncTaskQueueIvE11executeTaskEv=so_stub_for_libtelux_power
-Wl,--defsym=_ZN5telux6common14AsyncTaskQueueIvE14purgeCompletedEv=so_stub_for_libtelux_power
-Wl,--defsym=_ZN5telux6common14AsyncTaskQueueIvE3addERSt13shared_futureIvE=so_stub_for_libtelux_power
-Wl,--defsym=_ZN5telux6common14AsyncTaskQueueIvE8shutdownEb=so_stub_for_libtelux_power
-Wl,--defsym=_ZN5telux6common14AsyncTaskQueueIvEC1Ev=so_stub_for_libtelux_power
-Wl,--defsym=_ZN5telux6common14AsyncTaskQueueIvEC2Ev=so_stub_for_libtelux_power
-Wl,--defsym=_ZN5telux6common14AsyncTaskQueueIvED1Ev=so_stub_for_libtelux_power
-Wl,--defsym=_ZN5telux6common14AsyncTaskQueueIvED2Ev=so_stub_for_libtelux_power
-Wl,--defsym=_ZN5telux6common15ListenerManager16registerListenerESt8weak_ptrINS0_12ISDKListenerEE=so_stub_for_libtelux_power
-Wl,--defsym=_ZN5telux6common15ListenerManager18deRegisterListenerESt8weak_ptrINS0_12ISDKListenerEE=so_stub_for_libtelux_power
-Wl,--defsym=_ZN5telux6common15ListenerManager21getAvailableListenersERSt6vectorISt8weak_ptrINS0_12ISDKListenerEESaIS5_EE=so_stub_for_libtelux_power
-Wl,--defsym=_ZN5telux6common15ListenerManager5purgeEv=so_stub_for_libtelux_power
-Wl,--defsym=_ZN5telux6common15ListenerManager7cleanupEv=so_stub_for_libtelux_power
-Wl,--defsym=_ZN5telux6common15ListenerManagerC1Ev=so_stub_for_libtelux_power
-Wl,--defsym=_ZN5telux6common15ListenerManagerC2Ev=so_stub_for_libtelux_power
-Wl,--defsym=_ZN5telux6common15ListenerManagerD1Ev=so_stub_for_libtelux_power
-Wl,--defsym=_ZN5telux6common15ListenerManagerD2Ev=so_stub_for_libtelux_power
-Wl,--defsym=_ZN5telux6common18FunctionalCallbackIJNS0_9ErrorCodeEEED0Ev=so_stub_for_libtelux_power
-Wl,--defsym=_ZN5telux6common18FunctionalCallbackIJNS0_9ErrorCodeEEED1Ev=so_stub_for_libtelux_power
-Wl,--defsym=_ZN5telux6common18FunctionalCallbackIJNS0_9ErrorCodeEEED2Ev=so_stub_for_libtelux_power
-Wl,--defsym=_ZN5telux6common22CommandCallbackManager11addCallbackIJNS0_9ErrorCodeEEEEiSt8functionIFvDpT_EE=so_stub_for_libtelux_power
-Wl,--defsym=_ZN5telux6common22CommandCallbackManager15executeCallbackIJRNS0_9ErrorCodeEEEEvSt10shared_ptrINS0_16ICommandCallbackEEDpOT_=so_stub_for_libtelux_power
-Wl,--defsym=_ZN5telux6common3Log10logMessageIJNSt7__cxx1112basic_stringIcSt11char_traitsIcESaIcEEEPKcmSA_PNS_5power19ITcuActivityManagerESA_iEEEvNS0_8LogLevelERKS8_SG_RKiDpT_=so_stub_for_libtelux_power
-Wl,--defsym=_ZN5telux6common3Log10logMessageIJNSt7__cxx1112basic_stringIcSt11char_traitsIcESaIcEEEPKcPNS_5power19ITcuActivityManagerEEEEvNS0_8LogLevelERKS8_SG_RKiDpT_=so_stub_for_libtelux_power
-Wl,--defsym=_ZN5telux6common3Log10logMessageIJNSt7__cxx1112basic_stringIcSt11char_traitsIcESaIcEEEPKcPNS_5power19ITcuActivityManagerESA_EEEvNS0_8LogLevelERKS8_SG_RKiDpT_=so_stub_for_libtelux_power
-Wl,--defsym=_ZN5telux6common3Log10logMessageIJNSt7__cxx1112basic_stringIcSt11char_traitsIcESaIcEEEPKcPNS_5power19ITcuActivityManagerESA_iEEEvNS0_8LogLevelERKS8_SG_RKiDpT_=so_stub_for_libtelux_power
-Wl,--defsym=_ZN5telux6common3Log10logMessageIJPKcEEEvNS0_8LogLevelERKNSt7__cxx1112basic_stringIcSt11char_traitsIcESaIcEEESD_RKiDpT_=so_stub_for_libtelux_power
-Wl,--defsym=_ZN5telux6common3Log10logMessageIJPKcmEEEvNS0_8LogLevelERKNSt7__cxx1112basic_stringIcSt11char_traitsIcESaIcEEESD_RKiDpT_=so_stub_for_libtelux_power
-Wl,--defsym=_ZN5telux6common3Log10logMessageIJPKcNSt7__cxx1112basic_stringIcSt11char_traitsIcESaIcEEES4_PNS_5power19ITcuActivityManagerEEEEvNS0_8LogLevelERKSA_SG_RKiDpT_=so_stub_for_libtelux_power
-Wl,--defsym=_ZN5telux6common3Log10logMessageIJPKcS4_bEEEvNS0_8LogLevelERKNSt7__cxx1112basic_stringIcSt11char_traitsIcESaIcEEESD_RKiDpT_=so_stub_for_libtelux_power
-Wl,--defsym=_ZN5telux6common3Log10logMessageIJPKcS4_EEEvNS0_8LogLevelERKNSt7__cxx1112basic_stringIcSt11char_traitsIcESaIcEEESD_RKiDpT_=so_stub_for_libtelux_power
-Wl,--defsym=_ZN5telux6common3Log10logMessageIJPKcS4_hEEEvNS0_8LogLevelERKNSt7__cxx1112basic_stringIcSt11char_traitsIcESaIcEEESD_RKiDpT_=so_stub_for_libtelux_power
-Wl,--defsym=_ZN5telux6common3Log10logMessageIJPKcS4_iEEEvNS0_8LogLevelERKNSt7__cxx1112basic_stringIcSt11char_traitsIcESaIcEEESD_RKiDpT_=so_stub_for_libtelux_power
-Wl,--defsym=_ZN5telux6common3Log10logMessageIJPKcS4_jEEEvNS0_8LogLevelERKNSt7__cxx1112basic_stringIcSt11char_traitsIcESaIcEEESD_RKiDpT_=so_stub_for_libtelux_power
-Wl,--defsym=_ZN5telux6common3Log10logMessageIJPKcS4_mEEEvNS0_8LogLevelERKNSt7__cxx1112basic_stringIcSt11char_traitsIcESaIcEEESD_RKiDpT_=so_stub_for_libtelux_power
-Wl,--defsym=_ZN5telux6common3Log10logMessageIJPKcS4_mS4_mEEEvNS0_8LogLevelERKNSt7__cxx1112basic_stringIcSt11char_traitsIcESaIcEEESD_RKiDpT_=so_stub_for_libtelux_power
-Wl,--defsym=_ZN5telux6common3Log10logMessageIJPKcS4_mS4_NSt7__cxx1112basic_stringIcSt11char_traitsIcESaIcEEEEEEvNS0_8LogLevelERKSA_SD_RKiDpT_=so_stub_for_libtelux_power
-Wl,--defsym=_ZN5telux6common3Log10logMessageIJPKcS4_NSt7__cxx1112basic_stringIcSt11char_traitsIcESaIcEEEEEEvNS0_8LogLevelERKSA_SD_RKiDpT_=so_stub_for_libtelux_power
-Wl,--defsym=_ZN5telux6common3Log10logMessageIJPKcS4_NSt7__cxx1112basic_stringIcSt11char_traitsIcESaIcEEES4_iS4_PSt6vectorISt8functionIFvNS0_13ServiceStatusEEESaISF_EEEEEvNS0_8LogLevelERKSA_SL_RKiDpT_=so_stub_for_libtelux_power
-Wl,--defsym=_ZN5telux6common3Log10logMessageIJPKcS4_NSt7__cxx1112basic_stringIcSt11char_traitsIcESaIcEEES4_iS4_SA_EEEvNS0_8LogLevelERKSA_SD_RKiDpT_=so_stub_for_libtelux_power
-Wl,--defsym=_ZN5telux6common3Log10logMessageIJPKcS4_NSt7__cxx1112basic_stringIcSt11char_traitsIcESaIcEEES4_PNS_5power19ITcuActivityManagerEEEEvNS0_8LogLevelERKSA_SG_RKiDpT_=so_stub_for_libtelux_power
-Wl,--defsym=_ZN5telux6common3Log10logMessageIJPKcS4_NSt7__cxx1112basic_stringIcSt11char_traitsIcESaIcEEES4_S4_EEEvNS0_8LogLevelERKSA_SD_RKiDpT_=so_stub_for_libtelux_power
-Wl,--defsym=_ZN5telux6common3Log10logMessageIJPKcS4_NSt7__cxx1112basic_stringIcSt11char_traitsIcESaIcEEES4_SA_EEEvNS0_8LogLevelERKSA_SD_RKiDpT_=so_stub_for_libtelux_power
-Wl,--defsym=_ZN5telux6common3Log10logMessageIJPKcS4_PSt8functionIFvNS0_13ServiceStatusEEEEEEvNS0_8LogLevelERKNSt7__cxx1112basic_stringIcSt11char_traitsIcESaIcEEESI_RKiDpT_=so_stub_for_libtelux_power
-Wl,--defsym=_ZN5telux6common3Log10logMessageIJPKcS4_S4_EEEvNS0_8LogLevelERKNSt7__cxx1112basic_stringIcSt11char_traitsIcESaIcEEESD_RKiDpT_=so_stub_for_libtelux_power
-Wl,--defsym=_ZN5telux6common3Log10logMessageIJPKcS4_S4_S4_NSt7__cxx1112basic_stringIcSt11char_traitsIcESaIcEEES4_iS4_SA_S4_PSt6vectorISt8functionIFvNS0_13ServiceStatusEEESaISF_EEEEEvNS0_8LogLevelERKSA_SL_RKiDpT_=so_stub_for_libtelux_power
-Wl,--defsym=_ZN5telux6common3Log16constructMessageINSt7__cxx1119basic_ostringstreamIcSt11char_traitsIcESaIcEEEiJPKcNS3_12basic_stringIcS6_S7_EEEEEvRT_T0_DpT1_=so_stub_for_libtelux_power
-Wl,--defsym=_ZN5telux6common3Log16constructMessageINSt7__cxx1119basic_ostringstreamIcSt11char_traitsIcESaIcEEEiJPKcNS3_12basic_stringIcS6_S7_EESA_PSt6vectorISt8functionIFvNS0_13ServiceStatusEEESaISH_EEEEEvRT_T0_DpT1_=so_stub_for_libtelux_power
-Wl,--defsym=_ZN5telux6common3Log16constructMessageINSt7__cxx1119basic_ostringstreamIcSt11char_traitsIcESaIcEEEmJPKcNS3_12basic_stringIcS6_S7_EEEEEvRT_T0_DpT1_=so_stub_for_libtelux_power
-Wl,--defsym=_ZN5telux6common3Log16constructMessageINSt7__cxx1119basic_ostringstreamIcSt11char_traitsIcESaIcEEENS3_12basic_stringIcS6_S7_EEJPKciSC_PSt6vectorISt8functionIFvNS0_13ServiceStatusEEESaISH_EEEEEvRT_T0_DpT1_=so_stub_for_libtelux_power
-Wl,--defsym=_ZN5telux6common3Log16constructMessageINSt7__cxx1119basic_ostringstreamIcSt11char_traitsIcESaIcEEENS3_12basic_stringIcS6_S7_EEJPKciSC_SA_EEEvRT_T0_DpT1_=so_stub_for_libtelux_power
-Wl,--defsym=_ZN5telux6common3Log16constructMessageINSt7__cxx1119basic_ostringstreamIcSt11char_traitsIcESaIcEEENS3_12basic_stringIcS6_S7_EEJPKcmSC_PNS_5power19ITcuActivityManagerESC_iEEEvRT_T0_DpT1_=so_stub_for_libtelux_power
-Wl,--defsym=_ZN5telux6common3Log16constructMessageINSt7__cxx1119basic_ostringstreamIcSt11char_traitsIcESaIcEEENS3_12basic_stringIcS6_S7_EEJPKcSA_EEEvRT_T0_DpT1_=so_stub_for_libtelux_power
-Wl,--defsym=_ZN5telux6common3Log16constructMessageINSt7__cxx1119basic_ostringstreamIcSt11char_traitsIcESaIcEEEPKcJiSA_NS3_12basic_stringIcS6_S7_EEEEEvRT_T0_DpT1_=so_stub_for_libtelux_power
-Wl,--defsym=_ZN5telux6common3Log16constructMessageINSt7__cxx1119basic_ostringstreamIcSt11char_traitsIcESaIcEEEPKcJiSA_NS3_12basic_stringIcS6_S7_EESA_PSt6vectorISt8functionIFvNS0_13ServiceStatusEEESaISH_EEEEEvRT_T0_DpT1_=so_stub_for_libtelux_power
-Wl,--defsym=_ZN5telux6common3Log16constructMessageINSt7__cxx1119basic_ostringstreamIcSt11char_traitsIcESaIcEEEPKcJmSA_NS3_12basic_stringIcS6_S7_EEEEEvRT_T0_DpT1_=so_stub_for_libtelux_power
-Wl,--defsym=_ZN5telux6common3Log16constructMessageINSt7__cxx1119basic_ostringstreamIcSt11char_traitsIcESaIcEEEPKcJNS3_12basic_stringIcS6_S7_EEEEEvRT_T0_DpT1_=so_stub_for_libtelux_power
-Wl,--defsym=_ZN5telux6common3Log16constructMessageINSt7__cxx1119basic_ostringstreamIcSt11char_traitsIcESaIcEEEPKcJNS3_12basic_stringIcS6_S7_EESA_iSA_PSt6vectorISt8functionIFvNS0_13ServiceStatusEEESaISH_EEEEEvRT_T0_DpT1_=so_stub_for_libtelux_power
-Wl,--defsym=_ZN5telux6common3Log16constructMessageINSt7__cxx1119basic_ostringstreamIcSt11char_traitsIcESaIcEEEPKcJNS3_12basic_stringIcS6_S7_EESA_iSA_SC_EEEvRT_T0_DpT1_=so_stub_for_libtelux_power
-Wl,--defsym=_ZN5telux6common3Log16constructMessageINSt7__cxx1119basic_ostringstreamIcSt11char_traitsIcESaIcEEEPKcJNS3_12basic_stringIcS6_S7_EESA_iSA_SC_SA_PSt6vectorISt8functionIFvNS0_13ServiceStatusEEESaISH_EEEEEvRT_T0_DpT1_=so_stub_for_libtelux_power
-Wl,--defsym=_ZN5telux6common3Log16constructMessageINSt7__cxx1119basic_ostringstreamIcSt11char_traitsIcESaIcEEEPKcJNS3_12basic_stringIcS6_S7_EESA_PNS_5power19ITcuActivityManagerEEEEvRT_T0_DpT1_=so_stub_for_libtelux_power
-Wl,--defsym=_ZN5telux6common3Log16constructMessageINSt7__cxx1119basic_ostringstreamIcSt11char_traitsIcESaIcEEEPKcJNS3_12basic_stringIcS6_S7_EESA_PSt6vectorISt8functionIFvNS0_13ServiceStatusEEESaISH_EEEEEvRT_T0_DpT1_=so_stub_for_libtelux_power
-Wl,--defsym=_ZN5telux6common3Log16constructMessageINSt7__cxx1119basic_ostringstreamIcSt11char_traitsIcESaIcEEEPKcJNS3_12basic_stringIcS6_S7_EESA_SA_EEEvRT_T0_DpT1_=so_stub_for_libtelux_power
-Wl,--defsym=_ZN5telux6common3Log16constructMessageINSt7__cxx1119basic_ostringstreamIcSt11char_traitsIcESaIcEEEPKcJNS3_12basic_stringIcS6_S7_EESA_SC_EEEvRT_T0_DpT1_=so_stub_for_libtelux_power
-Wl,--defsym=_ZN5telux6common3Log16constructMessageINSt7__cxx1119basic_ostringstreamIcSt11char_traitsIcESaIcEEEPKcJSA_mSA_mEEEvRT_T0_DpT1_=so_stub_for_libtelux_power
-Wl,--defsym=_ZN5telux6common3Log16constructMessageINSt7__cxx1119basic_ostringstreamIcSt11char_traitsIcESaIcEEEPKcJSA_mSA_NS3_12basic_stringIcS6_S7_EEEEEvRT_T0_DpT1_=so_stub_for_libtelux_power
-Wl,--defsym=_ZN5telux6common3Log16constructMessageINSt7__cxx1119basic_ostringstreamIcSt11char_traitsIcESaIcEEEPKcJSA_NS3_12basic_stringIcS6_S7_EEEEEvRT_T0_DpT1_=so_stub_for_libtelux_power
-Wl,--defsym=_ZN5telux6common3Log16constructMessageINSt7__cxx1119basic_ostringstreamIcSt11char_traitsIcESaIcEEEPKcJSA_NS3_12basic_stringIcS6_S7_EESA_iSA_PSt6vectorISt8functionIFvNS0_13ServiceStatusEEESaISH_EEEEEvRT_T0_DpT1_=so_stub_for_libtelux_power
-Wl,--defsym=_ZN5telux6common3Log16constructMessageINSt7__cxx1119basic_ostringstreamIcSt11char_traitsIcESaIcEEEPKcJSA_NS3_12basic_stringIcS6_S7_EESA_iSA_SC_EEEvRT_T0_DpT1_=so_stub_for_libtelux_power
-Wl,--defsym=_ZN5telux6common3Log16constructMessageINSt7__cxx1119basic_ostringstreamIcSt11char_traitsIcESaIcEEEPKcJSA_NS3_12basic_stringIcS6_S7_EESA_iSA_SC_SA_PSt6vectorISt8functionIFvNS0_13ServiceStatusEEESaISH_EEEEEvRT_T0_DpT1_=so_stub_for_libtelux_power
-Wl,--defsym=_ZN5telux6common3Log16constructMessageINSt7__cxx1119basic_ostringstreamIcSt11char_traitsIcESaIcEEEPKcJSA_NS3_12basic_stringIcS6_S7_EESA_PNS_5power19ITcuActivityManagerEEEEvRT_T0_DpT1_=so_stub_for_libtelux_power
-Wl,--defsym=_ZN5telux6common3Log16constructMessageINSt7__cxx1119basic_ostringstreamIcSt11char_traitsIcESaIcEEEPKcJSA_NS3_12basic_stringIcS6_S7_EESA_SA_EEEvRT_T0_DpT1_=so_stub_for_libtelux_power
-Wl,--defsym=_ZN5telux6common3Log16constructMessageINSt7__cxx1119basic_ostringstreamIcSt11char_traitsIcESaIcEEEPKcJSA_NS3_12basic_stringIcS6_S7_EESA_SC_EEEvRT_T0_DpT1_=so_stub_for_libtelux_power
-Wl,--defsym=_ZN5telux6common3Log16constructMessageINSt7__cxx1119basic_ostringstreamIcSt11char_traitsIcESaIcEEEPKcJSA_SA_NS3_12basic_stringIcS6_S7_EESA_iSA_SC_SA_PSt6vectorISt8functionIFvNS0_13ServiceStatusEEESaISH_EEEEEvRT_T0_DpT1_=so_stub_for_libtelux_power
-Wl,--defsym=_ZN5telux6common3Log16constructMessageINSt7__cxx1119basic_ostringstreamIcSt11char_traitsIcESaIcEEEPKcJSA_SA_SA_NS3_12basic_stringIcS6_S7_EESA_iSA_SC_SA_PSt6vectorISt8functionIFvNS0_13ServiceStatusEEESaISH_EEEEEvRT_T0_DpT1_=so_stub_for_libtelux_power
-Wl,--defsym=_ZN9__gnu_cxx5__ops10_Iter_predIZN5telux6common15ListenerManager16registerListenerESt8weak_ptrINS3_12ISDKListenerEEEUlS7_E_EclINS_17__normal_iteratorIPS7_St6vectorIS7_SaIS7_EEEEEEbT_=so_stub_for_libtelux_power
-Wl,--defsym=_ZNKSt10_HashtableINSt7__cxx1112basic_stringIcSt11char_traitsIcESaIcEEES5_SaIS5_ENSt8__detail9_IdentityESt8equal_toIS5_ESt4hashIS5_ENS7_18_Mod_range_hashingENS7_20_Default_ranged_hashENS7_20_Prime_rehash_policyENS7_17_Hashtable_traitsILb1ELb1ELb1EEEE19_M_find_before_nodeEmRKS5_m=so_stub_for_libtelux_power
-Wl,--defsym=_ZNKSt13__future_base13_State_baseV221_M_is_deferred_futureEv=so_stub_for_libtelux_power
-Wl,--defsym=_ZNKSt14__basic_futureIbE13_M_get_resultEv=so_stub_for_libtelux_power
-Wl,--defsym=_ZNKSt14__basic_futureIvE13_M_get_resultEv=so_stub_for_libtelux_power
-Wl,--defsym=_ZNSt10_HashtableIiSt4pairIKiSt10shared_ptrIN5telux6common16ICommandCallbackEEESaIS7_ENSt8__detail10_Select1stESt8equal_toIiESt4hashIiENS9_18_Mod_range_hashingENS9_20_Default_ranged_hashENS9_20_Prime_rehash_policyENS9_17_Hashtable_traitsILb0ELb0ELb1EEEE13_M_rehash_auxEmSt17integral_constantIbLb1EE=so_stub_for_libtelux_power
-Wl,--defsym=_ZNSt10_HashtableIiSt4pairIKiSt10shared_ptrIN5telux6common16ICommandCallbackEEESaIS7_ENSt8__detail10_Select1stESt8equal_toIiESt4hashIiENS9_18_Mod_range_hashingENS9_20_Default_ranged_hashENS9_20_Prime_rehash_policyENS9_17_Hashtable_traitsILb0ELb0ELb1EEEE21_M_insert_unique_nodeEmmPNS9_10_Hash_nodeIS7_Lb0EEEm=so_stub_for_libtelux_power
-Wl,--defsym=_ZNSt10_HashtableIiSt4pairIKiSt10shared_ptrIN5telux6common16ICommandCallbackEEESaIS7_ENSt8__detail10_Select1stESt8equal_toIiESt4hashIiENS9_18_Mod_range_hashingENS9_20_Default_ranged_hashENS9_20_Prime_rehash_policyENS9_17_Hashtable_traitsILb0ELb0ELb1EEEE9_M_rehashEmRKm=so_stub_for_libtelux_power
-Wl,--defsym=_ZNSt10_HashtableINSt7__cxx1112basic_stringIcSt11char_traitsIcESaIcEEES5_SaIS5_ENSt8__detail9_IdentityESt8equal_toIS5_ESt4hashIS5_ENS7_18_Mod_range_hashingENS7_20_Default_ranged_hashENS7_20_Prime_rehash_policyENS7_17_Hashtable_traitsILb1ELb1ELb1EEEE13_M_rehash_auxEmSt17integral_constantIbLb1EE=so_stub_for_libtelux_power
-Wl,--defsym=_ZNSt10_HashtableINSt7__cxx1112basic_stringIcSt11char_traitsIcESaIcEEES5_SaIS5_ENSt8__detail9_IdentityESt8equal_toIS5_ESt4hashIS5_ENS7_18_Mod_range_hashingENS7_20_Default_ranged_hashENS7_20_Prime_rehash_policyENS7_17_Hashtable_traitsILb1ELb1ELb1EEEE21_M_insert_unique_nodeEmmPNS7_10_Hash_nodeIS5_Lb1EEEm=so_stub_for_libtelux_power
-Wl,--defsym=_ZNSt10_HashtableINSt7__cxx1112basic_stringIcSt11char_traitsIcESaIcEEES5_SaIS5_ENSt8__detail9_IdentityESt8equal_toIS5_ESt4hashIS5_ENS7_18_Mod_range_hashingENS7_20_Default_ranged_hashENS7_20_Prime_rehash_policyENS7_17_Hashtable_traitsILb1ELb1ELb1EEEE4findERKS5_=so_stub_for_libtelux_power
-Wl,--defsym=_ZNSt10_HashtableINSt7__cxx1112basic_stringIcSt11char_traitsIcESaIcEEES5_SaIS5_ENSt8__detail9_IdentityESt8equal_toIS5_ESt4hashIS5_ENS7_18_Mod_range_hashingENS7_20_Default_ranged_hashENS7_20_Prime_rehash_policyENS7_17_Hashtable_traitsILb1ELb1ELb1EEEE5clearEv=so_stub_for_libtelux_power
-Wl,--defsym=_ZNSt10_HashtableINSt7__cxx1112basic_stringIcSt11char_traitsIcESaIcEEES5_SaIS5_ENSt8__detail9_IdentityESt8equal_toIS5_ESt4hashIS5_ENS7_18_Mod_range_hashingENS7_20_Default_ranged_hashENS7_20_Prime_rehash_policyENS7_17_Hashtable_traitsILb1ELb1ELb1EEEE8_M_eraseEmPNS7_15_Hash_node_baseEPNS7_10_Hash_nodeIS5_Lb1EEE=so_stub_for_libtelux_power
-Wl,--defsym=_ZNSt10_HashtableINSt7__cxx1112basic_stringIcSt11char_traitsIcESaIcEEES5_SaIS5_ENSt8__detail9_IdentityESt8equal_toIS5_ESt4hashIS5_ENS7_18_Mod_range_hashingENS7_20_Default_ranged_hashENS7_20_Prime_rehash_policyENS7_17_Hashtable_traitsILb1ELb1ELb1EEEE9_M_insertIS5_NS7_10_AllocNodeISaINS7_10_Hash_nodeIS5_Lb1EEEEEEEESt4pairINS7_14_Node_iteratorIS5_Lb1ELb1EEEbEOT_RKT0_St17integral_constantIbLb1EE=so_stub_for_libtelux_power
-Wl,--defsym=_ZNSt10_HashtableINSt7__cxx1112basic_stringIcSt11char_traitsIcESaIcEEES5_SaIS5_ENSt8__detail9_IdentityESt8equal_toIS5_ESt4hashIS5_ENS7_18_Mod_range_hashingENS7_20_Default_ranged_hashENS7_20_Prime_rehash_policyENS7_17_Hashtable_traitsILb1ELb1ELb1EEEE9_M_rehashEmRKm=so_stub_for_libtelux_power
-Wl,--defsym=_ZNSt10_HashtableINSt7__cxx1112basic_stringIcSt11char_traitsIcESaIcEEES5_SaIS5_ENSt8__detail9_IdentityESt8equal_toIS5_ESt4hashIS5_ENS7_18_Mod_range_hashingENS7_20_Default_ranged_hashENS7_20_Prime_rehash_policyENS7_17_Hashtable_traitsILb1ELb1ELb1EEEED1Ev=so_stub_for_libtelux_power
-Wl,--defsym=_ZNSt10_HashtableINSt7__cxx1112basic_stringIcSt11char_traitsIcESaIcEEES5_SaIS5_ENSt8__detail9_IdentityESt8equal_toIS5_ESt4hashIS5_ENS7_18_Mod_range_hashingENS7_20_Default_ranged_hashENS7_20_Prime_rehash_policyENS7_17_Hashtable_traitsILb1ELb1ELb1EEEED2Ev=so_stub_for_libtelux_power
-Wl,--defsym=_ZNSt10shared_ptrIN5telux6common15ListenerManagerEEC1ISaIS2_EJEEESt20_Sp_alloc_shared_tagIT_EDpOT0_=so_stub_for_libtelux_power
-Wl,--defsym=_ZNSt10shared_ptrIN5telux6common15ListenerManagerEEC2ISaIS2_EJEEESt20_Sp_alloc_shared_tagIT_EDpOT0_=so_stub_for_libtelux_power
-Wl,--defsym=_ZNSt10shared_ptrISt6threadEC1ISaIS0_EJMN5telux6common14AsyncTaskQueueIvEEFvvEPS7_EEESt20_Sp_alloc_shared_tagIT_EDpOT0_=so_stub_for_libtelux_power
-Wl,--defsym=_ZNSt10shared_ptrISt6threadEC2ISaIS0_EJMN5telux6common14AsyncTaskQueueIvEEFvvEPS7_EEESt20_Sp_alloc_shared_tagIT_EDpOT0_=so_stub_for_libtelux_power
-Wl,--defsym=_ZNSt10unique_ptrINSt13__future_base12_Result_baseENS1_8_DeleterEED1Ev=so_stub_for_libtelux_power
-Wl,--defsym=_ZNSt10unique_ptrINSt13__future_base12_Result_baseENS1_8_DeleterEED2Ev=so_stub_for_libtelux_power
-Wl,--defsym=_ZNSt10unique_ptrINSt13__future_base7_ResultIvEENS0_12_Result_base8_DeleterEED1Ev=so_stub_for_libtelux_power
-Wl,--defsym=_ZNSt10unique_ptrINSt13__future_base7_ResultIvEENS0_12_Result_base8_DeleterEED2Ev=so_stub_for_libtelux_power
-Wl,--defsym=_ZNSt10unique_ptrINSt6thread6_StateESt14default_deleteIS1_EED1Ev=so_stub_for_libtelux_power
-Wl,--defsym=_ZNSt10unique_ptrINSt6thread6_StateESt14default_deleteIS1_EED2Ev=so_stub_for_libtelux_power
-Wl,--defsym=_ZNSt10__weak_ptrIN5telux3qmi12IQmiListenerELN9__gnu_cxx12_Lock_policyE2EEC1INS0_5power17ModemStateUpdaterEvEERKSt12__shared_ptrIT_LS4_2EE=so_stub_for_libtelux_power
-Wl,--defsym=_ZNSt10__weak_ptrIN5telux3qmi12IQmiListenerELN9__gnu_cxx12_Lock_policyE2EEC2INS0_5power17ModemStateUpdaterEvEERKSt12__shared_ptrIT_LS4_2EE=so_stub_for_libtelux_power
-Wl,--defsym=_ZNSt10__weak_ptrIN5telux5power17ModemStateUpdaterELN9__gnu_cxx12_Lock_policyE2EE9_M_assignEPS2_RKSt14__shared_countILS4_2EE=so_stub_for_libtelux_power
-Wl,--defsym=_ZNSt10__weak_ptrIN5telux5power22TcuActivityManagerImplELN9__gnu_cxx12_Lock_policyE2EE9_M_assignEPS2_RKSt14__shared_countILS4_2EE=so_stub_for_libtelux_power
-Wl,--defsym=_ZNSt10__weak_ptrIN5telux6common12ISDKListenerELN9__gnu_cxx12_Lock_policyE2EEC1INS0_5power20ITcuActivityListenerEvEERKS_IT_LS4_2EE=so_stub_for_libtelux_power
-Wl,--defsym=_ZNSt10__weak_ptrIN5telux6common12ISDKListenerELN9__gnu_cxx12_Lock_policyE2EEC1INS1_22IServiceStatusListenerEvEERKS_IT_LS4_2EE=so_stub_for_libtelux_power
-Wl,--defsym=_ZNSt10__weak_ptrIN5telux6common12ISDKListenerELN9__gnu_cxx12_Lock_policyE2EEC2INS0_5power20ITcuActivityListenerEvEERKS_IT_LS4_2EE=so_stub_for_libtelux_power
-Wl,--defsym=_ZNSt10__weak_ptrIN5telux6common12ISDKListenerELN9__gnu_cxx12_Lock_policyE2EEC2INS1_22IServiceStatusListenerEvEERKS_IT_LS4_2EE=so_stub_for_libtelux_power
-Wl,--defsym=_ZNSt11_Deque_baseISt13shared_futureIvESaIS1_EE15_M_create_nodesEPPS1_S5_=so_stub_for_libtelux_power
-Wl,--defsym=_ZNSt11_Deque_baseISt13shared_futureIvESaIS1_EE16_M_destroy_nodesEPPS1_S5_=so_stub_for_libtelux_power
-Wl,--defsym=_ZNSt11_Deque_baseISt13shared_futureIvESaIS1_EE17_M_initialize_mapEm=so_stub_for_libtelux_power
-Wl,--defsym=_ZNSt11unique_lockISt5mutexE6unlockEv=so_stub_for_libtelux_power
-Wl,--defsym=_ZNSt12future_errorC1ESt10error_code=so_stub_for_libtelux_power
-Wl,--defsym=_ZNSt12future_errorC2ESt10error_code=so_stub_for_libtelux_power
-Wl,--defsym=_ZNSt12__shared_ptrIN5telux5power17ModemStateUpdaterELN9__gnu_cxx12_Lock_policyE2EEC1ISaIS2_EJEEESt20_Sp_alloc_shared_tagIT_EDpOT0_=so_stub_for_libtelux_power
-Wl,--defsym=_ZNSt12__shared_ptrIN5telux5power17ModemStateUpdaterELN9__gnu_cxx12_Lock_policyE2EEC2ISaIS2_EJEEESt20_Sp_alloc_shared_tagIT_EDpOT0_=so_stub_for_libtelux_power
-Wl,--defsym=_ZNSt12__shared_ptrIN5telux5power19ITcuActivityManagerELN9__gnu_cxx12_Lock_policyE2EEC1ERKSt10__weak_ptrIS2_LS4_2EESt9nothrow_t=so_stub_for_libtelux_power
-Wl,--defsym=_ZNSt12__shared_ptrIN5telux5power19ITcuActivityManagerELN9__gnu_cxx12_Lock_policyE2EEC2ERKSt10__weak_ptrIS2_LS4_2EESt9nothrow_t=so_stub_for_libtelux_power
-Wl,--defsym=_ZNSt12__weak_countILN9__gnu_cxx12_Lock_policyE2EEaSERKSt14__shared_countILS1_2EE=so_stub_for_libtelux_power
-Wl,--defsym=_ZNSt13__future_base13_State_baseV210wait_untilINSt6chrono3_V212system_clockENS2_8durationIlSt5ratioILl1ELl1000000000EEEEEESt13future_statusRKNS2_10time_pointIT_T0_EE=so_stub_for_libtelux_power
-Wl,--defsym=_ZNSt13__future_base13_State_baseV213_M_set_resultESt8functionIFSt10unique_ptrINS_12_Result_baseENS3_8_DeleterEEvEEb=so_stub_for_libtelux_power
-Wl,--defsym=_ZNSt13__future_base13_State_baseV216_M_break_promiseESt10unique_ptrINS_12_Result_baseENS2_8_DeleterEE=so_stub_for_libtelux_power
-Wl,--defsym=_ZNSt13__future_base13_State_baseV217_M_complete_asyncEv=so_stub_for_libtelux_power
-Wl,--defsym=_ZNSt13__future_base13_State_baseV24waitEv=so_stub_for_libtelux_power
-Wl,--defsym=_ZNSt13__future_base13_State_baseV29_M_do_setEPSt8functionIFSt10unique_ptrINS_12_Result_baseENS3_8_DeleterEEvEEPb=so_stub_for_libtelux_power
-Wl,--defsym=_ZNSt13__future_base13_State_baseV2D0Ev=so_stub_for_libtelux_power
-Wl,--defsym=_ZNSt13__future_base13_State_baseV2D1Ev=so_stub_for_libtelux_power
-Wl,--defsym=_ZNSt13__future_base13_State_baseV2D2Ev=so_stub_for_libtelux_power
-Wl,--defsym=_ZNSt13__future_base21_Async_state_commonV217_M_complete_asyncEv=so_stub_for_libtelux_power
-Wl,--defsym=_ZNSt13__future_base21_Async_state_commonV2D0Ev=so_stub_for_libtelux_power
-Wl,--defsym=_ZNSt13__future_base21_Async_state_commonV2D1Ev=so_stub_for_libtelux_power
-Wl,--defsym=_ZNSt13__future_base21_Async_state_commonV2D2Ev=so_stub_for_libtelux_power
-Wl,--defsym=_ZNSt13__future_base7_ResultIbE10_M_destroyEv=so_stub_for_libtelux_power
-Wl,--defsym=_ZNSt13__future_base7_ResultIbED0Ev=so_stub_for_libtelux_power
-Wl,--defsym=_ZNSt13__future_base7_ResultIbED1Ev=so_stub_for_libtelux_power
-Wl,--defsym=_ZNSt13__future_base7_ResultIbED2Ev=so_stub_for_libtelux_power
-Wl,--defsym=_ZNSt13__future_base7_ResultIvE10_M_destroyEv=so_stub_for_libtelux_power
-Wl,--defsym=_ZNSt13__future_base7_ResultIvED0Ev=so_stub_for_libtelux_power
-Wl,--defsym=_ZNSt13__future_base7_ResultIvED1Ev=so_stub_for_libtelux_power
-Wl,--defsym=_ZNSt13__future_base7_ResultIvED2Ev=so_stub_for_libtelux_power
-Wl,--defsym=_ZNSt14__basic_futureIbEC1ERKSt10shared_ptrINSt13__future_base13_State_baseV2EE=so_stub_for_libtelux_power
-Wl,--defsym=_ZNSt14__basic_futureIbEC2ERKSt10shared_ptrINSt13__future_base13_State_baseV2EE=so_stub_for_libtelux_power
-Wl,--defsym=_ZNSt14__basic_futureIvEC1ERKSt10shared_ptrINSt13__future_base13_State_baseV2EE=so_stub_for_libtelux_power
-Wl,--defsym=_ZNSt14__basic_futureIvEC2ERKSt10shared_ptrINSt13__future_base13_State_baseV2EE=so_stub_for_libtelux_power
-Wl,--defsym=_ZNSt14_Function_base13_Base_managerIZN5telux6common13FactoryHelper10getManagerINS1_5power19ITcuActivityManagerEEESt10shared_ptrIT_ENSt7__cxx1112basic_stringIcSt11char_traitsIcESaIcEEERSt8weak_ptrIS8_ERSt6vectorISt8functionIFvNS2_13ServiceStatusEEESaISN_EESN_SK_IFS9_SN_EEEUlSL_E0_E10_M_managerERSt9_Any_dataRKSV_St18_Manager_operation=so_stub_for_libtelux_power
-Wl,--defsym=_ZNSt14_Function_baseD1Ev=so_stub_for_libtelux_power
-Wl,--defsym=_ZNSt14_Function_baseD2Ev=so_stub_for_libtelux_power
-Wl,--defsym=_ZNSt14__shared_countILN9__gnu_cxx12_Lock_policyE2EEC1ERKSt12__weak_countILS1_2EE=so_stub_for_libtelux_power
-Wl,--defsym=_ZNSt14__shared_countILN9__gnu_cxx12_Lock_policyE2EEC1ERKSt12__weak_countILS1_2EESt9nothrow_t=so_stub_for_libtelux_power
-Wl,--defsym=_ZNSt14__shared_countILN9__gnu_cxx12_Lock_policyE2EEC1IN5telux5power22TcuActivityManagerImplESaIS6_EJRNS5_20ClientInstanceConfigEEEERPT_St20_Sp_alloc_shared_tagIT0_EDpOT1_=so_stub_for_libtelux_power
-Wl,--defsym=_ZNSt14__shared_countILN9__gnu_cxx12_Lock_policyE2EEC1IN5telux6common18FunctionalCallbackIJNS5_9ErrorCodeEEEESaIS8_EJRSt8functionIFvS7_EEEEERPT_St20_Sp_alloc_shared_tagIT0_EDpOT1_=so_stub_for_libtelux_power
-Wl,--defsym=_ZNSt14__shared_countILN9__gnu_cxx12_Lock_policyE2EEC2ERKSt12__weak_countILS1_2EE=so_stub_for_libtelux_power
-Wl,--defsym=_ZNSt14__shared_countILN9__gnu_cxx12_Lock_policyE2EEC2ERKSt12__weak_countILS1_2EESt9nothrow_t=so_stub_for_libtelux_power
-Wl,--defsym=_ZNSt14__shared_countILN9__gnu_cxx12_Lock_policyE2EEC2IN5telux5power22TcuActivityManagerImplESaIS6_EJRNS5_20ClientInstanceConfigEEEERPT_St20_Sp_alloc_shared_tagIT0_EDpOT1_=so_stub_for_libtelux_power
-Wl,--defsym=_ZNSt14__shared_countILN9__gnu_cxx12_Lock_policyE2EEC2IN5telux6common18FunctionalCallbackIJNS5_9ErrorCodeEEEESaIS8_EJRSt8functionIFvS7_EEEEERPT_St20_Sp_alloc_shared_tagIT0_EDpOT1_=so_stub_for_libtelux_power
-Wl,--defsym=_ZNSt15_Deque_iteratorISt13shared_futureIvERKS1_PS2_EpLEl=so_stub_for_libtelux_power
-Wl,--defsym=_ZNSt15_Deque_iteratorISt13shared_futureIvERS1_PS1_EpLEl=so_stub_for_libtelux_power
-Wl,--defsym=_ZNSt15__exception_ptr12__dest_thunkISt12future_errorEEvPv=so_stub_for_libtelux_power
-Wl,--defsym=_ZNSt15__exception_ptr13exception_ptraSEOS0_=so_stub_for_libtelux_power
-Wl,--defsym=_ZNSt16_Sp_counted_baseILN9__gnu_cxx12_Lock_policyE2EE10_M_releaseEv=so_stub_for_libtelux_power
-Wl,--defsym=_ZNSt16_Sp_counted_baseILN9__gnu_cxx12_Lock_policyE2EE15_M_weak_releaseEv=so_stub_for_libtelux_power
-Wl,--defsym=_ZNSt17_Function_handlerIFvN5telux6common13ServiceStatusEEZNS1_13FactoryHelper10getManagerINS0_5power19ITcuActivityManagerEEESt10shared_ptrIT_ENSt7__cxx1112basic_stringIcSt11char_traitsIcESaIcEEERSt8weak_ptrIS9_ERSt6vectorISt8functionIS3_ESaISM_EESM_SL_IFSA_SM_EEEUlS2_E0_E10_M_managerERSt9_Any_dataRKSU_St18_Manager_operation=so_stub_for_libtelux_power
-Wl,--defsym=_ZNSt17_Function_handlerIFvN5telux6common13ServiceStatusEEZNS1_13FactoryHelper10getManagerINS0_5power19ITcuActivityManagerEEESt10shared_ptrIT_ENSt7__cxx1112basic_stringIcSt11char_traitsIcESaIcEEERSt8weak_ptrIS9_ERSt6vectorISt8functionIS3_ESaISM_EESM_SL_IFSA_SM_EEEUlS2_E0_E9_M_invokeERKSt9_Any_dataOS2_=so_stub_for_libtelux_power
-Wl,--defsym=_ZNSt18condition_variable4waitIZN5telux6common14AsyncTaskQueueIvE11executeTaskEvEUlvE_EEvRSt11unique_lockISt5mutexET_=so_stub_for_libtelux_power
-Wl,--defsym=_ZNSt20__uninitialized_copyILb0EE13__uninit_copyIN9__gnu_cxx17__normal_iteratorIPKSt4pairINSt7__cxx1112basic_stringIcSt11char_traitsIcESaIcEEESA_ESt6vectorISB_SaISB_EEEEPSB_EET0_T_SK_SJ_=so_stub_for_libtelux_power
-Wl,--defsym=_ZNSt20__uninitialized_copyILb0EE13__uninit_copyIN9__gnu_cxx17__normal_iteratorIPKSt8functionIFvN5telux6common13ServiceStatusEEESt6vectorIS9_SaIS9_EEEEPS9_EET0_T_SI_SH_=so_stub_for_libtelux_power
-Wl,--defsym=_ZNSt20__uninitialized_copyILb0EE13__uninit_copyIPSt8functionIFvN5telux6common13ServiceStatusEEES8_EET0_T_SA_S9_=so_stub_for_libtelux_power
-Wl,--defsym=_ZNSt20__uninitialized_copyILb0EE13__uninit_copyISt15_Deque_iteratorISt13shared_futureIvERKS4_PS5_ES2_IS4_RS4_PS4_EEET0_T_SD_SC_=so_stub_for_libtelux_power
-Wl,--defsym=_ZNSt23_Sp_counted_ptr_inplaceIN5telux5power17ModemStateUpdaterESaIS2_ELN9__gnu_cxx12_Lock_policyE2EE10_M_destroyEv=so_stub_for_libtelux_power
-Wl,--defsym=_ZNSt23_Sp_counted_ptr_inplaceIN5telux5power17ModemStateUpdaterESaIS2_ELN9__gnu_cxx12_Lock_policyE2EE10_M_disposeEv=so_stub_for_libtelux_power
-Wl,--defsym=_ZNSt23_Sp_counted_ptr_inplaceIN5telux5power17ModemStateUpdaterESaIS2_ELN9__gnu_cxx12_Lock_policyE2EE14_M_get_deleterERKSt9type_info=so_stub_for_libtelux_power
-Wl,--defsym=_ZNSt23_Sp_counted_ptr_inplaceIN5telux5power17ModemStateUpdaterESaIS2_ELN9__gnu_cxx12_Lock_policyE2EED0Ev=so_stub_for_libtelux_power
-Wl,--defsym=_ZNSt23_Sp_counted_ptr_inplaceIN5telux5power17ModemStateUpdaterESaIS2_ELN9__gnu_cxx12_Lock_policyE2EED1Ev=so_stub_for_libtelux_power
-Wl,--defsym=_ZNSt23_Sp_counted_ptr_inplaceIN5telux5power17ModemStateUpdaterESaIS2_ELN9__gnu_cxx12_Lock_policyE2EED2Ev=so_stub_for_libtelux_power
-Wl,--defsym=_ZNSt23_Sp_counted_ptr_inplaceIN5telux5power22TcuActivityManagerImplESaIS2_ELN9__gnu_cxx12_Lock_policyE2EE10_M_destroyEv=so_stub_for_libtelux_power
-Wl,--defsym=_ZNSt23_Sp_counted_ptr_inplaceIN5telux5power22TcuActivityManagerImplESaIS2_ELN9__gnu_cxx12_Lock_policyE2EE10_M_disposeEv=so_stub_for_libtelux_power
-Wl,--defsym=_ZNSt23_Sp_counted_ptr_inplaceIN5telux5power22TcuActivityManagerImplESaIS2_ELN9__gnu_cxx12_Lock_policyE2EE14_M_get_deleterERKSt9type_info=so_stub_for_libtelux_power
-Wl,--defsym=_ZNSt23_Sp_counted_ptr_inplaceIN5telux5power22TcuActivityManagerImplESaIS2_ELN9__gnu_cxx12_Lock_policyE2EED0Ev=so_stub_for_libtelux_power
-Wl,--defsym=_ZNSt23_Sp_counted_ptr_inplaceIN5telux5power22TcuActivityManagerImplESaIS2_ELN9__gnu_cxx12_Lock_policyE2EED1Ev=so_stub_for_libtelux_power
-Wl,--defsym=_ZNSt23_Sp_counted_ptr_inplaceIN5telux5power22TcuActivityManagerImplESaIS2_ELN9__gnu_cxx12_Lock_policyE2EED2Ev=so_stub_for_libtelux_power
-Wl,--defsym=_ZNSt23_Sp_counted_ptr_inplaceIN5telux6common15ListenerManagerESaIS2_ELN9__gnu_cxx12_Lock_policyE2EE10_M_destroyEv=so_stub_for_libtelux_power
-Wl,--defsym=_ZNSt23_Sp_counted_ptr_inplaceIN5telux6common15ListenerManagerESaIS2_ELN9__gnu_cxx12_Lock_policyE2EE10_M_disposeEv=so_stub_for_libtelux_power
-Wl,--defsym=_ZNSt23_Sp_counted_ptr_inplaceIN5telux6common15ListenerManagerESaIS2_ELN9__gnu_cxx12_Lock_policyE2EE14_M_get_deleterERKSt9type_info=so_stub_for_libtelux_power
-Wl,--defsym=_ZNSt23_Sp_counted_ptr_inplaceIN5telux6common15ListenerManagerESaIS2_ELN9__gnu_cxx12_Lock_policyE2EED0Ev=so_stub_for_libtelux_power
-Wl,--defsym=_ZNSt23_Sp_counted_ptr_inplaceIN5telux6common15ListenerManagerESaIS2_ELN9__gnu_cxx12_Lock_policyE2EED1Ev=so_stub_for_libtelux_power
-Wl,--defsym=_ZNSt23_Sp_counted_ptr_inplaceIN5telux6common15ListenerManagerESaIS2_ELN9__gnu_cxx12_Lock_policyE2EED2Ev=so_stub_for_libtelux_power
-Wl,--defsym=_ZNSt23_Sp_counted_ptr_inplaceIN5telux6common18FunctionalCallbackIJNS1_9ErrorCodeEEEESaIS4_ELN9__gnu_cxx12_Lock_policyE2EE10_M_destroyEv=so_stub_for_libtelux_power
-Wl,--defsym=_ZNSt23_Sp_counted_ptr_inplaceIN5telux6common18FunctionalCallbackIJNS1_9ErrorCodeEEEESaIS4_ELN9__gnu_cxx12_Lock_policyE2EE10_M_disposeEv=so_stub_for_libtelux_power
-Wl,--defsym=_ZNSt23_Sp_counted_ptr_inplaceIN5telux6common18FunctionalCallbackIJNS1_9ErrorCodeEEEESaIS4_ELN9__gnu_cxx12_Lock_policyE2EE14_M_get_deleterERKSt9type_info=so_stub_for_libtelux_power
-Wl,--defsym=_ZNSt23_Sp_counted_ptr_inplaceIN5telux6common18FunctionalCallbackIJNS1_9ErrorCodeEEEESaIS4_ELN9__gnu_cxx12_Lock_policyE2EED0Ev=so_stub_for_libtelux_power
-Wl,--defsym=_ZNSt23_Sp_counted_ptr_inplaceIN5telux6common18FunctionalCallbackIJNS1_9ErrorCodeEEEESaIS4_ELN9__gnu_cxx12_Lock_policyE2EED1Ev=so_stub_for_libtelux_power
-Wl,--defsym=_ZNSt23_Sp_counted_ptr_inplaceIN5telux6common18FunctionalCallbackIJNS1_9ErrorCodeEEEESaIS4_ELN9__gnu_cxx12_Lock_policyE2EED2Ev=so_stub_for_libtelux_power
-Wl,--defsym=_ZNSt23_Sp_counted_ptr_inplaceISt6threadSaIS0_ELN9__gnu_cxx12_Lock_policyE2EE10_M_destroyEv=so_stub_for_libtelux_power
-Wl,--defsym=_ZNSt23_Sp_counted_ptr_inplaceISt6threadSaIS0_ELN9__gnu_cxx12_Lock_policyE2EE10_M_disposeEv=so_stub_for_libtelux_power
-Wl,--defsym=_ZNSt23_Sp_counted_ptr_inplaceISt6threadSaIS0_ELN9__gnu_cxx12_Lock_policyE2EE14_M_get_deleterERKSt9type_info=so_stub_for_libtelux_power
-Wl,--defsym=_ZNSt23_Sp_counted_ptr_inplaceISt6threadSaIS0_ELN9__gnu_cxx12_Lock_policyE2EED0Ev=so_stub_for_libtelux_power
-Wl,--defsym=_ZNSt23_Sp_counted_ptr_inplaceISt6threadSaIS0_ELN9__gnu_cxx12_Lock_policyE2EED1Ev=so_stub_for_libtelux_power
-Wl,--defsym=_ZNSt23_Sp_counted_ptr_inplaceISt6threadSaIS0_ELN9__gnu_cxx12_Lock_policyE2EED2Ev=so_stub_for_libtelux_power
-Wl,--defsym=_ZNSt3mapIN5telux5power20ClientInstanceConfigESt6vectorISt8functionIFvNS0_6common13ServiceStatusEEESaIS8_EESt4lessIS2_ESaISt4pairIKS2_SA_EEEixERSE_=so_stub_for_libtelux_power
-Wl,--defsym=_ZNSt3mapIN5telux5power20ClientInstanceConfigESt8weak_ptrINS1_19ITcuActivityManagerEESt4lessIS2_ESaISt4pairIKS2_S5_EEEixERS9_=so_stub_for_libtelux_power
-Wl,--defsym=_ZNSt4pairIKN5telux5power20ClientInstanceConfigESt8weak_ptrINS1_19ITcuActivityManagerEEED1Ev=so_stub_for_libtelux_power
-Wl,--defsym=_ZNSt4pairIKN5telux5power20ClientInstanceConfigESt8weak_ptrINS1_19ITcuActivityManagerEEED2Ev=so_stub_for_libtelux_power
-Wl,--defsym=_ZNSt4pairINSt7__cxx1112basic_stringIcSt11char_traitsIcESaIcEEES5_EC1IRA64_cRS5_Lb1EEEOT_OT0_=so_stub_for_libtelux_power
-Wl,--defsym=_ZNSt4pairINSt7__cxx1112basic_stringIcSt11char_traitsIcESaIcEEES5_EC2IRA64_cRS5_Lb1EEEOT_OT0_=so_stub_for_libtelux_power
-Wl,--defsym=_ZNSt4pairINSt7__cxx1112basic_stringIcSt11char_traitsIcESaIcEEES5_ED1Ev=so_stub_for_libtelux_power
-Wl,--defsym=_ZNSt4pairINSt7__cxx1112basic_stringIcSt11char_traitsIcESaIcEEES5_ED2Ev=so_stub_for_libtelux_power
-Wl,--defsym=_ZNSt5dequeISt13shared_futureIvESaIS1_EE13_M_insert_auxISt15_Deque_iteratorIS1_RKS1_PS6_EEEvS5_IS1_RS1_PS1_ET_SD_m=so_stub_for_libtelux_power
-Wl,--defsym=_ZNSt5dequeISt13shared_futureIvESaIS1_EE15_M_erase_at_endESt15_Deque_iteratorIS1_RS1_PS1_E=so_stub_for_libtelux_power
-Wl,--defsym=_ZNSt5dequeISt13shared_futureIvESaIS1_EE16_M_pop_front_auxEv=so_stub_for_libtelux_power
-Wl,--defsym=_ZNSt5dequeISt13shared_futureIvESaIS1_EE16_M_push_back_auxIJRKS1_EEEvDpOT_=so_stub_for_libtelux_power
-Wl,--defsym=_ZNSt5dequeISt13shared_futureIvESaIS1_EE17_M_reallocate_mapEmb=so_stub_for_libtelux_power
-Wl,--defsym=_ZNSt5dequeISt13shared_futureIvESaIS1_EE19_M_destroy_data_auxESt15_Deque_iteratorIS1_RS1_PS1_ES7_=so_stub_for_libtelux_power
-Wl,--defsym=_ZNSt5dequeISt13shared_futureIvESaIS1_EE19_M_range_insert_auxISt15_Deque_iteratorIS1_RKS1_PS6_EEEvS5_IS1_RS1_PS1_ET_SD_St20forward_iterator_tag=so_stub_for_libtelux_power
-Wl,--defsym=_ZNSt5dequeISt13shared_futureIvESaIS1_EE23_M_new_elements_at_backEm=so_stub_for_libtelux_power
-Wl,--defsym=_ZNSt5dequeISt13shared_futureIvESaIS1_EE24_M_new_elements_at_frontEm=so_stub_for_libtelux_power
-Wl,--defsym=_ZNSt5dequeISt13shared_futureIvESaIS1_EE8_M_eraseESt15_Deque_iteratorIS1_RS1_PS1_E=so_stub_for_libtelux_power
-Wl,--defsym=_ZNSt5dequeISt13shared_futureIvESaIS1_EE9push_backERKS1_=so_stub_for_libtelux_power
-Wl,--defsym=_ZNSt5dequeISt13shared_futureIvESaIS1_EEaSERKS3_=so_stub_for_libtelux_power
-Wl,--defsym=_ZNSt5dequeISt13shared_futureIvESaIS1_EED1Ev=so_stub_for_libtelux_power
-Wl,--defsym=_ZNSt5dequeISt13shared_futureIvESaIS1_EED2Ev=so_stub_for_libtelux_power
-Wl,--defsym=_ZNSt6thread11_State_implINS_8_InvokerISt5tupleIJMN5telux6common14AsyncTaskQueueIvEEFvvEPS6_EEEEE6_M_runEv=so_stub_for_libtelux_power
-Wl,--defsym=_ZNSt6thread11_State_implINS_8_InvokerISt5tupleIJMN5telux6common14AsyncTaskQueueIvEEFvvEPS6_EEEEED0Ev=so_stub_for_libtelux_power
-Wl,--defsym=_ZNSt6thread11_State_implINS_8_InvokerISt5tupleIJMN5telux6common14AsyncTaskQueueIvEEFvvEPS6_EEEEED1Ev=so_stub_for_libtelux_power
-Wl,--defsym=_ZNSt6thread11_State_implINS_8_InvokerISt5tupleIJMN5telux6common14AsyncTaskQueueIvEEFvvEPS6_EEEEED2Ev=so_stub_for_libtelux_power
-Wl,--defsym=_ZNSt6thread11_State_implINS_8_InvokerISt5tupleIJZN5telux6common13FactoryHelper10getManagerINS3_5power19ITcuActivityManagerEEESt10shared_ptrIT_ENSt7__cxx1112basic_stringIcSt11char_traitsIcESaIcEEERSt8weak_ptrISA_ERSt6vectorISt8functionIFvNS4_13ServiceStatusEEESaISP_EESP_SM_IFSB_SP_EEEUlvE_EEEEE6_M_runEv=so_stub_for_libtelux_power
-Wl,--defsym=_ZNSt6thread11_State_implINS_8_InvokerISt5tupleIJZN5telux6common13FactoryHelper10getManagerINS3_5power19ITcuActivityManagerEEESt10shared_ptrIT_ENSt7__cxx1112basic_stringIcSt11char_traitsIcESaIcEEERSt8weak_ptrISA_ERSt6vectorISt8functionIFvNS4_13ServiceStatusEEESaISP_EESP_SM_IFSB_SP_EEEUlvE_EEEEED0Ev=so_stub_for_libtelux_power
-Wl,--defsym=_ZNSt6thread11_State_implINS_8_InvokerISt5tupleIJZN5telux6common13FactoryHelper10getManagerINS3_5power19ITcuActivityManagerEEESt10shared_ptrIT_ENSt7__cxx1112basic_stringIcSt11char_traitsIcESaIcEEERSt8weak_ptrISA_ERSt6vectorISt8functionIFvNS4_13ServiceStatusEEESaISP_EESP_SM_IFSB_SP_EEEUlvE_EEEEED1Ev=so_stub_for_libtelux_power
-Wl,--defsym=_ZNSt6thread11_State_implINS_8_InvokerISt5tupleIJZN5telux6common13FactoryHelper10getManagerINS3_5power19ITcuActivityManagerEEESt10shared_ptrIT_ENSt7__cxx1112basic_stringIcSt11char_traitsIcESaIcEEERSt8weak_ptrISA_ERSt6vectorISt8functionIFvNS4_13ServiceStatusEEESaISP_EESP_SM_IFSB_SP_EEEUlvE_EEEEED2Ev=so_stub_for_libtelux_power
-Wl,--defsym=_ZNSt6threadC1IMN5telux6common14AsyncTaskQueueIvEEFvvEJPS4_EvEEOT_DpOT0_=so_stub_for_libtelux_power
-Wl,--defsym=_ZNSt6threadC1IZN5telux6common13FactoryHelper10getManagerINS1_5power19ITcuActivityManagerEEESt10shared_ptrIT_ENSt7__cxx1112basic_stringIcSt11char_traitsIcESaIcEEERSt8weak_ptrIS8_ERSt6vectorISt8functionIFvNS2_13ServiceStatusEEESaISN_EESN_SK_IFS9_SN_EEEUlvE_JEvEEOS8_DpOT0_=so_stub_for_libtelux_power
-Wl,--defsym=_ZNSt6threadC2IMN5telux6common14AsyncTaskQueueIvEEFvvEJPS4_EvEEOT_DpOT0_=so_stub_for_libtelux_power
-Wl,--defsym=_ZNSt6threadC2IZN5telux6common13FactoryHelper10getManagerINS1_5power19ITcuActivityManagerEEESt10shared_ptrIT_ENSt7__cxx1112basic_stringIcSt11char_traitsIcESaIcEEERSt8weak_ptrIS8_ERSt6vectorISt8functionIFvNS2_13ServiceStatusEEESaISN_EESN_SK_IFS9_SN_EEEUlvE_JEvEEOS8_DpOT0_=so_stub_for_libtelux_power
-Wl,--defsym=_ZNSt6vectorINSt7__cxx1112basic_stringIcSt11char_traitsIcESaIcEEESaIS5_EE17_M_realloc_insertIJS5_EEEvN9__gnu_cxx17__normal_iteratorIPS5_S7_EEDpOT_=so_stub_for_libtelux_power
-Wl,--defsym=_ZNSt6vectorINSt7__cxx1112basic_stringIcSt11char_traitsIcESaIcEEESaIS5_EED1Ev=so_stub_for_libtelux_power
-Wl,--defsym=_ZNSt6vectorINSt7__cxx1112basic_stringIcSt11char_traitsIcESaIcEEESaIS5_EED2Ev=so_stub_for_libtelux_power
-Wl,--defsym=_ZNSt6vectorISt4pairINSt7__cxx1112basic_stringIcSt11char_traitsIcESaIcEEES6_ESaIS7_EE12emplace_backIJS7_EEEvDpOT_=so_stub_for_libtelux_power
-Wl,--defsym=_ZNSt6vectorISt4pairINSt7__cxx1112basic_stringIcSt11char_traitsIcESaIcEEES6_ESaIS7_EE17_M_realloc_insertIJS7_EEEvN9__gnu_cxx17__normal_iteratorIPS7_S9_EEDpOT_=so_stub_for_libtelux_power
-Wl,--defsym=_ZNSt6vectorISt4pairINSt7__cxx1112basic_stringIcSt11char_traitsIcESaIcEEES6_ESaIS7_EEC1ERKS9_=so_stub_for_libtelux_power
-Wl,--defsym=_ZNSt6vectorISt4pairINSt7__cxx1112basic_stringIcSt11char_traitsIcESaIcEEES6_ESaIS7_EEC2ERKS9_=so_stub_for_libtelux_power
-Wl,--defsym=_ZNSt6vectorISt4pairINSt7__cxx1112basic_stringIcSt11char_traitsIcESaIcEEES6_ESaIS7_EED1Ev=so_stub_for_libtelux_power
-Wl,--defsym=_ZNSt6vectorISt4pairINSt7__cxx1112basic_stringIcSt11char_traitsIcESaIcEEES6_ESaIS7_EED2Ev=so_stub_for_libtelux_power
-Wl,--defsym=_ZNSt6vectorISt8functionIFvN5telux6common13ServiceStatusEEESaIS5_EE15_M_erase_at_endEPS5_=so_stub_for_libtelux_power
-Wl,--defsym=_ZNSt6vectorISt8functionIFvN5telux6common13ServiceStatusEEESaIS5_EE17_M_realloc_insertIJRKS5_EEEvN9__gnu_cxx17__normal_iteratorIPS5_S7_EEDpOT_=so_stub_for_libtelux_power
-Wl,--defsym=_ZNSt6vectorISt8functionIFvN5telux6common13ServiceStatusEEESaIS5_EE20_M_allocate_and_copyIN9__gnu_cxx17__normal_iteratorIPKS5_S7_EEEEPS5_mT_SF_=so_stub_for_libtelux_power
-Wl,--defsym=_ZNSt6vectorISt8functionIFvN5telux6common13ServiceStatusEEESaIS5_EEaSERKS7_=so_stub_for_libtelux_power
-Wl,--defsym=_ZNSt6vectorISt8functionIFvN5telux6common13ServiceStatusEEESaIS5_EED1Ev=so_stub_for_libtelux_power
-Wl,--defsym=_ZNSt6vectorISt8functionIFvN5telux6common13ServiceStatusEEESaIS5_EED2Ev=so_stub_for_libtelux_power
-Wl,--defsym=_ZNSt6vectorISt8weak_ptrIN5telux6common12ISDKListenerEESaIS4_EE12emplace_backIJRS4_EEEvDpOT_=so_stub_for_libtelux_power
-Wl,--defsym=_ZNSt6vectorISt8weak_ptrIN5telux6common12ISDKListenerEESaIS4_EE12emplace_backIJRSt10shared_ptrIS3_EEEEvDpOT_=so_stub_for_libtelux_power
-Wl,--defsym=_ZNSt6vectorISt8weak_ptrIN5telux6common12ISDKListenerEESaIS4_EE17_M_realloc_insertIJRS4_EEEvN9__gnu_cxx17__normal_iteratorIPS4_S6_EEDpOT_=so_stub_for_libtelux_power
-Wl,--defsym=_ZNSt6vectorISt8weak_ptrIN5telux6common12ISDKListenerEESaIS4_EE17_M_realloc_insertIJRSt10shared_ptrIS3_EEEEvN9__gnu_cxx17__normal_iteratorIPS4_S6_EEDpOT_=so_stub_for_libtelux_power
-Wl,--defsym=_ZNSt6vectorISt8weak_ptrIN5telux6common12ISDKListenerEESaIS4_EE8_M_eraseEN9__gnu_cxx17__normal_iteratorIPS4_S6_EE=so_stub_for_libtelux_power
-Wl,--defsym=_ZNSt6vectorISt8weak_ptrIN5telux6common12ISDKListenerEESaIS4_EED1Ev=so_stub_for_libtelux_power
-Wl,--defsym=_ZNSt6vectorISt8weak_ptrIN5telux6common12ISDKListenerEESaIS4_EED2Ev=so_stub_for_libtelux_power
-Wl,--defsym=_ZNSt7__cxx1112basic_stringIcSt11char_traitsIcESaIcEE12_M_constructIPcEEvT_S7_St20forward_iterator_tag=so_stub_for_libtelux_power
-Wl,--defsym=_ZNSt7__cxx1112basic_stringIcSt11char_traitsIcESaIcEE12_M_constructIPKcEEvT_S8_St20forward_iterator_tag=so_stub_for_libtelux_power
-Wl,--defsym=_ZNSt7__cxx1115basic_stringbufIcSt11char_traitsIcESaIcEED0Ev=so_stub_for_libtelux_power
-Wl,--defsym=_ZNSt7__cxx1115basic_stringbufIcSt11char_traitsIcESaIcEED1Ev=so_stub_for_libtelux_power
-Wl,--defsym=_ZNSt7__cxx1115basic_stringbufIcSt11char_traitsIcESaIcEED2Ev=so_stub_for_libtelux_power
-Wl,--defsym=_ZNSt8__detail16_Hashtable_allocISaINS_10_Hash_nodeINSt7__cxx1112basic_stringIcSt11char_traitsIcESaIcEEELb1EEEEE18_M_deallocate_nodeEPS8_=so_stub_for_libtelux_power
-Wl,--defsym=_ZNSt8__detail9_Map_baseIiSt4pairIKiSt10shared_ptrIN5telux6common16ICommandCallbackEEESaIS8_ENS_10_Select1stESt8equal_toIiESt4hashIiENS_18_Mod_range_hashingENS_20_Default_ranged_hashENS_20_Prime_rehash_policyENS_17_Hashtable_traitsILb0ELb0ELb1EEELb1EEixERS2_=so_stub_for_libtelux_power
-Wl,--defsym=_ZNSt8functionIFvN5telux6common13ServiceStatusEEEaSERKS4_=so_stub_for_libtelux_power
-Wl,--defsym=_ZNSt8functionIFvN5telux6common13ServiceStatusEEEC1IRZNS1_13FactoryHelper10getManagerINS0_5power19ITcuActivityManagerEEESt10shared_ptrIT_ENSt7__cxx1112basic_stringIcSt11char_traitsIcESaIcEEERSt8weak_ptrISB_ERSt6vectorIS4_SaIS4_EES4_S_IFSC_S4_EEEUlS2_E0_vEEOSB_=so_stub_for_libtelux_power
-Wl,--defsym=_ZNSt8functionIFvN5telux6common13ServiceStatusEEEC2IRZNS1_13FactoryHelper10getManagerINS0_5power19ITcuActivityManagerEEESt10shared_ptrIT_ENSt7__cxx1112basic_stringIcSt11char_traitsIcESaIcEEERSt8weak_ptrISB_ERSt6vectorIS4_SaIS4_EES4_S_IFSC_S4_EEEUlS2_E0_vEEOSB_=so_stub_for_libtelux_power
-Wl,--defsym=_ZNSt8_Rb_treeIjSt4pairIKjSt3setISt8weak_ptrIN5telux6common12ISDKListenerEENS5_15ListenerManager12SetPredicateESaIS7_EEESt10_Select1stISC_ESt4lessIjESaISC_EE8_M_eraseEPSt13_Rb_tree_nodeISC_E=so_stub_for_libtelux_power
-Wl,--defsym=_ZNSt8_Rb_treeIN5telux5power20ClientInstanceConfigESt4pairIKS2_St6vectorISt8functionIFvNS0_6common13ServiceStatusEEESaISA_EEESt10_Select1stISD_ESt4lessIS2_ESaISD_EE12_M_drop_nodeEPSt13_Rb_tree_nodeISD_E=so_stub_for_libtelux_power
-Wl,--defsym=_ZNSt8_Rb_treeIN5telux5power20ClientInstanceConfigESt4pairIKS2_St6vectorISt8functionIFvNS0_6common13ServiceStatusEEESaISA_EEESt10_Select1stISD_ESt4lessIS2_ESaISD_EE22_M_emplace_hint_uniqueIJRKSt21piecewise_construct_tSt5tupleIJRS4_EESO_IJEEEEESt17_Rb_tree_iteratorISD_ESt23_Rb_tree_const_iteratorISD_EDpOT_=so_stub_for_libtelux_power
-Wl,--defsym=_ZNSt8_Rb_treeIN5telux5power20ClientInstanceConfigESt4pairIKS2_St6vectorISt8functionIFvNS0_6common13ServiceStatusEEESaISA_EEESt10_Select1stISD_ESt4lessIS2_ESaISD_EE24_M_get_insert_unique_posERS4_=so_stub_for_libtelux_power
-Wl,--defsym=_ZNSt8_Rb_treeIN5telux5power20ClientInstanceConfigESt4pairIKS2_St6vectorISt8functionIFvNS0_6common13ServiceStatusEEESaISA_EEESt10_Select1stISD_ESt4lessIS2_ESaISD_EE29_M_get_insert_hint_unique_posESt23_Rb_tree_const_iteratorISD_ERS4_=so_stub_for_libtelux_power
-Wl,--defsym=_ZNSt8_Rb_treeIN5telux5power20ClientInstanceConfigESt4pairIKS2_St6vectorISt8functionIFvNS0_6common13ServiceStatusEEESaISA_EEESt10_Select1stISD_ESt4lessIS2_ESaISD_EE8_M_eraseEPSt13_Rb_tree_nodeISD_E=so_stub_for_libtelux_power
-Wl,--defsym=_ZNSt8_Rb_treeIN5telux5power20ClientInstanceConfigESt4pairIKS2_St8weak_ptrINS1_19ITcuActivityManagerEEESt10_Select1stIS8_ESt4lessIS2_ESaIS8_EE22_M_emplace_hint_uniqueIJRKSt21piecewise_construct_tSt5tupleIJRS4_EESJ_IJEEEEESt17_Rb_tree_iteratorIS8_ESt23_Rb_tree_const_iteratorIS8_EDpOT_=so_stub_for_libtelux_power
-Wl,--defsym=_ZNSt8_Rb_treeIN5telux5power20ClientInstanceConfigESt4pairIKS2_St8weak_ptrINS1_19ITcuActivityManagerEEESt10_Select1stIS8_ESt4lessIS2_ESaIS8_EE24_M_get_insert_unique_posERS4_=so_stub_for_libtelux_power
-Wl,--defsym=_ZNSt8_Rb_treeIN5telux5power20ClientInstanceConfigESt4pairIKS2_St8weak_ptrINS1_19ITcuActivityManagerEEESt10_Select1stIS8_ESt4lessIS2_ESaIS8_EE29_M_get_insert_hint_unique_posESt23_Rb_tree_const_iteratorIS8_ERS4_=so_stub_for_libtelux_power
-Wl,--defsym=_ZNSt8_Rb_treeIN5telux5power20ClientInstanceConfigESt4pairIKS2_St8weak_ptrINS1_19ITcuActivityManagerEEESt10_Select1stIS8_ESt4lessIS2_ESaIS8_EE8_M_eraseEPSt13_Rb_tree_nodeIS8_E=so_stub_for_libtelux_power
-Wl,--defsym=_ZNSt8_Rb_treeISt8weak_ptrIN5telux6common12ISDKListenerEES4_St9_IdentityIS4_ENS2_15ListenerManager12SetPredicateESaIS4_EE8_M_eraseEPSt13_Rb_tree_nodeIS4_E=so_stub_for_libtelux_power
-Wl,--defsym=_ZSt13__copy_move_aILb0EN9__gnu_cxx17__normal_iteratorIPKSt8functionIFvN5telux6common13ServiceStatusEEESt6vectorIS7_SaIS7_EEEENS1_IPS7_SC_EEET1_T0_SH_SG_=so_stub_for_libtelux_power
-Wl,--defsym=_ZSt13__copy_move_aILb1EN9__gnu_cxx17__normal_iteratorIPSt8weak_ptrIN5telux6common12ISDKListenerEESt6vectorIS6_SaIS6_EEEESB_ET1_T0_SD_SC_=so_stub_for_libtelux_power
-Wl,--defsym=_ZSt13move_backwardISt15_Deque_iteratorISt13shared_futureIvERS2_PS2_ES5_ET0_T_S7_S6_=so_stub_for_libtelux_power
-Wl,--defsym=_ZSt14__copy_move_a1ILb0EPSt13shared_futureIvES1_EN9__gnu_cxx11__enable_ifIXsrSt23__is_random_access_iterIT0_NSt15iterator_traitsIS6_E17iterator_categoryEE7__valueESt15_Deque_iteratorIT1_RSC_PSC_EE6__typeES6_S6_SF_=so_stub_for_libtelux_power
-Wl,--defsym=_ZSt14__copy_move_a1ILb0ESt13shared_futureIvERKS1_PS2_S1_ESt15_Deque_iteratorIT3_RS6_PS6_ES5_IT0_T1_T2_ESD_S9_=so_stub_for_libtelux_power
-Wl,--defsym=_ZSt14__copy_move_a1ILb1EPSt13shared_futureIvES1_EN9__gnu_cxx11__enable_ifIXsrSt23__is_random_access_iterIT0_NSt15iterator_traitsIS6_E17iterator_categoryEE7__valueESt15_Deque_iteratorIT1_RSC_PSC_EE6__typeES6_S6_SF_=so_stub_for_libtelux_power
-Wl,--defsym=_ZSt14__copy_move_a1ILb1ESt13shared_futureIvERS1_PS1_S1_ESt15_Deque_iteratorIT3_RS5_PS5_ES4_IT0_T1_T2_ESC_S8_=so_stub_for_libtelux_power
-Wl,--defsym=_ZSt14__relocate_a_1IPSt4pairINSt7__cxx1112basic_stringIcSt11char_traitsIcESaIcEEES6_ES8_SaIS7_EET0_T_SB_SA_RT1_=so_stub_for_libtelux_power
-Wl,--defsym=_ZSt18make_exception_ptrISt12future_errorENSt15__exception_ptr13exception_ptrET_=so_stub_for_libtelux_power
-Wl,--defsym=_ZSt18uninitialized_copyISt13move_iteratorISt15_Deque_iteratorISt13shared_futureIvERS3_PS3_EES6_ET0_T_S9_S8_=so_stub_for_libtelux_power
-Wl,--defsym=_ZSt22__uninitialized_copy_aISt15_Deque_iteratorISt13shared_futureIvERKS2_PS3_ES0_IS2_RS2_PS2_ES2_ET0_T_SB_SA_RSaIT1_E=so_stub_for_libtelux_power
-Wl,--defsym=_ZSt22__uninitialized_move_aISt15_Deque_iteratorISt13shared_futureIvERS2_PS2_ES5_SaIS2_EET0_T_S8_S7_RT1_=so_stub_for_libtelux_power
-Wl,--defsym=_ZSt23__copy_move_backward_a1ILb1EPSt13shared_futureIvES1_EN9__gnu_cxx11__enable_ifIXsrSt23__is_random_access_iterIT0_NSt15iterator_traitsIS6_E17iterator_categoryEE7__valueESt15_Deque_iteratorIT1_RSC_PSC_EE6__typeES6_S6_SF_=so_stub_for_libtelux_power
-Wl,--defsym=_ZSt23__copy_move_backward_a1ILb1ESt13shared_futureIvERS1_PS1_S1_ESt15_Deque_iteratorIT3_RS5_PS5_ES4_IT0_T1_T2_ESC_S8_=so_stub_for_libtelux_power
-Wl,--defsym=_ZSt4copyISt15_Deque_iteratorISt13shared_futureIvERKS2_PS3_ES0_IS2_RS2_PS2_EET0_T_SB_SA_=so_stub_for_libtelux_power
-Wl,--defsym=_ZSt4moveISt15_Deque_iteratorISt13shared_futureIvERS2_PS2_ES5_ET0_T_S7_S6_=so_stub_for_libtelux_power
-Wl,--defsym=_ZSt7find_ifIN9__gnu_cxx17__normal_iteratorIPSt8weak_ptrIN5telux6common12ISDKListenerEESt6vectorIS6_SaIS6_EEEEZNS4_15ListenerManager16registerListenerES6_EUlS6_E_ET_SE_SE_T0_=so_stub_for_libtelux_power
-Wl,--defsym=_ZSt9__advanceISt15_Deque_iteratorISt13shared_futureIvERKS2_PS3_ElEvRT_T0_St26random_access_iterator_tag=so_stub_for_libtelux_power
-Wl,--defsym=_ZSt9__find_ifIN9__gnu_cxx17__normal_iteratorIPSt8weak_ptrIN5telux6common12ISDKListenerEESt6vectorIS6_SaIS6_EEEENS0_5__ops10_Iter_predIZNS4_15ListenerManager16registerListenerES6_EUlS6_E_EEET_SH_SH_T0_St26random_access_iterator_tag=so_stub_for_libtelux_power
-Wl,--defsym=_ZSteqRKSt10error_codeRKSt15error_condition=so_stub_for_libtelux_power
-Wl,--defsym=_ZStplIcSt11char_traitsIcESaIcEENSt7__cxx1112basic_stringIT_T0_T1_EEOS8_S9_=so_stub_for_libtelux_power
-Wl,--defsym=_ZThn16_N5telux5power22TcuActivityManagerImpl21onTcuStateAckResponseEiPv=so_stub_for_libtelux_power
-Wl,--defsym=_ZThn16_N5telux5power22TcuActivityManagerImplD0Ev=so_stub_for_libtelux_power
-Wl,--defsym=_ZThn16_N5telux5power22TcuActivityManagerImplD1Ev=so_stub_for_libtelux_power
-Wl,--defsym=_ZThn24_N5telux5power22TcuActivityManagerImpl25onTcuStateCommandResponseEiPv=so_stub_for_libtelux_power
-Wl,--defsym=_ZThn24_N5telux5power22TcuActivityManagerImplD0Ev=so_stub_for_libtelux_power
-Wl,--defsym=_ZThn24_N5telux5power22TcuActivityManagerImplD1Ev=so_stub_for_libtelux_power
-Wl,--defsym=_ZThn8_N5telux5power22TcuActivityManagerImpl15onMachineUpdateE33pwr_mgr_machine_event_ind_msg_v01=so_stub_for_libtelux_power
-Wl,--defsym=_ZThn8_N5telux5power22TcuActivityManagerImpl16onTcuStateUpdateEP40pwr_mgr_broadcast_indication_msg_ext_v01=so_stub_for_libtelux_power
-Wl,--defsym=_ZThn8_N5telux5power22TcuActivityManagerImpl22onSlaveAckStatusUpdateE28pwr_mgr_state_change_ext_v01=so_stub_for_libtelux_power
-Wl,--defsym=_ZThn8_N5telux5power22TcuActivityManagerImpl32onTcuActivityServiceStatusChangeENS_6common13ServiceStatusE=so_stub_for_libtelux_power
-Wl,--defsym=_ZThn8_N5telux5power22TcuActivityManagerImplD0Ev=so_stub_for_libtelux_power
-Wl,--defsym=_ZThn8_N5telux5power22TcuActivityManagerImplD1Ev=so_stub_for_libtelux_power
-Wl,--defsym=_ZTIN5telux3qmi12IQmiListenerE=so_stub_for_libtelux_power
-Wl,--defsym=_ZTIN5telux3qmi15IQmiDmsListenerE=so_stub_for_libtelux_power
-Wl,--defsym=_ZTIN5telux3qmi23IQmiTcuActivityListenerE=so_stub_for_libtelux_power
-Wl,--defsym=_ZTIN5telux3qmi23IQmiTcuStateAckCallbackE=so_stub_for_libtelux_power
-Wl,--defsym=_ZTIN5telux3qmi27IQmiTcuStateCommandCallbackE=so_stub_for_libtelux_power
-Wl,--defsym=_ZTIN5telux5power12PowerFactoryE=so_stub_for_libtelux_power
-Wl,--defsym=_ZTIN5telux5power16PowerFactoryImplE=so_stub_for_libtelux_power
-Wl,--defsym=_ZTIN5telux5power17ModemStateUpdaterE=so_stub_for_libtelux_power
-Wl,--defsym=_ZTIN5telux5power19ITcuActivityManagerE=so_stub_for_libtelux_power
-Wl,--defsym=_ZTIN5telux5power20ITcuActivityListenerE=so_stub_for_libtelux_power
-Wl,--defsym=_ZTIN5telux5power22TcuActivityManagerImplE=so_stub_for_libtelux_power
-Wl,--defsym=_ZTIN5telux5power25TcuActivityManagerWrapperE=so_stub_for_libtelux_power
-Wl,--defsym=_ZTIN5telux6common12ISDKListenerE=so_stub_for_libtelux_power
-Wl,--defsym=_ZTIN5telux6common13FactoryHelperE=so_stub_for_libtelux_power
-Wl,--defsym=_ZTIN5telux6common16ICommandCallbackE=so_stub_for_libtelux_power
-Wl,--defsym=_ZTIN5telux6common18FunctionalCallbackIJNS0_9ErrorCodeEEEE=so_stub_for_libtelux_power
-Wl,--defsym=_ZTIN5telux6common22IServiceStatusListenerE=so_stub_for_libtelux_power
-Wl,--defsym=_ZTINSt13__future_base13_State_baseV2E=so_stub_for_libtelux_power
-Wl,--defsym=_ZTINSt13__future_base21_Async_state_commonV2E=so_stub_for_libtelux_power
-Wl,--defsym=_ZTINSt13__future_base7_ResultIbEE=so_stub_for_libtelux_power
-Wl,--defsym=_ZTINSt13__future_base7_ResultIvEE=so_stub_for_libtelux_power
-Wl,--defsym=_ZTINSt6thread11_State_implINS_8_InvokerISt5tupleIJMN5telux6common14AsyncTaskQueueIvEEFvvEPS6_EEEEEE=so_stub_for_libtelux_power
-Wl,--defsym=_ZTINSt6thread11_State_implINS_8_InvokerISt5tupleIJZN5telux6common13FactoryHelper10getManagerINS3_5power19ITcuActivityManagerEEESt10shared_ptrIT_ENSt7__cxx1112basic_stringIcSt11char_traitsIcESaIcEEERSt8weak_ptrISA_ERSt6vectorISt8functionIFvNS4_13ServiceStatusEEESaISP_EESP_SM_IFSB_SP_EEEUlvE_EEEEEE=so_stub_for_libtelux_power
-Wl,--defsym=_ZTISt11_Mutex_baseILN9__gnu_cxx12_Lock_policyE2EE=so_stub_for_libtelux_power
-Wl,--defsym=_ZTISt16_Sp_counted_baseILN9__gnu_cxx12_Lock_policyE2EE=so_stub_for_libtelux_power
-Wl,--defsym=_ZTISt23enable_shared_from_thisIN5telux5power17ModemStateUpdaterEE=so_stub_for_libtelux_power
-Wl,--defsym=_ZTISt23enable_shared_from_thisIN5telux5power22TcuActivityManagerImplEE=so_stub_for_libtelux_power
-Wl,--defsym=_ZTISt23_Sp_counted_ptr_inplaceIN5telux5power17ModemStateUpdaterESaIS2_ELN9__gnu_cxx12_Lock_policyE2EE=so_stub_for_libtelux_power
-Wl,--defsym=_ZTISt23_Sp_counted_ptr_inplaceIN5telux5power22TcuActivityManagerImplESaIS2_ELN9__gnu_cxx12_Lock_policyE2EE=so_stub_for_libtelux_power
-Wl,--defsym=_ZTISt23_Sp_counted_ptr_inplaceIN5telux6common15ListenerManagerESaIS2_ELN9__gnu_cxx12_Lock_policyE2EE=so_stub_for_libtelux_power
-Wl,--defsym=_ZTISt23_Sp_counted_ptr_inplaceIN5telux6common18FunctionalCallbackIJNS1_9ErrorCodeEEEESaIS4_ELN9__gnu_cxx12_Lock_policyE2EE=so_stub_for_libtelux_power
-Wl,--defsym=_ZTISt23_Sp_counted_ptr_inplaceISt6threadSaIS0_ELN9__gnu_cxx12_Lock_policyE2EE=so_stub_for_libtelux_power
-Wl,--defsym=_ZTIZN5telux6common13FactoryHelper10getManagerINS_5power19ITcuActivityManagerEEESt10shared_ptrIT_ENSt7__cxx1112basic_stringIcSt11char_traitsIcESaIcEEERSt8weak_ptrIS6_ERSt6vectorISt8functionIFvNS0_13ServiceStatusEEESaISL_EESL_SI_IFS7_SL_EEEUlSJ_E0_=so_stub_for_libtelux_power
-Wl,--defsym=_ZTSN5telux3qmi12IQmiListenerE=so_stub_for_libtelux_power
-Wl,--defsym=_ZTSN5telux3qmi15IQmiDmsListenerE=so_stub_for_libtelux_power
-Wl,--defsym=_ZTSN5telux3qmi23IQmiTcuActivityListenerE=so_stub_for_libtelux_power
-Wl,--defsym=_ZTSN5telux3qmi23IQmiTcuStateAckCallbackE=so_stub_for_libtelux_power
-Wl,--defsym=_ZTSN5telux3qmi27IQmiTcuStateCommandCallbackE=so_stub_for_libtelux_power
-Wl,--defsym=_ZTSN5telux5power12PowerFactoryE=so_stub_for_libtelux_power
-Wl,--defsym=_ZTSN5telux5power16PowerFactoryImplE=so_stub_for_libtelux_power
-Wl,--defsym=_ZTSN5telux5power17ModemStateUpdaterE=so_stub_for_libtelux_power
-Wl,--defsym=_ZTSN5telux5power19ITcuActivityManagerE=so_stub_for_libtelux_power
-Wl,--defsym=_ZTSN5telux5power20ITcuActivityListenerE=so_stub_for_libtelux_power
-Wl,--defsym=_ZTSN5telux5power22TcuActivityManagerImplE=so_stub_for_libtelux_power
-Wl,--defsym=_ZTSN5telux5power25TcuActivityManagerWrapperE=so_stub_for_libtelux_power
-Wl,--defsym=_ZTSN5telux6common12ISDKListenerE=so_stub_for_libtelux_power
-Wl,--defsym=_ZTSN5telux6common13FactoryHelperE=so_stub_for_libtelux_power
-Wl,--defsym=_ZTSN5telux6common16ICommandCallbackE=so_stub_for_libtelux_power
-Wl,--defsym=_ZTSN5telux6common18FunctionalCallbackIJNS0_9ErrorCodeEEEE=so_stub_for_libtelux_power
-Wl,--defsym=_ZTSN5telux6common22IServiceStatusListenerE=so_stub_for_libtelux_power
-Wl,--defsym=_ZTSNSt13__future_base13_State_baseV2E=so_stub_for_libtelux_power
-Wl,--defsym=_ZTSNSt13__future_base21_Async_state_commonV2E=so_stub_for_libtelux_power
-Wl,--defsym=_ZTSNSt13__future_base7_ResultIbEE=so_stub_for_libtelux_power
-Wl,--defsym=_ZTSNSt13__future_base7_ResultIvEE=so_stub_for_libtelux_power
-Wl,--defsym=_ZTSNSt6thread11_State_implINS_8_InvokerISt5tupleIJMN5telux6common14AsyncTaskQueueIvEEFvvEPS6_EEEEEE=so_stub_for_libtelux_power
-Wl,--defsym=_ZTSNSt6thread11_State_implINS_8_InvokerISt5tupleIJZN5telux6common13FactoryHelper10getManagerINS3_5power19ITcuActivityManagerEEESt10shared_ptrIT_ENSt7__cxx1112basic_stringIcSt11char_traitsIcESaIcEEERSt8weak_ptrISA_ERSt6vectorISt8functionIFvNS4_13ServiceStatusEEESaISP_EESP_SM_IFSB_SP_EEEUlvE_EEEEEE=so_stub_for_libtelux_power
-Wl,--defsym=_ZTSSt11_Mutex_baseILN9__gnu_cxx12_Lock_policyE2EE=so_stub_for_libtelux_power
-Wl,--defsym=_ZTSSt16_Sp_counted_baseILN9__gnu_cxx12_Lock_policyE2EE=so_stub_for_libtelux_power
-Wl,--defsym=_ZTSSt19_Sp_make_shared_tag=so_stub_for_libtelux_power
-Wl,--defsym=_ZTSSt23enable_shared_from_thisIN5telux5power17ModemStateUpdaterEE=so_stub_for_libtelux_power
-Wl,--defsym=_ZTSSt23enable_shared_from_thisIN5telux5power22TcuActivityManagerImplEE=so_stub_for_libtelux_power
-Wl,--defsym=_ZTSSt23_Sp_counted_ptr_inplaceIN5telux5power17ModemStateUpdaterESaIS2_ELN9__gnu_cxx12_Lock_policyE2EE=so_stub_for_libtelux_power
-Wl,--defsym=_ZTSSt23_Sp_counted_ptr_inplaceIN5telux5power22TcuActivityManagerImplESaIS2_ELN9__gnu_cxx12_Lock_policyE2EE=so_stub_for_libtelux_power
-Wl,--defsym=_ZTSSt23_Sp_counted_ptr_inplaceIN5telux6common15ListenerManagerESaIS2_ELN9__gnu_cxx12_Lock_policyE2EE=so_stub_for_libtelux_power
-Wl,--defsym=_ZTSSt23_Sp_counted_ptr_inplaceIN5telux6common18FunctionalCallbackIJNS1_9ErrorCodeEEEESaIS4_ELN9__gnu_cxx12_Lock_policyE2EE=so_stub_for_libtelux_power
-Wl,--defsym=_ZTSSt23_Sp_counted_ptr_inplaceISt6threadSaIS0_ELN9__gnu_cxx12_Lock_policyE2EE=so_stub_for_libtelux_power
-Wl,--defsym=_ZTSZN5telux6common13FactoryHelper10getManagerINS_5power19ITcuActivityManagerEEESt10shared_ptrIT_ENSt7__cxx1112basic_stringIcSt11char_traitsIcESaIcEEERSt8weak_ptrIS6_ERSt6vectorISt8functionIFvNS0_13ServiceStatusEEESaISL_EESL_SI_IFS7_SL_EEEUlSJ_E0_=so_stub_for_libtelux_power
-Wl,--defsym=_ZTTN5telux5power17ModemStateUpdaterE=so_stub_for_libtelux_power
-Wl,--defsym=_ZTTN5telux5power22TcuActivityManagerImplE=so_stub_for_libtelux_power
-Wl,--defsym=_ZTv0_n24_N5telux5power17ModemStateUpdaterD0Ev=so_stub_for_libtelux_power
-Wl,--defsym=_ZTv0_n24_N5telux5power17ModemStateUpdaterD1Ev=so_stub_for_libtelux_power
-Wl,--defsym=_ZTv0_n24_N5telux5power22TcuActivityManagerImplD0Ev=so_stub_for_libtelux_power
-Wl,--defsym=_ZTv0_n24_N5telux5power22TcuActivityManagerImplD1Ev=so_stub_for_libtelux_power
-Wl,--defsym=_ZTVN5telux3qmi23IQmiTcuStateAckCallbackE=so_stub_for_libtelux_power
-Wl,--defsym=_ZTVN5telux3qmi27IQmiTcuStateCommandCallbackE=so_stub_for_libtelux_power
-Wl,--defsym=_ZTVN5telux5power12PowerFactoryE=so_stub_for_libtelux_power
-Wl,--defsym=_ZTVN5telux5power16PowerFactoryImplE=so_stub_for_libtelux_power
-Wl,--defsym=_ZTVN5telux5power17ModemStateUpdaterE=so_stub_for_libtelux_power
-Wl,--defsym=_ZTVN5telux5power19ITcuActivityManagerE=so_stub_for_libtelux_power
-Wl,--defsym=_ZTVN5telux5power22TcuActivityManagerImplE=so_stub_for_libtelux_power
-Wl,--defsym=_ZTVN5telux5power25TcuActivityManagerWrapperE=so_stub_for_libtelux_power
-Wl,--defsym=_ZTVN5telux6common18FunctionalCallbackIJNS0_9ErrorCodeEEEE=so_stub_for_libtelux_power
-Wl,--defsym=_ZTVNSt13__future_base13_State_baseV2E=so_stub_for_libtelux_power
-Wl,--defsym=_ZTVNSt13__future_base21_Async_state_commonV2E=so_stub_for_libtelux_power
-Wl,--defsym=_ZTVNSt13__future_base7_ResultIbEE=so_stub_for_libtelux_power
-Wl,--defsym=_ZTVNSt13__future_base7_ResultIvEE=so_stub_for_libtelux_power
-Wl,--defsym=_ZTVNSt6thread11_State_implINS_8_InvokerISt5tupleIJMN5telux6common14AsyncTaskQueueIvEEFvvEPS6_EEEEEE=so_stub_for_libtelux_power
-Wl,--defsym=_ZTVNSt6thread11_State_implINS_8_InvokerISt5tupleIJZN5telux6common13FactoryHelper10getManagerINS3_5power19ITcuActivityManagerEEESt10shared_ptrIT_ENSt7__cxx1112basic_stringIcSt11char_traitsIcESaIcEEERSt8weak_ptrISA_ERSt6vectorISt8functionIFvNS4_13ServiceStatusEEESaISP_EESP_SM_IFSB_SP_EEEUlvE_EEEEEE=so_stub_for_libtelux_power
-Wl,--defsym=_ZTVSt23_Sp_counted_ptr_inplaceIN5telux5power17ModemStateUpdaterESaIS2_ELN9__gnu_cxx12_Lock_policyE2EE=so_stub_for_libtelux_power
-Wl,--defsym=_ZTVSt23_Sp_counted_ptr_inplaceIN5telux5power22TcuActivityManagerImplESaIS2_ELN9__gnu_cxx12_Lock_policyE2EE=so_stub_for_libtelux_power
-Wl,--defsym=_ZTVSt23_Sp_counted_ptr_inplaceIN5telux6common15ListenerManagerESaIS2_ELN9__gnu_cxx12_Lock_policyE2EE=so_stub_for_libtelux_power
-Wl,--defsym=_ZTVSt23_Sp_counted_ptr_inplaceIN5telux6common18FunctionalCallbackIJNS1_9ErrorCodeEEEESaIS4_ELN9__gnu_cxx12_Lock_policyE2EE=so_stub_for_libtelux_power
-Wl,--defsym=_ZTVSt23_Sp_counted_ptr_inplaceISt6threadSaIS0_ELN9__gnu_cxx12_Lock_policyE2EE=so_stub_for_libtelux_power
-Wl,--defsym=_ZZN5telux6common13FactoryHelper10getManagerINS_5power19ITcuActivityManagerEEESt10shared_ptrIT_ENSt7__cxx1112basic_stringIcSt11char_traitsIcESaIcEEERSt8weak_ptrIS6_ERSt6vectorISt8functionIFvNS0_13ServiceStatusEEESaISL_EESL_SI_IFS7_SL_EEENKUlSJ_E0_clESJ_=so_stub_for_libtelux_power
-Wl,--defsym=_ZZNSt19_Sp_make_shared_tag5_S_tiEvE5__tag=so_stub_for_libtelux_power
-Wl,--defsym=_ZZNSt8__detail18__to_chars_10_implIjEEvPcjT_E8__digits=so_stub_for_libtelux_power
-Wl,--defsym=_ZZNSt9once_flag18_Prepare_executionC4IZSt9call_onceIMNSt13__future_base13_State_baseV2EFvPSt8functionIFSt10unique_ptrINS3_12_Result_baseENS7_8_DeleterEEvEEPbEJPS4_SC_SD_EEvRS_OT_DpOT0_EUlvE_EERSI_ENUlvE_4_FUNEv=so_stub_for_libtelux_power
-Wl,--defsym=_ZZNSt9once_flag18_Prepare_executionC4IZSt9call_onceIMSt6threadFvvEJPS3_EEvRS_OT_DpOT0_EUlvE_EERS8_ENUlvE_4_FUNEv=so_stub_for_libtelux_power
